
main.elf:     file format elf32-littlearm


Disassembly of section .text:

00000000 <_START-0x8000>:
       0:	ea001ffe 	b	8000 <_START>
       4:	ea002008 	b	802c <_UNDEF>
       8:	ea002009 	b	8034 <_SVCALL>
       c:	ea002009 	b	8038 <_PREFABORT>
      10:	ea00200a 	b	8040 <_DATAABORT>
      14:	ea002001 	b	8020 <_HANG>
      18:	ea00201c 	b	8090 <INTR_IRQ>
      1c:	ea001fff 	b	8020 <_HANG>
	...

00008000 <_START>:
    8000:	e3a0d902 	mov	sp, #32768	; 0x8000
    8004:	ee110f50 	mrc	15, 0, r0, cr1, cr0, {2}
    8008:	e3800603 	orr	r0, r0, #3145728	; 0x300000
    800c:	e3800503 	orr	r0, r0, #12582912	; 0xc00000
    8010:	ee010f50 	mcr	15, 0, r0, cr1, cr0, {2}
    8014:	e3a00101 	mov	r0, #1073741824	; 0x40000000
    8018:	eee80a10 	vmsr	fpexc, r0
    801c:	eb000907 	bl	a440 <notmain>

00008020 <_HANG>:
    8020:	e3a00000 	mov	r0, #0
    8024:	eb0002fe 	bl	8c24 <handle_hang>
    8028:	eafffffc 	b	8020 <_HANG>

0000802c <_UNDEF>:
    802c:	eb000309 	bl	8c58 <handle_undef>
    8030:	eafffffd 	b	802c <_UNDEF>

00008034 <_SVCALL>:
    8034:	e12fff1e 	bx	lr

00008038 <_PREFABORT>:
    8038:	eb00030a 	bl	8c68 <handle_prefa>
    803c:	eafffffd 	b	8038 <_PREFABORT>

00008040 <_DATAABORT>:
    8040:	eb00030c 	bl	8c78 <handle_dataa>
    8044:	eafffffd 	b	8040 <_DATAABORT>

00008048 <ENABLE_IRQ>:
    8048:	e10f0000 	mrs	r0, CPSR
    804c:	e3c00080 	bic	r0, r0, #128	; 0x80
    8050:	e121f000 	msr	CPSR_c, r0
    8054:	e12fff1e 	bx	lr

00008058 <DISABLE_IRQ>:
    8058:	e10f0000 	mrs	r0, CPSR
    805c:	e3800080 	orr	r0, r0, #128	; 0x80
    8060:	e121f000 	msr	CPSR_c, r0
    8064:	e12fff1e 	bx	lr

00008068 <PUT32>:
    8068:	e5801000 	str	r1, [r0]
    806c:	e12fff1e 	bx	lr

00008070 <GET32>:
    8070:	e5900000 	ldr	r0, [r0]
    8074:	e12fff1e 	bx	lr

00008078 <SLEEP>:
    8078:	e2500001 	subs	r0, r0, #1
    807c:	1afffffd 	bne	8078 <SLEEP>
    8080:	e12fff1e 	bx	lr

00008084 <FTOI>:
    8084:	eebd0ac0 	vcvt.s32.f32	s0, s0
    8088:	ee100a10 	vmov	r0, s0
    808c:	e12fff1e 	bx	lr

00008090 <INTR_IRQ>:
    8090:	e3a0d901 	mov	sp, #16384	; 0x4000
    8094:	e58de004 	str	lr, [sp, #4]
    8098:	eb0002db 	bl	8c0c <intr_handler>
    809c:	e59de004 	ldr	lr, [sp, #4]
    80a0:	e25ef004 	subs	pc, lr, #4

000080a4 <FLUSH_CACHE>:
    80a4:	e3a00000 	mov	r0, #0
    80a8:	ee070f16 	mcr	15, 0, r0, cr7, cr6, {0}
    80ac:	ee070f1a 	mcr	15, 0, r0, cr7, cr10, {0}
    80b0:	ee070f1e 	mcr	15, 0, r0, cr7, cr14, {0}
    80b4:	ee070f9a 	mcr	15, 0, r0, cr7, cr10, {4}
    80b8:	ee070fba 	mcr	15, 0, r0, cr7, cr10, {5}
    80bc:	e1a0f00e 	mov	pc, lr

000080c0 <MemoryBarrier>:
    80c0:	ee070f15 	mcr	15, 0, r0, cr7, cr5, {0}
    80c4:	ee070fd5 	mcr	15, 0, r0, cr7, cr5, {6}
    80c8:	ee070f9a 	mcr	15, 0, r0, cr7, cr10, {4}
    80cc:	ee070f95 	mcr	15, 0, r0, cr7, cr5, {4}
    80d0:	e1a0f00e 	mov	pc, lr

000080d4 <InvalidateData>:
    80d4:	e3a00000 	mov	r0, #0
    80d8:	ee070f16 	mcr	15, 0, r0, cr7, cr6, {0}
    80dc:	ee070f1a 	mcr	15, 0, r0, cr7, cr10, {0}
    80e0:	ee070f1e 	mcr	15, 0, r0, cr7, cr14, {0}
    80e4:	ee070f9a 	mcr	15, 0, r0, cr7, cr10, {4}
    80e8:	ee070fba 	mcr	15, 0, r0, cr7, cr10, {5}
    80ec:	ee070f15 	mcr	15, 0, r0, cr7, cr5, {0}
    80f0:	ee070fd5 	mcr	15, 0, r0, cr7, cr5, {6}
    80f4:	ee070f9a 	mcr	15, 0, r0, cr7, cr10, {4}
    80f8:	ee070f95 	mcr	15, 0, r0, cr7, cr5, {4}
    80fc:	e1a0f00e 	mov	pc, lr

00008100 <__aeabi_unwind_cpp_pr0>:
    8100:	eafffffe 	b	8100 <__aeabi_unwind_cpp_pr0>

00008104 <HANGSTR>:
    8104:	474e4148 	strbmi	r4, [lr, -r8, asr #2]
    8108:	002e2e2e 	eoreq	r2, lr, lr, lsr #28
    810c:	00001b41 	andeq	r1, r0, r1, asr #22
    8110:	61656100 	cmnvs	r5, r0, lsl #2
    8114:	01006962 	tsteq	r0, r2, ror #18
    8118:	00000011 	andeq	r0, r0, r1, lsl r0
    811c:	00543405 	subseq	r3, r4, r5, lsl #8
    8120:	01080206 	tsteq	r8, r6, lsl #4
    8124:	020a0109 	andeq	r0, sl, #1073741826	; 0x40000002

00008128 <common_random>:
    8128:	e59f3020 	ldr	r3, [pc, #32]	; 8150 <common_random+0x28>
    812c:	e9930005 	ldmib	r3, {r0, r2}
    8130:	e5931000 	ldr	r1, [r3]
    8134:	e0810000 	add	r0, r1, r0
    8138:	e0811002 	add	r1, r1, r2
    813c:	e0802002 	add	r2, r0, r2
    8140:	e9830005 	stmib	r3, {r0, r2}
    8144:	e5831000 	str	r1, [r3]
    8148:	e1a00820 	lsr	r0, r0, #16
    814c:	e12fff1e 	bx	lr
    8150:	00020000 	andeq	r0, r2, r0

00008154 <memcpy>:
    8154:	e3520000 	cmp	r2, #0
    8158:	012fff1e 	bxeq	lr
    815c:	e081c002 	add	ip, r1, r2
    8160:	e2403001 	sub	r3, r0, #1
    8164:	e4d12001 	ldrb	r2, [r1], #1
    8168:	e151000c 	cmp	r1, ip
    816c:	e5e32001 	strb	r2, [r3, #1]!
    8170:	1afffffb 	bne	8164 <memcpy+0x10>
    8174:	e12fff1e 	bx	lr

00008178 <memset>:
    8178:	e3520000 	cmp	r2, #0
    817c:	012fff1e 	bxeq	lr
    8180:	e1a03000 	mov	r3, r0
    8184:	e20110ff 	and	r1, r1, #255	; 0xff
    8188:	e0802002 	add	r2, r0, r2
    818c:	e4c31001 	strb	r1, [r3], #1
    8190:	e1530002 	cmp	r3, r2
    8194:	1afffffc 	bne	818c <memset+0x14>
    8198:	e12fff1e 	bx	lr

0000819c <get_systime>:
    819c:	e59f1018 	ldr	r1, [pc, #24]	; 81bc <get_systime+0x20>
    81a0:	e5910008 	ldr	r0, [r1, #8]
    81a4:	e3a02000 	mov	r2, #0
    81a8:	e1a03000 	mov	r3, r0
    81ac:	e5910004 	ldr	r0, [r1, #4]
    81b0:	e0920000 	adds	r0, r2, r0
    81b4:	e2a31000 	adc	r1, r3, #0
    81b8:	e12fff1e 	bx	lr
    81bc:	20003000 	andcs	r3, r0, r0

000081c0 <get_systime_ms>:
    81c0:	e59f3020 	ldr	r3, [pc, #32]	; 81e8 <get_systime_ms+0x28>
    81c4:	e5932008 	ldr	r2, [r3, #8]
    81c8:	edd37a01 	vldr	s15, [r3, #4]
    81cc:	eddf6a04 	vldr	s13, [pc, #16]	; 81e4 <get_systime_ms+0x24>
    81d0:	eef87a67 	vcvt.f32.u32	s15, s15
    81d4:	ee877aa6 	vdiv.f32	s14, s15, s13
    81d8:	eefc7ac7 	vcvt.u32.f32	s15, s14
    81dc:	ee170a90 	vmov	r0, s15
    81e0:	e12fff1e 	bx	lr
    81e4:	447a0000 	ldrbtmi	r0, [sl], #-0
    81e8:	20003000 	andcs	r3, r0, r0

000081ec <get_systime32>:
    81ec:	e59f3004 	ldr	r3, [pc, #4]	; 81f8 <get_systime32+0xc>
    81f0:	e5930004 	ldr	r0, [r3, #4]
    81f4:	e12fff1e 	bx	lr
    81f8:	20003000 	andcs	r3, r0, r0

000081fc <msleep>:
    81fc:	e59f1058 	ldr	r1, [pc, #88]	; 825c <msleep+0x60>
    8200:	e92d0030 	push	{r4, r5}
    8204:	e3a04000 	mov	r4, #0
    8208:	e5913008 	ldr	r3, [r1, #8]
    820c:	e1a05003 	mov	r5, r3
    8210:	e5913004 	ldr	r3, [r1, #4]
    8214:	e0944003 	adds	r4, r4, r3
    8218:	e0603280 	rsb	r3, r0, r0, lsl #5
    821c:	e0800103 	add	r0, r0, r3, lsl #2
    8220:	e1a00180 	lsl	r0, r0, #3
    8224:	e2a55000 	adc	r5, r5, #0
    8228:	e0944000 	adds	r4, r4, r0
    822c:	e2a55000 	adc	r5, r5, #0
    8230:	e5910008 	ldr	r0, [r1, #8]
    8234:	e3a02000 	mov	r2, #0
    8238:	e1a03000 	mov	r3, r0
    823c:	e5910004 	ldr	r0, [r1, #4]
    8240:	e0922000 	adds	r2, r2, r0
    8244:	e2a33000 	adc	r3, r3, #0
    8248:	e1550003 	cmp	r5, r3
    824c:	01540002 	cmpeq	r4, r2
    8250:	8afffff6 	bhi	8230 <msleep+0x34>
    8254:	e8bd0030 	pop	{r4, r5}
    8258:	e12fff1e 	bx	lr
    825c:	20003000 	andcs	r3, r0, r0

00008260 <msleep32>:
    8260:	e59f3020 	ldr	r3, [pc, #32]	; 8288 <msleep32+0x28>
    8264:	e0601280 	rsb	r1, r0, r0, lsl #5
    8268:	e1a02003 	mov	r2, r3
    826c:	e5933004 	ldr	r3, [r3, #4]
    8270:	e0800101 	add	r0, r0, r1, lsl #2
    8274:	e0830180 	add	r0, r3, r0, lsl #3
    8278:	e5923004 	ldr	r3, [r2, #4]
    827c:	e1500003 	cmp	r0, r3
    8280:	8afffffc 	bhi	8278 <msleep32+0x18>
    8284:	e12fff1e 	bx	lr
    8288:	20003000 	andcs	r3, r0, r0

0000828c <show_fps_raw>:
    828c:	e59f3070 	ldr	r3, [pc, #112]	; 8304 <show_fps_raw+0x78>
    8290:	e5932008 	ldr	r2, [r3, #8]
    8294:	ed937a01 	vldr	s14, [r3, #4]
    8298:	eddf6a18 	vldr	s13, [pc, #96]	; 8300 <show_fps_raw+0x74>
    829c:	eeb87a47 	vcvt.f32.u32	s14, s14
    82a0:	eec77a26 	vdiv.f32	s15, s14, s13
    82a4:	eefc7ae7 	vcvt.u32.f32	s15, s15
    82a8:	e52de004 	push	{lr}		; (str lr, [sp, #-4]!)
    82ac:	ee17ea90 	vmov	lr, s15
    82b0:	e59f2050 	ldr	r2, [pc, #80]	; 8308 <show_fps_raw+0x7c>
    82b4:	e592c004 	ldr	ip, [r2, #4]
    82b8:	e59f304c 	ldr	r3, [pc, #76]	; 830c <show_fps_raw+0x80>
    82bc:	e04ec00c 	sub	ip, lr, ip
    82c0:	e15c0003 	cmp	ip, r3
    82c4:	e1a03000 	mov	r3, r0
    82c8:	83a00000 	movhi	r0, #0
    82cc:	e5921000 	ldr	r1, [r2]
    82d0:	e2811001 	add	r1, r1, #1
    82d4:	e5821000 	str	r1, [r2]
    82d8:	8582e004 	strhi	lr, [r2, #4]
    82dc:	8582100c 	strhi	r1, [r2, #12]
    82e0:	85820000 	strhi	r0, [r2]
    82e4:	8582c008 	strhi	ip, [r2, #8]
    82e8:	e59f2020 	ldr	r2, [pc, #32]	; 8310 <show_fps_raw+0x84>
    82ec:	e8920003 	ldm	r2, {r0, r1}
    82f0:	e49de004 	pop	{lr}		; (ldr lr, [sp], #4)
    82f4:	e8830003 	stm	r3, {r0, r1}
    82f8:	e1a00003 	mov	r0, r3
    82fc:	e12fff1e 	bx	lr
    8300:	447a0000 	ldrbtmi	r0, [sl], #-0
    8304:	20003000 	andcs	r3, r0, r0
    8308:	00024100 	andeq	r4, r2, r0, lsl #2
    830c:	0000270f 	andeq	r2, r0, pc, lsl #14
    8310:	00024108 	andeq	r4, r2, r8, lsl #2

00008314 <show_fps>:
    8314:	e52de004 	push	{lr}		; (str lr, [sp, #-4]!)
    8318:	e24dd00c 	sub	sp, sp, #12
    831c:	e1a0000d 	mov	r0, sp
    8320:	ebffffd9 	bl	828c <show_fps_raw>
    8324:	eddd7a00 	vldr	s15, [sp]
    8328:	ed9f7a08 	vldr	s14, [pc, #32]	; 8350 <show_fps+0x3c>
    832c:	eef87ae7 	vcvt.f32.s32	s15, s15
    8330:	ee870a87 	vdiv.f32	s0, s15, s14
    8334:	eddd7a01 	vldr	s15, [sp, #4]
    8338:	eeb07a40 	vmov.f32	s14, s0
    833c:	eef87ae7 	vcvt.f32.s32	s15, s15
    8340:	ee870a87 	vdiv.f32	s0, s15, s14
    8344:	e28dd00c 	add	sp, sp, #12
    8348:	e49de004 	pop	{lr}		; (ldr lr, [sp], #4)
    834c:	e12fff1e 	bx	lr
    8350:	461c4000 	ldrmi	r4, [ip], -r0

00008354 <dma_clear_cb>:
    8354:	e3a03000 	mov	r3, #0
    8358:	e5c03000 	strb	r3, [r0]
    835c:	e5c03001 	strb	r3, [r0, #1]
    8360:	e5c03002 	strb	r3, [r0, #2]
    8364:	e5c03003 	strb	r3, [r0, #3]
    8368:	e5c03004 	strb	r3, [r0, #4]
    836c:	e5c03005 	strb	r3, [r0, #5]
    8370:	e5c03006 	strb	r3, [r0, #6]
    8374:	e5c03007 	strb	r3, [r0, #7]
    8378:	e5c03008 	strb	r3, [r0, #8]
    837c:	e5c03009 	strb	r3, [r0, #9]
    8380:	e5c0300a 	strb	r3, [r0, #10]
    8384:	e5c0300b 	strb	r3, [r0, #11]
    8388:	e5c0300c 	strb	r3, [r0, #12]
    838c:	e5c0300d 	strb	r3, [r0, #13]
    8390:	e5c0300e 	strb	r3, [r0, #14]
    8394:	e5c0300f 	strb	r3, [r0, #15]
    8398:	e5c03010 	strb	r3, [r0, #16]
    839c:	e5c03011 	strb	r3, [r0, #17]
    83a0:	e5c03012 	strb	r3, [r0, #18]
    83a4:	e5c03013 	strb	r3, [r0, #19]
    83a8:	e5c03014 	strb	r3, [r0, #20]
    83ac:	e5c03015 	strb	r3, [r0, #21]
    83b0:	e5c03016 	strb	r3, [r0, #22]
    83b4:	e5c03017 	strb	r3, [r0, #23]
    83b8:	e5c03018 	strb	r3, [r0, #24]
    83bc:	e5c03019 	strb	r3, [r0, #25]
    83c0:	e5c0301a 	strb	r3, [r0, #26]
    83c4:	e5c0301b 	strb	r3, [r0, #27]
    83c8:	e5c0301c 	strb	r3, [r0, #28]
    83cc:	e5c0301d 	strb	r3, [r0, #29]
    83d0:	e5c0301e 	strb	r3, [r0, #30]
    83d4:	e5c0301f 	strb	r3, [r0, #31]
    83d8:	e12fff1e 	bx	lr

000083dc <dma_cb_dup>:
    83dc:	e5d13001 	ldrb	r3, [r1, #1]
    83e0:	e5d12000 	ldrb	r2, [r1]
    83e4:	e5d1c002 	ldrb	ip, [r1, #2]
    83e8:	e1822403 	orr	r2, r2, r3, lsl #8
    83ec:	e5d13003 	ldrb	r3, [r1, #3]
    83f0:	e52de004 	push	{lr}		; (str lr, [sp, #-4]!)
    83f4:	e182280c 	orr	r2, r2, ip, lsl #16
    83f8:	e1823c03 	orr	r3, r2, r3, lsl #24
    83fc:	e1a0e423 	lsr	lr, r3, #8
    8400:	e1a0c823 	lsr	ip, r3, #16
    8404:	e1a03c23 	lsr	r3, r3, #24
    8408:	e5c0e001 	strb	lr, [r0, #1]
    840c:	e5c02000 	strb	r2, [r0]
    8410:	e5c0c002 	strb	ip, [r0, #2]
    8414:	e5c03003 	strb	r3, [r0, #3]
    8418:	e5d13005 	ldrb	r3, [r1, #5]
    841c:	e5d12004 	ldrb	r2, [r1, #4]
    8420:	e5d1c006 	ldrb	ip, [r1, #6]
    8424:	e1822403 	orr	r2, r2, r3, lsl #8
    8428:	e5d13007 	ldrb	r3, [r1, #7]
    842c:	e182280c 	orr	r2, r2, ip, lsl #16
    8430:	e1823c03 	orr	r3, r2, r3, lsl #24
    8434:	e1a0e423 	lsr	lr, r3, #8
    8438:	e1a0c823 	lsr	ip, r3, #16
    843c:	e1a03c23 	lsr	r3, r3, #24
    8440:	e5c0e005 	strb	lr, [r0, #5]
    8444:	e5c02004 	strb	r2, [r0, #4]
    8448:	e5c0c006 	strb	ip, [r0, #6]
    844c:	e5c03007 	strb	r3, [r0, #7]
    8450:	e5d13009 	ldrb	r3, [r1, #9]
    8454:	e5d12008 	ldrb	r2, [r1, #8]
    8458:	e5d1c00a 	ldrb	ip, [r1, #10]
    845c:	e1822403 	orr	r2, r2, r3, lsl #8
    8460:	e5d1300b 	ldrb	r3, [r1, #11]
    8464:	e182280c 	orr	r2, r2, ip, lsl #16
    8468:	e1823c03 	orr	r3, r2, r3, lsl #24
    846c:	e1a0e423 	lsr	lr, r3, #8
    8470:	e1a0c823 	lsr	ip, r3, #16
    8474:	e1a03c23 	lsr	r3, r3, #24
    8478:	e5c0e009 	strb	lr, [r0, #9]
    847c:	e5c02008 	strb	r2, [r0, #8]
    8480:	e5c0c00a 	strb	ip, [r0, #10]
    8484:	e5c0300b 	strb	r3, [r0, #11]
    8488:	e5d1300d 	ldrb	r3, [r1, #13]
    848c:	e5d1200c 	ldrb	r2, [r1, #12]
    8490:	e5d1c00e 	ldrb	ip, [r1, #14]
    8494:	e1822403 	orr	r2, r2, r3, lsl #8
    8498:	e5d1300f 	ldrb	r3, [r1, #15]
    849c:	e182280c 	orr	r2, r2, ip, lsl #16
    84a0:	e1823c03 	orr	r3, r2, r3, lsl #24
    84a4:	e1a0e423 	lsr	lr, r3, #8
    84a8:	e1a0c823 	lsr	ip, r3, #16
    84ac:	e1a03c23 	lsr	r3, r3, #24
    84b0:	e5c0200c 	strb	r2, [r0, #12]
    84b4:	e5c0e00d 	strb	lr, [r0, #13]
    84b8:	e5c0c00e 	strb	ip, [r0, #14]
    84bc:	e5c0300f 	strb	r3, [r0, #15]
    84c0:	e5d13011 	ldrb	r3, [r1, #17]
    84c4:	e5d12010 	ldrb	r2, [r1, #16]
    84c8:	e5d1c012 	ldrb	ip, [r1, #18]
    84cc:	e1822403 	orr	r2, r2, r3, lsl #8
    84d0:	e5d13013 	ldrb	r3, [r1, #19]
    84d4:	e182280c 	orr	r2, r2, ip, lsl #16
    84d8:	e1823c03 	orr	r3, r2, r3, lsl #24
    84dc:	e1a0e423 	lsr	lr, r3, #8
    84e0:	e1a0c823 	lsr	ip, r3, #16
    84e4:	e1a03c23 	lsr	r3, r3, #24
    84e8:	e5c0e011 	strb	lr, [r0, #17]
    84ec:	e5c02010 	strb	r2, [r0, #16]
    84f0:	e5c0c012 	strb	ip, [r0, #18]
    84f4:	e5c03013 	strb	r3, [r0, #19]
    84f8:	e5d13015 	ldrb	r3, [r1, #21]
    84fc:	e5d12014 	ldrb	r2, [r1, #20]
    8500:	e5d1c016 	ldrb	ip, [r1, #22]
    8504:	e1822403 	orr	r2, r2, r3, lsl #8
    8508:	e5d13017 	ldrb	r3, [r1, #23]
    850c:	e182280c 	orr	r2, r2, ip, lsl #16
    8510:	e1823c03 	orr	r3, r2, r3, lsl #24
    8514:	e1a0e423 	lsr	lr, r3, #8
    8518:	e1a0c823 	lsr	ip, r3, #16
    851c:	e1a03c23 	lsr	r3, r3, #24
    8520:	e5c0e015 	strb	lr, [r0, #21]
    8524:	e5c02014 	strb	r2, [r0, #20]
    8528:	e5c0c016 	strb	ip, [r0, #22]
    852c:	e5c03017 	strb	r3, [r0, #23]
    8530:	e5d13019 	ldrb	r3, [r1, #25]
    8534:	e5d12018 	ldrb	r2, [r1, #24]
    8538:	e5d1c01a 	ldrb	ip, [r1, #26]
    853c:	e1822403 	orr	r2, r2, r3, lsl #8
    8540:	e5d1301b 	ldrb	r3, [r1, #27]
    8544:	e182280c 	orr	r2, r2, ip, lsl #16
    8548:	e1823c03 	orr	r3, r2, r3, lsl #24
    854c:	e1a0e423 	lsr	lr, r3, #8
    8550:	e1a0c823 	lsr	ip, r3, #16
    8554:	e1a03c23 	lsr	r3, r3, #24
    8558:	e5c02018 	strb	r2, [r0, #24]
    855c:	e5c0e019 	strb	lr, [r0, #25]
    8560:	e5c0c01a 	strb	ip, [r0, #26]
    8564:	e5c0301b 	strb	r3, [r0, #27]
    8568:	e5d1301d 	ldrb	r3, [r1, #29]
    856c:	e5d1201c 	ldrb	r2, [r1, #28]
    8570:	e5d1c01e 	ldrb	ip, [r1, #30]
    8574:	e1822403 	orr	r2, r2, r3, lsl #8
    8578:	e5d1301f 	ldrb	r3, [r1, #31]
    857c:	e182280c 	orr	r2, r2, ip, lsl #16
    8580:	e1823c03 	orr	r3, r2, r3, lsl #24
    8584:	e1a0c423 	lsr	ip, r3, #8
    8588:	e1a01823 	lsr	r1, r3, #16
    858c:	e1a03c23 	lsr	r3, r3, #24
    8590:	e5c0201c 	strb	r2, [r0, #28]
    8594:	e5c0c01d 	strb	ip, [r0, #29]
    8598:	e5c0101e 	strb	r1, [r0, #30]
    859c:	e5c0301f 	strb	r3, [r0, #31]
    85a0:	e49de004 	pop	{lr}		; (ldr lr, [sp], #4)
    85a4:	e12fff1e 	bx	lr

000085a8 <dma_init>:
    85a8:	e59f0054 	ldr	r0, [pc, #84]	; 8604 <dma_init+0x5c>
    85ac:	e3a01000 	mov	r1, #0
    85b0:	e1a03000 	mov	r3, r0
    85b4:	e52de004 	push	{lr}		; (str lr, [sp, #-4]!)
    85b8:	e59fe048 	ldr	lr, [pc, #72]	; 8608 <dma_init+0x60>
    85bc:	e59fc048 	ldr	ip, [pc, #72]	; 860c <dma_init+0x64>
    85c0:	e58e0000 	str	r0, [lr]
    85c4:	e1a02001 	mov	r2, r1
    85c8:	e58c1000 	str	r1, [ip]
    85cc:	e2801905 	add	r1, r0, #81920	; 0x14000
    85d0:	e5832000 	str	r2, [r3]
    85d4:	e5832004 	str	r2, [r3, #4]
    85d8:	e5832008 	str	r2, [r3, #8]
    85dc:	e583200c 	str	r2, [r3, #12]
    85e0:	e5832010 	str	r2, [r3, #16]
    85e4:	e5832014 	str	r2, [r3, #20]
    85e8:	e5832018 	str	r2, [r3, #24]
    85ec:	e583201c 	str	r2, [r3, #28]
    85f0:	e2833020 	add	r3, r3, #32
    85f4:	e1530001 	cmp	r3, r1
    85f8:	1afffff4 	bne	85d0 <dma_init+0x28>
    85fc:	e49de004 	pop	{lr}		; (ldr lr, [sp], #4)
    8600:	e12fff1e 	bx	lr
    8604:	00024140 	andeq	r4, r2, r0, asr #2
    8608:	00038140 	andeq	r8, r3, r0, asr #2
    860c:	00024120 	andeq	r4, r2, r0, lsr #2

00008610 <dma_cb_set_addr>:
    8610:	e3720107 	cmn	r2, #-1073741823	; 0xc0000001
    8614:	e1a03c21 	lsr	r3, r1, #24
    8618:	e1a0c821 	lsr	ip, r1, #16
    861c:	e5c0300b 	strb	r3, [r0, #11]
    8620:	e52de004 	push	{lr}		; (str lr, [sp, #-4]!)
    8624:	92823101 	addls	r3, r2, #1073741824	; 0x40000000
    8628:	e1a0e421 	lsr	lr, r1, #8
    862c:	e5c0e009 	strb	lr, [r0, #9]
    8630:	e5c0c00a 	strb	ip, [r0, #10]
    8634:	91a0e423 	lsrls	lr, r3, #8
    8638:	91a0c823 	lsrls	ip, r3, #16
    863c:	81a0e422 	lsrhi	lr, r2, #8
    8640:	81a0c822 	lsrhi	ip, r2, #16
    8644:	81a03c22 	lsrhi	r3, r2, #24
    8648:	91a03c23 	lsrls	r3, r3, #24
    864c:	e3710107 	cmn	r1, #-1073741823	; 0xc0000001
    8650:	e5c01008 	strb	r1, [r0, #8]
    8654:	e5c02004 	strb	r2, [r0, #4]
    8658:	e5c0e005 	strb	lr, [r0, #5]
    865c:	e5c0c006 	strb	ip, [r0, #6]
    8660:	e5c03007 	strb	r3, [r0, #7]
    8664:	8a000007 	bhi	8688 <dma_cb_set_addr+0x78>
    8668:	e2813101 	add	r3, r1, #1073741824	; 0x40000000
    866c:	e1a0c423 	lsr	ip, r3, #8
    8670:	e1a02823 	lsr	r2, r3, #16
    8674:	e1a03c23 	lsr	r3, r3, #24
    8678:	e5c01008 	strb	r1, [r0, #8]
    867c:	e5c0c009 	strb	ip, [r0, #9]
    8680:	e5c0200a 	strb	r2, [r0, #10]
    8684:	e5c0300b 	strb	r3, [r0, #11]
    8688:	e49de004 	pop	{lr}		; (ldr lr, [sp], #4)
    868c:	e12fff1e 	bx	lr

00008690 <dma_cb_set_ti_permap>:
    8690:	e5d02001 	ldrb	r2, [r0, #1]
    8694:	e5d03000 	ldrb	r3, [r0]
    8698:	e5d0c002 	ldrb	ip, [r0, #2]
    869c:	e1833402 	orr	r3, r3, r2, lsl #8
    86a0:	e5d02003 	ldrb	r2, [r0, #3]
    86a4:	e183380c 	orr	r3, r3, ip, lsl #16
    86a8:	e1833c02 	orr	r3, r3, r2, lsl #24
    86ac:	e1831801 	orr	r1, r3, r1, lsl #16
    86b0:	e1a0c421 	lsr	ip, r1, #8
    86b4:	e1a02821 	lsr	r2, r1, #16
    86b8:	e1a01c21 	lsr	r1, r1, #24
    86bc:	e5c03000 	strb	r3, [r0]
    86c0:	e5c0c001 	strb	ip, [r0, #1]
    86c4:	e5c02002 	strb	r2, [r0, #2]
    86c8:	e5c01003 	strb	r1, [r0, #3]
    86cc:	e12fff1e 	bx	lr

000086d0 <dma_cb_set_ti_burst_length>:
    86d0:	e5d0c001 	ldrb	ip, [r0, #1]
    86d4:	e5d02000 	ldrb	r2, [r0]
    86d8:	e52de004 	push	{lr}		; (str lr, [sp, #-4]!)
    86dc:	e5d0e002 	ldrb	lr, [r0, #2]
    86e0:	e59f3038 	ldr	r3, [pc, #56]	; 8720 <dma_cb_set_ti_burst_length+0x50>
    86e4:	e182240c 	orr	r2, r2, ip, lsl #8
    86e8:	e5d0c003 	ldrb	ip, [r0, #3]
    86ec:	e182280e 	orr	r2, r2, lr, lsl #16
    86f0:	e0031601 	and	r1, r3, r1, lsl #12
    86f4:	e1823c0c 	orr	r3, r2, ip, lsl #24
    86f8:	e1811003 	orr	r1, r1, r3
    86fc:	e1a0c421 	lsr	ip, r1, #8
    8700:	e1a02821 	lsr	r2, r1, #16
    8704:	e1a01c21 	lsr	r1, r1, #24
    8708:	e5c03000 	strb	r3, [r0]
    870c:	e5c0c001 	strb	ip, [r0, #1]
    8710:	e5c02002 	strb	r2, [r0, #2]
    8714:	e5c01003 	strb	r1, [r0, #3]
    8718:	e49de004 	pop	{lr}		; (ldr lr, [sp], #4)
    871c:	e12fff1e 	bx	lr
    8720:	0000ffff 	strdeq	pc, [r0], -pc	; <UNPREDICTABLE>

00008724 <dma_cb_set_ti_src_dreq>:
    8724:	e5d0c001 	ldrb	ip, [r0, #1]
    8728:	e5d02000 	ldrb	r2, [r0]
    872c:	e5d03002 	ldrb	r3, [r0, #2]
    8730:	e182240c 	orr	r2, r2, ip, lsl #8
    8734:	e5d0c003 	ldrb	ip, [r0, #3]
    8738:	e1823803 	orr	r3, r2, r3, lsl #16
    873c:	e1833c0c 	orr	r3, r3, ip, lsl #24
    8740:	e3510000 	cmp	r1, #0
    8744:	13833b01 	orrne	r3, r3, #1024	; 0x400
    8748:	e1a0c423 	lsr	ip, r3, #8
    874c:	e1a01823 	lsr	r1, r3, #16
    8750:	e1a02c23 	lsr	r2, r3, #24
    8754:	e5c03000 	strb	r3, [r0]
    8758:	e5c0c001 	strb	ip, [r0, #1]
    875c:	e5c01002 	strb	r1, [r0, #2]
    8760:	e5c02003 	strb	r2, [r0, #3]
    8764:	e12fff1e 	bx	lr

00008768 <dma_cb_set_ti_src_inc>:
    8768:	e5d0c001 	ldrb	ip, [r0, #1]
    876c:	e5d02000 	ldrb	r2, [r0]
    8770:	e5d03002 	ldrb	r3, [r0, #2]
    8774:	e182240c 	orr	r2, r2, ip, lsl #8
    8778:	e5d0c003 	ldrb	ip, [r0, #3]
    877c:	e1823803 	orr	r3, r2, r3, lsl #16
    8780:	e1833c0c 	orr	r3, r3, ip, lsl #24
    8784:	e3510000 	cmp	r1, #0
    8788:	13833c01 	orrne	r3, r3, #256	; 0x100
    878c:	e1a0c423 	lsr	ip, r3, #8
    8790:	e1a01823 	lsr	r1, r3, #16
    8794:	e1a02c23 	lsr	r2, r3, #24
    8798:	e5c03000 	strb	r3, [r0]
    879c:	e5c0c001 	strb	ip, [r0, #1]
    87a0:	e5c01002 	strb	r1, [r0, #2]
    87a4:	e5c02003 	strb	r2, [r0, #3]
    87a8:	e12fff1e 	bx	lr

000087ac <dma_cb_set_ti_dst_dreq>:
    87ac:	e5d0c001 	ldrb	ip, [r0, #1]
    87b0:	e5d02000 	ldrb	r2, [r0]
    87b4:	e5d03002 	ldrb	r3, [r0, #2]
    87b8:	e182240c 	orr	r2, r2, ip, lsl #8
    87bc:	e5d0c003 	ldrb	ip, [r0, #3]
    87c0:	e1823803 	orr	r3, r2, r3, lsl #16
    87c4:	e1833c0c 	orr	r3, r3, ip, lsl #24
    87c8:	e3510000 	cmp	r1, #0
    87cc:	13833040 	orrne	r3, r3, #64	; 0x40
    87d0:	e1a0c423 	lsr	ip, r3, #8
    87d4:	e1a01823 	lsr	r1, r3, #16
    87d8:	e1a02c23 	lsr	r2, r3, #24
    87dc:	e5c03000 	strb	r3, [r0]
    87e0:	e5c0c001 	strb	ip, [r0, #1]
    87e4:	e5c01002 	strb	r1, [r0, #2]
    87e8:	e5c02003 	strb	r2, [r0, #3]
    87ec:	e12fff1e 	bx	lr

000087f0 <dma_cb_set_ti_dst_inc>:
    87f0:	e5d0c001 	ldrb	ip, [r0, #1]
    87f4:	e5d02000 	ldrb	r2, [r0]
    87f8:	e5d03002 	ldrb	r3, [r0, #2]
    87fc:	e182240c 	orr	r2, r2, ip, lsl #8
    8800:	e5d0c003 	ldrb	ip, [r0, #3]
    8804:	e1823803 	orr	r3, r2, r3, lsl #16
    8808:	e1833c0c 	orr	r3, r3, ip, lsl #24
    880c:	e3510000 	cmp	r1, #0
    8810:	13833010 	orrne	r3, r3, #16
    8814:	e1a0c423 	lsr	ip, r3, #8
    8818:	e1a01823 	lsr	r1, r3, #16
    881c:	e1a02c23 	lsr	r2, r3, #24
    8820:	e5c03000 	strb	r3, [r0]
    8824:	e5c0c001 	strb	ip, [r0, #1]
    8828:	e5c01002 	strb	r1, [r0, #2]
    882c:	e5c02003 	strb	r2, [r0, #3]
    8830:	e12fff1e 	bx	lr

00008834 <dma_cb_set_ti_tdmode>:
    8834:	e5d0c001 	ldrb	ip, [r0, #1]
    8838:	e5d02000 	ldrb	r2, [r0]
    883c:	e5d03002 	ldrb	r3, [r0, #2]
    8840:	e182240c 	orr	r2, r2, ip, lsl #8
    8844:	e5d0c003 	ldrb	ip, [r0, #3]
    8848:	e1823803 	orr	r3, r2, r3, lsl #16
    884c:	e1833c0c 	orr	r3, r3, ip, lsl #24
    8850:	e3510000 	cmp	r1, #0
    8854:	13833002 	orrne	r3, r3, #2
    8858:	e1a0c423 	lsr	ip, r3, #8
    885c:	e1a01823 	lsr	r1, r3, #16
    8860:	e1a02c23 	lsr	r2, r3, #24
    8864:	e5c03000 	strb	r3, [r0]
    8868:	e5c0c001 	strb	ip, [r0, #1]
    886c:	e5c01002 	strb	r1, [r0, #2]
    8870:	e5c02003 	strb	r2, [r0, #3]
    8874:	e12fff1e 	bx	lr

00008878 <dma_cb_set_txfr_len>:
    8878:	e1a0c421 	lsr	ip, r1, #8
    887c:	e1a02821 	lsr	r2, r1, #16
    8880:	e1a03c21 	lsr	r3, r1, #24
    8884:	e5c0100c 	strb	r1, [r0, #12]
    8888:	e5c0c00d 	strb	ip, [r0, #13]
    888c:	e5c0200e 	strb	r2, [r0, #14]
    8890:	e5c0300f 	strb	r3, [r0, #15]
    8894:	e12fff1e 	bx	lr

00008898 <dma_cb_set_txfr_len_xlength>:
    8898:	e1a03421 	lsr	r3, r1, #8
    889c:	e5c0100c 	strb	r1, [r0, #12]
    88a0:	e5c0300d 	strb	r3, [r0, #13]
    88a4:	e12fff1e 	bx	lr

000088a8 <dma_cb_set_txfr_len_ylength>:
    88a8:	e5d0200d 	ldrb	r2, [r0, #13]
    88ac:	e5d0300c 	ldrb	r3, [r0, #12]
    88b0:	e1833402 	orr	r3, r3, r2, lsl #8
    88b4:	e1832801 	orr	r2, r3, r1, lsl #16
    88b8:	e1a02c22 	lsr	r2, r2, #24
    88bc:	e1a0c423 	lsr	ip, r3, #8
    88c0:	e5c0100e 	strb	r1, [r0, #14]
    88c4:	e5c0200f 	strb	r2, [r0, #15]
    88c8:	e5c0300c 	strb	r3, [r0, #12]
    88cc:	e5c0c00d 	strb	ip, [r0, #13]
    88d0:	e12fff1e 	bx	lr

000088d4 <dma_cb_set_stride_d>:
    88d4:	e5d02011 	ldrb	r2, [r0, #17]
    88d8:	e5d03010 	ldrb	r3, [r0, #16]
    88dc:	e1833402 	orr	r3, r3, r2, lsl #8
    88e0:	e1832801 	orr	r2, r3, r1, lsl #16
    88e4:	e1a02c22 	lsr	r2, r2, #24
    88e8:	e1a0c423 	lsr	ip, r3, #8
    88ec:	e5c01012 	strb	r1, [r0, #18]
    88f0:	e5c02013 	strb	r2, [r0, #19]
    88f4:	e5c03010 	strb	r3, [r0, #16]
    88f8:	e5c0c011 	strb	ip, [r0, #17]
    88fc:	e12fff1e 	bx	lr

00008900 <dma_cb_set_stride_s>:
    8900:	e1a03421 	lsr	r3, r1, #8
    8904:	e5c01010 	strb	r1, [r0, #16]
    8908:	e5c03011 	strb	r3, [r0, #17]
    890c:	e12fff1e 	bx	lr

00008910 <dma_get_cb>:
    8910:	e3a03000 	mov	r3, #0
    8914:	e92d4030 	push	{r4, r5, lr}
    8918:	e59f4088 	ldr	r4, [pc, #136]	; 89a8 <dma_get_cb+0x98>
    891c:	e594c000 	ldr	ip, [r4]
    8920:	e59f1084 	ldr	r1, [pc, #132]	; 89ac <dma_get_cb+0x9c>
    8924:	e28c0001 	add	r0, ip, #1
    8928:	e0c52091 	smull	r2, r5, r1, r0
    892c:	e0ce2c91 	smull	r2, lr, r1, ip
    8930:	e1a02fc0 	asr	r2, r0, #31
    8934:	e1a01fcc 	asr	r1, ip, #31
    8938:	e0622545 	rsb	r2, r2, r5, asr #10
    893c:	e061154e 	rsb	r1, r1, lr, asr #10
    8940:	e0822102 	add	r2, r2, r2, lsl #2
    8944:	e59fe064 	ldr	lr, [pc, #100]	; 89b0 <dma_get_cb+0xa0>
    8948:	e0811101 	add	r1, r1, r1, lsl #2
    894c:	e0402482 	sub	r2, r0, r2, lsl #9
    8950:	e04c1481 	sub	r1, ip, r1, lsl #9
    8954:	e5840000 	str	r0, [r4]
    8958:	e08ec282 	add	ip, lr, r2, lsl #5
    895c:	e08e0281 	add	r0, lr, r1, lsl #5
    8960:	e78e3281 	str	r3, [lr, r1, lsl #5]
    8964:	e580c014 	str	ip, [r0, #20]
    8968:	e78e3282 	str	r3, [lr, r2, lsl #5]
    896c:	e5803004 	str	r3, [r0, #4]
    8970:	e5803008 	str	r3, [r0, #8]
    8974:	e580300c 	str	r3, [r0, #12]
    8978:	e5803010 	str	r3, [r0, #16]
    897c:	e5803018 	str	r3, [r0, #24]
    8980:	e580301c 	str	r3, [r0, #28]
    8984:	e58c3014 	str	r3, [ip, #20]
    8988:	e58c3004 	str	r3, [ip, #4]
    898c:	e58c3008 	str	r3, [ip, #8]
    8990:	e58c300c 	str	r3, [ip, #12]
    8994:	e58c3010 	str	r3, [ip, #16]
    8998:	e58c3018 	str	r3, [ip, #24]
    899c:	e58c301c 	str	r3, [ip, #28]
    89a0:	e8bd4030 	pop	{r4, r5, lr}
    89a4:	e12fff1e 	bx	lr
    89a8:	00024120 	andeq	r4, r2, r0, lsr #2
    89ac:	66666667 	strbtvs	r6, [r6], -r7, ror #12
    89b0:	00024140 	andeq	r4, r2, r0, asr #2

000089b4 <dma_debug>:
    89b4:	e92d4070 	push	{r4, r5, r6, lr}
    89b8:	e1a04000 	mov	r4, r0
    89bc:	e59f50b8 	ldr	r5, [pc, #184]	; 8a7c <dma_debug+0xc8>
    89c0:	e59f60b8 	ldr	r6, [pc, #184]	; 8a80 <dma_debug+0xcc>
    89c4:	e1a00005 	mov	r0, r5
    89c8:	eb000728 	bl	a670 <uart_puts>
    89cc:	e5961fe0 	ldr	r1, [r6, #4064]	; 0xfe0
    89d0:	e59f00ac 	ldr	r0, [pc, #172]	; 8a84 <dma_debug+0xd0>
    89d4:	eb00075b 	bl	a748 <uart_debug_puts>
    89d8:	e5961ff0 	ldr	r1, [r6, #4080]	; 0xff0
    89dc:	e59f00a4 	ldr	r0, [pc, #164]	; 8a88 <dma_debug+0xd4>
    89e0:	eb000758 	bl	a748 <uart_debug_puts>
    89e4:	e2840602 	add	r0, r4, #2097152	; 0x200000
    89e8:	e2800070 	add	r0, r0, #112	; 0x70
    89ec:	e1a04400 	lsl	r4, r0, #8
    89f0:	e5941000 	ldr	r1, [r4]
    89f4:	e59f0090 	ldr	r0, [pc, #144]	; 8a8c <dma_debug+0xd8>
    89f8:	eb000752 	bl	a748 <uart_debug_puts>
    89fc:	e5941004 	ldr	r1, [r4, #4]
    8a00:	e59f0088 	ldr	r0, [pc, #136]	; 8a90 <dma_debug+0xdc>
    8a04:	eb00074f 	bl	a748 <uart_debug_puts>
    8a08:	e5941008 	ldr	r1, [r4, #8]
    8a0c:	e59f0080 	ldr	r0, [pc, #128]	; 8a94 <dma_debug+0xe0>
    8a10:	eb00074c 	bl	a748 <uart_debug_puts>
    8a14:	e594100c 	ldr	r1, [r4, #12]
    8a18:	e59f0078 	ldr	r0, [pc, #120]	; 8a98 <dma_debug+0xe4>
    8a1c:	eb000749 	bl	a748 <uart_debug_puts>
    8a20:	e5941010 	ldr	r1, [r4, #16]
    8a24:	e59f0070 	ldr	r0, [pc, #112]	; 8a9c <dma_debug+0xe8>
    8a28:	eb000746 	bl	a748 <uart_debug_puts>
    8a2c:	e5941014 	ldr	r1, [r4, #20]
    8a30:	e59f0068 	ldr	r0, [pc, #104]	; 8aa0 <dma_debug+0xec>
    8a34:	eb000743 	bl	a748 <uart_debug_puts>
    8a38:	e5941018 	ldr	r1, [r4, #24]
    8a3c:	e59f0060 	ldr	r0, [pc, #96]	; 8aa4 <dma_debug+0xf0>
    8a40:	eb000740 	bl	a748 <uart_debug_puts>
    8a44:	e594101c 	ldr	r1, [r4, #28]
    8a48:	e59f0058 	ldr	r0, [pc, #88]	; 8aa8 <dma_debug+0xf4>
    8a4c:	eb00073d 	bl	a748 <uart_debug_puts>
    8a50:	e5941020 	ldr	r1, [r4, #32]
    8a54:	e59f0050 	ldr	r0, [pc, #80]	; 8aac <dma_debug+0xf8>
    8a58:	eb00073a 	bl	a748 <uart_debug_puts>
    8a5c:	e59f304c 	ldr	r3, [pc, #76]	; 8ab0 <dma_debug+0xfc>
    8a60:	e59f004c 	ldr	r0, [pc, #76]	; 8ab4 <dma_debug+0x100>
    8a64:	e5931000 	ldr	r1, [r3]
    8a68:	eb000736 	bl	a748 <uart_debug_puts>
    8a6c:	e1a00005 	mov	r0, r5
    8a70:	eb0006fe 	bl	a670 <uart_puts>
    8a74:	e8bd4070 	pop	{r4, r5, r6, lr}
    8a78:	e12fff1e 	bx	lr
    8a7c:	0000b0d0 	ldrdeq	fp, [r0], -r0
    8a80:	20007000 	andcs	r7, r0, r0
    8a84:	0000b114 	andeq	fp, r0, r4, lsl r1
    8a88:	0000b138 	andeq	fp, r0, r8, lsr r1
    8a8c:	0000b15c 	andeq	fp, r0, ip, asr r1
    8a90:	0000b180 	andeq	fp, r0, r0, lsl #3
    8a94:	0000b1a4 	andeq	fp, r0, r4, lsr #3
    8a98:	0000b1c8 	andeq	fp, r0, r8, asr #3
    8a9c:	0000b1ec 	andeq	fp, r0, ip, ror #3
    8aa0:	0000b210 	andeq	fp, r0, r0, lsl r2
    8aa4:	0000b234 	andeq	fp, r0, r4, lsr r2
    8aa8:	0000b258 	andeq	fp, r0, r8, asr r2
    8aac:	0000b27c 	andeq	fp, r0, ip, ror r2
    8ab0:	00038140 	andeq	r8, r3, r0, asr #2
    8ab4:	0000b2a0 	andeq	fp, r0, r0, lsr #5

00008ab8 <dma_submit_cb>:
    8ab8:	e3a02102 	mov	r2, #-2147483648	; 0x80000000
    8abc:	e92d4070 	push	{r4, r5, r6, lr}
    8ac0:	e59f506c 	ldr	r5, [pc, #108]	; 8b34 <dma_submit_cb+0x7c>
    8ac4:	e2800602 	add	r0, r0, #2097152	; 0x200000
    8ac8:	e5953000 	ldr	r3, [r5]
    8acc:	e2800070 	add	r0, r0, #112	; 0x70
    8ad0:	e1a04400 	lsl	r4, r0, #8
    8ad4:	e5842000 	str	r2, [r4]
    8ad8:	e5843004 	str	r3, [r4, #4]
    8adc:	ebfffd7c 	bl	80d4 <InvalidateData>
    8ae0:	e59fc050 	ldr	ip, [pc, #80]	; 8b38 <dma_submit_cb+0x80>
    8ae4:	e59c2000 	ldr	r2, [ip]
    8ae8:	e59f304c 	ldr	r3, [pc, #76]	; 8b3c <dma_submit_cb+0x84>
    8aec:	e2822001 	add	r2, r2, #1
    8af0:	e0c10293 	smull	r0, r1, r3, r2
    8af4:	e5943000 	ldr	r3, [r4]
    8af8:	e3833201 	orr	r3, r3, #268435456	; 0x10000000
    8afc:	e5843000 	str	r3, [r4]
    8b00:	e1a03fc2 	asr	r3, r2, #31
    8b04:	e0633541 	rsb	r3, r3, r1, asr #10
    8b08:	e5940000 	ldr	r0, [r4]
    8b0c:	e59f102c 	ldr	r1, [pc, #44]	; 8b40 <dma_submit_cb+0x88>
    8b10:	e0833103 	add	r3, r3, r3, lsl #2
    8b14:	e0423483 	sub	r3, r2, r3, lsl #9
    8b18:	e3800001 	orr	r0, r0, #1
    8b1c:	e0813283 	add	r3, r1, r3, lsl #5
    8b20:	e5840000 	str	r0, [r4]
    8b24:	e58c2000 	str	r2, [ip]
    8b28:	e5853000 	str	r3, [r5]
    8b2c:	e8bd4070 	pop	{r4, r5, r6, lr}
    8b30:	e12fff1e 	bx	lr
    8b34:	00038140 	andeq	r8, r3, r0, asr #2
    8b38:	00024120 	andeq	r4, r2, r0, lsr #2
    8b3c:	66666667 	strbtvs	r6, [r6], -r7, ror #12
    8b40:	00024140 	andeq	r4, r2, r0, asr #2

00008b44 <dma_wait>:
    8b44:	e2801602 	add	r1, r0, #2097152	; 0x200000
    8b48:	e2811070 	add	r1, r1, #112	; 0x70
    8b4c:	e92d4010 	push	{r4, lr}
    8b50:	e59f3044 	ldr	r3, [pc, #68]	; 8b9c <dma_wait+0x58>
    8b54:	e1a04000 	mov	r4, r0
    8b58:	e1a01401 	lsl	r1, r1, #8
    8b5c:	ea000001 	b	8b68 <dma_wait+0x24>
    8b60:	e2533001 	subs	r3, r3, #1
    8b64:	0a000004 	beq	8b7c <dma_wait+0x38>
    8b68:	e5912000 	ldr	r2, [r1]
    8b6c:	e3120001 	tst	r2, #1
    8b70:	1afffffa 	bne	8b60 <dma_wait+0x1c>
    8b74:	e8bd4010 	pop	{r4, lr}
    8b78:	e12fff1e 	bx	lr
    8b7c:	e5911000 	ldr	r1, [r1]
    8b80:	e59f0018 	ldr	r0, [pc, #24]	; 8ba0 <dma_wait+0x5c>
    8b84:	eb0006ef 	bl	a748 <uart_debug_puts>
    8b88:	e1a01004 	mov	r1, r4
    8b8c:	e59f0010 	ldr	r0, [pc, #16]	; 8ba4 <dma_wait+0x60>
    8b90:	eb0006ec 	bl	a748 <uart_debug_puts>
    8b94:	e8bd4010 	pop	{r4, lr}
    8b98:	e12fff1e 	bx	lr
    8b9c:	00100001 	andseq	r0, r0, r1
    8ba0:	0000b2c4 	andeq	fp, r0, r4, asr #5
    8ba4:	0000b2d8 	ldrdeq	fp, [r0], -r8

00008ba8 <heap_init>:
    8ba8:	e59f3014 	ldr	r3, [pc, #20]	; 8bc4 <heap_init+0x1c>
    8bac:	e2832b01 	add	r2, r3, #1024	; 0x400
    8bb0:	e5a30004 	str	r0, [r3, #4]!
    8bb4:	e1530002 	cmp	r3, r2
    8bb8:	e2800601 	add	r0, r0, #1048576	; 0x100000
    8bbc:	1afffffb 	bne	8bb0 <heap_init+0x8>
    8bc0:	e12fff1e 	bx	lr
    8bc4:	00038140 	andeq	r8, r3, r0, asr #2

00008bc8 <heap_get>:
    8bc8:	e59f3004 	ldr	r3, [pc, #4]	; 8bd4 <heap_get+0xc>
    8bcc:	e7930100 	ldr	r0, [r3, r0, lsl #2]
    8bd0:	e12fff1e 	bx	lr
    8bd4:	00038144 	andeq	r8, r3, r4, asr #2

00008bd8 <fake_vsync>:
    8bd8:	e59f3024 	ldr	r3, [pc, #36]	; 8c04 <fake_vsync+0x2c>
    8bdc:	e3a01801 	mov	r1, #65536	; 0x10000
    8be0:	e1a02003 	mov	r2, r3
    8be4:	e5831214 	str	r1, [r3, #532]	; 0x214
    8be8:	e5923208 	ldr	r3, [r2, #520]	; 0x208
    8bec:	e3130801 	tst	r3, #65536	; 0x10000
    8bf0:	0afffffc 	beq	8be8 <fake_vsync+0x10>
    8bf4:	e3a02000 	mov	r2, #0
    8bf8:	e59f3008 	ldr	r3, [pc, #8]	; 8c08 <fake_vsync+0x30>
    8bfc:	e5832000 	str	r2, [r3]
    8c00:	e12fff1e 	bx	lr
    8c04:	2000b000 	andcs	fp, r0, r0
    8c08:	20600000 	rsbcs	r0, r0, r0

00008c0c <intr_handler>:
    8c0c:	e92d4010 	push	{r4, lr}
    8c10:	e59f0008 	ldr	r0, [pc, #8]	; 8c20 <intr_handler+0x14>
    8c14:	eb000695 	bl	a670 <uart_puts>
    8c18:	e8bd4010 	pop	{r4, lr}
    8c1c:	e12fff1e 	bx	lr
    8c20:	0000b2e8 	andeq	fp, r0, r8, ror #5

00008c24 <handle_hang>:
    8c24:	e92d4010 	push	{r4, lr}
    8c28:	e1a04000 	mov	r4, r0
    8c2c:	eb000015 	bl	8c88 <led_init>
    8c30:	eb00063a 	bl	a520 <uart_init>
    8c34:	e59f5018 	ldr	r5, [pc, #24]	; 8c54 <handle_hang+0x30>
    8c38:	e1a00005 	mov	r0, r5
    8c3c:	eb00068b 	bl	a670 <uart_puts>
    8c40:	e1a00004 	mov	r0, r4
    8c44:	eb000689 	bl	a670 <uart_puts>
    8c48:	e3a00401 	mov	r0, #16777216	; 0x1000000
    8c4c:	ebfffd09 	bl	8078 <SLEEP>
    8c50:	eafffff8 	b	8c38 <handle_hang+0x14>
    8c54:	0000b2fc 	strdeq	fp, [r0], -ip

00008c58 <handle_undef>:
    8c58:	e92d4010 	push	{r4, lr}
    8c5c:	e59f0000 	ldr	r0, [pc]	; 8c64 <handle_undef+0xc>
    8c60:	ebffffef 	bl	8c24 <handle_hang>
    8c64:	0000b30c 	andeq	fp, r0, ip, lsl #6

00008c68 <handle_prefa>:
    8c68:	e92d4010 	push	{r4, lr}
    8c6c:	e59f0000 	ldr	r0, [pc]	; 8c74 <handle_prefa+0xc>
    8c70:	ebffffeb 	bl	8c24 <handle_hang>
    8c74:	0000b314 	andeq	fp, r0, r4, lsl r3

00008c78 <handle_dataa>:
    8c78:	e92d4010 	push	{r4, lr}
    8c7c:	e59f0000 	ldr	r0, [pc]	; 8c84 <handle_dataa+0xc>
    8c80:	ebffffe7 	bl	8c24 <handle_hang>
    8c84:	0000b324 	andeq	fp, r0, r4, lsr #6

00008c88 <led_init>:
    8c88:	e92d4010 	push	{r4, lr}
    8c8c:	e59f401c 	ldr	r4, [pc, #28]	; 8cb0 <led_init+0x28>
    8c90:	e1a00004 	mov	r0, r4
    8c94:	ebfffcf5 	bl	8070 <GET32>
    8c98:	e3c0060e 	bic	r0, r0, #14680064	; 0xe00000
    8c9c:	e3801602 	orr	r1, r0, #2097152	; 0x200000
    8ca0:	e1a00004 	mov	r0, r4
    8ca4:	ebfffcef 	bl	8068 <PUT32>
    8ca8:	e8bd4010 	pop	{r4, lr}
    8cac:	e12fff1e 	bx	lr
    8cb0:	20200010 	eorcs	r0, r0, r0, lsl r0

00008cb4 <led_set>:
    8cb4:	e92d4010 	push	{r4, lr}
    8cb8:	e3500000 	cmp	r0, #0
    8cbc:	e3a01902 	mov	r1, #32768	; 0x8000
    8cc0:	159f000c 	ldrne	r0, [pc, #12]	; 8cd4 <led_set+0x20>
    8cc4:	059f000c 	ldreq	r0, [pc, #12]	; 8cd8 <led_set+0x24>
    8cc8:	ebfffce6 	bl	8068 <PUT32>
    8ccc:	e8bd4010 	pop	{r4, lr}
    8cd0:	e12fff1e 	bx	lr
    8cd4:	20200020 	eorcs	r0, r0, r0, lsr #32
    8cd8:	2020002c 	eorcs	r0, r0, ip, lsr #32

00008cdc <mailbox_fb_get>:
    8cdc:	e59f0000 	ldr	r0, [pc]	; 8ce4 <mailbox_fb_get+0x8>
    8ce0:	e12fff1e 	bx	lr
    8ce4:	00038600 	andeq	r8, r3, r0, lsl #12

00008ce8 <mailbox_write>:
    8ce8:	e92d4070 	push	{r4, r5, r6, lr}
    8cec:	e1a05000 	mov	r5, r0
    8cf0:	e1a04001 	mov	r4, r1
    8cf4:	ebfffcf6 	bl	80d4 <InvalidateData>
    8cf8:	e59f6024 	ldr	r6, [pc, #36]	; 8d24 <mailbox_write+0x3c>
    8cfc:	ebfffcf4 	bl	80d4 <InvalidateData>
    8d00:	e5963898 	ldr	r3, [r6, #2200]	; 0x898
    8d04:	e3530000 	cmp	r3, #0
    8d08:	bafffffb 	blt	8cfc <mailbox_write+0x14>
    8d0c:	e3c4400f 	bic	r4, r4, #15
    8d10:	ebfffcef 	bl	80d4 <InvalidateData>
    8d14:	e1840005 	orr	r0, r4, r5
    8d18:	e58608a0 	str	r0, [r6, #2208]	; 0x8a0
    8d1c:	e8bd4070 	pop	{r4, r5, r6, lr}
    8d20:	e12fff1e 	bx	lr
    8d24:	2000b000 	andcs	fp, r0, r0

00008d28 <mailbox_read>:
    8d28:	e92d4070 	push	{r4, r5, r6, lr}
    8d2c:	e1a05000 	mov	r5, r0
    8d30:	e59f402c 	ldr	r4, [pc, #44]	; 8d64 <mailbox_read+0x3c>
    8d34:	ebfffce6 	bl	80d4 <InvalidateData>
    8d38:	e5943898 	ldr	r3, [r4, #2200]	; 0x898
    8d3c:	e3130101 	tst	r3, #1073741824	; 0x40000000
    8d40:	1afffffb 	bne	8d34 <mailbox_read+0xc>
    8d44:	ebfffce2 	bl	80d4 <InvalidateData>
    8d48:	e5940880 	ldr	r0, [r4, #2176]	; 0x880
    8d4c:	e200200f 	and	r2, r0, #15
    8d50:	e1520005 	cmp	r2, r5
    8d54:	1afffff6 	bne	8d34 <mailbox_read+0xc>
    8d58:	e3c0000f 	bic	r0, r0, #15
    8d5c:	e8bd4070 	pop	{r4, r5, r6, lr}
    8d60:	e12fff1e 	bx	lr
    8d64:	2000b000 	andcs	fp, r0, r0

00008d68 <mailbox_send>:
    8d68:	e92d4070 	push	{r4, r5, r6, lr}
    8d6c:	e1a05000 	mov	r5, r0
    8d70:	e3a04065 	mov	r4, #101	; 0x65
    8d74:	e2806103 	add	r6, r0, #-1073741824	; 0xc0000000
    8d78:	ea000001 	b	8d84 <mailbox_send+0x1c>
    8d7c:	e2544001 	subs	r4, r4, #1
    8d80:	0a000008 	beq	8da8 <mailbox_send+0x40>
    8d84:	e1a01006 	mov	r1, r6
    8d88:	e3a00008 	mov	r0, #8
    8d8c:	ebffffd5 	bl	8ce8 <mailbox_write>
    8d90:	e3a00008 	mov	r0, #8
    8d94:	ebffffe3 	bl	8d28 <mailbox_read>
    8d98:	ebfffccd 	bl	80d4 <InvalidateData>
    8d9c:	e5950004 	ldr	r0, [r5, #4]
    8da0:	e3500102 	cmp	r0, #-2147483648	; 0x80000000
    8da4:	1afffff4 	bne	8d7c <mailbox_send+0x14>
    8da8:	e8bd4070 	pop	{r4, r5, r6, lr}
    8dac:	e12fff1e 	bx	lr

00008db0 <mailbox_qpu_enable>:
    8db0:	e92d4070 	push	{r4, r5, r6, lr}
    8db4:	e3a05005 	mov	r5, #5
    8db8:	e3a01000 	mov	r1, #0
    8dbc:	e3a02008 	mov	r2, #8
    8dc0:	e3a03004 	mov	r3, #4
    8dc4:	e3a0e001 	mov	lr, #1
    8dc8:	e3a0c030 	mov	ip, #48	; 0x30
    8dcc:	e59f4084 	ldr	r4, [pc, #132]	; 8e58 <mailbox_qpu_enable+0xa8>
    8dd0:	e59f0084 	ldr	r0, [pc, #132]	; 8e5c <mailbox_qpu_enable+0xac>
    8dd4:	e5840108 	str	r0, [r4, #264]	; 0x108
    8dd8:	e59f0080 	ldr	r0, [pc, #128]	; 8e60 <mailbox_qpu_enable+0xb0>
    8ddc:	e5840118 	str	r0, [r4, #280]	; 0x118
    8de0:	e59f007c 	ldr	r0, [pc, #124]	; 8e64 <mailbox_qpu_enable+0xb4>
    8de4:	e5845114 	str	r5, [r4, #276]	; 0x114
    8de8:	e2845101 	add	r5, r4, #1073741824	; 0x40000000
    8dec:	e584e128 	str	lr, [r4, #296]	; 0x128
    8df0:	e584c100 	str	ip, [r4, #256]	; 0x100
    8df4:	e584011c 	str	r0, [r4, #284]	; 0x11c
    8df8:	e5841104 	str	r1, [r4, #260]	; 0x104
    8dfc:	e584112c 	str	r1, [r4, #300]	; 0x12c
    8e00:	e584210c 	str	r2, [r4, #268]	; 0x10c
    8e04:	e5842110 	str	r2, [r4, #272]	; 0x110
    8e08:	e5843120 	str	r3, [r4, #288]	; 0x120
    8e0c:	e5843124 	str	r3, [r4, #292]	; 0x124
    8e10:	e59f6050 	ldr	r6, [pc, #80]	; 8e68 <mailbox_qpu_enable+0xb8>
    8e14:	e2855c01 	add	r5, r5, #256	; 0x100
    8e18:	ea000001 	b	8e24 <mailbox_qpu_enable+0x74>
    8e1c:	e1a00006 	mov	r0, r6
    8e20:	eb000648 	bl	a748 <uart_debug_puts>
    8e24:	e1a01005 	mov	r1, r5
    8e28:	e3a00008 	mov	r0, #8
    8e2c:	ebffffad 	bl	8ce8 <mailbox_write>
    8e30:	e3a00008 	mov	r0, #8
    8e34:	ebffffbb 	bl	8d28 <mailbox_read>
    8e38:	e5941104 	ldr	r1, [r4, #260]	; 0x104
    8e3c:	e3510102 	cmp	r1, #-2147483648	; 0x80000000
    8e40:	1afffff5 	bne	8e1c <mailbox_qpu_enable+0x6c>
    8e44:	e59f0020 	ldr	r0, [pc, #32]	; 8e6c <mailbox_qpu_enable+0xbc>
    8e48:	eb00063e 	bl	a748 <uart_debug_puts>
    8e4c:	e5940104 	ldr	r0, [r4, #260]	; 0x104
    8e50:	e8bd4070 	pop	{r4, r5, r6, lr}
    8e54:	e12fff1e 	bx	lr
    8e58:	00038600 	andeq	r8, r3, r0, lsl #12
    8e5c:	00038002 	andeq	r8, r3, r2
    8e60:	0ee6b280 	cdpeq	2, 14, cr11, cr6, cr0, {4}
    8e64:	00030012 	andeq	r0, r3, r2, lsl r0
    8e68:	0000b330 	andeq	fp, r0, r0, lsr r3
    8e6c:	0000b354 	andeq	fp, r0, r4, asr r3

00008e70 <mailbox_set_domain_state>:
    8e70:	e59f3050 	ldr	r3, [pc, #80]	; 8ec8 <mailbox_set_domain_state+0x58>
    8e74:	e92d4070 	push	{r4, r5, r6, lr}
    8e78:	e1a0c003 	mov	ip, r3
    8e7c:	e3a05020 	mov	r5, #32
    8e80:	e3a02008 	mov	r2, #8
    8e84:	e1a0e000 	mov	lr, r0
    8e88:	e3a04000 	mov	r4, #0
    8e8c:	e5ac5100 	str	r5, [ip, #256]!	; 0x100
    8e90:	e1a0000c 	mov	r0, ip
    8e94:	e59fc030 	ldr	ip, [pc, #48]	; 8ecc <mailbox_set_domain_state+0x5c>
    8e98:	e583e114 	str	lr, [r3, #276]	; 0x114
    8e9c:	e5831118 	str	r1, [r3, #280]	; 0x118
    8ea0:	e5834104 	str	r4, [r3, #260]	; 0x104
    8ea4:	e583411c 	str	r4, [r3, #284]	; 0x11c
    8ea8:	e1a01002 	mov	r1, r2
    8eac:	e583c108 	str	ip, [r3, #264]	; 0x108
    8eb0:	e583210c 	str	r2, [r3, #268]	; 0x10c
    8eb4:	e5832110 	str	r2, [r3, #272]	; 0x110
    8eb8:	ebffffaa 	bl	8d68 <mailbox_send>
    8ebc:	e1a00004 	mov	r0, r4
    8ec0:	e8bd4070 	pop	{r4, r5, r6, lr}
    8ec4:	e12fff1e 	bx	lr
    8ec8:	00038600 	andeq	r8, r3, r0, lsl #12
    8ecc:	00038030 	andeq	r8, r3, r0, lsr r0

00008ed0 <mailbox_set_power_state>:
    8ed0:	e59f3050 	ldr	r3, [pc, #80]	; 8f28 <mailbox_set_power_state+0x58>
    8ed4:	e92d4070 	push	{r4, r5, r6, lr}
    8ed8:	e1a0c003 	mov	ip, r3
    8edc:	e3a05020 	mov	r5, #32
    8ee0:	e3a02008 	mov	r2, #8
    8ee4:	e1a0e000 	mov	lr, r0
    8ee8:	e3a04000 	mov	r4, #0
    8eec:	e5ac5100 	str	r5, [ip, #256]!	; 0x100
    8ef0:	e1a0000c 	mov	r0, ip
    8ef4:	e59fc030 	ldr	ip, [pc, #48]	; 8f2c <mailbox_set_power_state+0x5c>
    8ef8:	e583e114 	str	lr, [r3, #276]	; 0x114
    8efc:	e5831118 	str	r1, [r3, #280]	; 0x118
    8f00:	e5834104 	str	r4, [r3, #260]	; 0x104
    8f04:	e583411c 	str	r4, [r3, #284]	; 0x11c
    8f08:	e1a01002 	mov	r1, r2
    8f0c:	e583c108 	str	ip, [r3, #264]	; 0x108
    8f10:	e583210c 	str	r2, [r3, #268]	; 0x10c
    8f14:	e5832110 	str	r2, [r3, #272]	; 0x110
    8f18:	ebffff92 	bl	8d68 <mailbox_send>
    8f1c:	e1a00004 	mov	r0, r4
    8f20:	e8bd4070 	pop	{r4, r5, r6, lr}
    8f24:	e12fff1e 	bx	lr
    8f28:	00038600 	andeq	r8, r3, r0, lsl #12
    8f2c:	00028001 	andeq	r8, r2, r1

00008f30 <mailbox_get_clock_rate>:
    8f30:	e92d4070 	push	{r4, r5, r6, lr}
    8f34:	e59f404c 	ldr	r4, [pc, #76]	; 8f88 <mailbox_get_clock_rate+0x58>
    8f38:	e3a05020 	mov	r5, #32
    8f3c:	e1a02004 	mov	r2, r4
    8f40:	e1a0e000 	mov	lr, r0
    8f44:	e3a03000 	mov	r3, #0
    8f48:	e3a01008 	mov	r1, #8
    8f4c:	e3a0c004 	mov	ip, #4
    8f50:	e5a25100 	str	r5, [r2, #256]!	; 0x100
    8f54:	e1a00002 	mov	r0, r2
    8f58:	e59f202c 	ldr	r2, [pc, #44]	; 8f8c <mailbox_get_clock_rate+0x5c>
    8f5c:	e584e114 	str	lr, [r4, #276]	; 0x114
    8f60:	e584c110 	str	ip, [r4, #272]	; 0x110
    8f64:	e5842108 	str	r2, [r4, #264]	; 0x108
    8f68:	e5843104 	str	r3, [r4, #260]	; 0x104
    8f6c:	e5843118 	str	r3, [r4, #280]	; 0x118
    8f70:	e584311c 	str	r3, [r4, #284]	; 0x11c
    8f74:	e584110c 	str	r1, [r4, #268]	; 0x10c
    8f78:	ebffff7a 	bl	8d68 <mailbox_send>
    8f7c:	e5940104 	ldr	r0, [r4, #260]	; 0x104
    8f80:	e8bd4070 	pop	{r4, r5, r6, lr}
    8f84:	e12fff1e 	bx	lr
    8f88:	00038600 	andeq	r8, r3, r0, lsl #12
    8f8c:	00030002 	andeq	r0, r3, r2

00008f90 <mailbox_fb_init>:
    8f90:	e92d41f0 	push	{r4, r5, r6, r7, r8, lr}
    8f94:	e1a07000 	mov	r7, r0
    8f98:	e1a06001 	mov	r6, r1
    8f9c:	e1a05002 	mov	r5, r2
    8fa0:	e59f4098 	ldr	r4, [pc, #152]	; 9040 <mailbox_fb_init+0xb0>
    8fa4:	e59f0098 	ldr	r0, [pc, #152]	; 9044 <mailbox_fb_init+0xb4>
    8fa8:	e1a01004 	mov	r1, r4
    8fac:	eb0005e5 	bl	a748 <uart_debug_puts>
    8fb0:	e3a03000 	mov	r3, #0
    8fb4:	e3a00020 	mov	r0, #32
    8fb8:	e5847000 	str	r7, [r4]
    8fbc:	e5846004 	str	r6, [r4, #4]
    8fc0:	e5942000 	ldr	r2, [r4]
    8fc4:	e5842008 	str	r2, [r4, #8]
    8fc8:	e5941004 	ldr	r1, [r4, #4]
    8fcc:	e0020195 	mul	r2, r5, r1
    8fd0:	e2845101 	add	r5, r4, #1073741824	; 0x40000000
    8fd4:	e584200c 	str	r2, [r4, #12]
    8fd8:	e5843010 	str	r3, [r4, #16]
    8fdc:	e5840014 	str	r0, [r4, #20]
    8fe0:	e5843018 	str	r3, [r4, #24]
    8fe4:	e584301c 	str	r3, [r4, #28]
    8fe8:	e5843020 	str	r3, [r4, #32]
    8fec:	e5843024 	str	r3, [r4, #36]	; 0x24
    8ff0:	e5843028 	str	r3, [r4, #40]	; 0x28
    8ff4:	ea000001 	b	9000 <mailbox_fb_init+0x70>
    8ff8:	e3a00a01 	mov	r0, #4096	; 0x1000
    8ffc:	ebfffc1d 	bl	8078 <SLEEP>
    9000:	e1a01005 	mov	r1, r5
    9004:	e3a00001 	mov	r0, #1
    9008:	ebffff36 	bl	8ce8 <mailbox_write>
    900c:	e3a00001 	mov	r0, #1
    9010:	ebffff44 	bl	8d28 <mailbox_read>
    9014:	e5943020 	ldr	r3, [r4, #32]
    9018:	e3530000 	cmp	r3, #0
    901c:	0afffff5 	beq	8ff8 <mailbox_fb_init+0x68>
    9020:	e5942020 	ldr	r2, [r4, #32]
    9024:	e5943020 	ldr	r3, [r4, #32]
    9028:	e3c33101 	bic	r3, r3, #1073741824	; 0x40000000
    902c:	e5843020 	str	r3, [r4, #32]
    9030:	e3a00000 	mov	r0, #0
    9034:	e5842028 	str	r2, [r4, #40]	; 0x28
    9038:	e8bd41f0 	pop	{r4, r5, r6, r7, r8, lr}
    903c:	e12fff1e 	bx	lr
    9040:	00038600 	andeq	r8, r3, r0, lsl #12
    9044:	0000b36c 	andeq	fp, r0, ip, ror #6

00009048 <mailbox_fb_flip>:
    9048:	e92d4010 	push	{r4, lr}
    904c:	e59f4054 	ldr	r4, [pc, #84]	; 90a8 <mailbox_fb_flip+0x60>
    9050:	e3a0e024 	mov	lr, #36	; 0x24
    9054:	e1a01004 	mov	r1, r4
    9058:	e3a03000 	mov	r3, #0
    905c:	e3a0c008 	mov	ip, #8
    9060:	e5942004 	ldr	r2, [r4, #4]
    9064:	e0020290 	mul	r2, r0, r2
    9068:	e5a1e100 	str	lr, [r1, #256]!	; 0x100
    906c:	e59fe038 	ldr	lr, [pc, #56]	; 90ac <mailbox_fb_flip+0x64>
    9070:	e1a00001 	mov	r0, r1
    9074:	e3a01009 	mov	r1, #9
    9078:	e5842118 	str	r2, [r4, #280]	; 0x118
    907c:	e584e108 	str	lr, [r4, #264]	; 0x108
    9080:	e5843104 	str	r3, [r4, #260]	; 0x104
    9084:	e5843114 	str	r3, [r4, #276]	; 0x114
    9088:	e584311c 	str	r3, [r4, #284]	; 0x11c
    908c:	e5843120 	str	r3, [r4, #288]	; 0x120
    9090:	e584c10c 	str	ip, [r4, #268]	; 0x10c
    9094:	e584c110 	str	ip, [r4, #272]	; 0x110
    9098:	ebffff32 	bl	8d68 <mailbox_send>
    909c:	e5940104 	ldr	r0, [r4, #260]	; 0x104
    90a0:	e8bd4010 	pop	{r4, lr}
    90a4:	e12fff1e 	bx	lr
    90a8:	00038600 	andeq	r8, r3, r0, lsl #12
    90ac:	00048009 	andeq	r8, r4, r9

000090b0 <_Z13ndc_to_screenP16vertex_format_nvR4vec4ii>:
    90b0:	e92d41f0 	push	{r4, r5, r6, r7, r8, lr}
    90b4:	e5d1600d 	ldrb	r6, [r1, #13]
    90b8:	e5d1c00c 	ldrb	ip, [r1, #12]
    90bc:	e5d1500e 	ldrb	r5, [r1, #14]
    90c0:	e5d14001 	ldrb	r4, [r1, #1]
    90c4:	e5d1e000 	ldrb	lr, [r1]
    90c8:	e18cc406 	orr	ip, ip, r6, lsl #8
    90cc:	e5d16002 	ldrb	r6, [r1, #2]
    90d0:	e18ee404 	orr	lr, lr, r4, lsl #8
    90d4:	e18cc805 	orr	ip, ip, r5, lsl #16
    90d8:	e5d1400f 	ldrb	r4, [r1, #15]
    90dc:	e5d15003 	ldrb	r5, [r1, #3]
    90e0:	e18ee806 	orr	lr, lr, r6, lsl #16
    90e4:	e18eec05 	orr	lr, lr, r5, lsl #24
    90e8:	e18ccc04 	orr	ip, ip, r4, lsl #24
    90ec:	ee07ca10 	vmov	s14, ip
    90f0:	ee06ea90 	vmov	s13, lr
    90f4:	ed9f6a46 	vldr	s12, [pc, #280]	; 9214 <_Z13ndc_to_screenP16vertex_format_nvR4vec4ii+0x164>
    90f8:	eec67a87 	vdiv.f32	s15, s13, s14
    90fc:	ee062a90 	vmov	s13, r2
    9100:	ee777a86 	vadd.f32	s15, s15, s12
    9104:	eef86ae6 	vcvt.f32.s32	s13, s13
    9108:	eddf5a42 	vldr	s11, [pc, #264]	; 9218 <_Z13ndc_to_screenP16vertex_format_nvR4vec4ii+0x168>
    910c:	ee677aa6 	vmul.f32	s15, s15, s13
    9110:	eddf6a41 	vldr	s13, [pc, #260]	; 921c <_Z13ndc_to_screenP16vertex_format_nvR4vec4ii+0x16c>
    9114:	ee677aa5 	vmul.f32	s15, s15, s11
    9118:	ee677aa6 	vmul.f32	s15, s15, s13
    911c:	ee875a07 	vdiv.f32	s10, s14, s14
    9120:	eefd7ae7 	vcvt.s32.f32	s15, s15
    9124:	eec64a05 	vdiv.f32	s9, s12, s10
    9128:	ee172a90 	vmov	r2, s15
    912c:	ee14ea90 	vmov	lr, s9
    9130:	e3a04000 	mov	r4, #0
    9134:	e3a06080 	mov	r6, #128	; 0x80
    9138:	e3a0503f 	mov	r5, #63	; 0x3f
    913c:	e5d17005 	ldrb	r7, [r1, #5]
    9140:	e5d1c004 	ldrb	ip, [r1, #4]
    9144:	e1a02802 	lsl	r2, r2, #16
    9148:	e18cc407 	orr	ip, ip, r7, lsl #8
    914c:	e24dd008 	sub	sp, sp, #8
    9150:	e5d17006 	ldrb	r7, [r1, #6]
    9154:	e1a02842 	asr	r2, r2, #16
    9158:	e5d18007 	ldrb	r8, [r1, #7]
    915c:	e58d3004 	str	r3, [sp, #4]
    9160:	e2823901 	add	r3, r2, #16384	; 0x4000
    9164:	e18c1807 	orr	r1, ip, r7, lsl #16
    9168:	e3530902 	cmp	r3, #32768	; 0x8000
    916c:	e1a0742e 	lsr	r7, lr, #8
    9170:	e1a0c82e 	lsr	ip, lr, #16
    9174:	e1a03c2e 	lsr	r3, lr, #24
    9178:	e5c06006 	strb	r6, [r0, #6]
    917c:	e5c05007 	strb	r5, [r0, #7]
    9180:	e5c0e008 	strb	lr, [r0, #8]
    9184:	e5c07009 	strb	r7, [r0, #9]
    9188:	e5c0c00a 	strb	ip, [r0, #10]
    918c:	e5c0300b 	strb	r3, [r0, #11]
    9190:	e5c04004 	strb	r4, [r0, #4]
    9194:	e5c04005 	strb	r4, [r0, #5]
    9198:	e1811c08 	orr	r1, r1, r8, lsl #24
    919c:	8a000018 	bhi	9204 <_Z13ndc_to_screenP16vertex_format_nvR4vec4ii+0x154>
    91a0:	ee051a10 	vmov	s10, r1
    91a4:	eec57a07 	vdiv.f32	s15, s10, s14
    91a8:	ed9d7a01 	vldr	s14, [sp, #4]
    91ac:	ee777a86 	vadd.f32	s15, s15, s12
    91b0:	eeb87ac7 	vcvt.f32.s32	s14, s14
    91b4:	ee677a87 	vmul.f32	s15, s15, s14
    91b8:	ee677aa5 	vmul.f32	s15, s15, s11
    91bc:	ee677aa6 	vmul.f32	s15, s15, s13
    91c0:	eefd7ae7 	vcvt.s32.f32	s15, s15
    91c4:	ee173a90 	vmov	r3, s15
    91c8:	e1a03803 	lsl	r3, r3, #16
    91cc:	e1a03843 	asr	r3, r3, #16
    91d0:	e2831901 	add	r1, r3, #16384	; 0x4000
    91d4:	e3510902 	cmp	r1, #32768	; 0x8000
    91d8:	8a000009 	bhi	9204 <_Z13ndc_to_screenP16vertex_format_nvR4vec4ii+0x154>
    91dc:	e1a0c422 	lsr	ip, r2, #8
    91e0:	e1a01423 	lsr	r1, r3, #8
    91e4:	e5c02000 	strb	r2, [r0]
    91e8:	e5c0c001 	strb	ip, [r0, #1]
    91ec:	e5c03002 	strb	r3, [r0, #2]
    91f0:	e5c01003 	strb	r1, [r0, #3]
    91f4:	e1a00004 	mov	r0, r4
    91f8:	e28dd008 	add	sp, sp, #8
    91fc:	e8bd41f0 	pop	{r4, r5, r6, r7, r8, lr}
    9200:	e12fff1e 	bx	lr
    9204:	e3a00001 	mov	r0, #1
    9208:	e28dd008 	add	sp, sp, #8
    920c:	e8bd41f0 	pop	{r4, r5, r6, r7, r8, lr}
    9210:	e12fff1e 	bx	lr
    9214:	3f800000 	svccc	0x00800000
    9218:	3f000000 	svccc	0x00000000
    921c:	41800000 	orrmi	r0, r0, r0

00009220 <_Z11calc_matrixP16vertex_format_nvimf>:
    9220:	e92d4ff0 	push	{r4, r5, r6, r7, r8, r9, sl, fp, lr}
    9224:	ed2d8b10 	vpush	{d8-d15}
    9228:	eeb08a40 	vmov.f32	s16, s0
    922c:	e24ddf9d 	sub	sp, sp, #628	; 0x274
    9230:	e58d1028 	str	r1, [sp, #40]	; 0x28
    9234:	e1a04002 	mov	r4, r2
    9238:	e1a08000 	mov	r8, r0
    923c:	ebfffbdf 	bl	81c0 <get_systime_ms>
    9240:	eeb78ac8 	vcvt.f64.f32	d8, s16
    9244:	ed9f0baf 	vldr	d0, [pc, #700]	; 9508 <_Z11calc_matrixP16vertex_format_nvimf+0x2e8>
    9248:	ee280b00 	vmul.f64	d0, d8, d0
    924c:	eeb79bc0 	vcvt.f32.f64	s18, d0
    9250:	eeb00a49 	vmov.f32	s0, s18
    9254:	eb000488 	bl	a47c <tcos>
    9258:	eeb0aa40 	vmov.f32	s20, s0
    925c:	ed9f0bab 	vldr	d0, [pc, #684]	; 9510 <_Z11calc_matrixP16vertex_format_nvimf+0x2f0>
    9260:	ee280b00 	vmul.f64	d0, d8, d0
    9264:	eeb70bc0 	vcvt.f32.f64	s0, d0
    9268:	eb000476 	bl	a448 <tsin>
    926c:	eddfaaa9 	vldr	s21, [pc, #676]	; 9518 <_Z11calc_matrixP16vertex_format_nvimf+0x2f8>
    9270:	eef09a40 	vmov.f32	s19, s0
    9274:	eeb00a49 	vmov.f32	s0, s18
    9278:	eb000472 	bl	a448 <tsin>
    927c:	ee699aea 	vnmul.f32	s19, s19, s21
    9280:	ed9f7aa5 	vldr	s14, [pc, #660]	; 951c <_Z11calc_matrixP16vertex_format_nvimf+0x2fc>
    9284:	ee2aaa2a 	vmul.f32	s20, s20, s21
    9288:	ee775a69 	vsub.f32	s11, s14, s19
    928c:	ee379a4a 	vsub.f32	s18, s14, s20
    9290:	ee603a2a 	vmul.f32	s7, s0, s21
    9294:	ee657aa5 	vmul.f32	s15, s11, s11
    9298:	ee377a63 	vsub.f32	s14, s14, s7
    929c:	ee497a09 	vmla.f32	s15, s18, s18
    92a0:	ee477a07 	vmla.f32	s15, s14, s14
    92a4:	ee172a90 	vmov	r2, s15
    92a8:	ed9f5a9c 	vldr	s10, [pc, #624]	; 9520 <_Z11calc_matrixP16vertex_format_nvimf+0x300>
    92ac:	e59f3280 	ldr	r3, [pc, #640]	; 9534 <_Z11calc_matrixP16vertex_format_nvimf+0x314>
    92b0:	e04330c2 	sub	r3, r3, r2, asr #1
    92b4:	ee063a10 	vmov	s12, r3
    92b8:	ee275a85 	vmul.f32	s10, s15, s10
    92bc:	eddf6a98 	vldr	s13, [pc, #608]	; 9524 <_Z11calc_matrixP16vertex_format_nvimf+0x304>
    92c0:	ee255a06 	vmul.f32	s10, s10, s12
    92c4:	ee677a86 	vmul.f32	s15, s15, s12
    92c8:	ee456a46 	vmls.f32	s13, s10, s12
    92cc:	ee667aa7 	vmul.f32	s15, s13, s15
    92d0:	eef57a40 	vcmp.f32	s15, #0.0
    92d4:	eef1fa10 	vmrs	APSR_nzcv, fpscr
    92d8:	1d9f6a92 	vldrne	s12, [pc, #584]	; 9528 <_Z11calc_matrixP16vertex_format_nvimf+0x308>
    92dc:	1ec66a27 	vdivne.f32	s13, s12, s15
    92e0:	eddf7a8d 	vldr	s15, [pc, #564]	; 951c <_Z11calc_matrixP16vertex_format_nvimf+0x2fc>
    92e4:	1e277a26 	vmulne.f32	s14, s14, s13
    92e8:	1e299a26 	vmulne.f32	s18, s18, s13
    92ec:	1e655aa6 	vmulne.f32	s11, s11, s13
    92f0:	ee276a27 	vmul.f32	s12, s14, s15
    92f4:	ee656aa7 	vmul.f32	s13, s11, s15
    92f8:	ee196a27 	vnmls.f32	s12, s18, s15
    92fc:	ee374a66 	vsub.f32	s8, s14, s13
    9300:	ee667a06 	vmul.f32	s15, s12, s12
    9304:	ee766ac9 	vsub.f32	s13, s13, s18
    9308:	ee447a04 	vmla.f32	s15, s8, s8
    930c:	ee467aa6 	vmla.f32	s15, s13, s13
    9310:	ee172a90 	vmov	r2, s15
    9314:	ed9f3a81 	vldr	s6, [pc, #516]	; 9520 <_Z11calc_matrixP16vertex_format_nvimf+0x300>
    9318:	e59f3214 	ldr	r3, [pc, #532]	; 9534 <_Z11calc_matrixP16vertex_format_nvimf+0x314>
    931c:	e04330c2 	sub	r3, r3, r2, asr #1
    9320:	ee043a90 	vmov	s9, r3
    9324:	ee273a83 	vmul.f32	s6, s15, s6
    9328:	ed9f5a7d 	vldr	s10, [pc, #500]	; 9524 <_Z11calc_matrixP16vertex_format_nvimf+0x304>
    932c:	ee233a24 	vmul.f32	s6, s6, s9
    9330:	ee677aa4 	vmul.f32	s15, s15, s9
    9334:	ee035a64 	vmls.f32	s10, s6, s9
    9338:	ee657a27 	vmul.f32	s15, s10, s15
    933c:	eef57a40 	vcmp.f32	s15, #0.0
    9340:	eef1fa10 	vmrs	APSR_nzcv, fpscr
    9344:	1ddf4a77 	vldrne	s9, [pc, #476]	; 9528 <_Z11calc_matrixP16vertex_format_nvimf+0x308>
    9348:	1e845aa7 	vdivne.f32	s10, s9, s15
    934c:	1e666a85 	vmulne.f32	s13, s13, s10
    9350:	1e244a05 	vmulne.f32	s8, s8, s10
    9354:	1e266a05 	vmulne.f32	s12, s12, s10
    9358:	ee292a26 	vmul.f32	s4, s18, s13
    935c:	ee672a06 	vmul.f32	s5, s14, s12
    9360:	ee172a04 	vnmls.f32	s4, s14, s8
    9364:	ee552aa6 	vnmls.f32	s5, s11, s13
    9368:	ee697aa5 	vmul.f32	s15, s19, s11
    936c:	ee694a82 	vmul.f32	s9, s19, s4
    9370:	ee253a84 	vmul.f32	s6, s11, s8
    9374:	ee295a86 	vmul.f32	s10, s19, s12
    9378:	ee4a4a22 	vmla.f32	s9, s20, s5
    937c:	ee193a06 	vnmls.f32	s6, s18, s12
    9380:	ee0a5a04 	vmla.f32	s10, s20, s8
    9384:	ee4a7a09 	vmla.f32	s15, s20, s18
    9388:	ee434a83 	vmla.f32	s9, s7, s6
    938c:	ee437a87 	vmla.f32	s15, s7, s14
    9390:	ee035aa6 	vmla.f32	s10, s7, s13
    9394:	eddf9a60 	vldr	s19, [pc, #384]	; 951c <_Z11calc_matrixP16vertex_format_nvimf+0x2fc>
    9398:	ed9faa62 	vldr	s20, [pc, #392]	; 9528 <_Z11calc_matrixP16vertex_format_nvimf+0x308>
    939c:	eeb15a45 	vneg.f32	s10, s10
    93a0:	eef17a67 	vneg.f32	s15, s15
    93a4:	eef14a64 	vneg.f32	s9, s9
    93a8:	ed9f0a5f 	vldr	s0, [pc, #380]	; 952c <_Z11calc_matrixP16vertex_format_nvimf+0x30c>
    93ac:	edcd5a12 	vstr	s11, [sp, #72]	; 0x48
    93b0:	ed8d7a16 	vstr	s14, [sp, #88]	; 0x58
    93b4:	ed8d5a18 	vstr	s10, [sp, #96]	; 0x60
    93b8:	edcd7a1a 	vstr	s15, [sp, #104]	; 0x68
    93bc:	ed8d4a0c 	vstr	s8, [sp, #48]	; 0x30
    93c0:	ed8d9a0e 	vstr	s18, [sp, #56]	; 0x38
    93c4:	ed8d6a10 	vstr	s12, [sp, #64]	; 0x40
    93c8:	edcd6a14 	vstr	s13, [sp, #80]	; 0x50
    93cc:	ed8d2a11 	vstr	s4, [sp, #68]	; 0x44
    93d0:	edcd2a0d 	vstr	s5, [sp, #52]	; 0x34
    93d4:	edcd4a19 	vstr	s9, [sp, #100]	; 0x64
    93d8:	ed8d3a15 	vstr	s6, [sp, #84]	; 0x54
    93dc:	edcd9a0f 	vstr	s19, [sp, #60]	; 0x3c
    93e0:	edcd9a13 	vstr	s19, [sp, #76]	; 0x4c
    93e4:	edcd9a17 	vstr	s19, [sp, #92]	; 0x5c
    93e8:	ed8daa1b 	vstr	s20, [sp, #108]	; 0x6c
    93ec:	eb000430 	bl	a4b4 <ttan>
    93f0:	eddf7a4e 	vldr	s15, [pc, #312]	; 9530 <_Z11calc_matrixP16vertex_format_nvimf+0x310>
    93f4:	ee8a7a00 	vdiv.f32	s14, s20, s0
    93f8:	ee677a27 	vmul.f32	s15, s14, s15
    93fc:	eeb05a69 	vmov.f32	s10, s19
    9400:	eef05a69 	vmov.f32	s11, s19
    9404:	e3a0c000 	mov	ip, #0
    9408:	edcd9a1d 	vstr	s19, [sp, #116]	; 0x74
    940c:	edcd9a1e 	vstr	s19, [sp, #120]	; 0x78
    9410:	edcd9a1f 	vstr	s19, [sp, #124]	; 0x7c
    9414:	edcd9a20 	vstr	s19, [sp, #128]	; 0x80
    9418:	edcd9a22 	vstr	s19, [sp, #136]	; 0x88
    941c:	edcd9a23 	vstr	s19, [sp, #140]	; 0x8c
    9420:	edcd9a24 	vstr	s19, [sp, #144]	; 0x90
    9424:	edcd9a25 	vstr	s19, [sp, #148]	; 0x94
    9428:	edcd9a28 	vstr	s19, [sp, #160]	; 0xa0
    942c:	edcd9a29 	vstr	s19, [sp, #164]	; 0xa4
    9430:	ed8daa27 	vstr	s20, [sp, #156]	; 0x9c
    9434:	edcd9a2b 	vstr	s19, [sp, #172]	; 0xac
    9438:	ed8daa2c 	vstr	s20, [sp, #176]	; 0xb0
    943c:	edcd9a2d 	vstr	s19, [sp, #180]	; 0xb4
    9440:	edcd9a2e 	vstr	s19, [sp, #184]	; 0xb8
    9444:	edcd9a2f 	vstr	s19, [sp, #188]	; 0xbc
    9448:	edcd9a30 	vstr	s19, [sp, #192]	; 0xc0
    944c:	ed8daa31 	vstr	s20, [sp, #196]	; 0xc4
    9450:	edcd9a32 	vstr	s19, [sp, #200]	; 0xc8
    9454:	edcd9a33 	vstr	s19, [sp, #204]	; 0xcc
    9458:	edcd9a34 	vstr	s19, [sp, #208]	; 0xd0
    945c:	edcd9a35 	vstr	s19, [sp, #212]	; 0xd4
    9460:	ed8daa36 	vstr	s20, [sp, #216]	; 0xd8
    9464:	edcd9a37 	vstr	s19, [sp, #220]	; 0xdc
    9468:	edcd9a38 	vstr	s19, [sp, #224]	; 0xe0
    946c:	edcd9a39 	vstr	s19, [sp, #228]	; 0xe4
    9470:	edcd9a3a 	vstr	s19, [sp, #232]	; 0xe8
    9474:	ed8daa3b 	vstr	s20, [sp, #236]	; 0xec
    9478:	ed8d7a21 	vstr	s14, [sp, #132]	; 0x84
    947c:	edcd7a1c 	vstr	s15, [sp, #112]	; 0x70
    9480:	e59f20b0 	ldr	r2, [pc, #176]	; 9538 <_Z11calc_matrixP16vertex_format_nvimf+0x318>
    9484:	e59f30b0 	ldr	r3, [pc, #176]	; 953c <_Z11calc_matrixP16vertex_format_nvimf+0x31c>
    9488:	e58d2098 	str	r2, [sp, #152]	; 0x98
    948c:	e58d30a8 	str	r3, [sp, #168]	; 0xa8
    9490:	e28de0b0 	add	lr, sp, #176	; 0xb0
    9494:	e28d1030 	add	r1, sp, #48	; 0x30
    9498:	e28d0080 	add	r0, sp, #128	; 0x80
    949c:	ed914a00 	vldr	s8, [r1]
    94a0:	edd14a01 	vldr	s9, [r1, #4]
    94a4:	e1a0200e 	mov	r2, lr
    94a8:	eeb07a65 	vmov.f32	s14, s11
    94ac:	e28d3070 	add	r3, sp, #112	; 0x70
    94b0:	ecf37a01 	vldmia	r3!, {s15}
    94b4:	eef06a65 	vmov.f32	s13, s11
    94b8:	ee446a27 	vmla.f32	s13, s8, s15
    94bc:	ed936a03 	vldr	s12, [r3, #12]
    94c0:	eef07a66 	vmov.f32	s15, s13
    94c4:	edd36a07 	vldr	s13, [r3, #28]
    94c8:	ee447a86 	vmla.f32	s15, s9, s12
    94cc:	ee497a26 	vmla.f32	s15, s18, s13
    94d0:	ee457a07 	vmla.f32	s15, s10, s14
    94d4:	e1500003 	cmp	r0, r3
    94d8:	ece27a01 	vstmia	r2!, {s15}
    94dc:	1d937a0c 	vldrne	s14, [r3, #48]	; 0x30
    94e0:	1afffff2 	bne	94b0 <_Z11calc_matrixP16vertex_format_nvimf+0x290>
    94e4:	e28cc004 	add	ip, ip, #4
    94e8:	e35c0010 	cmp	ip, #16
    94ec:	e2811010 	add	r1, r1, #16
    94f0:	e28ee010 	add	lr, lr, #16
    94f4:	0a000011 	beq	9540 <_Z11calc_matrixP16vertex_format_nvimf+0x320>
    94f8:	ed919a02 	vldr	s18, [r1, #8]
    94fc:	ed915a03 	vldr	s10, [r1, #12]
    9500:	eaffffe5 	b	949c <_Z11calc_matrixP16vertex_format_nvimf+0x27c>
    9504:	e1a00000 	nop			; (mov r0, r0)
    9508:	33333333 	teqcc	r3, #-872415232	; 0xcc000000
    950c:	3fd33333 	svccc	0x00d33333
    9510:	9999999a 	ldmibls	r9, {r1, r3, r4, r7, r8, fp, ip, pc}
    9514:	3fb99999 	svccc	0x00b99999
    9518:	41a00000 	movmi	r0, r0
    951c:	00000000 	andeq	r0, r0, r0
    9520:	3f000000 	svccc	0x00000000
    9524:	3fc00000 	svccc	0x00c00000
    9528:	3f800000 	svccc	0x00800000
    952c:	42340000 	eorsmi	r0, r4, #0
    9530:	3f400000 	svccc	0x00400000
    9534:	5f3759df 	svcpl	0x003759df
    9538:	3f804020 	svccc	0x00804020
    953c:	be004020 	cdplt	0, 0, cr4, cr0, cr0, {1}
    9540:	e59d3028 	ldr	r3, [sp, #40]	; 0x28
    9544:	e3530000 	cmp	r3, #0
    9548:	da000236 	ble	9e28 <_Z11calc_matrixP16vertex_format_nvimf+0xc08>
    954c:	ed9fabfb 	vldr	d10, [pc, #1004]	; 9940 <_Z11calc_matrixP16vertex_format_nvimf+0x720>
    9550:	ed9f9bfc 	vldr	d9, [pc, #1008]	; 9948 <_Z11calc_matrixP16vertex_format_nvimf+0x728>
    9554:	ee286b0a 	vmul.f64	d6, d8, d10
    9558:	ed9f7bfc 	vldr	d7, [pc, #1008]	; 9950 <_Z11calc_matrixP16vertex_format_nvimf+0x730>
    955c:	ed8d6b04 	vstr	d6, [sp, #16]
    9560:	ee287b07 	vmul.f64	d7, d8, d7
    9564:	ee286b09 	vmul.f64	d6, d8, d9
    9568:	e3a03001 	mov	r3, #1
    956c:	e3a0b000 	mov	fp, #0
    9570:	ed8d6b06 	vstr	d6, [sp, #24]
    9574:	ed8d7b08 	vstr	d7, [sp, #32]
    9578:	ed9ffafc 	vldr	s30, [pc, #1008]	; 9970 <_Z11calc_matrixP16vertex_format_nvimf+0x750>
    957c:	ed9fbafc 	vldr	s22, [pc, #1008]	; 9974 <_Z11calc_matrixP16vertex_format_nvimf+0x754>
    9580:	e58d3004 	str	r3, [sp, #4]
    9584:	e283364b 	add	r3, r3, #78643200	; 0x4b00000
    9588:	e2833a43 	add	r3, r3, #274432	; 0x43000
    958c:	e2833e41 	add	r3, r3, #1040	; 0x410
    9590:	e58d300c 	str	r3, [sp, #12]
    9594:	e59f33e4 	ldr	r3, [pc, #996]	; 9980 <_Z11calc_matrixP16vertex_format_nvimf+0x760>
    9598:	e58d3008 	str	r3, [sp, #8]
    959c:	e2043a01 	and	r3, r4, #4096	; 0x1000
    95a0:	e58db000 	str	fp, [sp]
    95a4:	e58d302c 	str	r3, [sp, #44]	; 0x2c
    95a8:	e99d000c 	ldmib	sp, {r2, r3}
    95ac:	e0839002 	add	r9, r3, r2
    95b0:	e1a02849 	asr	r2, r9, #16
    95b4:	ee072a90 	vmov	s15, r2
    95b8:	eddfeaee 	vldr	s29, [pc, #952]	; 9978 <_Z11calc_matrixP16vertex_format_nvimf+0x758>
    95bc:	eef87ae7 	vcvt.f32.s32	s15, s15
    95c0:	e59d200c 	ldr	r2, [sp, #12]
    95c4:	e083c002 	add	ip, r3, r2
    95c8:	e089a002 	add	sl, r9, r2
    95cc:	e089900c 	add	r9, r9, ip
    95d0:	e08cc00a 	add	ip, ip, sl
    95d4:	e089700c 	add	r7, r9, ip
    95d8:	e1a03849 	asr	r3, r9, #16
    95dc:	ee870aae 	vdiv.f32	s0, s15, s29
    95e0:	ee073a90 	vmov	s15, r3
    95e4:	e1a03847 	asr	r3, r7, #16
    95e8:	ee063a90 	vmov	s13, r3
    95ec:	eef86ae6 	vcvt.f32.s32	s13, s13
    95f0:	ed9d5b04 	vldr	d5, [sp, #16]
    95f4:	ee867aae 	vdiv.f32	s14, s13, s29
    95f8:	eef87ae7 	vcvt.f32.s32	s15, s15
    95fc:	eeb70ac0 	vcvt.f64.f32	d0, s0
    9600:	ee876aae 	vdiv.f32	s12, s15, s29
    9604:	ee300b05 	vadd.f64	d0, d0, d5
    9608:	eeb77ac7 	vcvt.f64.f32	d7, s14
    960c:	ed9d5b08 	vldr	d5, [sp, #32]
    9610:	eeb76ac6 	vcvt.f64.f32	d6, s12
    9614:	ee377b05 	vadd.f64	d7, d7, d5
    9618:	ed9d5b06 	vldr	d5, [sp, #24]
    961c:	e59f6360 	ldr	r6, [pc, #864]	; 9984 <_Z11calc_matrixP16vertex_format_nvimf+0x764>
    9620:	e8b6000f 	ldm	r6!, {r0, r1, r2, r3}
    9624:	eef7dbc0 	vcvt.f32.f64	s27, d0
    9628:	e28d50f0 	add	r5, sp, #240	; 0xf0
    962c:	ee366b05 	vadd.f64	d6, d6, d5
    9630:	ed9fead6 	vldr	s28, [pc, #856]	; 9990 <_Z11calc_matrixP16vertex_format_nvimf+0x770>
    9634:	e8a5000f 	stmia	r5!, {r0, r1, r2, r3}
    9638:	e8b6000f 	ldm	r6!, {r0, r1, r2, r3}
    963c:	e8a5000f 	stmia	r5!, {r0, r1, r2, r3}
    9640:	e8b6000f 	ldm	r6!, {r0, r1, r2, r3}
    9644:	e8a5000f 	stmia	r5!, {r0, r1, r2, r3}
    9648:	e896000f 	ldm	r6, {r0, r1, r2, r3}
    964c:	e28d40b0 	add	r4, sp, #176	; 0xb0
    9650:	e885000f 	stm	r5, {r0, r1, r2, r3}
    9654:	e8b4000f 	ldm	r4!, {r0, r1, r2, r3}
    9658:	e28dee1f 	add	lr, sp, #496	; 0x1f0
    965c:	e8ae000f 	stmia	lr!, {r0, r1, r2, r3}
    9660:	e8b4000f 	ldm	r4!, {r0, r1, r2, r3}
    9664:	e8ae000f 	stmia	lr!, {r0, r1, r2, r3}
    9668:	e8b4000f 	ldm	r4!, {r0, r1, r2, r3}
    966c:	e8ae000f 	stmia	lr!, {r0, r1, r2, r3}
    9670:	e894000f 	ldm	r4, {r0, r1, r2, r3}
    9674:	eeb00a6d 	vmov.f32	s0, s27
    9678:	e089900a 	add	r9, r9, sl
    967c:	e88e000f 	stm	lr, {r0, r1, r2, r3}
    9680:	e08c4009 	add	r4, ip, r9
    9684:	eef7bbc7 	vcvt.f32.f64	s23, d7
    9688:	eeb7dbc6 	vcvt.f32.f64	s26, d6
    968c:	ed8dfa4f 	vstr	s30, [sp, #316]	; 0x13c
    9690:	ed8dfa53 	vstr	s30, [sp, #332]	; 0x14c
    9694:	ed8dfa57 	vstr	s30, [sp, #348]	; 0x15c
    9698:	ed8dfa58 	vstr	s30, [sp, #352]	; 0x160
    969c:	ed8dfa59 	vstr	s30, [sp, #356]	; 0x164
    96a0:	ed8dfa5a 	vstr	s30, [sp, #360]	; 0x168
    96a4:	ed8dea5b 	vstr	s28, [sp, #364]	; 0x16c
    96a8:	eb000366 	bl	a448 <tsin>
    96ac:	eef0fa40 	vmov.f32	s31, s0
    96b0:	eeb00a6d 	vmov.f32	s0, s27
    96b4:	eb000370 	bl	a47c <tcos>
    96b8:	eeb0aa40 	vmov.f32	s20, s0
    96bc:	eeb00a4d 	vmov.f32	s0, s26
    96c0:	eb000360 	bl	a448 <tsin>
    96c4:	eef0da40 	vmov.f32	s27, s0
    96c8:	eeb00a4d 	vmov.f32	s0, s26
    96cc:	eb00036a 	bl	a47c <tcos>
    96d0:	eef09a40 	vmov.f32	s19, s0
    96d4:	eeb00a6b 	vmov.f32	s0, s23
    96d8:	eb00035a 	bl	a448 <tsin>
    96dc:	e0879009 	add	r9, r7, r9
    96e0:	e0877004 	add	r7, r7, r4
    96e4:	eeb0da40 	vmov.f32	s26, s0
    96e8:	e0844009 	add	r4, r4, r9
    96ec:	eeb00a6b 	vmov.f32	s0, s23
    96f0:	e0879009 	add	r9, r7, r9
    96f4:	eb000360 	bl	a47c <tcos>
    96f8:	e1a03847 	asr	r3, r7, #16
    96fc:	e0877004 	add	r7, r7, r4
    9700:	e0844009 	add	r4, r4, r9
    9704:	e0875004 	add	r5, r7, r4
    9708:	ee073a10 	vmov	s14, r3
    970c:	e1a03847 	asr	r3, r7, #16
    9710:	ee073a90 	vmov	s15, r3
    9714:	e1a03845 	asr	r3, r5, #16
    9718:	ee063a90 	vmov	s13, r3
    971c:	eeb87ac7 	vcvt.f32.s32	s14, s14
    9720:	eef86ae6 	vcvt.f32.s32	s13, s13
    9724:	ee875a2e 	vdiv.f32	s10, s14, s29
    9728:	eef87ae7 	vcvt.f32.s32	s15, s15
    972c:	ee867aae 	vdiv.f32	s14, s13, s29
    9730:	ed9f4b88 	vldr	d4, [pc, #544]	; 9958 <_Z11calc_matrixP16vertex_format_nvimf+0x738>
    9734:	eeb75ac5 	vcvt.f64.f32	d5, s10
    9738:	eef0ba40 	vmov.f32	s23, s0
    973c:	ee876aae 	vdiv.f32	s12, s15, s29
    9740:	ed9f2b86 	vldr	d2, [pc, #536]	; 9960 <_Z11calc_matrixP16vertex_format_nvimf+0x740>
    9744:	eeb77ac7 	vcvt.f64.f32	d7, s14
    9748:	ee085b04 	vmla.f64	d5, d8, d4
    974c:	ee087b02 	vmla.f64	d7, d8, d2
    9750:	ee6f0aad 	vmul.f32	s1, s31, s27
    9754:	ee2a1a6d 	vnmul.f32	s2, s20, s27
    9758:	ee6a1a2d 	vmul.f32	s3, s20, s27
    975c:	ed9f2b81 	vldr	d2, [pc, #516]	; 9968 <_Z11calc_matrixP16vertex_format_nvimf+0x748>
    9760:	ee2f0aed 	vnmul.f32	s0, s31, s27
    9764:	ee2a3a2b 	vmul.f32	s6, s20, s23
    9768:	ee6a3a0d 	vmul.f32	s7, s20, s26
    976c:	ee2f4a8d 	vmul.f32	s8, s31, s26
    9770:	ee6f4aab 	vmul.f32	s9, s31, s23
    9774:	eeb76ac6 	vcvt.f64.f32	d6, s12
    9778:	eeb79bc5 	vcvt.f32.f64	s18, d5
    977c:	ee003a0d 	vmla.f32	s6, s0, s26
    9780:	ee403aab 	vmla.f32	s7, s1, s23
    9784:	ee6a5a29 	vmul.f32	s11, s20, s19
    9788:	ee414a8d 	vmla.f32	s9, s3, s26
    978c:	ee086b02 	vmla.f64	d6, d8, d2
    9790:	ee014a2b 	vmla.f32	s8, s2, s23
    9794:	ee6ffae9 	vnmul.f32	s31, s31, s19
    9798:	ee69baab 	vmul.f32	s23, s19, s23
    979c:	ee29dacd 	vnmul.f32	s26, s19, s26
    97a0:	eeb00a49 	vmov.f32	s0, s18
    97a4:	eeb7cbc7 	vcvt.f32.f64	s24, d7
    97a8:	eef79bc6 	vcvt.f32.f64	s19, d6
    97ac:	ed8d3a51 	vstr	s6, [sp, #324]	; 0x144
    97b0:	edcd3a50 	vstr	s7, [sp, #320]	; 0x140
    97b4:	edcd5a56 	vstr	s11, [sp, #344]	; 0x158
    97b8:	edcd4a55 	vstr	s9, [sp, #340]	; 0x154
    97bc:	ed8d4a54 	vstr	s8, [sp, #336]	; 0x150
    97c0:	edcdfa52 	vstr	s31, [sp, #328]	; 0x148
    97c4:	edcdda4e 	vstr	s27, [sp, #312]	; 0x138
    97c8:	ed8dea6b 	vstr	s28, [sp, #428]	; 0x1ac
    97cc:	ed8dfa5f 	vstr	s30, [sp, #380]	; 0x17c
    97d0:	ed8dfa63 	vstr	s30, [sp, #396]	; 0x18c
    97d4:	ed8dfa67 	vstr	s30, [sp, #412]	; 0x19c
    97d8:	ed8dfa68 	vstr	s30, [sp, #416]	; 0x1a0
    97dc:	ed8dfa69 	vstr	s30, [sp, #420]	; 0x1a4
    97e0:	ed8dfa6a 	vstr	s30, [sp, #424]	; 0x1a8
    97e4:	edcdba4c 	vstr	s23, [sp, #304]	; 0x130
    97e8:	ed8dda4d 	vstr	s26, [sp, #308]	; 0x134
    97ec:	eb000315 	bl	a448 <tsin>
    97f0:	eef0fa40 	vmov.f32	s31, s0
    97f4:	eeb00a49 	vmov.f32	s0, s18
    97f8:	eb00031f 	bl	a47c <tcos>
    97fc:	eef0aa40 	vmov.f32	s21, s0
    9800:	eeb00a69 	vmov.f32	s0, s19
    9804:	eb00030f 	bl	a448 <tsin>
    9808:	eeb09a40 	vmov.f32	s18, s0
    980c:	eeb00a69 	vmov.f32	s0, s19
    9810:	eb000319 	bl	a47c <tcos>
    9814:	eef09a40 	vmov.f32	s19, s0
    9818:	eeb00a4c 	vmov.f32	s0, s24
    981c:	eb000309 	bl	a448 <tsin>
    9820:	e0877009 	add	r7, r7, r9
    9824:	e0844007 	add	r4, r4, r7
    9828:	eeb0aa40 	vmov.f32	s20, s0
    982c:	e0857007 	add	r7, r5, r7
    9830:	eeb00a4c 	vmov.f32	s0, s24
    9834:	e0855004 	add	r5, r5, r4
    9838:	eb00030f 	bl	a47c <tcos>
    983c:	e0843007 	add	r3, r4, r7
    9840:	e0857007 	add	r7, r5, r7
    9844:	e0832007 	add	r2, r3, r7
    9848:	e0853003 	add	r3, r5, r3
    984c:	e0830002 	add	r0, r3, r2
    9850:	e1a01843 	asr	r1, r3, #16
    9854:	ee041a90 	vmov	s9, r1
    9858:	e1a05845 	asr	r5, r5, #16
    985c:	e1a01840 	asr	r1, r0, #16
    9860:	ee051a10 	vmov	s10, r1
    9864:	ee075a90 	vmov	s15, r5
    9868:	eeb07a40 	vmov.f32	s14, s0
    986c:	eeb85ac5 	vcvt.f32.s32	s10, s10
    9870:	eef84ae4 	vcvt.f32.s32	s9, s9
    9874:	eef87ae7 	vcvt.f32.s32	s15, s15
    9878:	ee853a2e 	vdiv.f32	s6, s10, s29
    987c:	eddf0a3e 	vldr	s1, [pc, #248]	; 997c <_Z11calc_matrixP16vertex_format_nvimf+0x75c>
    9880:	ee845aae 	vdiv.f32	s10, s9, s29
    9884:	ee6f3ac9 	vnmul.f32	s7, s31, s18
    9888:	eec74aae 	vdiv.f32	s9, s15, s29
    988c:	ee6a1a80 	vmul.f32	s3, s21, s0
    9890:	ee6a7a89 	vmul.f32	s15, s21, s18
    9894:	ee2f1a87 	vmul.f32	s2, s31, s14
    9898:	ee6fea89 	vmul.f32	s29, s31, s18
    989c:	ee2a2a8a 	vmul.f32	s4, s21, s20
    98a0:	ee2a0ac9 	vnmul.f32	s0, s21, s18
    98a4:	ee6f2a8a 	vmul.f32	s5, s31, s20
    98a8:	ee431a8a 	vmla.f32	s3, s7, s20
    98ac:	ee0e2a87 	vmla.f32	s4, s29, s14
    98b0:	ee402a07 	vmla.f32	s5, s0, s14
    98b4:	ee071a8a 	vmla.f32	s2, s15, s20
    98b8:	ee693a87 	vmul.f32	s7, s19, s14
    98bc:	ee6a6aa9 	vmul.f32	s13, s21, s19
    98c0:	ee257a20 	vmul.f32	s14, s10, s1
    98c4:	ee695aca 	vnmul.f32	s11, s19, s20
    98c8:	ee6f7ae9 	vnmul.f32	s15, s31, s19
    98cc:	ee233a20 	vmul.f32	s6, s6, s1
    98d0:	ee644aa0 	vmul.f32	s9, s9, s1
    98d4:	ed8d9a5e 	vstr	s18, [sp, #376]	; 0x178
    98d8:	ed8dea6c 	vstr	s28, [sp, #432]	; 0x1b0
    98dc:	ed8dea71 	vstr	s28, [sp, #452]	; 0x1c4
    98e0:	ed8dea76 	vstr	s28, [sp, #472]	; 0x1d8
    98e4:	ed8dea7b 	vstr	s28, [sp, #492]	; 0x1ec
    98e8:	ed8dea8c 	vstr	s28, [sp, #560]	; 0x230
    98ec:	ed8dea91 	vstr	s28, [sp, #580]	; 0x244
    98f0:	ed8dfa6d 	vstr	s30, [sp, #436]	; 0x1b4
    98f4:	ed8dfa6e 	vstr	s30, [sp, #440]	; 0x1b8
    98f8:	ed8dfa6f 	vstr	s30, [sp, #444]	; 0x1bc
    98fc:	ed8dfa70 	vstr	s30, [sp, #448]	; 0x1c0
    9900:	ed8dfa72 	vstr	s30, [sp, #456]	; 0x1c8
    9904:	ed8dfa73 	vstr	s30, [sp, #460]	; 0x1cc
    9908:	ed8dfa74 	vstr	s30, [sp, #464]	; 0x1d0
    990c:	ed8dfa75 	vstr	s30, [sp, #468]	; 0x1d4
    9910:	ed8dfa77 	vstr	s30, [sp, #476]	; 0x1dc
    9914:	ed8dfa8d 	vstr	s30, [sp, #564]	; 0x234
    9918:	ed8dfa8e 	vstr	s30, [sp, #568]	; 0x238
    991c:	ed8dfa8f 	vstr	s30, [sp, #572]	; 0x23c
    9920:	ed8dfa90 	vstr	s30, [sp, #576]	; 0x240
    9924:	ed8dfa92 	vstr	s30, [sp, #584]	; 0x248
    9928:	edcd1a61 	vstr	s3, [sp, #388]	; 0x184
    992c:	ed8d2a60 	vstr	s4, [sp, #384]	; 0x180
    9930:	edcd2a64 	vstr	s5, [sp, #400]	; 0x190
    9934:	edcd6a66 	vstr	s13, [sp, #408]	; 0x198
    9938:	ed8d1a65 	vstr	s2, [sp, #404]	; 0x194
    993c:	ea000014 	b	9994 <_Z11calc_matrixP16vertex_format_nvimf+0x774>
    9940:	ed916873 	ldc	8, cr6, [r1, #460]	; 0x1cc
    9944:	bfe93f7c 	svclt	0x00e93f7c
    9948:	5c28f5c3 	cfstr32pl	mvfx15, [r8], #-780	; 0xfffffcf4
    994c:	3fe1c28f 	svccc	0x00e1c28f
    9950:	8b439581 	blhi	10eef5c <mailbox_data+0x10b685c>
    9954:	bfebe76c 	svclt	0x00ebe76c
    9958:	76c8b439 			; <UNDEFINED> instruction: 0x76c8b439
    995c:	bffc9fbe 	svclt	0x00fc9fbe
    9960:	22d0e560 	sbcscs	lr, r0, #96, 10	; 0x18000000
    9964:	c00ef9db 	ldrdgt	pc, [lr], -fp
    9968:	d70a3d71 	smlsdxle	sl, r1, sp, r3
    996c:	400470a3 	andmi	r7, r4, r3, lsr #1
    9970:	00000000 	andeq	r0, r0, r0
    9974:	bf800000 	svclt	0x00800000
    9978:	46fffe00 	ldrbtmi	pc, [pc], r0, lsl #28	; <UNPREDICTABLE>
    997c:	41500000 	cmpmi	r0, r0
    9980:	0012d692 	mulseq	r2, r2, r6
    9984:	0000ba30 	andeq	fp, r0, r0, lsr sl
    9988:	0000ba70 	andeq	fp, r0, r0, ror sl
    998c:	00000000 	andeq	r0, r0, r0
    9990:	3f800000 	svccc	0x00800000
    9994:	edcd3a5c 	vstr	s7, [sp, #368]	; 0x170
    9998:	edcd5a5d 	vstr	s11, [sp, #372]	; 0x174
    999c:	edcd7a62 	vstr	s15, [sp, #392]	; 0x188
    99a0:	ed8d3a7a 	vstr	s6, [sp, #488]	; 0x1e8
    99a4:	ed8d7a79 	vstr	s14, [sp, #484]	; 0x1e4
    99a8:	e58d0004 	str	r0, [sp, #4]
    99ac:	e3a01004 	mov	r1, #4
    99b0:	edcd4a78 	vstr	s9, [sp, #480]	; 0x1e0
    99b4:	ed1f5a0c 	vldr	s10, [pc, #-48]	; 998c <_Z11calc_matrixP16vertex_format_nvimf+0x76c>
    99b8:	ed8dfa93 	vstr	s30, [sp, #588]	; 0x24c
    99bc:	ed8dea96 	vstr	s28, [sp, #600]	; 0x258
    99c0:	ed8dea9b 	vstr	s28, [sp, #620]	; 0x26c
    99c4:	ed8dfa94 	vstr	s30, [sp, #592]	; 0x250
    99c8:	ed8dfa95 	vstr	s30, [sp, #596]	; 0x254
    99cc:	ed8dfa97 	vstr	s30, [sp, #604]	; 0x25c
    99d0:	ed8dfa98 	vstr	s30, [sp, #608]	; 0x260
    99d4:	ed8dfa99 	vstr	s30, [sp, #612]	; 0x264
    99d8:	ed8dfa9a 	vstr	s30, [sp, #616]	; 0x268
    99dc:	e0837007 	add	r7, r3, r7
    99e0:	e0823007 	add	r3, r2, r7
    99e4:	e58d3008 	str	r3, [sp, #8]
    99e8:	e0803007 	add	r3, r0, r7
    99ec:	e58d300c 	str	r3, [sp, #12]
    99f0:	e28dee17 	add	lr, sp, #368	; 0x170
    99f4:	e28dce1b 	add	ip, sp, #432	; 0x1b0
    99f8:	e1a0300c 	mov	r3, ip
    99fc:	eeb07a64 	vmov.f32	s14, s9
    9a00:	e2412004 	sub	r2, r1, #4
    9a04:	ecf37a01 	vldmia	r3!, {s15}
    9a08:	eef06a4f 	vmov.f32	s13, s30
    9a0c:	ee476aa3 	vmla.f32	s13, s15, s7
    9a10:	ed936a03 	vldr	s12, [r3, #12]
    9a14:	eef07a66 	vmov.f32	s15, s13
    9a18:	edd36a07 	vldr	s13, [r3, #28]
    9a1c:	ee457a86 	vmla.f32	s15, s11, s12
    9a20:	ee497a26 	vmla.f32	s15, s18, s13
    9a24:	ee457a07 	vmla.f32	s15, s10, s14
    9a28:	e28d0e27 	add	r0, sp, #624	; 0x270
    9a2c:	e0800102 	add	r0, r0, r2, lsl #2
    9a30:	e2822001 	add	r2, r2, #1
    9a34:	e1510002 	cmp	r1, r2
    9a38:	ed407a10 	vstr	s15, [r0, #-64]	; 0xffffffc0
    9a3c:	1d937a0c 	vldrne	s14, [r3, #48]	; 0x30
    9a40:	1affffef 	bne	9a04 <_Z11calc_matrixP16vertex_format_nvimf+0x7e4>
    9a44:	e2811004 	add	r1, r1, #4
    9a48:	e3510014 	cmp	r1, #20
    9a4c:	0a000005 	beq	9a68 <_Z11calc_matrixP16vertex_format_nvimf+0x848>
    9a50:	edde3a04 	vldr	s7, [lr, #16]
    9a54:	edde5a05 	vldr	s11, [lr, #20]
    9a58:	ed9e9a06 	vldr	s18, [lr, #24]
    9a5c:	ed9e5a07 	vldr	s10, [lr, #28]
    9a60:	e28ee010 	add	lr, lr, #16
    9a64:	eaffffe2 	b	99f4 <_Z11calc_matrixP16vertex_format_nvimf+0x7d4>
    9a68:	e28d4e23 	add	r4, sp, #560	; 0x230
    9a6c:	e8b4000f 	ldm	r4!, {r0, r1, r2, r3}
    9a70:	e28dee1b 	add	lr, sp, #432	; 0x1b0
    9a74:	e8ae000f 	stmia	lr!, {r0, r1, r2, r3}
    9a78:	e8b4000f 	ldm	r4!, {r0, r1, r2, r3}
    9a7c:	e8ae000f 	stmia	lr!, {r0, r1, r2, r3}
    9a80:	e8b4000f 	ldm	r4!, {r0, r1, r2, r3}
    9a84:	e8ae000f 	stmia	lr!, {r0, r1, r2, r3}
    9a88:	e894000f 	ldm	r4, {r0, r1, r2, r3}
    9a8c:	e59d402c 	ldr	r4, [sp, #44]	; 0x2c
    9a90:	e3540000 	cmp	r4, #0
    9a94:	e88e000f 	stm	lr, {r0, r1, r2, r3}
    9a98:	0a000038 	beq	9b80 <_Z11calc_matrixP16vertex_format_nvimf+0x960>
    9a9c:	e3a035fe 	mov	r3, #1065353216	; 0x3f800000
    9aa0:	e3a01004 	mov	r1, #4
    9aa4:	eeb06a4f 	vmov.f32	s12, s30
    9aa8:	ed8dfa8d 	vstr	s30, [sp, #564]	; 0x234
    9aac:	ed8dfa8e 	vstr	s30, [sp, #568]	; 0x238
    9ab0:	ed8dfa8f 	vstr	s30, [sp, #572]	; 0x23c
    9ab4:	ed8dfa90 	vstr	s30, [sp, #576]	; 0x240
    9ab8:	ed8dfa92 	vstr	s30, [sp, #584]	; 0x248
    9abc:	ed8dfa93 	vstr	s30, [sp, #588]	; 0x24c
    9ac0:	ed8dfa94 	vstr	s30, [sp, #592]	; 0x250
    9ac4:	ed8dfa95 	vstr	s30, [sp, #596]	; 0x254
    9ac8:	ed8dfa97 	vstr	s30, [sp, #604]	; 0x25c
    9acc:	ed8dfa98 	vstr	s30, [sp, #608]	; 0x260
    9ad0:	ed8dfa99 	vstr	s30, [sp, #612]	; 0x264
    9ad4:	ed8dfa9a 	vstr	s30, [sp, #616]	; 0x268
    9ad8:	e58d3230 	str	r3, [sp, #560]	; 0x230
    9adc:	e58d3244 	str	r3, [sp, #580]	; 0x244
    9ae0:	e58d3258 	str	r3, [sp, #600]	; 0x258
    9ae4:	e58d326c 	str	r3, [sp, #620]	; 0x26c
    9ae8:	e28dee13 	add	lr, sp, #304	; 0x130
    9aec:	e28d3e1f 	add	r3, sp, #496	; 0x1f0
    9af0:	e2412004 	sub	r2, r1, #4
    9af4:	ecf37a01 	vldmia	r3!, {s15}
    9af8:	eeb07a4f 	vmov.f32	s14, s30
    9afc:	ee077aab 	vmla.f32	s14, s15, s23
    9b00:	eef07a47 	vmov.f32	s15, s14
    9b04:	ed937a03 	vldr	s14, [r3, #12]
    9b08:	edd36a07 	vldr	s13, [r3, #28]
    9b0c:	ee4d7a07 	vmla.f32	s15, s26, s14
    9b10:	ed937a0b 	vldr	s14, [r3, #44]	; 0x2c
    9b14:	ee4d7aa6 	vmla.f32	s15, s27, s13
    9b18:	ee467a07 	vmla.f32	s15, s12, s14
    9b1c:	e28d0e27 	add	r0, sp, #624	; 0x270
    9b20:	e0800102 	add	r0, r0, r2, lsl #2
    9b24:	e2822001 	add	r2, r2, #1
    9b28:	e1510002 	cmp	r1, r2
    9b2c:	ed407a10 	vstr	s15, [r0, #-64]	; 0xffffffc0
    9b30:	1affffef 	bne	9af4 <_Z11calc_matrixP16vertex_format_nvimf+0x8d4>
    9b34:	e2811004 	add	r1, r1, #4
    9b38:	e3510014 	cmp	r1, #20
    9b3c:	0a000005 	beq	9b58 <_Z11calc_matrixP16vertex_format_nvimf+0x938>
    9b40:	eddeba04 	vldr	s23, [lr, #16]
    9b44:	ed9eda05 	vldr	s26, [lr, #20]
    9b48:	eddeda06 	vldr	s27, [lr, #24]
    9b4c:	ed9e6a07 	vldr	s12, [lr, #28]
    9b50:	e28ee010 	add	lr, lr, #16
    9b54:	eaffffe4 	b	9aec <_Z11calc_matrixP16vertex_format_nvimf+0x8cc>
    9b58:	e28d4e23 	add	r4, sp, #560	; 0x230
    9b5c:	e8b4000f 	ldm	r4!, {r0, r1, r2, r3}
    9b60:	e28dee1f 	add	lr, sp, #496	; 0x1f0
    9b64:	e8ae000f 	stmia	lr!, {r0, r1, r2, r3}
    9b68:	e8b4000f 	ldm	r4!, {r0, r1, r2, r3}
    9b6c:	e8ae000f 	stmia	lr!, {r0, r1, r2, r3}
    9b70:	e8b4000f 	ldm	r4!, {r0, r1, r2, r3}
    9b74:	e8ae000f 	stmia	lr!, {r0, r1, r2, r3}
    9b78:	e894000f 	ldm	r4, {r0, r1, r2, r3}
    9b7c:	e88e000f 	stm	lr, {r0, r1, r2, r3}
    9b80:	e3a035fe 	mov	r3, #1065353216	; 0x3f800000
    9b84:	e3a01004 	mov	r1, #4
    9b88:	ed8dfa8d 	vstr	s30, [sp, #564]	; 0x234
    9b8c:	ed8dfa8e 	vstr	s30, [sp, #568]	; 0x238
    9b90:	ed8dfa8f 	vstr	s30, [sp, #572]	; 0x23c
    9b94:	ed8dfa90 	vstr	s30, [sp, #576]	; 0x240
    9b98:	ed8dfa92 	vstr	s30, [sp, #584]	; 0x248
    9b9c:	ed8dfa93 	vstr	s30, [sp, #588]	; 0x24c
    9ba0:	ed8dfa94 	vstr	s30, [sp, #592]	; 0x250
    9ba4:	ed8dfa95 	vstr	s30, [sp, #596]	; 0x254
    9ba8:	ed8dfa97 	vstr	s30, [sp, #604]	; 0x25c
    9bac:	ed8dfa98 	vstr	s30, [sp, #608]	; 0x260
    9bb0:	ed8dfa99 	vstr	s30, [sp, #612]	; 0x264
    9bb4:	ed8dfa9a 	vstr	s30, [sp, #616]	; 0x268
    9bb8:	e58d3230 	str	r3, [sp, #560]	; 0x230
    9bbc:	e58d3244 	str	r3, [sp, #580]	; 0x244
    9bc0:	e58d3258 	str	r3, [sp, #600]	; 0x258
    9bc4:	e58d326c 	str	r3, [sp, #620]	; 0x26c
    9bc8:	eddc4a00 	vldr	s9, [ip]
    9bcc:	ed9c5a01 	vldr	s10, [ip, #4]
    9bd0:	eddc5a02 	vldr	s11, [ip, #8]
    9bd4:	ed9c6a03 	vldr	s12, [ip, #12]
    9bd8:	e28d3e1f 	add	r3, sp, #496	; 0x1f0
    9bdc:	e2412004 	sub	r2, r1, #4
    9be0:	ecf37a01 	vldmia	r3!, {s15}
    9be4:	eeb07a4f 	vmov.f32	s14, s30
    9be8:	ee047aa7 	vmla.f32	s14, s9, s15
    9bec:	eef07a47 	vmov.f32	s15, s14
    9bf0:	ed937a03 	vldr	s14, [r3, #12]
    9bf4:	edd36a07 	vldr	s13, [r3, #28]
    9bf8:	ee457a07 	vmla.f32	s15, s10, s14
    9bfc:	ed937a0b 	vldr	s14, [r3, #44]	; 0x2c
    9c00:	ee457aa6 	vmla.f32	s15, s11, s13
    9c04:	ee467a07 	vmla.f32	s15, s12, s14
    9c08:	e28d0e27 	add	r0, sp, #624	; 0x270
    9c0c:	e0800102 	add	r0, r0, r2, lsl #2
    9c10:	e2822001 	add	r2, r2, #1
    9c14:	e1510002 	cmp	r1, r2
    9c18:	ed407a10 	vstr	s15, [r0, #-64]	; 0xffffffc0
    9c1c:	1affffef 	bne	9be0 <_Z11calc_matrixP16vertex_format_nvimf+0x9c0>
    9c20:	e2811004 	add	r1, r1, #4
    9c24:	e3510014 	cmp	r1, #20
    9c28:	e28cc010 	add	ip, ip, #16
    9c2c:	1affffe5 	bne	9bc8 <_Z11calc_matrixP16vertex_format_nvimf+0x9a8>
    9c30:	ed5f5aaa 	vldr	s11, [pc, #-680]	; 9990 <_Z11calc_matrixP16vertex_format_nvimf+0x770>
    9c34:	e28dee23 	add	lr, sp, #560	; 0x230
    9c38:	e8be000f 	ldm	lr!, {r0, r1, r2, r3}
    9c3c:	e28dce1f 	add	ip, sp, #496	; 0x1f0
    9c40:	e8ac000f 	stmia	ip!, {r0, r1, r2, r3}
    9c44:	e8be000f 	ldm	lr!, {r0, r1, r2, r3}
    9c48:	e8ac000f 	stmia	ip!, {r0, r1, r2, r3}
    9c4c:	e8be000f 	ldm	lr!, {r0, r1, r2, r3}
    9c50:	e8ac000f 	stmia	ip!, {r0, r1, r2, r3}
    9c54:	e89e000f 	ldm	lr, {r0, r1, r2, r3}
    9c58:	eef04a65 	vmov.f32	s9, s11
    9c5c:	e88c000f 	stm	ip, {r0, r1, r2, r3}
    9c60:	eeb05a4b 	vmov.f32	s10, s22
    9c64:	ed9d9a7c 	vldr	s18, [sp, #496]	; 0x1f0
    9c68:	eef07a4b 	vmov.f32	s15, s22
    9c6c:	e3a06000 	mov	r6, #0
    9c70:	edddfa80 	vldr	s31, [sp, #512]	; 0x200
    9c74:	edddea84 	vldr	s29, [sp, #528]	; 0x210
    9c78:	ed9dea88 	vldr	s28, [sp, #544]	; 0x220
    9c7c:	edddda7d 	vldr	s27, [sp, #500]	; 0x1f4
    9c80:	ed9dda81 	vldr	s26, [sp, #516]	; 0x204
    9c84:	edddba85 	vldr	s23, [sp, #532]	; 0x214
    9c88:	ed9d0a89 	vldr	s0, [sp, #548]	; 0x224
    9c8c:	eddd0a7e 	vldr	s1, [sp, #504]	; 0x1f8
    9c90:	ed9d1a82 	vldr	s2, [sp, #520]	; 0x208
    9c94:	eddd1a86 	vldr	s3, [sp, #536]	; 0x218
    9c98:	ed9d2a8a 	vldr	s4, [sp, #552]	; 0x228
    9c9c:	eddd2a7f 	vldr	s5, [sp, #508]	; 0x1fc
    9ca0:	ed9d3a83 	vldr	s6, [sp, #524]	; 0x20c
    9ca4:	eddd3a87 	vldr	s7, [sp, #540]	; 0x21c
    9ca8:	ed9d4a8b 	vldr	s8, [sp, #556]	; 0x22c
    9cac:	e51f932c 	ldr	r9, [pc, #-812]	; 9988 <_Z11calc_matrixP16vertex_format_nvimf+0x768>
    9cb0:	e289a080 	add	sl, r9, #128	; 0x80
    9cb4:	e1a04008 	mov	r4, r8
    9cb8:	e1a05006 	mov	r5, r6
    9cbc:	e2887048 	add	r7, r8, #72	; 0x48
    9cc0:	ee217a27 	vmul.f32	s14, s2, s15
    9cc4:	ee2f6aa7 	vmul.f32	s12, s31, s15
    9cc8:	ee6d6a27 	vmul.f32	s13, s26, s15
    9ccc:	ee637a27 	vmul.f32	s15, s6, s15
    9cd0:	ee096a05 	vmla.f32	s12, s18, s10
    9cd4:	ee4d6a85 	vmla.f32	s13, s27, s10
    9cd8:	ee007a85 	vmla.f32	s14, s1, s10
    9cdc:	ee427a85 	vmla.f32	s15, s5, s10
    9ce0:	ee0e6aa4 	vmla.f32	s12, s29, s9
    9ce4:	ee4b6aa4 	vmla.f32	s13, s23, s9
    9ce8:	ee017aa4 	vmla.f32	s14, s3, s9
    9cec:	ee437aa4 	vmla.f32	s15, s7, s9
    9cf0:	ee0e6a25 	vmla.f32	s12, s28, s11
    9cf4:	ee406a25 	vmla.f32	s13, s0, s11
    9cf8:	ee027a25 	vmla.f32	s14, s4, s11
    9cfc:	ee447a25 	vmla.f32	s15, s8, s11
    9d00:	e3a03e1e 	mov	r3, #480	; 0x1e0
    9d04:	e3a02d0a 	mov	r2, #640	; 0x280
    9d08:	e1a00004 	mov	r0, r4
    9d0c:	e28d1e23 	add	r1, sp, #560	; 0x230
    9d10:	ed8d6a8c 	vstr	s12, [sp, #560]	; 0x230
    9d14:	edcd6a8d 	vstr	s13, [sp, #564]	; 0x234
    9d18:	ed8d7a8e 	vstr	s14, [sp, #568]	; 0x238
    9d1c:	edcd7a8f 	vstr	s15, [sp, #572]	; 0x23c
    9d20:	ebfffce2 	bl	90b0 <_Z13ndc_to_screenP16vertex_format_nvR4vec4ii>
    9d24:	e1a03105 	lsl	r3, r5, #2
    9d28:	e2033030 	and	r3, r3, #48	; 0x30
    9d2c:	e28d2e27 	add	r2, sp, #624	; 0x270
    9d30:	e3500000 	cmp	r0, #0
    9d34:	e0823003 	add	r3, r2, r3
    9d38:	1a000024 	bne	9dd0 <_Z11calc_matrixP16vertex_format_nvimf+0xbb0>
    9d3c:	e5131180 	ldr	r1, [r3, #-384]	; 0xfffffe80
    9d40:	e513217c 	ldr	r2, [r3, #-380]	; 0xfffffe84
    9d44:	e1a00421 	lsr	r0, r1, #8
    9d48:	e5133178 	ldr	r3, [r3, #-376]	; 0xfffffe88
    9d4c:	e5c4100c 	strb	r1, [r4, #12]
    9d50:	e5c4000d 	strb	r0, [r4, #13]
    9d54:	e1a00821 	lsr	r0, r1, #16
    9d58:	e1a01c21 	lsr	r1, r1, #24
    9d5c:	e5c4000e 	strb	r0, [r4, #14]
    9d60:	e5c4100f 	strb	r1, [r4, #15]
    9d64:	e1a00422 	lsr	r0, r2, #8
    9d68:	e1a01822 	lsr	r1, r2, #16
    9d6c:	e5c42010 	strb	r2, [r4, #16]
    9d70:	e5c43014 	strb	r3, [r4, #20]
    9d74:	e5c40011 	strb	r0, [r4, #17]
    9d78:	e5c41012 	strb	r1, [r4, #18]
    9d7c:	e1a00423 	lsr	r0, r3, #8
    9d80:	e1a01823 	lsr	r1, r3, #16
    9d84:	e1a02c22 	lsr	r2, r2, #24
    9d88:	e1a03c23 	lsr	r3, r3, #24
    9d8c:	e5c42013 	strb	r2, [r4, #19]
    9d90:	e5c40015 	strb	r0, [r4, #21]
    9d94:	e5c41016 	strb	r1, [r4, #22]
    9d98:	e5c43017 	strb	r3, [r4, #23]
    9d9c:	e2844018 	add	r4, r4, #24
    9da0:	e1570004 	cmp	r7, r4
    9da4:	e2855001 	add	r5, r5, #1
    9da8:	0a000006 	beq	9dc8 <_Z11calc_matrixP16vertex_format_nvimf+0xba8>
    9dac:	e79a3105 	ldr	r3, [sl, r5, lsl #2]
    9db0:	e0893203 	add	r3, r9, r3, lsl #4
    9db4:	edd35a03 	vldr	s11, [r3, #12]
    9db8:	edd34a02 	vldr	s9, [r3, #8]
    9dbc:	edd37a01 	vldr	s15, [r3, #4]
    9dc0:	ed935a00 	vldr	s10, [r3]
    9dc4:	eaffffbd 	b	9cc0 <_Z11calc_matrixP16vertex_format_nvimf+0xaa0>
    9dc8:	e1a08007 	mov	r8, r7
    9dcc:	e28bb003 	add	fp, fp, #3
    9dd0:	e2866003 	add	r6, r6, #3
    9dd4:	e3560024 	cmp	r6, #36	; 0x24
    9dd8:	0a000006 	beq	9df8 <_Z11calc_matrixP16vertex_format_nvimf+0xbd8>
    9ddc:	e79a3106 	ldr	r3, [sl, r6, lsl #2]
    9de0:	e0893203 	add	r3, r9, r3, lsl #4
    9de4:	edd34a02 	vldr	s9, [r3, #8]
    9de8:	edd37a01 	vldr	s15, [r3, #4]
    9dec:	ed935a00 	vldr	s10, [r3]
    9df0:	edd35a03 	vldr	s11, [r3, #12]
    9df4:	eaffffae 	b	9cb4 <_Z11calc_matrixP16vertex_format_nvimf+0xa94>
    9df8:	e59d3000 	ldr	r3, [sp]
    9dfc:	e59d2028 	ldr	r2, [sp, #40]	; 0x28
    9e00:	e2833001 	add	r3, r3, #1
    9e04:	e1520003 	cmp	r2, r3
    9e08:	e58d3000 	str	r3, [sp]
    9e0c:	1afffde5 	bne	95a8 <_Z11calc_matrixP16vertex_format_nvimf+0x388>
    9e10:	ebfff8ea 	bl	81c0 <get_systime_ms>
    9e14:	e1a0000b 	mov	r0, fp
    9e18:	e28ddf9d 	add	sp, sp, #628	; 0x274
    9e1c:	ecbd8b10 	vpop	{d8-d15}
    9e20:	e8bd4ff0 	pop	{r4, r5, r6, r7, r8, r9, sl, fp, lr}
    9e24:	e12fff1e 	bx	lr
    9e28:	e3a0b000 	mov	fp, #0
    9e2c:	eafffff7 	b	9e10 <_Z11calc_matrixP16vertex_format_nvimf+0xbf0>

00009e30 <_Z7maincppv>:
    9e30:	e92d4ff0 	push	{r4, r5, r6, r7, r8, r9, sl, fp, lr}
    9e34:	ed2d8b0a 	vpush	{d8-d12}
    9e38:	e24dd03c 	sub	sp, sp, #60	; 0x3c
    9e3c:	ebfffb91 	bl	8c88 <led_init>
    9e40:	eb0001b6 	bl	a520 <uart_init>
    9e44:	e3a00501 	mov	r0, #4194304	; 0x400000
    9e48:	ebfffb56 	bl	8ba8 <heap_init>
    9e4c:	e3a00000 	mov	r0, #0
    9e50:	ebfffb5c 	bl	8bc8 <heap_get>
    9e54:	e1a03000 	mov	r3, r0
    9e58:	e3a00001 	mov	r0, #1
    9e5c:	ee0a3a10 	vmov	s20, r3
    9e60:	ebfffb58 	bl	8bc8 <heap_get>
    9e64:	e1a03000 	mov	r3, r0
    9e68:	e3a00002 	mov	r0, #2
    9e6c:	ee0a3a90 	vmov	s21, r3
    9e70:	ebfffb54 	bl	8bc8 <heap_get>
    9e74:	e1a05000 	mov	r5, r0
    9e78:	e3a00003 	mov	r0, #3
    9e7c:	ebfffb51 	bl	8bc8 <heap_get>
    9e80:	e1a04000 	mov	r4, r0
    9e84:	e3a00004 	mov	r0, #4
    9e88:	ebfffb4e 	bl	8bc8 <heap_get>
    9e8c:	e1a03000 	mov	r3, r0
    9e90:	e3a00005 	mov	r0, #5
    9e94:	ee0b3a90 	vmov	s23, r3
    9e98:	ebfffb4a 	bl	8bc8 <heap_get>
    9e9c:	e1a03000 	mov	r3, r0
    9ea0:	e3a00006 	mov	r0, #6
    9ea4:	e1a07003 	mov	r7, r3
    9ea8:	e58d300c 	str	r3, [sp, #12]
    9eac:	ebfffb45 	bl	8bc8 <heap_get>
    9eb0:	e1a03000 	mov	r3, r0
    9eb4:	e3a00007 	mov	r0, #7
    9eb8:	e1a06003 	mov	r6, r3
    9ebc:	e58d3010 	str	r3, [sp, #16]
    9ec0:	ebfffb40 	bl	8bc8 <heap_get>
    9ec4:	e1a03000 	mov	r3, r0
    9ec8:	e3a02060 	mov	r2, #96	; 0x60
    9ecc:	e59f1110 	ldr	r1, [pc, #272]	; 9fe4 <_Z7maincppv+0x1b4>
    9ed0:	e1a00007 	mov	r0, r7
    9ed4:	ee0b3a10 	vmov	s22, r3
    9ed8:	ebfff89d 	bl	8154 <memcpy>
    9edc:	e3a02068 	mov	r2, #104	; 0x68
    9ee0:	e59f1100 	ldr	r1, [pc, #256]	; 9fe8 <_Z7maincppv+0x1b8>
    9ee4:	e1a00006 	mov	r0, r6
    9ee8:	ebfff899 	bl	8154 <memcpy>
    9eec:	ebfffbaf 	bl	8db0 <mailbox_qpu_enable>
    9ef0:	e3a02002 	mov	r2, #2
    9ef4:	e3a01e1e 	mov	r1, #480	; 0x1e0
    9ef8:	e3a00d0a 	mov	r0, #640	; 0x280
    9efc:	ebfffc23 	bl	8f90 <mailbox_fb_init>
    9f00:	ebfffb75 	bl	8cdc <mailbox_fb_get>
    9f04:	e1a03000 	mov	r3, r0
    9f08:	e58d0008 	str	r0, [sp, #8]
    9f0c:	e3a00000 	mov	r0, #0
    9f10:	e5936020 	ldr	r6, [r3, #32]
    9f14:	e1a02006 	mov	r2, r6
    9f18:	e3a03000 	mov	r3, #0
    9f1c:	e0201003 	eor	r1, r0, r3
    9f20:	e2833001 	add	r3, r3, #1
    9f24:	e282c94b 	add	ip, r2, #1228800	; 0x12c000
    9f28:	e1a0e401 	lsl	lr, r1, #8
    9f2c:	e3530d0a 	cmp	r3, #640	; 0x280
    9f30:	e5821000 	str	r1, [r2]
    9f34:	e58ce000 	str	lr, [ip]
    9f38:	e2822004 	add	r2, r2, #4
    9f3c:	1afffff6 	bne	9f1c <_Z7maincppv+0xec>
    9f40:	e2800001 	add	r0, r0, #1
    9f44:	e3500e1e 	cmp	r0, #480	; 0x1e0
    9f48:	e2866c0a 	add	r6, r6, #2560	; 0xa00
    9f4c:	1afffff0 	bne	9f14 <_Z7maincppv+0xe4>
    9f50:	e3a06583 	mov	r6, #549453824	; 0x20c00000
    9f54:	e3a07000 	mov	r7, #0
    9f58:	e5961000 	ldr	r1, [r6]
    9f5c:	e59f0088 	ldr	r0, [pc, #136]	; 9fec <_Z7maincppv+0x1bc>
    9f60:	e58d7000 	str	r7, [sp]
    9f64:	eb0001f7 	bl	a748 <uart_debug_puts>
    9f68:	e5961004 	ldr	r1, [r6, #4]
    9f6c:	e59f007c 	ldr	r0, [pc, #124]	; 9ff0 <_Z7maincppv+0x1c0>
    9f70:	eb0001f4 	bl	a748 <uart_debug_puts>
    9f74:	e5961008 	ldr	r1, [r6, #8]
    9f78:	e59f0074 	ldr	r0, [pc, #116]	; 9ff4 <_Z7maincppv+0x1c4>
    9f7c:	eb0001f1 	bl	a748 <uart_debug_puts>
    9f80:	e59d3008 	ldr	r3, [sp, #8]
    9f84:	e59f006c 	ldr	r0, [pc, #108]	; 9ff8 <_Z7maincppv+0x1c8>
    9f88:	e5931020 	ldr	r1, [r3, #32]
    9f8c:	eb0001ed 	bl	a748 <uart_debug_puts>
    9f90:	e2853101 	add	r3, r5, #1073741824	; 0x40000000
    9f94:	e58d3018 	str	r3, [sp, #24]
    9f98:	e2843101 	add	r3, r4, #1073741824	; 0x40000000
    9f9c:	e58d301c 	str	r3, [sp, #28]
    9fa0:	ee1b3a10 	vmov	r3, s22
    9fa4:	e2833101 	add	r3, r3, #1073741824	; 0x40000000
    9fa8:	e58d3014 	str	r3, [sp, #20]
    9fac:	ee1a3a90 	vmov	r3, s21
    9fb0:	e2833101 	add	r3, r3, #1073741824	; 0x40000000
    9fb4:	ee0c3a10 	vmov	s24, r3
    9fb8:	ee1a3a10 	vmov	r3, s20
    9fbc:	eddf8a05 	vldr	s17, [pc, #20]	; 9fd8 <_Z7maincppv+0x1a8>
    9fc0:	e2833101 	add	r3, r3, #1073741824	; 0x40000000
    9fc4:	eeb08a68 	vmov.f32	s16, s17
    9fc8:	ed9f9a03 	vldr	s18, [pc, #12]	; 9fdc <_Z7maincppv+0x1ac>
    9fcc:	eddf9a03 	vldr	s19, [pc, #12]	; 9fe0 <_Z7maincppv+0x1b0>
    9fd0:	ee0c3a90 	vmov	s25, r3
    9fd4:	ea00003f 	b	a0d8 <_Z7maincppv+0x2a8>
    9fd8:	00000000 	andeq	r0, r0, r0
    9fdc:	3c888885 	stccc	8, cr8, [r8], {133}	; 0x85
    9fe0:	3f800000 	svccc	0x00800000
    9fe4:	0000bb80 	andeq	fp, r0, r0, lsl #23
    9fe8:	0000bbe0 	andeq	fp, r0, r0, ror #23
    9fec:	0000b37c 	andeq	fp, r0, ip, ror r3
    9ff0:	0000b390 	muleq	r0, r0, r3
    9ff4:	0000b3a4 	andeq	fp, r0, r4, lsr #7
    9ff8:	0000b3b8 			; <UNDEFINED> instruction: 0x0000b3b8
    9ffc:	00000f14 	andeq	r0, r0, r4, lsl pc
    a000:	01e00280 	mvneq	r0, r0, lsl #5
    a004:	00000f3a 	andeq	r0, r0, sl, lsr pc
    a008:	ffffb045 			; <UNDEFINED> instruction: 0xffffb045
    a00c:	ff000511 			; <UNDEFINED> instruction: 0xff000511
    a010:	e3a02002 	mov	r2, #2
    a014:	e3a01000 	mov	r1, #0
    a018:	e28d0024 	add	r0, sp, #36	; 0x24
    a01c:	e1cd72b4 	strh	r7, [sp, #36]	; 0x24
    a020:	ebfff854 	bl	8178 <memset>
    a024:	e28d1024 	add	r1, sp, #36	; 0x24
    a028:	e1a0000a 	mov	r0, sl
    a02c:	e5cd4024 	strb	r4, [sp, #36]	; 0x24
    a030:	e5cd8025 	strb	r8, [sp, #37]	; 0x25
    a034:	eb0003eb 	bl	afe8 <v3d_set_rendering_tile_coordinates>
    a038:	e28d1028 	add	r1, sp, #40	; 0x28
    a03c:	e58d5028 	str	r5, [sp, #40]	; 0x28
    a040:	eb00034a 	bl	ad70 <v3d_set_branch_to_sublist>
    a044:	e3540013 	cmp	r4, #19
    a048:	0356000e 	cmpeq	r6, #14
    a04c:	e1a03000 	mov	r3, r0
    a050:	e2855020 	add	r5, r5, #32
    a054:	1a0000ee 	bne	a414 <_Z7maincppv+0x5e4>
    a058:	eb00035d 	bl	add4 <v3d_set_rendering_store_multi_sample_resolved_tile_color_buffer_eof>
    a05c:	e1a0a000 	mov	sl, r0
    a060:	e1a0000a 	mov	r0, sl
    a064:	eb00032f 	bl	ad28 <v3d_set_nop>
    a068:	e1a04000 	mov	r4, r0
    a06c:	ebfff853 	bl	81c0 <get_systime_ms>
    a070:	e59d3004 	ldr	r3, [sp, #4]
    a074:	ee1c0a90 	vmov	r0, s25
    a078:	e2831101 	add	r1, r3, #1073741824	; 0x40000000
    a07c:	eb0003e2 	bl	b00c <v3d_set_bin_exec_addr>
    a080:	e3a00401 	mov	r0, #16777216	; 0x1000000
    a084:	eb0003f3 	bl	b058 <v3d_wait_bin_exec>
    a088:	ebfff84c 	bl	81c0 <get_systime_ms>
    a08c:	ebfff84b 	bl	81c0 <get_systime_ms>
    a090:	e2841101 	add	r1, r4, #1073741824	; 0x40000000
    a094:	ee1c0a10 	vmov	r0, s24
    a098:	eb0003df 	bl	b01c <v3d_set_rendering_exec_addr>
    a09c:	e3a00401 	mov	r0, #16777216	; 0x1000000
    a0a0:	eb0003fb 	bl	b094 <v3d_wait_rendering_exec>
    a0a4:	ebfff845 	bl	81c0 <get_systime_ms>
    a0a8:	ebfffaca 	bl	8bd8 <fake_vsync>
    a0ac:	e1a0000b 	mov	r0, fp
    a0b0:	ebfffbe4 	bl	9048 <mailbox_fb_flip>
    a0b4:	ebfff841 	bl	81c0 <get_systime_ms>
    a0b8:	ee388a09 	vadd.f32	s16, s16, s18
    a0bc:	eeb48ae9 	vcmpe.f32	s16, s19
    a0c0:	eef1fa10 	vmrs	APSR_nzcv, fpscr
    a0c4:	ee788a89 	vadd.f32	s17, s17, s18
    a0c8:	ce388a69 	vsubgt.f32	s16, s16, s19
    a0cc:	e59d3000 	ldr	r3, [sp]
    a0d0:	e2833001 	add	r3, r3, #1
    a0d4:	e58d3000 	str	r3, [sp]
    a0d8:	e59d8000 	ldr	r8, [sp]
    a0dc:	e208b001 	and	fp, r8, #1
    a0e0:	e1a0000b 	mov	r0, fp
    a0e4:	ebfffaf2 	bl	8cb4 <led_set>
    a0e8:	ebfff834 	bl	81c0 <get_systime_ms>
    a0ec:	eeb00a68 	vmov.f32	s0, s17
    a0f0:	e3a010c0 	mov	r1, #192	; 0xc0
    a0f4:	e1a02008 	mov	r2, r8
    a0f8:	ee1b0a10 	vmov	r0, s22
    a0fc:	ebfffc47 	bl	9220 <_Z11calc_matrixP16vertex_format_nvimf>
    a100:	e59d2008 	ldr	r2, [sp, #8]
    a104:	e1a0310b 	lsl	r3, fp, #2
    a108:	e5925020 	ldr	r5, [r2, #32]
    a10c:	e083300b 	add	r3, r3, fp
    a110:	e0633203 	rsb	r3, r3, r3, lsl #4
    a114:	e1a04000 	mov	r4, r0
    a118:	e0855703 	add	r5, r5, r3, lsl #14
    a11c:	eb0003c2 	bl	b02c <v3d_reset>
    a120:	e3a0200f 	mov	r2, #15
    a124:	e3a01000 	mov	r1, #0
    a128:	e28d0028 	add	r0, sp, #40	; 0x28
    a12c:	e58d7028 	str	r7, [sp, #40]	; 0x28
    a130:	e58d702c 	str	r7, [sp, #44]	; 0x2c
    a134:	e58d7030 	str	r7, [sp, #48]	; 0x30
    a138:	e1cd73b4 	strh	r7, [sp, #52]	; 0x34
    a13c:	e5cd7036 	strb	r7, [sp, #54]	; 0x36
    a140:	ebfff80c 	bl	8178 <memset>
    a144:	e3a02601 	mov	r2, #1048576	; 0x100000
    a148:	e5dd3036 	ldrb	r3, [sp, #54]	; 0x36
    a14c:	e59dc01c 	ldr	ip, [sp, #28]
    a150:	e59d9018 	ldr	r9, [sp, #24]
    a154:	e58dc030 	str	ip, [sp, #48]	; 0x30
    a158:	e3c33005 	bic	r3, r3, #5
    a15c:	e51fc168 	ldr	ip, [pc, #-360]	; 9ffc <_Z7maincppv+0x1cc>
    a160:	e3833005 	orr	r3, r3, #5
    a164:	e28d1028 	add	r1, sp, #40	; 0x28
    a168:	ee1a0a10 	vmov	r0, s20
    a16c:	e1cdc3b4 	strh	ip, [sp, #52]	; 0x34
    a170:	e5cd3036 	strb	r3, [sp, #54]	; 0x36
    a174:	e58d202c 	str	r2, [sp, #44]	; 0x2c
    a178:	e58d9028 	str	r9, [sp, #40]	; 0x28
    a17c:	eb000317 	bl	ade0 <v3d_set_bin_mode_config>
    a180:	eb0002f1 	bl	ad4c <v3d_set_bin_start_tile_binning>
    a184:	e1a06000 	mov	r6, r0
    a188:	e3a02008 	mov	r2, #8
    a18c:	e51fa194 	ldr	sl, [pc, #-404]	; a000 <_Z7maincppv+0x1d0>
    a190:	e3a01000 	mov	r1, #0
    a194:	e28d0028 	add	r0, sp, #40	; 0x28
    a198:	e58d7028 	str	r7, [sp, #40]	; 0x28
    a19c:	e58d702c 	str	r7, [sp, #44]	; 0x2c
    a1a0:	ebfff7f4 	bl	8178 <memset>
    a1a4:	e1a00006 	mov	r0, r6
    a1a8:	e28d1028 	add	r1, sp, #40	; 0x28
    a1ac:	e58da02c 	str	sl, [sp, #44]	; 0x2c
    a1b0:	eb000316 	bl	ae10 <v3d_set_bin_clip_window>
    a1b4:	e1a06000 	mov	r6, r0
    a1b8:	e3a02004 	mov	r2, #4
    a1bc:	e3a01000 	mov	r1, #0
    a1c0:	e28d0028 	add	r0, sp, #40	; 0x28
    a1c4:	e58d7028 	str	r7, [sp, #40]	; 0x28
    a1c8:	ebfff7ea 	bl	8178 <memset>
    a1cc:	e1a00006 	mov	r0, r6
    a1d0:	e28d1028 	add	r1, sp, #40	; 0x28
    a1d4:	eb000316 	bl	ae34 <v3d_set_bin_viewport_offset>
    a1d8:	e1a06000 	mov	r6, r0
    a1dc:	e3a02003 	mov	r2, #3
    a1e0:	e3a01000 	mov	r1, #0
    a1e4:	e28d0028 	add	r0, sp, #40	; 0x28
    a1e8:	e1cd72b8 	strh	r7, [sp, #40]	; 0x28
    a1ec:	e5cd702a 	strb	r7, [sp, #42]	; 0x2a
    a1f0:	ebfff7e0 	bl	8178 <memset>
    a1f4:	e1dd02b8 	ldrh	r0, [sp, #40]	; 0x28
    a1f8:	e5dd302a 	ldrb	r3, [sp, #42]	; 0x2a
    a1fc:	e51f1200 	ldr	r1, [pc, #-512]	; a004 <_Z7maincppv+0x1d4>
    a200:	e51f2200 	ldr	r2, [pc, #-512]	; a008 <_Z7maincppv+0x1d8>
    a204:	e0011000 	and	r1, r1, r0
    a208:	e3c33003 	bic	r3, r3, #3
    a20c:	e1822001 	orr	r2, r2, r1
    a210:	e3833003 	orr	r3, r3, #3
    a214:	e1a00006 	mov	r0, r6
    a218:	e28d1028 	add	r1, sp, #40	; 0x28
    a21c:	e5cd302a 	strb	r3, [sp, #42]	; 0x2a
    a220:	e1cd22b8 	strh	r2, [sp, #40]	; 0x28
    a224:	eb00030b 	bl	ae58 <v3d_set_bin_state_config>
    a228:	e3a02010 	mov	r2, #16
    a22c:	e1a06000 	mov	r6, r0
    a230:	e3a01000 	mov	r1, #0
    a234:	e28d0028 	add	r0, sp, #40	; 0x28
    a238:	ebfff7ce 	bl	8178 <memset>
    a23c:	e28d200c 	add	r2, sp, #12
    a240:	e892000c 	ldm	r2, {r2, r3}
    a244:	e3180b01 	tst	r8, #1024	; 0x400
    a248:	01a03002 	moveq	r3, r2
    a24c:	e3a00018 	mov	r0, #24
    a250:	e3a0cc03 	mov	ip, #768	; 0x300
    a254:	e59d1014 	ldr	r1, [sp, #20]
    a258:	e2833101 	add	r3, r3, #1073741824	; 0x40000000
    a25c:	e3a02010 	mov	r2, #16
    a260:	e58d1034 	str	r1, [sp, #52]	; 0x34
    a264:	e5cd0029 	strb	r0, [sp, #41]	; 0x29
    a268:	e28d1028 	add	r1, sp, #40	; 0x28
    a26c:	ee1b0a90 	vmov	r0, s23
    a270:	e58d302c 	str	r3, [sp, #44]	; 0x2c
    a274:	e1cdc2ba 	strh	ip, [sp, #42]	; 0x2a
    a278:	e58d7030 	str	r7, [sp, #48]	; 0x30
    a27c:	ebfff7b4 	bl	8154 <memcpy>
    a280:	ee1b1a90 	vmov	r1, s23
    a284:	e1a00006 	mov	r0, r6
    a288:	eb000324 	bl	af20 <v3d_set_nv_shader_state_record>
    a28c:	e3a02009 	mov	r2, #9
    a290:	e1a06000 	mov	r6, r0
    a294:	e3a01000 	mov	r1, #0
    a298:	e28d0028 	add	r0, sp, #40	; 0x28
    a29c:	ebfff7b5 	bl	8178 <memset>
    a2a0:	e3a03004 	mov	r3, #4
    a2a4:	e1a0e424 	lsr	lr, r4, #8
    a2a8:	e1a0c824 	lsr	ip, r4, #16
    a2ac:	e1a02c24 	lsr	r2, r4, #24
    a2b0:	e28d1028 	add	r1, sp, #40	; 0x28
    a2b4:	e1a00006 	mov	r0, r6
    a2b8:	e5cde02a 	strb	lr, [sp, #42]	; 0x2a
    a2bc:	e5cdc02b 	strb	ip, [sp, #43]	; 0x2b
    a2c0:	e5cd202c 	strb	r2, [sp, #44]	; 0x2c
    a2c4:	e5cd3028 	strb	r3, [sp, #40]	; 0x28
    a2c8:	e5cd4029 	strb	r4, [sp, #41]	; 0x29
    a2cc:	e5cd702d 	strb	r7, [sp, #45]	; 0x2d
    a2d0:	e5cd702e 	strb	r7, [sp, #46]	; 0x2e
    a2d4:	e5cd702f 	strb	r7, [sp, #47]	; 0x2f
    a2d8:	e5cd7030 	strb	r7, [sp, #48]	; 0x30
    a2dc:	eb00031d 	bl	af58 <v3d_set_vertex_array_prim>
    a2e0:	eb000293 	bl	ad34 <v3d_set_flush>
    a2e4:	eb00028f 	bl	ad28 <v3d_set_nop>
    a2e8:	e1a03000 	mov	r3, r0
    a2ec:	e3a0200d 	mov	r2, #13
    a2f0:	e3a01000 	mov	r1, #0
    a2f4:	e28d0028 	add	r0, sp, #40	; 0x28
    a2f8:	e58d3004 	str	r3, [sp, #4]
    a2fc:	e58d7028 	str	r7, [sp, #40]	; 0x28
    a300:	e58d702c 	str	r7, [sp, #44]	; 0x2c
    a304:	e58d7030 	str	r7, [sp, #48]	; 0x30
    a308:	e5cd7034 	strb	r7, [sp, #52]	; 0x34
    a30c:	ebfff799 	bl	8178 <memset>
    a310:	e3e03000 	mvn	r3, #0
    a314:	e51f2310 	ldr	r2, [pc, #-784]	; a00c <_Z7maincppv+0x1dc>
    a318:	e28d1028 	add	r1, sp, #40	; 0x28
    a31c:	ee1a0a90 	vmov	r0, s21
    a320:	e58d3030 	str	r3, [sp, #48]	; 0x30
    a324:	e58d2028 	str	r2, [sp, #40]	; 0x28
    a328:	e58d202c 	str	r2, [sp, #44]	; 0x2c
    a32c:	eb0002d2 	bl	ae7c <v3d_set_rendering_clear_colors>
    a330:	e1a04000 	mov	r4, r0
    a334:	e3a0200a 	mov	r2, #10
    a338:	e3a01000 	mov	r1, #0
    a33c:	e28d0028 	add	r0, sp, #40	; 0x28
    a340:	e58d7028 	str	r7, [sp, #40]	; 0x28
    a344:	e58d702c 	str	r7, [sp, #44]	; 0x2c
    a348:	e1cd73b0 	strh	r7, [sp, #48]	; 0x30
    a34c:	ebfff789 	bl	8178 <memset>
    a350:	e5dd3030 	ldrb	r3, [sp, #48]	; 0x30
    a354:	e3c3300d 	bic	r3, r3, #13
    a358:	e3833005 	orr	r3, r3, #5
    a35c:	e1a00004 	mov	r0, r4
    a360:	e28d1028 	add	r1, sp, #40	; 0x28
    a364:	e2855101 	add	r5, r5, #1073741824	; 0x40000000
    a368:	e5cd3030 	strb	r3, [sp, #48]	; 0x30
    a36c:	e58da02c 	str	sl, [sp, #44]	; 0x2c
    a370:	e58d5028 	str	r5, [sp, #40]	; 0x28
    a374:	eb0002d2 	bl	aec4 <v3d_set_rendering_mode_config>
    a378:	e1a04000 	mov	r4, r0
    a37c:	e3a02002 	mov	r2, #2
    a380:	e3a01000 	mov	r1, #0
    a384:	e28d0028 	add	r0, sp, #40	; 0x28
    a388:	e1cd72b8 	strh	r7, [sp, #40]	; 0x28
    a38c:	ebfff779 	bl	8178 <memset>
    a390:	e1a00004 	mov	r0, r4
    a394:	e28d1028 	add	r1, sp, #40	; 0x28
    a398:	e1cd72b8 	strh	r7, [sp, #40]	; 0x28
    a39c:	eb000311 	bl	afe8 <v3d_set_rendering_tile_coordinates>
    a3a0:	e1a04000 	mov	r4, r0
    a3a4:	e3a02006 	mov	r2, #6
    a3a8:	e3a01000 	mov	r1, #0
    a3ac:	e28d0028 	add	r0, sp, #40	; 0x28
    a3b0:	e58d7028 	str	r7, [sp, #40]	; 0x28
    a3b4:	e1cd72bc 	strh	r7, [sp, #44]	; 0x2c
    a3b8:	ebfff76e 	bl	8178 <memset>
    a3bc:	e1a00004 	mov	r0, r4
    a3c0:	e28d1028 	add	r1, sp, #40	; 0x28
    a3c4:	eb0002b5 	bl	aea0 <v3d_set_rendering_store_tile_buffer_general>
    a3c8:	e3a06000 	mov	r6, #0
    a3cc:	e1a0a000 	mov	sl, r0
    a3d0:	e3a02002 	mov	r2, #2
    a3d4:	e3a01000 	mov	r1, #0
    a3d8:	e28d0024 	add	r0, sp, #36	; 0x24
    a3dc:	e1cd72b4 	strh	r7, [sp, #36]	; 0x24
    a3e0:	e20680ff 	and	r8, r6, #255	; 0xff
    a3e4:	ebfff763 	bl	8178 <memset>
    a3e8:	e28d1024 	add	r1, sp, #36	; 0x24
    a3ec:	e1a0000a 	mov	r0, sl
    a3f0:	e5cd7024 	strb	r7, [sp, #36]	; 0x24
    a3f4:	e5cd8025 	strb	r8, [sp, #37]	; 0x25
    a3f8:	eb0002fa 	bl	afe8 <v3d_set_rendering_tile_coordinates>
    a3fc:	e28d1028 	add	r1, sp, #40	; 0x28
    a400:	e58d9028 	str	r9, [sp, #40]	; 0x28
    a404:	eb000259 	bl	ad70 <v3d_set_branch_to_sublist>
    a408:	e3a04000 	mov	r4, #0
    a40c:	e1a03000 	mov	r3, r0
    a410:	e2895020 	add	r5, r9, #32
    a414:	e1a00003 	mov	r0, r3
    a418:	eb00026a 	bl	adc8 <v3d_set_rendering_store_multi_sample_resolved_tile_color_buffer>
    a41c:	e2844001 	add	r4, r4, #1
    a420:	e3540014 	cmp	r4, #20
    a424:	e1a0a000 	mov	sl, r0
    a428:	1afffef8 	bne	a010 <_Z7maincppv+0x1e0>
    a42c:	e2866001 	add	r6, r6, #1
    a430:	e356000f 	cmp	r6, #15
    a434:	e2899d0a 	add	r9, r9, #640	; 0x280
    a438:	1affffe4 	bne	a3d0 <_Z7maincppv+0x5a0>
    a43c:	eaffff07 	b	a060 <_Z7maincppv+0x230>

0000a440 <notmain>:
    a440:	e92d4010 	push	{r4, lr}
    a444:	ebfffe79 	bl	9e30 <_Z7maincppv>

0000a448 <tsin>:
    a448:	eddf7a09 	vldr	s15, [pc, #36]	; a474 <tsin+0x2c>
    a44c:	e92d4010 	push	{r4, lr}
    a450:	ee200a27 	vmul.f32	s0, s0, s15
    a454:	ebfff70a 	bl	8084 <FTOI>
    a458:	e59f3018 	ldr	r3, [pc, #24]	; a478 <tsin+0x30>
    a45c:	e1a00a00 	lsl	r0, r0, #20
    a460:	e1a00a20 	lsr	r0, r0, #20
    a464:	e0830100 	add	r0, r3, r0, lsl #2
    a468:	ed900a00 	vldr	s0, [r0]
    a46c:	e8bd4010 	pop	{r4, lr}
    a470:	e12fff1e 	bx	lr
    a474:	4422f983 	strtmi	pc, [r2], #-2435	; 0xfffff67d
    a478:	0002000c 	andeq	r0, r2, ip

0000a47c <tcos>:
    a47c:	eddf7a0a 	vldr	s15, [pc, #40]	; a4ac <tcos+0x30>
    a480:	e92d4010 	push	{r4, lr}
    a484:	ee200a27 	vmul.f32	s0, s0, s15
    a488:	ebfff6fd 	bl	8084 <FTOI>
    a48c:	e2800b01 	add	r0, r0, #1024	; 0x400
    a490:	e59f3018 	ldr	r3, [pc, #24]	; a4b0 <tcos+0x34>
    a494:	e1a00a00 	lsl	r0, r0, #20
    a498:	e1a00a20 	lsr	r0, r0, #20
    a49c:	e0830100 	add	r0, r3, r0, lsl #2
    a4a0:	ed900a00 	vldr	s0, [r0]
    a4a4:	e8bd4010 	pop	{r4, lr}
    a4a8:	e12fff1e 	bx	lr
    a4ac:	4422f983 	strtmi	pc, [r2], #-2435	; 0xfffff67d
    a4b0:	0002000c 	andeq	r0, r2, ip

0000a4b4 <ttan>:
    a4b4:	eddf7a16 	vldr	s15, [pc, #88]	; a514 <ttan+0x60>
    a4b8:	e92d4030 	push	{r4, r5, lr}
    a4bc:	ed2d8b02 	vpush	{d8}
    a4c0:	ee200a27 	vmul.f32	s0, s0, s15
    a4c4:	e24dd00c 	sub	sp, sp, #12
    a4c8:	ed8d0a01 	vstr	s0, [sp, #4]
    a4cc:	ebfff6ec 	bl	8084 <FTOI>
    a4d0:	e59f5040 	ldr	r5, [pc, #64]	; a518 <ttan+0x64>
    a4d4:	e59f4040 	ldr	r4, [pc, #64]	; a51c <ttan+0x68>
    a4d8:	e0000005 	and	r0, r0, r5
    a4dc:	ed9d0a01 	vldr	s0, [sp, #4]
    a4e0:	e0840100 	add	r0, r4, r0, lsl #2
    a4e4:	ed908a00 	vldr	s16, [r0]
    a4e8:	ebfff6e5 	bl	8084 <FTOI>
    a4ec:	e2800b01 	add	r0, r0, #1024	; 0x400
    a4f0:	e0000005 	and	r0, r0, r5
    a4f4:	e0840100 	add	r0, r4, r0, lsl #2
    a4f8:	ed900a00 	vldr	s0, [r0]
    a4fc:	eef07a40 	vmov.f32	s15, s0
    a500:	ee880a27 	vdiv.f32	s0, s16, s15
    a504:	e28dd00c 	add	sp, sp, #12
    a508:	ecbd8b02 	vpop	{d8}
    a50c:	e8bd4030 	pop	{r4, r5, lr}
    a510:	e12fff1e 	bx	lr
    a514:	4422f983 	strtmi	pc, [r2], #-2435	; 0xfffff67d
    a518:	00000fff 	strdeq	r0, [r0], -pc	; <UNPREDICTABLE>
    a51c:	0002000c 	andeq	r0, r2, ip

0000a520 <uart_init>:
    a520:	e92d4070 	push	{r4, r5, r6, lr}
    a524:	e59f40a4 	ldr	r4, [pc, #164]	; a5d0 <uart_init+0xb0>
    a528:	e1a00004 	mov	r0, r4
    a52c:	ebfff6cf 	bl	8070 <GET32>
    a530:	e59f509c 	ldr	r5, [pc, #156]	; a5d4 <uart_init+0xb4>
    a534:	e3801909 	orr	r1, r0, #147456	; 0x24000
    a538:	e1a00004 	mov	r0, r4
    a53c:	ebfff6c9 	bl	8068 <PUT32>
    a540:	e3a00096 	mov	r0, #150	; 0x96
    a544:	ebfff6cb 	bl	8078 <SLEEP>
    a548:	e1a00005 	mov	r0, r5
    a54c:	e3a01000 	mov	r1, #0
    a550:	ebfff6c4 	bl	8068 <PUT32>
    a554:	e3a01001 	mov	r1, #1
    a558:	e59f0078 	ldr	r0, [pc, #120]	; a5d8 <uart_init+0xb8>
    a55c:	ebfff6c1 	bl	8068 <PUT32>
    a560:	e2844094 	add	r4, r4, #148	; 0x94
    a564:	e3a00096 	mov	r0, #150	; 0x96
    a568:	ebfff6c2 	bl	8078 <SLEEP>
    a56c:	e1a00004 	mov	r0, r4
    a570:	ebfff6be 	bl	8070 <GET32>
    a574:	e1a01000 	mov	r1, r0
    a578:	e1a00004 	mov	r0, r4
    a57c:	e3811903 	orr	r1, r1, #49152	; 0xc000
    a580:	ebfff6b8 	bl	8068 <PUT32>
    a584:	e3a00096 	mov	r0, #150	; 0x96
    a588:	ebfff6ba 	bl	8078 <SLEEP>
    a58c:	e1a00004 	mov	r0, r4
    a590:	e3a01000 	mov	r1, #0
    a594:	ebfff6b3 	bl	8068 <PUT32>
    a598:	e3a01001 	mov	r1, #1
    a59c:	e59f0038 	ldr	r0, [pc, #56]	; a5dc <uart_init+0xbc>
    a5a0:	ebfff6b0 	bl	8068 <PUT32>
    a5a4:	e3a01028 	mov	r1, #40	; 0x28
    a5a8:	e59f0030 	ldr	r0, [pc, #48]	; a5e0 <uart_init+0xc0>
    a5ac:	ebfff6ad 	bl	8068 <PUT32>
    a5b0:	e3a01070 	mov	r1, #112	; 0x70
    a5b4:	e59f0028 	ldr	r0, [pc, #40]	; a5e4 <uart_init+0xc4>
    a5b8:	ebfff6aa 	bl	8068 <PUT32>
    a5bc:	e1a00005 	mov	r0, r5
    a5c0:	e59f1020 	ldr	r1, [pc, #32]	; a5e8 <uart_init+0xc8>
    a5c4:	ebfff6a7 	bl	8068 <PUT32>
    a5c8:	e8bd4070 	pop	{r4, r5, r6, lr}
    a5cc:	e12fff1e 	bx	lr
    a5d0:	20200004 	eorcs	r0, r0, r4
    a5d4:	20201030 	eorcs	r1, r0, r0, lsr r0
    a5d8:	20200094 	mlacs	r0, r4, r0, r0
    a5dc:	20201024 	eorcs	r1, r0, r4, lsr #32
    a5e0:	20201028 	eorcs	r1, r0, r8, lsr #32
    a5e4:	2020102c 	eorcs	r1, r0, ip, lsr #32
    a5e8:	00000301 	andeq	r0, r0, r1, lsl #6

0000a5ec <uart_putc>:
    a5ec:	e92d4070 	push	{r4, r5, r6, lr}
    a5f0:	e1a05000 	mov	r5, r0
    a5f4:	e59f402c 	ldr	r4, [pc, #44]	; a628 <uart_putc+0x3c>
    a5f8:	ea000001 	b	a604 <uart_putc+0x18>
    a5fc:	e3a00001 	mov	r0, #1
    a600:	ebfff69c 	bl	8078 <SLEEP>
    a604:	e1a00004 	mov	r0, r4
    a608:	ebfff698 	bl	8070 <GET32>
    a60c:	e3100020 	tst	r0, #32
    a610:	1afffff9 	bne	a5fc <uart_putc+0x10>
    a614:	e1a01005 	mov	r1, r5
    a618:	e59f000c 	ldr	r0, [pc, #12]	; a62c <uart_putc+0x40>
    a61c:	ebfff691 	bl	8068 <PUT32>
    a620:	e8bd4070 	pop	{r4, r5, r6, lr}
    a624:	e12fff1e 	bx	lr
    a628:	20201018 	eorcs	r1, r0, r8, lsl r0
    a62c:	20201000 	eorcs	r1, r0, r0

0000a630 <uart_getc>:
    a630:	e92d4010 	push	{r4, lr}
    a634:	e59f402c 	ldr	r4, [pc, #44]	; a668 <uart_getc+0x38>
    a638:	ea000001 	b	a644 <uart_getc+0x14>
    a63c:	e3a00001 	mov	r0, #1
    a640:	ebfff68c 	bl	8078 <SLEEP>
    a644:	e1a00004 	mov	r0, r4
    a648:	ebfff688 	bl	8070 <GET32>
    a64c:	e3100010 	tst	r0, #16
    a650:	1afffff9 	bne	a63c <uart_getc+0xc>
    a654:	e59f0010 	ldr	r0, [pc, #16]	; a66c <uart_getc+0x3c>
    a658:	ebfff684 	bl	8070 <GET32>
    a65c:	e8bd4010 	pop	{r4, lr}
    a660:	e20000ff 	and	r0, r0, #255	; 0xff
    a664:	e12fff1e 	bx	lr
    a668:	20201018 	eorcs	r1, r0, r8, lsl r0
    a66c:	20201000 	eorcs	r1, r0, r0

0000a670 <uart_puts>:
    a670:	e92d4010 	push	{r4, lr}
    a674:	e1a04000 	mov	r4, r0
    a678:	e5d00000 	ldrb	r0, [r0]
    a67c:	e3500000 	cmp	r0, #0
    a680:	1a000003 	bne	a694 <uart_puts+0x24>
    a684:	ea00000b 	b	a6b8 <uart_puts+0x48>
    a688:	e5f40001 	ldrb	r0, [r4, #1]!
    a68c:	e3500000 	cmp	r0, #0
    a690:	0a000008 	beq	a6b8 <uart_puts+0x48>
    a694:	ebffffd4 	bl	a5ec <uart_putc>
    a698:	e5d43000 	ldrb	r3, [r4]
    a69c:	e353000a 	cmp	r3, #10
    a6a0:	1afffff8 	bne	a688 <uart_puts+0x18>
    a6a4:	e3a0000d 	mov	r0, #13
    a6a8:	ebffffcf 	bl	a5ec <uart_putc>
    a6ac:	e5f40001 	ldrb	r0, [r4, #1]!
    a6b0:	e3500000 	cmp	r0, #0
    a6b4:	1afffff6 	bne	a694 <uart_puts+0x24>
    a6b8:	e8bd4010 	pop	{r4, lr}
    a6bc:	e12fff1e 	bx	lr

0000a6c0 <uart_put_dword>:
    a6c0:	e92d4070 	push	{r4, r5, r6, lr}
    a6c4:	e1a04000 	mov	r4, r0
    a6c8:	e59f5074 	ldr	r5, [pc, #116]	; a744 <uart_put_dword+0x84>
    a6cc:	e7d50e20 	ldrb	r0, [r5, r0, lsr #28]
    a6d0:	ebffffc5 	bl	a5ec <uart_putc>
    a6d4:	e1a03c24 	lsr	r3, r4, #24
    a6d8:	e203300f 	and	r3, r3, #15
    a6dc:	e7d50003 	ldrb	r0, [r5, r3]
    a6e0:	ebffffc1 	bl	a5ec <uart_putc>
    a6e4:	e1a03a24 	lsr	r3, r4, #20
    a6e8:	e203300f 	and	r3, r3, #15
    a6ec:	e7d50003 	ldrb	r0, [r5, r3]
    a6f0:	ebffffbd 	bl	a5ec <uart_putc>
    a6f4:	e1a03824 	lsr	r3, r4, #16
    a6f8:	e203300f 	and	r3, r3, #15
    a6fc:	e7d50003 	ldrb	r0, [r5, r3]
    a700:	ebffffb9 	bl	a5ec <uart_putc>
    a704:	e1a03624 	lsr	r3, r4, #12
    a708:	e203300f 	and	r3, r3, #15
    a70c:	e7d50003 	ldrb	r0, [r5, r3]
    a710:	ebffffb5 	bl	a5ec <uart_putc>
    a714:	e1a03424 	lsr	r3, r4, #8
    a718:	e203300f 	and	r3, r3, #15
    a71c:	e7d50003 	ldrb	r0, [r5, r3]
    a720:	ebffffb1 	bl	a5ec <uart_putc>
    a724:	e1a03224 	lsr	r3, r4, #4
    a728:	e203300f 	and	r3, r3, #15
    a72c:	e7d50003 	ldrb	r0, [r5, r3]
    a730:	e204400f 	and	r4, r4, #15
    a734:	ebffffac 	bl	a5ec <uart_putc>
    a738:	e7d50004 	ldrb	r0, [r5, r4]
    a73c:	e8bd4070 	pop	{r4, r5, r6, lr}
    a740:	eaffffa9 	b	a5ec <uart_putc>
    a744:	0000bc48 	andeq	fp, r0, r8, asr #24

0000a748 <uart_debug_puts>:
    a748:	e92d4010 	push	{r4, lr}
    a74c:	e1a04001 	mov	r4, r1
    a750:	ebffffc6 	bl	a670 <uart_puts>
    a754:	e1a00004 	mov	r0, r4
    a758:	ebffffd8 	bl	a6c0 <uart_put_dword>
    a75c:	e59f0004 	ldr	r0, [pc, #4]	; a768 <uart_debug_puts+0x20>
    a760:	e8bd4010 	pop	{r4, lr}
    a764:	eaffffc1 	b	a670 <uart_puts>
    a768:	0000b110 	andeq	fp, r0, r0, lsl r1

0000a76c <uart_putc_hex>:
    a76c:	e92d4070 	push	{r4, r5, r6, lr}
    a770:	e1a04000 	mov	r4, r0
    a774:	e59f5014 	ldr	r5, [pc, #20]	; a790 <uart_putc_hex+0x24>
    a778:	e204400f 	and	r4, r4, #15
    a77c:	e7d50220 	ldrb	r0, [r5, r0, lsr #4]
    a780:	ebffff99 	bl	a5ec <uart_putc>
    a784:	e7d50004 	ldrb	r0, [r5, r4]
    a788:	e8bd4070 	pop	{r4, r5, r6, lr}
    a78c:	eaffff96 	b	a5ec <uart_putc>
    a790:	0000bc48 	andeq	fp, r0, r8, asr #24

0000a794 <uart_dump>:
    a794:	e92d47f0 	push	{r4, r5, r6, r7, r8, r9, sl, lr}
    a798:	e2516000 	subs	r6, r1, #0
    a79c:	0a000016 	beq	a7fc <uart_dump+0x68>
    a7a0:	e1a07000 	mov	r7, r0
    a7a4:	e3a04000 	mov	r4, #0
    a7a8:	e59fa058 	ldr	sl, [pc, #88]	; a808 <uart_dump+0x74>
    a7ac:	e59f9058 	ldr	r9, [pc, #88]	; a80c <uart_dump+0x78>
    a7b0:	e59f8058 	ldr	r8, [pc, #88]	; a810 <uart_dump+0x7c>
    a7b4:	ea000005 	b	a7d0 <uart_dump+0x3c>
    a7b8:	e5d50000 	ldrb	r0, [r5]
    a7bc:	ebffffea 	bl	a76c <uart_putc_hex>
    a7c0:	e1a00008 	mov	r0, r8
    a7c4:	ebffffa9 	bl	a670 <uart_puts>
    a7c8:	e1560004 	cmp	r6, r4
    a7cc:	0a00000a 	beq	a7fc <uart_dump+0x68>
    a7d0:	e314000f 	tst	r4, #15
    a7d4:	e0845007 	add	r5, r4, r7
    a7d8:	e2844001 	add	r4, r4, #1
    a7dc:	1afffff5 	bne	a7b8 <uart_dump+0x24>
    a7e0:	e1a0000a 	mov	r0, sl
    a7e4:	ebffffa1 	bl	a670 <uart_puts>
    a7e8:	e1a00005 	mov	r0, r5
    a7ec:	ebffffb3 	bl	a6c0 <uart_put_dword>
    a7f0:	e1a00009 	mov	r0, r9
    a7f4:	ebffff9d 	bl	a670 <uart_puts>
    a7f8:	eaffffee 	b	a7b8 <uart_dump+0x24>
    a7fc:	e59f0004 	ldr	r0, [pc, #4]	; a808 <uart_dump+0x74>
    a800:	e8bd47f0 	pop	{r4, r5, r6, r7, r8, r9, sl, lr}
    a804:	eaffff99 	b	a670 <uart_puts>
    a808:	0000b110 	andeq	fp, r0, r0, lsl r1
    a80c:	0000b1c4 	andeq	fp, r0, r4, asr #3
    a810:	0000b3cc 	andeq	fp, r0, ip, asr #7

0000a814 <v3d_debug_print>:
    a814:	e92d4070 	push	{r4, r5, r6, lr}
    a818:	e3a04583 	mov	r4, #549453824	; 0x20c00000
    a81c:	e59f53bc 	ldr	r5, [pc, #956]	; abe0 <v3d_debug_print+0x3cc>
    a820:	e1a00005 	mov	r0, r5
    a824:	ebffff91 	bl	a670 <uart_puts>
    a828:	e5941000 	ldr	r1, [r4]
    a82c:	e59f03b0 	ldr	r0, [pc, #944]	; abe4 <v3d_debug_print+0x3d0>
    a830:	ebffffc4 	bl	a748 <uart_debug_puts>
    a834:	e5941004 	ldr	r1, [r4, #4]
    a838:	e59f03a8 	ldr	r0, [pc, #936]	; abe8 <v3d_debug_print+0x3d4>
    a83c:	ebffffc1 	bl	a748 <uart_debug_puts>
    a840:	e5941008 	ldr	r1, [r4, #8]
    a844:	e59f03a0 	ldr	r0, [pc, #928]	; abec <v3d_debug_print+0x3d8>
    a848:	ebffffbe 	bl	a748 <uart_debug_puts>
    a84c:	e5941010 	ldr	r1, [r4, #16]
    a850:	e59f0398 	ldr	r0, [pc, #920]	; abf0 <v3d_debug_print+0x3dc>
    a854:	ebffffbb 	bl	a748 <uart_debug_puts>
    a858:	e5941020 	ldr	r1, [r4, #32]
    a85c:	e59f0390 	ldr	r0, [pc, #912]	; abf4 <v3d_debug_print+0x3e0>
    a860:	ebffffb8 	bl	a748 <uart_debug_puts>
    a864:	e5941024 	ldr	r1, [r4, #36]	; 0x24
    a868:	e59f0388 	ldr	r0, [pc, #904]	; abf8 <v3d_debug_print+0x3e4>
    a86c:	ebffffb5 	bl	a748 <uart_debug_puts>
    a870:	e5941030 	ldr	r1, [r4, #48]	; 0x30
    a874:	e59f0380 	ldr	r0, [pc, #896]	; abfc <v3d_debug_print+0x3e8>
    a878:	ebffffb2 	bl	a748 <uart_debug_puts>
    a87c:	e5941034 	ldr	r1, [r4, #52]	; 0x34
    a880:	e59f0378 	ldr	r0, [pc, #888]	; ac00 <v3d_debug_print+0x3ec>
    a884:	ebffffaf 	bl	a748 <uart_debug_puts>
    a888:	e5941038 	ldr	r1, [r4, #56]	; 0x38
    a88c:	e59f0370 	ldr	r0, [pc, #880]	; ac04 <v3d_debug_print+0x3f0>
    a890:	ebffffac 	bl	a748 <uart_debug_puts>
    a894:	e5941100 	ldr	r1, [r4, #256]	; 0x100
    a898:	e59f0368 	ldr	r0, [pc, #872]	; ac08 <v3d_debug_print+0x3f4>
    a89c:	ebffffa9 	bl	a748 <uart_debug_puts>
    a8a0:	e5941104 	ldr	r1, [r4, #260]	; 0x104
    a8a4:	e59f0360 	ldr	r0, [pc, #864]	; ac0c <v3d_debug_print+0x3f8>
    a8a8:	ebffffa6 	bl	a748 <uart_debug_puts>
    a8ac:	e5941108 	ldr	r1, [r4, #264]	; 0x108
    a8b0:	e59f0358 	ldr	r0, [pc, #856]	; ac10 <v3d_debug_print+0x3fc>
    a8b4:	ebffffa3 	bl	a748 <uart_debug_puts>
    a8b8:	e594110c 	ldr	r1, [r4, #268]	; 0x10c
    a8bc:	e59f0350 	ldr	r0, [pc, #848]	; ac14 <v3d_debug_print+0x400>
    a8c0:	ebffffa0 	bl	a748 <uart_debug_puts>
    a8c4:	e5941110 	ldr	r1, [r4, #272]	; 0x110
    a8c8:	e59f0348 	ldr	r0, [pc, #840]	; ac18 <v3d_debug_print+0x404>
    a8cc:	ebffff9d 	bl	a748 <uart_debug_puts>
    a8d0:	e5941114 	ldr	r1, [r4, #276]	; 0x114
    a8d4:	e59f0340 	ldr	r0, [pc, #832]	; ac1c <v3d_debug_print+0x408>
    a8d8:	ebffff9a 	bl	a748 <uart_debug_puts>
    a8dc:	e5941118 	ldr	r1, [r4, #280]	; 0x118
    a8e0:	e59f0338 	ldr	r0, [pc, #824]	; ac20 <v3d_debug_print+0x40c>
    a8e4:	ebffff97 	bl	a748 <uart_debug_puts>
    a8e8:	e594111c 	ldr	r1, [r4, #284]	; 0x11c
    a8ec:	e59f0330 	ldr	r0, [pc, #816]	; ac24 <v3d_debug_print+0x410>
    a8f0:	ebffff94 	bl	a748 <uart_debug_puts>
    a8f4:	e5941120 	ldr	r1, [r4, #288]	; 0x120
    a8f8:	e59f0328 	ldr	r0, [pc, #808]	; ac28 <v3d_debug_print+0x414>
    a8fc:	ebffff91 	bl	a748 <uart_debug_puts>
    a900:	e5941124 	ldr	r1, [r4, #292]	; 0x124
    a904:	e59f0320 	ldr	r0, [pc, #800]	; ac2c <v3d_debug_print+0x418>
    a908:	ebffff8e 	bl	a748 <uart_debug_puts>
    a90c:	e5941128 	ldr	r1, [r4, #296]	; 0x128
    a910:	e59f0318 	ldr	r0, [pc, #792]	; ac30 <v3d_debug_print+0x41c>
    a914:	ebffff8b 	bl	a748 <uart_debug_puts>
    a918:	e594112c 	ldr	r1, [r4, #300]	; 0x12c
    a91c:	e59f0310 	ldr	r0, [pc, #784]	; ac34 <v3d_debug_print+0x420>
    a920:	ebffff88 	bl	a748 <uart_debug_puts>
    a924:	e5941130 	ldr	r1, [r4, #304]	; 0x130
    a928:	e59f0308 	ldr	r0, [pc, #776]	; ac38 <v3d_debug_print+0x424>
    a92c:	ebffff85 	bl	a748 <uart_debug_puts>
    a930:	e5941134 	ldr	r1, [r4, #308]	; 0x134
    a934:	e59f0300 	ldr	r0, [pc, #768]	; ac3c <v3d_debug_print+0x428>
    a938:	ebffff82 	bl	a748 <uart_debug_puts>
    a93c:	e5941138 	ldr	r1, [r4, #312]	; 0x138
    a940:	e59f02f8 	ldr	r0, [pc, #760]	; ac40 <v3d_debug_print+0x42c>
    a944:	ebffff7f 	bl	a748 <uart_debug_puts>
    a948:	e5941300 	ldr	r1, [r4, #768]	; 0x300
    a94c:	e59f02f0 	ldr	r0, [pc, #752]	; ac44 <v3d_debug_print+0x430>
    a950:	ebffff7c 	bl	a748 <uart_debug_puts>
    a954:	e5941304 	ldr	r1, [r4, #772]	; 0x304
    a958:	e59f02e8 	ldr	r0, [pc, #744]	; ac48 <v3d_debug_print+0x434>
    a95c:	ebffff79 	bl	a748 <uart_debug_puts>
    a960:	e5941308 	ldr	r1, [r4, #776]	; 0x308
    a964:	e59f02e0 	ldr	r0, [pc, #736]	; ac4c <v3d_debug_print+0x438>
    a968:	ebffff76 	bl	a748 <uart_debug_puts>
    a96c:	e594130c 	ldr	r1, [r4, #780]	; 0x30c
    a970:	e59f02d8 	ldr	r0, [pc, #728]	; ac50 <v3d_debug_print+0x43c>
    a974:	ebffff73 	bl	a748 <uart_debug_puts>
    a978:	e5941310 	ldr	r1, [r4, #784]	; 0x310
    a97c:	e59f02d0 	ldr	r0, [pc, #720]	; ac54 <v3d_debug_print+0x440>
    a980:	ebffff70 	bl	a748 <uart_debug_puts>
    a984:	e5941410 	ldr	r1, [r4, #1040]	; 0x410
    a988:	e59f02c8 	ldr	r0, [pc, #712]	; ac58 <v3d_debug_print+0x444>
    a98c:	ebffff6d 	bl	a748 <uart_debug_puts>
    a990:	e5941414 	ldr	r1, [r4, #1044]	; 0x414
    a994:	e59f02c0 	ldr	r0, [pc, #704]	; ac5c <v3d_debug_print+0x448>
    a998:	ebffff6a 	bl	a748 <uart_debug_puts>
    a99c:	e5941418 	ldr	r1, [r4, #1048]	; 0x418
    a9a0:	e59f02b8 	ldr	r0, [pc, #696]	; ac60 <v3d_debug_print+0x44c>
    a9a4:	ebffff67 	bl	a748 <uart_debug_puts>
    a9a8:	e5941430 	ldr	r1, [r4, #1072]	; 0x430
    a9ac:	e59f02b0 	ldr	r0, [pc, #688]	; ac64 <v3d_debug_print+0x450>
    a9b0:	ebffff64 	bl	a748 <uart_debug_puts>
    a9b4:	e5941434 	ldr	r1, [r4, #1076]	; 0x434
    a9b8:	e59f02a8 	ldr	r0, [pc, #680]	; ac68 <v3d_debug_print+0x454>
    a9bc:	ebffff61 	bl	a748 <uart_debug_puts>
    a9c0:	e5941438 	ldr	r1, [r4, #1080]	; 0x438
    a9c4:	e59f02a0 	ldr	r0, [pc, #672]	; ac6c <v3d_debug_print+0x458>
    a9c8:	ebffff5e 	bl	a748 <uart_debug_puts>
    a9cc:	e594143c 	ldr	r1, [r4, #1084]	; 0x43c
    a9d0:	e59f0298 	ldr	r0, [pc, #664]	; ac70 <v3d_debug_print+0x45c>
    a9d4:	ebffff5b 	bl	a748 <uart_debug_puts>
    a9d8:	e5941500 	ldr	r1, [r4, #1280]	; 0x500
    a9dc:	e59f0290 	ldr	r0, [pc, #656]	; ac74 <v3d_debug_print+0x460>
    a9e0:	ebffff58 	bl	a748 <uart_debug_puts>
    a9e4:	e5941504 	ldr	r1, [r4, #1284]	; 0x504
    a9e8:	e59f0288 	ldr	r0, [pc, #648]	; ac78 <v3d_debug_print+0x464>
    a9ec:	ebffff55 	bl	a748 <uart_debug_puts>
    a9f0:	e5941670 	ldr	r1, [r4, #1648]	; 0x670
    a9f4:	e59f0280 	ldr	r0, [pc, #640]	; ac7c <v3d_debug_print+0x468>
    a9f8:	ebffff52 	bl	a748 <uart_debug_puts>
    a9fc:	e5941674 	ldr	r1, [r4, #1652]	; 0x674
    aa00:	e59f0278 	ldr	r0, [pc, #632]	; ac80 <v3d_debug_print+0x46c>
    aa04:	ebffff4f 	bl	a748 <uart_debug_puts>
    aa08:	e5941680 	ldr	r1, [r4, #1664]	; 0x680
    aa0c:	e59f0270 	ldr	r0, [pc, #624]	; ac84 <v3d_debug_print+0x470>
    aa10:	ebffff4c 	bl	a748 <uart_debug_puts>
    aa14:	e5941684 	ldr	r1, [r4, #1668]	; 0x684
    aa18:	e59f0268 	ldr	r0, [pc, #616]	; ac88 <v3d_debug_print+0x474>
    aa1c:	ebffff49 	bl	a748 <uart_debug_puts>
    aa20:	e5941688 	ldr	r1, [r4, #1672]	; 0x688
    aa24:	e59f0260 	ldr	r0, [pc, #608]	; ac8c <v3d_debug_print+0x478>
    aa28:	ebffff46 	bl	a748 <uart_debug_puts>
    aa2c:	e594168c 	ldr	r1, [r4, #1676]	; 0x68c
    aa30:	e59f0258 	ldr	r0, [pc, #600]	; ac90 <v3d_debug_print+0x47c>
    aa34:	ebffff43 	bl	a748 <uart_debug_puts>
    aa38:	e5941690 	ldr	r1, [r4, #1680]	; 0x690
    aa3c:	e59f0250 	ldr	r0, [pc, #592]	; ac94 <v3d_debug_print+0x480>
    aa40:	ebffff40 	bl	a748 <uart_debug_puts>
    aa44:	e5941694 	ldr	r1, [r4, #1684]	; 0x694
    aa48:	e59f0248 	ldr	r0, [pc, #584]	; ac98 <v3d_debug_print+0x484>
    aa4c:	ebffff3d 	bl	a748 <uart_debug_puts>
    aa50:	e5941698 	ldr	r1, [r4, #1688]	; 0x698
    aa54:	e59f0240 	ldr	r0, [pc, #576]	; ac9c <v3d_debug_print+0x488>
    aa58:	ebffff3a 	bl	a748 <uart_debug_puts>
    aa5c:	e594169c 	ldr	r1, [r4, #1692]	; 0x69c
    aa60:	e59f0238 	ldr	r0, [pc, #568]	; aca0 <v3d_debug_print+0x48c>
    aa64:	ebffff37 	bl	a748 <uart_debug_puts>
    aa68:	e59416a0 	ldr	r1, [r4, #1696]	; 0x6a0
    aa6c:	e59f0230 	ldr	r0, [pc, #560]	; aca4 <v3d_debug_print+0x490>
    aa70:	ebffff34 	bl	a748 <uart_debug_puts>
    aa74:	e59416a4 	ldr	r1, [r4, #1700]	; 0x6a4
    aa78:	e59f0228 	ldr	r0, [pc, #552]	; aca8 <v3d_debug_print+0x494>
    aa7c:	ebffff31 	bl	a748 <uart_debug_puts>
    aa80:	e59416a8 	ldr	r1, [r4, #1704]	; 0x6a8
    aa84:	e59f0220 	ldr	r0, [pc, #544]	; acac <v3d_debug_print+0x498>
    aa88:	ebffff2e 	bl	a748 <uart_debug_puts>
    aa8c:	e59416ac 	ldr	r1, [r4, #1708]	; 0x6ac
    aa90:	e59f0218 	ldr	r0, [pc, #536]	; acb0 <v3d_debug_print+0x49c>
    aa94:	ebffff2b 	bl	a748 <uart_debug_puts>
    aa98:	e59416b0 	ldr	r1, [r4, #1712]	; 0x6b0
    aa9c:	e59f0210 	ldr	r0, [pc, #528]	; acb4 <v3d_debug_print+0x4a0>
    aaa0:	ebffff28 	bl	a748 <uart_debug_puts>
    aaa4:	e59416b4 	ldr	r1, [r4, #1716]	; 0x6b4
    aaa8:	e59f0208 	ldr	r0, [pc, #520]	; acb8 <v3d_debug_print+0x4a4>
    aaac:	ebffff25 	bl	a748 <uart_debug_puts>
    aab0:	e59416b8 	ldr	r1, [r4, #1720]	; 0x6b8
    aab4:	e59f0200 	ldr	r0, [pc, #512]	; acbc <v3d_debug_print+0x4a8>
    aab8:	ebffff22 	bl	a748 <uart_debug_puts>
    aabc:	e59416bc 	ldr	r1, [r4, #1724]	; 0x6bc
    aac0:	e59f01f8 	ldr	r0, [pc, #504]	; acc0 <v3d_debug_print+0x4ac>
    aac4:	ebffff1f 	bl	a748 <uart_debug_puts>
    aac8:	e59416c0 	ldr	r1, [r4, #1728]	; 0x6c0
    aacc:	e59f01f0 	ldr	r0, [pc, #496]	; acc4 <v3d_debug_print+0x4b0>
    aad0:	ebffff1c 	bl	a748 <uart_debug_puts>
    aad4:	e59416c4 	ldr	r1, [r4, #1732]	; 0x6c4
    aad8:	e59f01e8 	ldr	r0, [pc, #488]	; acc8 <v3d_debug_print+0x4b4>
    aadc:	ebffff19 	bl	a748 <uart_debug_puts>
    aae0:	e59416c8 	ldr	r1, [r4, #1736]	; 0x6c8
    aae4:	e59f01e0 	ldr	r0, [pc, #480]	; accc <v3d_debug_print+0x4b8>
    aae8:	ebffff16 	bl	a748 <uart_debug_puts>
    aaec:	e59416cc 	ldr	r1, [r4, #1740]	; 0x6cc
    aaf0:	e59f01d8 	ldr	r0, [pc, #472]	; acd0 <v3d_debug_print+0x4bc>
    aaf4:	ebffff13 	bl	a748 <uart_debug_puts>
    aaf8:	e59416d0 	ldr	r1, [r4, #1744]	; 0x6d0
    aafc:	e59f01d0 	ldr	r0, [pc, #464]	; acd4 <v3d_debug_print+0x4c0>
    ab00:	ebffff10 	bl	a748 <uart_debug_puts>
    ab04:	e59416d4 	ldr	r1, [r4, #1748]	; 0x6d4
    ab08:	e59f01c8 	ldr	r0, [pc, #456]	; acd8 <v3d_debug_print+0x4c4>
    ab0c:	ebffff0d 	bl	a748 <uart_debug_puts>
    ab10:	e59416d8 	ldr	r1, [r4, #1752]	; 0x6d8
    ab14:	e59f01c0 	ldr	r0, [pc, #448]	; acdc <v3d_debug_print+0x4c8>
    ab18:	ebffff0a 	bl	a748 <uart_debug_puts>
    ab1c:	e59416dc 	ldr	r1, [r4, #1756]	; 0x6dc
    ab20:	e59f01b8 	ldr	r0, [pc, #440]	; ace0 <v3d_debug_print+0x4cc>
    ab24:	ebffff07 	bl	a748 <uart_debug_puts>
    ab28:	e59416e0 	ldr	r1, [r4, #1760]	; 0x6e0
    ab2c:	e59f01b0 	ldr	r0, [pc, #432]	; ace4 <v3d_debug_print+0x4d0>
    ab30:	ebffff04 	bl	a748 <uart_debug_puts>
    ab34:	e59416e4 	ldr	r1, [r4, #1764]	; 0x6e4
    ab38:	e59f01a8 	ldr	r0, [pc, #424]	; ace8 <v3d_debug_print+0x4d4>
    ab3c:	ebffff01 	bl	a748 <uart_debug_puts>
    ab40:	e59416e8 	ldr	r1, [r4, #1768]	; 0x6e8
    ab44:	e59f01a0 	ldr	r0, [pc, #416]	; acec <v3d_debug_print+0x4d8>
    ab48:	ebfffefe 	bl	a748 <uart_debug_puts>
    ab4c:	e59416ec 	ldr	r1, [r4, #1772]	; 0x6ec
    ab50:	e59f0198 	ldr	r0, [pc, #408]	; acf0 <v3d_debug_print+0x4dc>
    ab54:	ebfffefb 	bl	a748 <uart_debug_puts>
    ab58:	e59416f0 	ldr	r1, [r4, #1776]	; 0x6f0
    ab5c:	e59f0190 	ldr	r0, [pc, #400]	; acf4 <v3d_debug_print+0x4e0>
    ab60:	ebfffef8 	bl	a748 <uart_debug_puts>
    ab64:	e59416f4 	ldr	r1, [r4, #1780]	; 0x6f4
    ab68:	e59f0188 	ldr	r0, [pc, #392]	; acf8 <v3d_debug_print+0x4e4>
    ab6c:	ebfffef5 	bl	a748 <uart_debug_puts>
    ab70:	e59416f8 	ldr	r1, [r4, #1784]	; 0x6f8
    ab74:	e59f0180 	ldr	r0, [pc, #384]	; acfc <v3d_debug_print+0x4e8>
    ab78:	ebfffef2 	bl	a748 <uart_debug_puts>
    ab7c:	e59416fc 	ldr	r1, [r4, #1788]	; 0x6fc
    ab80:	e59f0178 	ldr	r0, [pc, #376]	; ad00 <v3d_debug_print+0x4ec>
    ab84:	ebfffeef 	bl	a748 <uart_debug_puts>
    ab88:	e5941f00 	ldr	r1, [r4, #3840]	; 0xf00
    ab8c:	e59f0170 	ldr	r0, [pc, #368]	; ad04 <v3d_debug_print+0x4f0>
    ab90:	ebfffeec 	bl	a748 <uart_debug_puts>
    ab94:	e5941f04 	ldr	r1, [r4, #3844]	; 0xf04
    ab98:	e59f0168 	ldr	r0, [pc, #360]	; ad08 <v3d_debug_print+0x4f4>
    ab9c:	ebfffee9 	bl	a748 <uart_debug_puts>
    aba0:	e5941f08 	ldr	r1, [r4, #3848]	; 0xf08
    aba4:	e59f0160 	ldr	r0, [pc, #352]	; ad0c <v3d_debug_print+0x4f8>
    aba8:	ebfffee6 	bl	a748 <uart_debug_puts>
    abac:	e5941f0c 	ldr	r1, [r4, #3852]	; 0xf0c
    abb0:	e59f0158 	ldr	r0, [pc, #344]	; ad10 <v3d_debug_print+0x4fc>
    abb4:	ebfffee3 	bl	a748 <uart_debug_puts>
    abb8:	e5941f10 	ldr	r1, [r4, #3856]	; 0xf10
    abbc:	e59f0150 	ldr	r0, [pc, #336]	; ad14 <v3d_debug_print+0x500>
    abc0:	ebfffee0 	bl	a748 <uart_debug_puts>
    abc4:	e5941f20 	ldr	r1, [r4, #3872]	; 0xf20
    abc8:	e59f0148 	ldr	r0, [pc, #328]	; ad18 <v3d_debug_print+0x504>
    abcc:	ebfffedd 	bl	a748 <uart_debug_puts>
    abd0:	e1a00005 	mov	r0, r5
    abd4:	ebfffea5 	bl	a670 <uart_puts>
    abd8:	e8bd4070 	pop	{r4, r5, r6, lr}
    abdc:	e12fff1e 	bx	lr
    abe0:	0000b3d0 	ldrdeq	fp, [r0], -r0
    abe4:	0000b418 	andeq	fp, r0, r8, lsl r4
    abe8:	0000b42c 	andeq	fp, r0, ip, lsr #8
    abec:	0000b440 	andeq	fp, r0, r0, asr #8
    abf0:	0000b454 	andeq	fp, r0, r4, asr r4
    abf4:	0000b468 	andeq	fp, r0, r8, ror #8
    abf8:	0000b47c 	andeq	fp, r0, ip, ror r4
    abfc:	0000b490 	muleq	r0, r0, r4
    ac00:	0000b4a4 	andeq	fp, r0, r4, lsr #9
    ac04:	0000b4b8 			; <UNDEFINED> instruction: 0x0000b4b8
    ac08:	0000b4cc 	andeq	fp, r0, ip, asr #9
    ac0c:	0000b4e0 	andeq	fp, r0, r0, ror #9
    ac10:	0000b4f4 	strdeq	fp, [r0], -r4
    ac14:	0000b508 	andeq	fp, r0, r8, lsl #10
    ac18:	0000b51c 	andeq	fp, r0, ip, lsl r5
    ac1c:	0000b530 	andeq	fp, r0, r0, lsr r5
    ac20:	0000b544 	andeq	fp, r0, r4, asr #10
    ac24:	0000b558 	andeq	fp, r0, r8, asr r5
    ac28:	0000b56c 	andeq	fp, r0, ip, ror #10
    ac2c:	0000b580 	andeq	fp, r0, r0, lsl #11
    ac30:	0000b594 	muleq	r0, r4, r5
    ac34:	0000b5a8 	andeq	fp, r0, r8, lsr #11
    ac38:	0000b5bc 			; <UNDEFINED> instruction: 0x0000b5bc
    ac3c:	0000b5d0 	ldrdeq	fp, [r0], -r0
    ac40:	0000b5e4 	andeq	fp, r0, r4, ror #11
    ac44:	0000b5f8 	strdeq	fp, [r0], -r8
    ac48:	0000b60c 	andeq	fp, r0, ip, lsl #12
    ac4c:	0000b620 	andeq	fp, r0, r0, lsr #12
    ac50:	0000b634 	andeq	fp, r0, r4, lsr r6
    ac54:	0000b648 	andeq	fp, r0, r8, asr #12
    ac58:	0000b65c 	andeq	fp, r0, ip, asr r6
    ac5c:	0000b670 	andeq	fp, r0, r0, ror r6
    ac60:	0000b684 	andeq	fp, r0, r4, lsl #13
    ac64:	0000b698 	muleq	r0, r8, r6
    ac68:	0000b6ac 	andeq	fp, r0, ip, lsr #13
    ac6c:	0000b6c0 	andeq	fp, r0, r0, asr #13
    ac70:	0000b6d4 	ldrdeq	fp, [r0], -r4
    ac74:	0000b6e8 	andeq	fp, r0, r8, ror #13
    ac78:	0000b6fc 	strdeq	fp, [r0], -ip
    ac7c:	0000b710 	andeq	fp, r0, r0, lsl r7
    ac80:	0000b724 	andeq	fp, r0, r4, lsr #14
    ac84:	0000b738 	andeq	fp, r0, r8, lsr r7
    ac88:	0000b74c 	andeq	fp, r0, ip, asr #14
    ac8c:	0000b760 	andeq	fp, r0, r0, ror #14
    ac90:	0000b774 	andeq	fp, r0, r4, ror r7
    ac94:	0000b788 	andeq	fp, r0, r8, lsl #15
    ac98:	0000b79c 	muleq	r0, ip, r7
    ac9c:	0000b7b0 			; <UNDEFINED> instruction: 0x0000b7b0
    aca0:	0000b7c4 	andeq	fp, r0, r4, asr #15
    aca4:	0000b7d8 	ldrdeq	fp, [r0], -r8
    aca8:	0000b7ec 	andeq	fp, r0, ip, ror #15
    acac:	0000b800 	andeq	fp, r0, r0, lsl #16
    acb0:	0000b814 	andeq	fp, r0, r4, lsl r8
    acb4:	0000b828 	andeq	fp, r0, r8, lsr #16
    acb8:	0000b83c 	andeq	fp, r0, ip, lsr r8
    acbc:	0000b850 	andeq	fp, r0, r0, asr r8
    acc0:	0000b864 	andeq	fp, r0, r4, ror #16
    acc4:	0000b878 	andeq	fp, r0, r8, ror r8
    acc8:	0000b88c 	andeq	fp, r0, ip, lsl #17
    accc:	0000b8a0 	andeq	fp, r0, r0, lsr #17
    acd0:	0000b8b4 			; <UNDEFINED> instruction: 0x0000b8b4
    acd4:	0000b8c8 	andeq	fp, r0, r8, asr #17
    acd8:	0000b8dc 	ldrdeq	fp, [r0], -ip
    acdc:	0000b8f0 	strdeq	fp, [r0], -r0
    ace0:	0000b904 	andeq	fp, r0, r4, lsl #18
    ace4:	0000b918 	andeq	fp, r0, r8, lsl r9
    ace8:	0000b92c 	andeq	fp, r0, ip, lsr #18
    acec:	0000b940 	andeq	fp, r0, r0, asr #18
    acf0:	0000b954 	andeq	fp, r0, r4, asr r9
    acf4:	0000b968 	andeq	fp, r0, r8, ror #18
    acf8:	0000b97c 	andeq	fp, r0, ip, ror r9
    acfc:	0000b990 	muleq	r0, r0, r9
    ad00:	0000b9a4 	andeq	fp, r0, r4, lsr #19
    ad04:	0000b9b8 			; <UNDEFINED> instruction: 0x0000b9b8
    ad08:	0000b9cc 	andeq	fp, r0, ip, asr #19
    ad0c:	0000b9e0 	andeq	fp, r0, r0, ror #19
    ad10:	0000b9f4 	strdeq	fp, [r0], -r4
    ad14:	0000ba08 	andeq	fp, r0, r8, lsl #20
    ad18:	0000ba1c 	andeq	fp, r0, ip, lsl sl

0000ad1c <v3d_set_halt>:
    ad1c:	e3a03000 	mov	r3, #0
    ad20:	e4c03001 	strb	r3, [r0], #1
    ad24:	e12fff1e 	bx	lr

0000ad28 <v3d_set_nop>:
    ad28:	e3a03001 	mov	r3, #1
    ad2c:	e4c03001 	strb	r3, [r0], #1
    ad30:	e12fff1e 	bx	lr

0000ad34 <v3d_set_flush>:
    ad34:	e3a03004 	mov	r3, #4
    ad38:	e4c03001 	strb	r3, [r0], #1
    ad3c:	e12fff1e 	bx	lr

0000ad40 <v3d_set_flush_all>:
    ad40:	e3a03005 	mov	r3, #5
    ad44:	e4c03001 	strb	r3, [r0], #1
    ad48:	e12fff1e 	bx	lr

0000ad4c <v3d_set_bin_start_tile_binning>:
    ad4c:	e3a03006 	mov	r3, #6
    ad50:	e4c03001 	strb	r3, [r0], #1
    ad54:	e12fff1e 	bx	lr

0000ad58 <v3d_increment_sem>:
    ad58:	e3a03007 	mov	r3, #7
    ad5c:	e4c03001 	strb	r3, [r0], #1
    ad60:	e12fff1e 	bx	lr

0000ad64 <v3d_wait_sem>:
    ad64:	e3a03008 	mov	r3, #8
    ad68:	e4c03001 	strb	r3, [r0], #1
    ad6c:	e12fff1e 	bx	lr

0000ad70 <v3d_set_branch_to_sublist>:
    ad70:	e3a03011 	mov	r3, #17
    ad74:	e92d4010 	push	{r4, lr}
    ad78:	e1a04000 	mov	r4, r0
    ad7c:	e3a02004 	mov	r2, #4
    ad80:	e4c03001 	strb	r3, [r0], #1
    ad84:	ebfff4f2 	bl	8154 <memcpy>
    ad88:	e2840005 	add	r0, r4, #5
    ad8c:	e8bd4010 	pop	{r4, lr}
    ad90:	e12fff1e 	bx	lr

0000ad94 <v3d_set_branch_to_sublist_test>:
    ad94:	e3a03011 	mov	r3, #17
    ad98:	e3a02004 	mov	r2, #4
    ad9c:	e92d4010 	push	{r4, lr}
    ada0:	e24dd008 	sub	sp, sp, #8
    ada4:	e1a04000 	mov	r4, r0
    ada8:	e58d1004 	str	r1, [sp, #4]
    adac:	e4c03001 	strb	r3, [r0], #1
    adb0:	e08d1002 	add	r1, sp, r2
    adb4:	ebfff4e6 	bl	8154 <memcpy>
    adb8:	e2840005 	add	r0, r4, #5
    adbc:	e28dd008 	add	sp, sp, #8
    adc0:	e8bd4010 	pop	{r4, lr}
    adc4:	e12fff1e 	bx	lr

0000adc8 <v3d_set_rendering_store_multi_sample_resolved_tile_color_buffer>:
    adc8:	e3a03018 	mov	r3, #24
    adcc:	e4c03001 	strb	r3, [r0], #1
    add0:	e12fff1e 	bx	lr

0000add4 <v3d_set_rendering_store_multi_sample_resolved_tile_color_buffer_eof>:
    add4:	e3a03019 	mov	r3, #25
    add8:	e4c03001 	strb	r3, [r0], #1
    addc:	e12fff1e 	bx	lr

0000ade0 <v3d_set_bin_mode_config>:
    ade0:	e3a03070 	mov	r3, #112	; 0x70
    ade4:	e92d4010 	push	{r4, lr}
    ade8:	e1a04000 	mov	r4, r0
    adec:	e3a0200f 	mov	r2, #15
    adf0:	e4c03001 	strb	r3, [r0], #1
    adf4:	ebfff4d6 	bl	8154 <memcpy>
    adf8:	e2840010 	add	r0, r4, #16
    adfc:	e8bd4010 	pop	{r4, lr}
    ae00:	e12fff1e 	bx	lr

0000ae04 <v3d_set_bin_start>:
    ae04:	e3a03006 	mov	r3, #6
    ae08:	e4c03001 	strb	r3, [r0], #1
    ae0c:	e12fff1e 	bx	lr

0000ae10 <v3d_set_bin_clip_window>:
    ae10:	e3a03066 	mov	r3, #102	; 0x66
    ae14:	e92d4010 	push	{r4, lr}
    ae18:	e1a04000 	mov	r4, r0
    ae1c:	e3a02008 	mov	r2, #8
    ae20:	e4c03001 	strb	r3, [r0], #1
    ae24:	ebfff4ca 	bl	8154 <memcpy>
    ae28:	e2840009 	add	r0, r4, #9
    ae2c:	e8bd4010 	pop	{r4, lr}
    ae30:	e12fff1e 	bx	lr

0000ae34 <v3d_set_bin_viewport_offset>:
    ae34:	e3a03067 	mov	r3, #103	; 0x67
    ae38:	e92d4010 	push	{r4, lr}
    ae3c:	e1a04000 	mov	r4, r0
    ae40:	e3a02004 	mov	r2, #4
    ae44:	e4c03001 	strb	r3, [r0], #1
    ae48:	ebfff4c1 	bl	8154 <memcpy>
    ae4c:	e2840005 	add	r0, r4, #5
    ae50:	e8bd4010 	pop	{r4, lr}
    ae54:	e12fff1e 	bx	lr

0000ae58 <v3d_set_bin_state_config>:
    ae58:	e3a03060 	mov	r3, #96	; 0x60
    ae5c:	e92d4010 	push	{r4, lr}
    ae60:	e1a04000 	mov	r4, r0
    ae64:	e3a02003 	mov	r2, #3
    ae68:	e4c03001 	strb	r3, [r0], #1
    ae6c:	ebfff4b8 	bl	8154 <memcpy>
    ae70:	e2840004 	add	r0, r4, #4
    ae74:	e8bd4010 	pop	{r4, lr}
    ae78:	e12fff1e 	bx	lr

0000ae7c <v3d_set_rendering_clear_colors>:
    ae7c:	e3a03072 	mov	r3, #114	; 0x72
    ae80:	e92d4010 	push	{r4, lr}
    ae84:	e1a04000 	mov	r4, r0
    ae88:	e3a0200d 	mov	r2, #13
    ae8c:	e4c03001 	strb	r3, [r0], #1
    ae90:	ebfff4af 	bl	8154 <memcpy>
    ae94:	e284000e 	add	r0, r4, #14
    ae98:	e8bd4010 	pop	{r4, lr}
    ae9c:	e12fff1e 	bx	lr

0000aea0 <v3d_set_rendering_store_tile_buffer_general>:
    aea0:	e3a0301c 	mov	r3, #28
    aea4:	e92d4010 	push	{r4, lr}
    aea8:	e1a04000 	mov	r4, r0
    aeac:	e3a02006 	mov	r2, #6
    aeb0:	e4c03001 	strb	r3, [r0], #1
    aeb4:	ebfff4a6 	bl	8154 <memcpy>
    aeb8:	e2840007 	add	r0, r4, #7
    aebc:	e8bd4010 	pop	{r4, lr}
    aec0:	e12fff1e 	bx	lr

0000aec4 <v3d_set_rendering_mode_config>:
    aec4:	e3a03071 	mov	r3, #113	; 0x71
    aec8:	e92d4010 	push	{r4, lr}
    aecc:	e1a04000 	mov	r4, r0
    aed0:	e3a0200a 	mov	r2, #10
    aed4:	e4c03001 	strb	r3, [r0], #1
    aed8:	ebfff49d 	bl	8154 <memcpy>
    aedc:	e284000b 	add	r0, r4, #11
    aee0:	e8bd4010 	pop	{r4, lr}
    aee4:	e12fff1e 	bx	lr

0000aee8 <v3d_set_shader_state_record>:
    aee8:	e3a02004 	mov	r2, #4
    aeec:	e3a03040 	mov	r3, #64	; 0x40
    aef0:	e92d4010 	push	{r4, lr}
    aef4:	e24dd008 	sub	sp, sp, #8
    aef8:	e1a04000 	mov	r4, r0
    aefc:	e4c03001 	strb	r3, [r0], #1
    af00:	e1a03221 	lsr	r3, r1, #4
    af04:	e08d1002 	add	r1, sp, r2
    af08:	e58d3004 	str	r3, [sp, #4]
    af0c:	ebfff490 	bl	8154 <memcpy>
    af10:	e2840005 	add	r0, r4, #5
    af14:	e28dd008 	add	sp, sp, #8
    af18:	e8bd4010 	pop	{r4, lr}
    af1c:	e12fff1e 	bx	lr

0000af20 <v3d_set_nv_shader_state_record>:
    af20:	e3a02041 	mov	r2, #65	; 0x41
    af24:	e92d4010 	push	{r4, lr}
    af28:	e1a04000 	mov	r4, r0
    af2c:	e4c02001 	strb	r2, [r0], #1
    af30:	e3a02004 	mov	r2, #4
    af34:	e1a03001 	mov	r3, r1
    af38:	e24dd008 	sub	sp, sp, #8
    af3c:	e08d1002 	add	r1, sp, r2
    af40:	e58d3004 	str	r3, [sp, #4]
    af44:	ebfff482 	bl	8154 <memcpy>
    af48:	e2840005 	add	r0, r4, #5
    af4c:	e28dd008 	add	sp, sp, #8
    af50:	e8bd4010 	pop	{r4, lr}
    af54:	e12fff1e 	bx	lr

0000af58 <v3d_set_vertex_array_prim>:
    af58:	e3a03021 	mov	r3, #33	; 0x21
    af5c:	e92d4010 	push	{r4, lr}
    af60:	e1a04000 	mov	r4, r0
    af64:	e3a02009 	mov	r2, #9
    af68:	e4c03001 	strb	r3, [r0], #1
    af6c:	ebfff478 	bl	8154 <memcpy>
    af70:	e284000a 	add	r0, r4, #10
    af74:	e8bd4010 	pop	{r4, lr}
    af78:	e12fff1e 	bx	lr

0000af7c <v3d_set_z_min_and_max_clipping_planes>:
    af7c:	e3a03068 	mov	r3, #104	; 0x68
    af80:	e92d4010 	push	{r4, lr}
    af84:	e1a04000 	mov	r4, r0
    af88:	e3a02008 	mov	r2, #8
    af8c:	e4c03001 	strb	r3, [r0], #1
    af90:	ebfff46f 	bl	8154 <memcpy>
    af94:	e2840009 	add	r0, r4, #9
    af98:	e8bd4010 	pop	{r4, lr}
    af9c:	e12fff1e 	bx	lr

0000afa0 <v3d_set_bin_clipper_xy_scaling>:
    afa0:	e3a03069 	mov	r3, #105	; 0x69
    afa4:	e92d4010 	push	{r4, lr}
    afa8:	e1a04000 	mov	r4, r0
    afac:	e3a02008 	mov	r2, #8
    afb0:	e4c03001 	strb	r3, [r0], #1
    afb4:	ebfff466 	bl	8154 <memcpy>
    afb8:	e2840009 	add	r0, r4, #9
    afbc:	e8bd4010 	pop	{r4, lr}
    afc0:	e12fff1e 	bx	lr

0000afc4 <v3d_set_bin_clipper_z_scale_and_offset>:
    afc4:	e3a0306a 	mov	r3, #106	; 0x6a
    afc8:	e92d4010 	push	{r4, lr}
    afcc:	e1a04000 	mov	r4, r0
    afd0:	e3a02008 	mov	r2, #8
    afd4:	e4c03001 	strb	r3, [r0], #1
    afd8:	ebfff45d 	bl	8154 <memcpy>
    afdc:	e2840009 	add	r0, r4, #9
    afe0:	e8bd4010 	pop	{r4, lr}
    afe4:	e12fff1e 	bx	lr

0000afe8 <v3d_set_rendering_tile_coordinates>:
    afe8:	e3a03073 	mov	r3, #115	; 0x73
    afec:	e92d4010 	push	{r4, lr}
    aff0:	e1a04000 	mov	r4, r0
    aff4:	e3a02002 	mov	r2, #2
    aff8:	e4c03001 	strb	r3, [r0], #1
    affc:	ebfff454 	bl	8154 <memcpy>
    b000:	e2840003 	add	r0, r4, #3
    b004:	e8bd4010 	pop	{r4, lr}
    b008:	e12fff1e 	bx	lr

0000b00c <v3d_set_bin_exec_addr>:
    b00c:	e3a03583 	mov	r3, #549453824	; 0x20c00000
    b010:	e5830110 	str	r0, [r3, #272]	; 0x110
    b014:	e5831108 	str	r1, [r3, #264]	; 0x108
    b018:	e12fff1e 	bx	lr

0000b01c <v3d_set_rendering_exec_addr>:
    b01c:	e3a03583 	mov	r3, #549453824	; 0x20c00000
    b020:	e5830114 	str	r0, [r3, #276]	; 0x114
    b024:	e583110c 	str	r1, [r3, #268]	; 0x10c
    b028:	e12fff1e 	bx	lr

0000b02c <v3d_reset>:
    b02c:	e3a03583 	mov	r3, #549453824	; 0x20c00000
    b030:	e3a02000 	mov	r2, #0
    b034:	e3a01902 	mov	r1, #32768	; 0x8000
    b038:	e5832100 	str	r2, [r3, #256]	; 0x100
    b03c:	e5832104 	str	r2, [r3, #260]	; 0x104
    b040:	e5831100 	str	r1, [r3, #256]	; 0x100
    b044:	e5831104 	str	r1, [r3, #260]	; 0x104
    b048:	e5832134 	str	r2, [r3, #308]	; 0x134
    b04c:	e5832138 	str	r2, [r3, #312]	; 0x138
    b050:	e5832130 	str	r2, [r3, #304]	; 0x130
    b054:	e12fff1e 	bx	lr

0000b058 <v3d_wait_bin_exec>:
    b058:	e92d4010 	push	{r4, lr}
    b05c:	e3a04583 	mov	r4, #549453824	; 0x20c00000
    b060:	e5943134 	ldr	r3, [r4, #308]	; 0x134
    b064:	e3530000 	cmp	r3, #0
    b068:	1a000004 	bne	b080 <v3d_wait_bin_exec+0x28>
    b06c:	e3a00064 	mov	r0, #100	; 0x64
    b070:	ebfff400 	bl	8078 <SLEEP>
    b074:	e5943134 	ldr	r3, [r4, #308]	; 0x134
    b078:	e3530000 	cmp	r3, #0
    b07c:	0afffffa 	beq	b06c <v3d_wait_bin_exec+0x14>
    b080:	e3a03583 	mov	r3, #549453824	; 0x20c00000
    b084:	e3a02001 	mov	r2, #1
    b088:	e8bd4010 	pop	{r4, lr}
    b08c:	e5832134 	str	r2, [r3, #308]	; 0x134
    b090:	e12fff1e 	bx	lr

0000b094 <v3d_wait_rendering_exec>:
    b094:	e92d4010 	push	{r4, lr}
    b098:	e3a04583 	mov	r4, #549453824	; 0x20c00000
    b09c:	e5943138 	ldr	r3, [r4, #312]	; 0x138
    b0a0:	e3530000 	cmp	r3, #0
    b0a4:	1a000004 	bne	b0bc <v3d_wait_rendering_exec+0x28>
    b0a8:	e3a00064 	mov	r0, #100	; 0x64
    b0ac:	ebfff3f1 	bl	8078 <SLEEP>
    b0b0:	e5943138 	ldr	r3, [r4, #312]	; 0x138
    b0b4:	e3530000 	cmp	r3, #0
    b0b8:	0afffffa 	beq	b0a8 <v3d_wait_rendering_exec+0x14>
    b0bc:	e3a03583 	mov	r3, #549453824	; 0x20c00000
    b0c0:	e3a02001 	mov	r2, #1
    b0c4:	e8bd4010 	pop	{r4, lr}
    b0c8:	e5832134 	str	r2, [r3, #308]	; 0x134
    b0cc:	e12fff1e 	bx	lr

Disassembly of section .rodata.str1.4:

0000b0d0 <.rodata.str1.4>:
    b0d0:	2d2d2d2d 	stccs	13, cr2, [sp, #-180]!	; 0xffffff4c
    b0d4:	2d2d2d2d 	stccs	13, cr2, [sp, #-180]!	; 0xffffff4c
    b0d8:	2d2d2d2d 	stccs	13, cr2, [sp, #-180]!	; 0xffffff4c
    b0dc:	2d2d2d2d 	stccs	13, cr2, [sp, #-180]!	; 0xffffff4c
    b0e0:	2d2d2d2d 	stccs	13, cr2, [sp, #-180]!	; 0xffffff4c
    b0e4:	2d2d2d2d 	stccs	13, cr2, [sp, #-180]!	; 0xffffff4c
    b0e8:	2d2d2d2d 	stccs	13, cr2, [sp, #-180]!	; 0xffffff4c
    b0ec:	2d2d2d2d 	stccs	13, cr2, [sp, #-180]!	; 0xffffff4c
    b0f0:	2d2d2d2d 	stccs	13, cr2, [sp, #-180]!	; 0xffffff4c
    b0f4:	2d2d2d2d 	stccs	13, cr2, [sp, #-180]!	; 0xffffff4c
    b0f8:	2d2d2d2d 	stccs	13, cr2, [sp, #-180]!	; 0xffffff4c
    b0fc:	2d2d2d2d 	stccs	13, cr2, [sp, #-180]!	; 0xffffff4c
    b100:	2d2d2d2d 	stccs	13, cr2, [sp, #-180]!	; 0xffffff4c
    b104:	2d2d2d2d 	stccs	13, cr2, [sp, #-180]!	; 0xffffff4c
    b108:	2d2d2d2d 	stccs	13, cr2, [sp, #-180]!	; 0xffffff4c
    b10c:	2d2d2d2d 	stccs	13, cr2, [sp, #-180]!	; 0xffffff4c
    b110:	0000000a 	andeq	r0, r0, sl
    b114:	20414d44 	subcs	r4, r1, r4, asr #26
    b118:	4d44203a 	stclmi	0, cr2, [r4, #-232]	; 0xffffff18
    b11c:	4e495f41 	cdpmi	15, 4, cr5, cr9, cr1, {2}
    b120:	54535f54 	ldrbpl	r5, [r3], #-3924	; 0xfffff0ac
    b124:	53555441 	cmppl	r5, #1090519040	; 0x41000000
    b128:	20202020 	eorcs	r2, r0, r0, lsr #32
    b12c:	20202020 	eorcs	r2, r0, r0, lsr #32
    b130:	20202020 	eorcs	r2, r0, r0, lsr #32
    b134:	00203a20 	eoreq	r3, r0, r0, lsr #20
    b138:	20414d44 	subcs	r4, r1, r4, asr #26
    b13c:	4d44203a 	stclmi	0, cr2, [r4, #-232]	; 0xffffff18
    b140:	4e455f41 	cdpmi	15, 4, cr5, cr5, cr1, {2}
    b144:	454c4241 	strbmi	r4, [ip, #-577]	; 0xfffffdbf
    b148:	20202020 	eorcs	r2, r0, r0, lsr #32
    b14c:	20202020 	eorcs	r2, r0, r0, lsr #32
    b150:	20202020 	eorcs	r2, r0, r0, lsr #32
    b154:	20202020 	eorcs	r2, r0, r0, lsr #32
    b158:	00203a20 	eoreq	r3, r0, r0, lsr #20
    b15c:	20414d44 	subcs	r4, r1, r4, asr #26
    b160:	4d44203a 	stclmi	0, cr2, [r4, #-232]	; 0xffffff18
    b164:	53435f41 	movtpl	r5, #16193	; 0x3f41
    b168:	20297828 	eorcs	r7, r9, r8, lsr #16
    b16c:	20202020 	eorcs	r2, r0, r0, lsr #32
    b170:	20202020 	eorcs	r2, r0, r0, lsr #32
    b174:	20202020 	eorcs	r2, r0, r0, lsr #32
    b178:	20202020 	eorcs	r2, r0, r0, lsr #32
    b17c:	00203a20 	eoreq	r3, r0, r0, lsr #20
    b180:	20414d44 	subcs	r4, r1, r4, asr #26
    b184:	4d44203a 	stclmi	0, cr2, [r4, #-232]	; 0xffffff18
    b188:	42435f41 	submi	r5, r3, #260	; 0x104
    b18c:	4444415f 	strbmi	r4, [r4], #-351	; 0xfffffea1
    b190:	29782852 	ldmdbcs	r8!, {r1, r4, r6, fp, sp}^
    b194:	20202020 	eorcs	r2, r0, r0, lsr #32
    b198:	20202020 	eorcs	r2, r0, r0, lsr #32
    b19c:	20202020 	eorcs	r2, r0, r0, lsr #32
    b1a0:	00203a20 	eoreq	r3, r0, r0, lsr #20
    b1a4:	20414d44 	subcs	r4, r1, r4, asr #26
    b1a8:	4d44203a 	stclmi	0, cr2, [r4, #-232]	; 0xffffff18
    b1ac:	49545f41 	ldmdbmi	r4, {r0, r6, r8, r9, sl, fp, ip, lr}^
    b1b0:	20297828 	eorcs	r7, r9, r8, lsr #16
    b1b4:	20202020 	eorcs	r2, r0, r0, lsr #32
    b1b8:	20202020 	eorcs	r2, r0, r0, lsr #32
    b1bc:	20202020 	eorcs	r2, r0, r0, lsr #32
    b1c0:	20202020 	eorcs	r2, r0, r0, lsr #32
    b1c4:	00203a20 	eoreq	r3, r0, r0, lsr #20
    b1c8:	20414d44 	subcs	r4, r1, r4, asr #26
    b1cc:	4d44203a 	stclmi	0, cr2, [r4, #-232]	; 0xffffff18
    b1d0:	5f535f41 	svcpl	0x00535f41
    b1d4:	52444441 	subpl	r4, r4, #1090519040	; 0x41000000
    b1d8:	20297828 	eorcs	r7, r9, r8, lsr #16
    b1dc:	20202020 	eorcs	r2, r0, r0, lsr #32
    b1e0:	20202020 	eorcs	r2, r0, r0, lsr #32
    b1e4:	20202020 	eorcs	r2, r0, r0, lsr #32
    b1e8:	00203a20 	eoreq	r3, r0, r0, lsr #20
    b1ec:	20414d44 	subcs	r4, r1, r4, asr #26
    b1f0:	4d44203a 	stclmi	0, cr2, [r4, #-232]	; 0xffffff18
    b1f4:	5f445f41 	svcpl	0x00445f41
    b1f8:	52444441 	subpl	r4, r4, #1090519040	; 0x41000000
    b1fc:	20297828 	eorcs	r7, r9, r8, lsr #16
    b200:	20202020 	eorcs	r2, r0, r0, lsr #32
    b204:	20202020 	eorcs	r2, r0, r0, lsr #32
    b208:	20202020 	eorcs	r2, r0, r0, lsr #32
    b20c:	00203a20 	eoreq	r3, r0, r0, lsr #20
    b210:	20414d44 	subcs	r4, r1, r4, asr #26
    b214:	4d44203a 	stclmi	0, cr2, [r4, #-232]	; 0xffffff18
    b218:	58545f41 	ldmdapl	r4, {r0, r6, r8, r9, sl, fp, ip, lr}^
    b21c:	4c5f5246 	lfmmi	f5, 2, [pc], {70}	; 0x46
    b220:	78284e45 	stmdavc	r8!, {r0, r2, r6, r9, sl, fp, lr}
    b224:	20202029 	eorcs	r2, r0, r9, lsr #32
    b228:	20202020 	eorcs	r2, r0, r0, lsr #32
    b22c:	20202020 	eorcs	r2, r0, r0, lsr #32
    b230:	00203a20 	eoreq	r3, r0, r0, lsr #20
    b234:	20414d44 	subcs	r4, r1, r4, asr #26
    b238:	4d44203a 	stclmi	0, cr2, [r4, #-232]	; 0xffffff18
    b23c:	54535f41 	ldrbpl	r5, [r3], #-3905	; 0xfffff0bf
    b240:	45444952 	strbmi	r4, [r4, #-2386]	; 0xfffff6ae
    b244:	20297828 	eorcs	r7, r9, r8, lsr #16
    b248:	20202020 	eorcs	r2, r0, r0, lsr #32
    b24c:	20202020 	eorcs	r2, r0, r0, lsr #32
    b250:	20202020 	eorcs	r2, r0, r0, lsr #32
    b254:	00203a20 	eoreq	r3, r0, r0, lsr #20
    b258:	20414d44 	subcs	r4, r1, r4, asr #26
    b25c:	4d44203a 	stclmi	0, cr2, [r4, #-232]	; 0xffffff18
    b260:	454e5f41 	strbmi	r5, [lr, #-3905]	; 0xfffff0bf
    b264:	4f435458 	svcmi	0x00435458
    b268:	284b424e 	stmdacs	fp, {r1, r2, r3, r6, r9, lr}^
    b26c:	20202978 	eorcs	r2, r0, r8, ror r9
    b270:	20202020 	eorcs	r2, r0, r0, lsr #32
    b274:	20202020 	eorcs	r2, r0, r0, lsr #32
    b278:	00203a20 	eoreq	r3, r0, r0, lsr #20
    b27c:	20414d44 	subcs	r4, r1, r4, asr #26
    b280:	4d44203a 	stclmi	0, cr2, [r4, #-232]	; 0xffffff18
    b284:	45445f41 	strbmi	r5, [r4, #-3905]	; 0xfffff0bf
    b288:	28475542 	stmdacs	r7, {r1, r6, r8, sl, ip, lr}^
    b28c:	20202978 	eorcs	r2, r0, r8, ror r9
    b290:	20202020 	eorcs	r2, r0, r0, lsr #32
    b294:	20202020 	eorcs	r2, r0, r0, lsr #32
    b298:	20202020 	eorcs	r2, r0, r0, lsr #32
    b29c:	00203a20 	eoreq	r3, r0, r0, lsr #20
    b2a0:	20414d44 	subcs	r4, r1, r4, asr #26
    b2a4:	5f67203a 	svcpl	0x0067203a
    b2a8:	5f616d64 	svcpl	0x00616d64
    b2ac:	685f6263 	ldmdavs	pc, {r0, r1, r5, r6, r9, sp, lr}^	; <UNPREDICTABLE>
    b2b0:	20646165 	rsbcs	r6, r4, r5, ror #2
    b2b4:	20202020 	eorcs	r2, r0, r0, lsr #32
    b2b8:	20202020 	eorcs	r2, r0, r0, lsr #32
    b2bc:	20202020 	eorcs	r2, r0, r0, lsr #32
    b2c0:	00203a20 	eoreq	r3, r0, r0, lsr #20
    b2c4:	20414d44 	subcs	r4, r1, r4, asr #26
    b2c8:	6168203a 	cmnvs	r8, sl, lsr r0
    b2cc:	4420676e 	strtmi	r6, [r0], #-1902	; 0xfffff892
    b2d0:	435f414d 	cmpmi	pc, #1073741843	; 0x40000013
    b2d4:	00003d53 	andeq	r3, r0, r3, asr sp
    b2d8:	20414d44 	subcs	r4, r1, r4, asr #26
    b2dc:	6168203a 	cmnvs	r8, sl, lsr r0
    b2e0:	6320676e 			; <UNDEFINED> instruction: 0x6320676e
    b2e4:	00003d68 	andeq	r3, r0, r8, ror #26
    b2e8:	6c6c6163 	stfvse	f6, [ip], #-396	; 0xfffffe74
    b2ec:	746e6920 	strbtvc	r6, [lr], #-2336	; 0xfffff6e0
    b2f0:	61685f72 	smcvs	34290	; 0x85f2
    b2f4:	656c646e 	strbvs	r6, [ip, #-1134]!	; 0xfffffb92
    b2f8:	00000a72 	andeq	r0, r0, r2, ror sl
    b2fc:	474e4148 	strbmi	r4, [lr, -r8, asr #2]
    b300:	21212121 			; <UNDEFINED> instruction: 0x21212121
    b304:	21212121 			; <UNDEFINED> instruction: 0x21212121
    b308:	00000a21 	andeq	r0, r0, r1, lsr #20
    b30c:	45444e55 	strbmi	r4, [r4, #-3669]	; 0xfffff1ab
    b310:	00002046 	andeq	r2, r0, r6, asr #32
    b314:	46455250 			; <UNDEFINED> instruction: 0x46455250
    b318:	48435445 	stmdami	r3, {r0, r2, r6, sl, ip, lr}^
    b31c:	4f424120 	svcmi	0x00424120
    b320:	00205452 	eoreq	r5, r0, r2, asr r4
    b324:	41544144 	cmpmi	r4, r4, asr #2
    b328:	4f424120 	svcmi	0x00424120
    b32c:	00205452 	eoreq	r5, r0, r2, asr r4
    b330:	6c69616d 	stfvse	f6, [r9], #-436	; 0xfffffe4c
    b334:	5f786f62 	svcpl	0x00786f62
    b338:	5f757071 	svcpl	0x00757071
    b33c:	62616e65 	rsbvs	r6, r1, #1616	; 0x650
    b340:	4620656c 	strtmi	r6, [r0], -ip, ror #10
    b344:	454c4941 	strbmi	r4, [ip, #-2369]	; 0xfffff6bf
    b348:	5b702044 	blpl	1c13460 <mailbox_data+0x1bdad60>
    b34c:	0a3d5d31 	beq	f62818 <mailbox_data+0xf2a118>
    b350:	00000000 	andeq	r0, r0, r0
    b354:	6c69616d 	stfvse	f6, [r9], #-436	; 0xfffffe4c
    b358:	5f786f62 	svcpl	0x00786f62
    b35c:	5f757071 	svcpl	0x00757071
    b360:	62616e65 	rsbvs	r6, r1, #1616	; 0x650
    b364:	4f20656c 	svcmi	0x0020656c
    b368:	000a204b 	andeq	r2, sl, fp, asr #32
    b36c:	73206266 			; <UNDEFINED> instruction: 0x73206266
    b370:	63757274 	cmnvs	r5, #116, 4	; 0x40000007
    b374:	64612074 	strbtvs	r2, [r1], #-116	; 0xffffff8c
    b378:	003d7264 	eorseq	r7, sp, r4, ror #4
    b37c:	5f443356 	svcpl	0x00443356
    b380:	4e454449 	cdpmi	4, 4, cr4, cr5, cr9, {2}
    b384:	20203054 	eorcs	r3, r0, r4, asr r0
    b388:	20202020 	eorcs	r2, r0, r0, lsr #32
    b38c:	0000003d 	andeq	r0, r0, sp, lsr r0
    b390:	5f443356 	svcpl	0x00443356
    b394:	4e454449 	cdpmi	4, 4, cr4, cr5, cr9, {2}
    b398:	20203154 	eorcs	r3, r0, r4, asr r1
    b39c:	20202020 	eorcs	r2, r0, r0, lsr #32
    b3a0:	0000003d 	andeq	r0, r0, sp, lsr r0
    b3a4:	5f443356 	svcpl	0x00443356
    b3a8:	4e454449 	cdpmi	4, 4, cr4, cr5, cr9, {2}
    b3ac:	20203254 	eorcs	r3, r0, r4, asr r2
    b3b0:	20202020 	eorcs	r2, r0, r0, lsr #32
    b3b4:	0000003d 	andeq	r0, r0, sp, lsr r0
    b3b8:	3e2d6266 	cdpcc	2, 2, cr6, cr13, cr6, {3}
    b3bc:	6e696f70 	mcrvs	15, 3, r6, cr9, cr0, {3}
    b3c0:	20726574 	rsbscs	r6, r2, r4, ror r5
    b3c4:	20202020 	eorcs	r2, r0, r0, lsr #32
    b3c8:	0000003d 	andeq	r0, r0, sp, lsr r0
    b3cc:	00000020 	andeq	r0, r0, r0, lsr #32
    b3d0:	2d2d2d2d 	stccs	13, cr2, [sp, #-180]!	; 0xffffff4c
    b3d4:	2d2d2d2d 	stccs	13, cr2, [sp, #-180]!	; 0xffffff4c
    b3d8:	2d2d2d2d 	stccs	13, cr2, [sp, #-180]!	; 0xffffff4c
    b3dc:	2d2d2d2d 	stccs	13, cr2, [sp, #-180]!	; 0xffffff4c
    b3e0:	2d2d2d2d 	stccs	13, cr2, [sp, #-180]!	; 0xffffff4c
    b3e4:	2d2d2d2d 	stccs	13, cr2, [sp, #-180]!	; 0xffffff4c
    b3e8:	2d2d2d2d 	stccs	13, cr2, [sp, #-180]!	; 0xffffff4c
    b3ec:	2d2d2d2d 	stccs	13, cr2, [sp, #-180]!	; 0xffffff4c
    b3f0:	2d2d2d2d 	stccs	13, cr2, [sp, #-180]!	; 0xffffff4c
    b3f4:	2d2d2d2d 	stccs	13, cr2, [sp, #-180]!	; 0xffffff4c
    b3f8:	2d2d2d2d 	stccs	13, cr2, [sp, #-180]!	; 0xffffff4c
    b3fc:	2d2d2d2d 	stccs	13, cr2, [sp, #-180]!	; 0xffffff4c
    b400:	2d2d2d2d 	stccs	13, cr2, [sp, #-180]!	; 0xffffff4c
    b404:	2d2d2d2d 	stccs	13, cr2, [sp, #-180]!	; 0xffffff4c
    b408:	2d2d2d2d 	stccs	13, cr2, [sp, #-180]!	; 0xffffff4c
    b40c:	2d2d2d2d 	stccs	13, cr2, [sp, #-180]!	; 0xffffff4c
    b410:	2d2d2d2d 	stccs	13, cr2, [sp, #-180]!	; 0xffffff4c
    b414:	00000a2d 	andeq	r0, r0, sp, lsr #20
    b418:	5f443356 	svcpl	0x00443356
    b41c:	4e454449 	cdpmi	4, 4, cr4, cr5, cr9, {2}
    b420:	20203054 	eorcs	r3, r0, r4, asr r0
    b424:	20202020 	eorcs	r2, r0, r0, lsr #32
    b428:	00003d20 	andeq	r3, r0, r0, lsr #26
    b42c:	5f443356 	svcpl	0x00443356
    b430:	4e454449 	cdpmi	4, 4, cr4, cr5, cr9, {2}
    b434:	20203154 	eorcs	r3, r0, r4, asr r1
    b438:	20202020 	eorcs	r2, r0, r0, lsr #32
    b43c:	00003d20 	andeq	r3, r0, r0, lsr #26
    b440:	5f443356 	svcpl	0x00443356
    b444:	4e454449 	cdpmi	4, 4, cr4, cr5, cr9, {2}
    b448:	20203254 	eorcs	r3, r0, r4, asr r2
    b44c:	20202020 	eorcs	r2, r0, r0, lsr #32
    b450:	00003d20 	andeq	r3, r0, r0, lsr #26
    b454:	5f443356 	svcpl	0x00443356
    b458:	41524353 	cmpmi	r2, r3, asr r3
    b45c:	20484354 	subcs	r4, r8, r4, asr r3
    b460:	20202020 	eorcs	r2, r0, r0, lsr #32
    b464:	00003d20 	andeq	r3, r0, r0, lsr #26
    b468:	5f443356 	svcpl	0x00443356
    b46c:	4143324c 	cmpmi	r3, ip, asr #4
    b470:	204c5443 	subcs	r5, ip, r3, asr #8
    b474:	20202020 	eorcs	r2, r0, r0, lsr #32
    b478:	00003d20 	andeq	r3, r0, r0, lsr #26
    b47c:	5f443356 	svcpl	0x00443356
    b480:	41434c53 	cmpmi	r3, r3, asr ip
    b484:	204c5443 	subcs	r5, ip, r3, asr #8
    b488:	20202020 	eorcs	r2, r0, r0, lsr #32
    b48c:	00003d20 	andeq	r3, r0, r0, lsr #26
    b490:	5f443356 	svcpl	0x00443356
    b494:	43544e49 	cmpmi	r4, #1168	; 0x490
    b498:	20204c54 	eorcs	r4, r0, r4, asr ip
    b49c:	20202020 	eorcs	r2, r0, r0, lsr #32
    b4a0:	00003d20 	andeq	r3, r0, r0, lsr #26
    b4a4:	5f443356 	svcpl	0x00443356
    b4a8:	45544e49 	ldrbmi	r4, [r4, #-3657]	; 0xfffff1b7
    b4ac:	2020414e 	eorcs	r4, r0, lr, asr #2
    b4b0:	20202020 	eorcs	r2, r0, r0, lsr #32
    b4b4:	00003d20 	andeq	r3, r0, r0, lsr #26
    b4b8:	5f443356 	svcpl	0x00443356
    b4bc:	44544e49 	ldrbmi	r4, [r4], #-3657	; 0xfffff1b7
    b4c0:	20205349 	eorcs	r5, r0, r9, asr #6
    b4c4:	20202020 	eorcs	r2, r0, r0, lsr #32
    b4c8:	00003d20 	andeq	r3, r0, r0, lsr #26
    b4cc:	5f443356 	svcpl	0x00443356
    b4d0:	43305443 	teqmi	r0, #1124073472	; 0x43000000
    b4d4:	20202053 	eorcs	r2, r0, r3, asr r0
    b4d8:	20202020 	eorcs	r2, r0, r0, lsr #32
    b4dc:	00003d20 	andeq	r3, r0, r0, lsr #26
    b4e0:	5f443356 	svcpl	0x00443356
    b4e4:	43315443 	teqmi	r1, #1124073472	; 0x43000000
    b4e8:	20202053 	eorcs	r2, r0, r3, asr r0
    b4ec:	20202020 	eorcs	r2, r0, r0, lsr #32
    b4f0:	00003d20 	andeq	r3, r0, r0, lsr #26
    b4f4:	5f443356 	svcpl	0x00443356
    b4f8:	45305443 	ldrmi	r5, [r0, #-1091]!	; 0xfffffbbd
    b4fc:	20202041 	eorcs	r2, r0, r1, asr #32
    b500:	20202020 	eorcs	r2, r0, r0, lsr #32
    b504:	00003d20 	andeq	r3, r0, r0, lsr #26
    b508:	5f443356 	svcpl	0x00443356
    b50c:	45315443 	ldrmi	r5, [r1, #-1091]!	; 0xfffffbbd
    b510:	20202041 	eorcs	r2, r0, r1, asr #32
    b514:	20202020 	eorcs	r2, r0, r0, lsr #32
    b518:	00003d20 	andeq	r3, r0, r0, lsr #26
    b51c:	5f443356 	svcpl	0x00443356
    b520:	43305443 	teqmi	r0, #1124073472	; 0x43000000
    b524:	20202041 	eorcs	r2, r0, r1, asr #32
    b528:	20202020 	eorcs	r2, r0, r0, lsr #32
    b52c:	00003d20 	andeq	r3, r0, r0, lsr #26
    b530:	5f443356 	svcpl	0x00443356
    b534:	43315443 	teqmi	r1, #1124073472	; 0x43000000
    b538:	20202041 	eorcs	r2, r0, r1, asr #32
    b53c:	20202020 	eorcs	r2, r0, r0, lsr #32
    b540:	00003d20 	andeq	r3, r0, r0, lsr #26
    b544:	5f443356 	svcpl	0x00443356
    b548:	30305443 	eorscc	r5, r0, r3, asr #8
    b54c:	20304152 	eorscs	r4, r0, r2, asr r1
    b550:	20202020 	eorcs	r2, r0, r0, lsr #32
    b554:	00003d20 	andeq	r3, r0, r0, lsr #26
    b558:	5f443356 	svcpl	0x00443356
    b55c:	31305443 	teqcc	r0, r3, asr #8
    b560:	20304152 	eorscs	r4, r0, r2, asr r1
    b564:	20202020 	eorcs	r2, r0, r0, lsr #32
    b568:	00003d20 	andeq	r3, r0, r0, lsr #26
    b56c:	5f443356 	svcpl	0x00443356
    b570:	4c305443 	cfldrsmi	mvf5, [r0], #-268	; 0xfffffef4
    b574:	20202043 	eorcs	r2, r0, r3, asr #32
    b578:	20202020 	eorcs	r2, r0, r0, lsr #32
    b57c:	00003d20 	andeq	r3, r0, r0, lsr #26
    b580:	5f443356 	svcpl	0x00443356
    b584:	4c315443 	cfldrsmi	mvf5, [r1], #-268	; 0xfffffef4
    b588:	20202043 	eorcs	r2, r0, r3, asr #32
    b58c:	20202020 	eorcs	r2, r0, r0, lsr #32
    b590:	00003d20 	andeq	r3, r0, r0, lsr #26
    b594:	5f443356 	svcpl	0x00443356
    b598:	50305443 	eorspl	r5, r0, r3, asr #8
    b59c:	20202043 	eorcs	r2, r0, r3, asr #32
    b5a0:	20202020 	eorcs	r2, r0, r0, lsr #32
    b5a4:	00003d20 	andeq	r3, r0, r0, lsr #26
    b5a8:	5f443356 	svcpl	0x00443356
    b5ac:	50315443 	eorspl	r5, r1, r3, asr #8
    b5b0:	20202043 	eorcs	r2, r0, r3, asr #32
    b5b4:	20202020 	eorcs	r2, r0, r0, lsr #32
    b5b8:	00003d20 	andeq	r3, r0, r0, lsr #26
    b5bc:	5f443356 	svcpl	0x00443356
    b5c0:	20534350 	subscs	r4, r3, r0, asr r3
    b5c4:	20202020 	eorcs	r2, r0, r0, lsr #32
    b5c8:	20202020 	eorcs	r2, r0, r0, lsr #32
    b5cc:	00003d20 	andeq	r3, r0, r0, lsr #26
    b5d0:	5f443356 	svcpl	0x00443356
    b5d4:	20434642 	subcs	r4, r3, r2, asr #12
    b5d8:	20202020 	eorcs	r2, r0, r0, lsr #32
    b5dc:	20202020 	eorcs	r2, r0, r0, lsr #32
    b5e0:	00003d20 	andeq	r3, r0, r0, lsr #26
    b5e4:	5f443356 	svcpl	0x00443356
    b5e8:	20434652 	subcs	r4, r3, r2, asr r6
    b5ec:	20202020 	eorcs	r2, r0, r0, lsr #32
    b5f0:	20202020 	eorcs	r2, r0, r0, lsr #32
    b5f4:	00003d20 	andeq	r3, r0, r0, lsr #26
    b5f8:	5f443356 	svcpl	0x00443356
    b5fc:	41435042 	cmpmi	r3, r2, asr #32
    b600:	20202020 	eorcs	r2, r0, r0, lsr #32
    b604:	20202020 	eorcs	r2, r0, r0, lsr #32
    b608:	00003d20 	andeq	r3, r0, r0, lsr #26
    b60c:	5f443356 	svcpl	0x00443356
    b610:	53435042 	movtpl	r5, #12354	; 0x3042
    b614:	20202020 	eorcs	r2, r0, r0, lsr #32
    b618:	20202020 	eorcs	r2, r0, r0, lsr #32
    b61c:	00003d20 	andeq	r3, r0, r0, lsr #26
    b620:	5f443356 	svcpl	0x00443356
    b624:	414f5042 	cmpmi	pc, r2, asr #32
    b628:	20202020 	eorcs	r2, r0, r0, lsr #32
    b62c:	20202020 	eorcs	r2, r0, r0, lsr #32
    b630:	00003d20 	andeq	r3, r0, r0, lsr #26
    b634:	5f443356 	svcpl	0x00443356
    b638:	534f5042 	movtpl	r5, #61506	; 0xf042
    b63c:	20202020 	eorcs	r2, r0, r0, lsr #32
    b640:	20202020 	eorcs	r2, r0, r0, lsr #32
    b644:	00003d20 	andeq	r3, r0, r0, lsr #26
    b648:	5f443356 	svcpl	0x00443356
    b64c:	46435842 	strbmi	r5, [r3], -r2, asr #16
    b650:	20202020 	eorcs	r2, r0, r0, lsr #32
    b654:	20202020 	eorcs	r2, r0, r0, lsr #32
    b658:	00003d20 	andeq	r3, r0, r0, lsr #26
    b65c:	5f443356 	svcpl	0x00443356
    b660:	53525153 	cmppl	r2, #-1073741804	; 0xc0000014
    b664:	20203056 	eorcs	r3, r0, r6, asr r0
    b668:	20202020 	eorcs	r2, r0, r0, lsr #32
    b66c:	00003d20 	andeq	r3, r0, r0, lsr #26
    b670:	5f443356 	svcpl	0x00443356
    b674:	53525153 	cmppl	r2, #-1073741804	; 0xc0000014
    b678:	20203156 	eorcs	r3, r0, r6, asr r1
    b67c:	20202020 	eorcs	r2, r0, r0, lsr #32
    b680:	00003d20 	andeq	r3, r0, r0, lsr #26
    b684:	5f443356 	svcpl	0x00443356
    b688:	4e435153 	mcrmi	1, 2, r5, cr3, cr3, {2}
    b68c:	20204c54 	eorcs	r4, r0, r4, asr ip
    b690:	20202020 	eorcs	r2, r0, r0, lsr #32
    b694:	00003d20 	andeq	r3, r0, r0, lsr #26
    b698:	5f443356 	svcpl	0x00443356
    b69c:	50515253 	subspl	r5, r1, r3, asr r2
    b6a0:	20202043 	eorcs	r2, r0, r3, asr #32
    b6a4:	20202020 	eorcs	r2, r0, r0, lsr #32
    b6a8:	00003d20 	andeq	r3, r0, r0, lsr #26
    b6ac:	5f443356 	svcpl	0x00443356
    b6b0:	55515253 	ldrbpl	r5, [r1, #-595]	; 0xfffffdad
    b6b4:	20202041 	eorcs	r2, r0, r1, asr #32
    b6b8:	20202020 	eorcs	r2, r0, r0, lsr #32
    b6bc:	00003d20 	andeq	r3, r0, r0, lsr #26
    b6c0:	5f443356 	svcpl	0x00443356
    b6c4:	55515253 	ldrbpl	r5, [r1, #-595]	; 0xfffffdad
    b6c8:	2020204c 	eorcs	r2, r0, ip, asr #32
    b6cc:	20202020 	eorcs	r2, r0, r0, lsr #32
    b6d0:	00003d20 	andeq	r3, r0, r0, lsr #26
    b6d4:	5f443356 	svcpl	0x00443356
    b6d8:	43515253 	cmpmi	r1, #805306373	; 0x30000005
    b6dc:	20202053 	eorcs	r2, r0, r3, asr r0
    b6e0:	20202020 	eorcs	r2, r0, r0, lsr #32
    b6e4:	00003d20 	andeq	r3, r0, r0, lsr #26
    b6e8:	5f443356 	svcpl	0x00443356
    b6ec:	43415056 	movtmi	r5, #4182	; 0x1056
    b6f0:	204c544e 	subcs	r5, ip, lr, asr #8
    b6f4:	20202020 	eorcs	r2, r0, r0, lsr #32
    b6f8:	00003d20 	andeq	r3, r0, r0, lsr #26
    b6fc:	5f443356 	svcpl	0x00443356
    b700:	424d5056 	submi	r5, sp, #86	; 0x56
    b704:	20455341 	subcs	r5, r5, r1, asr #6
    b708:	20202020 	eorcs	r2, r0, r0, lsr #32
    b70c:	00003d20 	andeq	r3, r0, r0, lsr #26
    b710:	5f443356 	svcpl	0x00443356
    b714:	52544350 	subspl	r4, r4, #80, 6	; 0x40000001
    b718:	20202043 	eorcs	r2, r0, r3, asr #32
    b71c:	20202020 	eorcs	r2, r0, r0, lsr #32
    b720:	00003d20 	andeq	r3, r0, r0, lsr #26
    b724:	5f443356 	svcpl	0x00443356
    b728:	52544350 	subspl	r4, r4, #80, 6	; 0x40000001
    b72c:	20202045 	eorcs	r2, r0, r5, asr #32
    b730:	20202020 	eorcs	r2, r0, r0, lsr #32
    b734:	00003d20 	andeq	r3, r0, r0, lsr #26
    b738:	5f443356 	svcpl	0x00443356
    b73c:	52544350 	subspl	r4, r4, #80, 6	; 0x40000001
    b740:	20202030 	eorcs	r2, r0, r0, lsr r0
    b744:	20202020 	eorcs	r2, r0, r0, lsr #32
    b748:	00003d20 	andeq	r3, r0, r0, lsr #26
    b74c:	5f443356 	svcpl	0x00443356
    b750:	52544350 	subspl	r4, r4, #80, 6	; 0x40000001
    b754:	20203053 	eorcs	r3, r0, r3, asr r0
    b758:	20202020 	eorcs	r2, r0, r0, lsr #32
    b75c:	00003d20 	andeq	r3, r0, r0, lsr #26
    b760:	5f443356 	svcpl	0x00443356
    b764:	52544350 	subspl	r4, r4, #80, 6	; 0x40000001
    b768:	20202031 	eorcs	r2, r0, r1, lsr r0
    b76c:	20202020 	eorcs	r2, r0, r0, lsr #32
    b770:	00003d20 	andeq	r3, r0, r0, lsr #26
    b774:	5f443356 	svcpl	0x00443356
    b778:	52544350 	subspl	r4, r4, #80, 6	; 0x40000001
    b77c:	20203153 	eorcs	r3, r0, r3, asr r1
    b780:	20202020 	eorcs	r2, r0, r0, lsr #32
    b784:	00003d20 	andeq	r3, r0, r0, lsr #26
    b788:	5f443356 	svcpl	0x00443356
    b78c:	52544350 	subspl	r4, r4, #80, 6	; 0x40000001
    b790:	20202032 	eorcs	r2, r0, r2, lsr r0
    b794:	20202020 	eorcs	r2, r0, r0, lsr #32
    b798:	00003d20 	andeq	r3, r0, r0, lsr #26
    b79c:	5f443356 	svcpl	0x00443356
    b7a0:	52544350 	subspl	r4, r4, #80, 6	; 0x40000001
    b7a4:	20203253 	eorcs	r3, r0, r3, asr r2
    b7a8:	20202020 	eorcs	r2, r0, r0, lsr #32
    b7ac:	00003d20 	andeq	r3, r0, r0, lsr #26
    b7b0:	5f443356 	svcpl	0x00443356
    b7b4:	52544350 	subspl	r4, r4, #80, 6	; 0x40000001
    b7b8:	20202033 	eorcs	r2, r0, r3, lsr r0
    b7bc:	20202020 	eorcs	r2, r0, r0, lsr #32
    b7c0:	00003d20 	andeq	r3, r0, r0, lsr #26
    b7c4:	5f443356 	svcpl	0x00443356
    b7c8:	52544350 	subspl	r4, r4, #80, 6	; 0x40000001
    b7cc:	20203353 	eorcs	r3, r0, r3, asr r3
    b7d0:	20202020 	eorcs	r2, r0, r0, lsr #32
    b7d4:	00003d20 	andeq	r3, r0, r0, lsr #26
    b7d8:	5f443356 	svcpl	0x00443356
    b7dc:	52544350 	subspl	r4, r4, #80, 6	; 0x40000001
    b7e0:	20202034 	eorcs	r2, r0, r4, lsr r0
    b7e4:	20202020 	eorcs	r2, r0, r0, lsr #32
    b7e8:	00003d20 	andeq	r3, r0, r0, lsr #26
    b7ec:	5f443356 	svcpl	0x00443356
    b7f0:	52544350 	subspl	r4, r4, #80, 6	; 0x40000001
    b7f4:	20203453 	eorcs	r3, r0, r3, asr r4
    b7f8:	20202020 	eorcs	r2, r0, r0, lsr #32
    b7fc:	00003d20 	andeq	r3, r0, r0, lsr #26
    b800:	5f443356 	svcpl	0x00443356
    b804:	52544350 	subspl	r4, r4, #80, 6	; 0x40000001
    b808:	20202035 	eorcs	r2, r0, r5, lsr r0
    b80c:	20202020 	eorcs	r2, r0, r0, lsr #32
    b810:	00003d20 	andeq	r3, r0, r0, lsr #26
    b814:	5f443356 	svcpl	0x00443356
    b818:	52544350 	subspl	r4, r4, #80, 6	; 0x40000001
    b81c:	20203553 	eorcs	r3, r0, r3, asr r5
    b820:	20202020 	eorcs	r2, r0, r0, lsr #32
    b824:	00003d20 	andeq	r3, r0, r0, lsr #26
    b828:	5f443356 	svcpl	0x00443356
    b82c:	52544350 	subspl	r4, r4, #80, 6	; 0x40000001
    b830:	20202036 	eorcs	r2, r0, r6, lsr r0
    b834:	20202020 	eorcs	r2, r0, r0, lsr #32
    b838:	00003d20 	andeq	r3, r0, r0, lsr #26
    b83c:	5f443356 	svcpl	0x00443356
    b840:	52544350 	subspl	r4, r4, #80, 6	; 0x40000001
    b844:	20203653 	eorcs	r3, r0, r3, asr r6
    b848:	20202020 	eorcs	r2, r0, r0, lsr #32
    b84c:	00003d20 	andeq	r3, r0, r0, lsr #26
    b850:	5f443356 	svcpl	0x00443356
    b854:	52544350 	subspl	r4, r4, #80, 6	; 0x40000001
    b858:	20202037 	eorcs	r2, r0, r7, lsr r0
    b85c:	20202020 	eorcs	r2, r0, r0, lsr #32
    b860:	00003d20 	andeq	r3, r0, r0, lsr #26
    b864:	5f443356 	svcpl	0x00443356
    b868:	52544350 	subspl	r4, r4, #80, 6	; 0x40000001
    b86c:	20203753 	eorcs	r3, r0, r3, asr r7
    b870:	20202020 	eorcs	r2, r0, r0, lsr #32
    b874:	00003d20 	andeq	r3, r0, r0, lsr #26
    b878:	5f443356 	svcpl	0x00443356
    b87c:	52544350 	subspl	r4, r4, #80, 6	; 0x40000001
    b880:	20202038 	eorcs	r2, r0, r8, lsr r0
    b884:	20202020 	eorcs	r2, r0, r0, lsr #32
    b888:	00003d20 	andeq	r3, r0, r0, lsr #26
    b88c:	5f443356 	svcpl	0x00443356
    b890:	52544350 	subspl	r4, r4, #80, 6	; 0x40000001
    b894:	20203853 	eorcs	r3, r0, r3, asr r8
    b898:	20202020 	eorcs	r2, r0, r0, lsr #32
    b89c:	00003d20 	andeq	r3, r0, r0, lsr #26
    b8a0:	5f443356 	svcpl	0x00443356
    b8a4:	52544350 	subspl	r4, r4, #80, 6	; 0x40000001
    b8a8:	20202039 	eorcs	r2, r0, r9, lsr r0
    b8ac:	20202020 	eorcs	r2, r0, r0, lsr #32
    b8b0:	00003d20 	andeq	r3, r0, r0, lsr #26
    b8b4:	5f443356 	svcpl	0x00443356
    b8b8:	52544350 	subspl	r4, r4, #80, 6	; 0x40000001
    b8bc:	20203953 	eorcs	r3, r0, r3, asr r9
    b8c0:	20202020 	eorcs	r2, r0, r0, lsr #32
    b8c4:	00003d20 	andeq	r3, r0, r0, lsr #26
    b8c8:	5f443356 	svcpl	0x00443356
    b8cc:	52544350 	subspl	r4, r4, #80, 6	; 0x40000001
    b8d0:	20203031 	eorcs	r3, r0, r1, lsr r0
    b8d4:	20202020 	eorcs	r2, r0, r0, lsr #32
    b8d8:	00003d20 	andeq	r3, r0, r0, lsr #26
    b8dc:	5f443356 	svcpl	0x00443356
    b8e0:	52544350 	subspl	r4, r4, #80, 6	; 0x40000001
    b8e4:	20303153 	eorscs	r3, r0, r3, asr r1
    b8e8:	20202020 	eorcs	r2, r0, r0, lsr #32
    b8ec:	00003d20 	andeq	r3, r0, r0, lsr #26
    b8f0:	5f443356 	svcpl	0x00443356
    b8f4:	52544350 	subspl	r4, r4, #80, 6	; 0x40000001
    b8f8:	20203131 	eorcs	r3, r0, r1, lsr r1
    b8fc:	20202020 	eorcs	r2, r0, r0, lsr #32
    b900:	00003d20 	andeq	r3, r0, r0, lsr #26
    b904:	5f443356 	svcpl	0x00443356
    b908:	52544350 	subspl	r4, r4, #80, 6	; 0x40000001
    b90c:	20313153 	eorscs	r3, r1, r3, asr r1
    b910:	20202020 	eorcs	r2, r0, r0, lsr #32
    b914:	00003d20 	andeq	r3, r0, r0, lsr #26
    b918:	5f443356 	svcpl	0x00443356
    b91c:	52544350 	subspl	r4, r4, #80, 6	; 0x40000001
    b920:	20203231 	eorcs	r3, r0, r1, lsr r2
    b924:	20202020 	eorcs	r2, r0, r0, lsr #32
    b928:	00003d20 	andeq	r3, r0, r0, lsr #26
    b92c:	5f443356 	svcpl	0x00443356
    b930:	52544350 	subspl	r4, r4, #80, 6	; 0x40000001
    b934:	20323153 	eorscs	r3, r2, r3, asr r1
    b938:	20202020 	eorcs	r2, r0, r0, lsr #32
    b93c:	00003d20 	andeq	r3, r0, r0, lsr #26
    b940:	5f443356 	svcpl	0x00443356
    b944:	52544350 	subspl	r4, r4, #80, 6	; 0x40000001
    b948:	20203331 	eorcs	r3, r0, r1, lsr r3
    b94c:	20202020 	eorcs	r2, r0, r0, lsr #32
    b950:	00003d20 	andeq	r3, r0, r0, lsr #26
    b954:	5f443356 	svcpl	0x00443356
    b958:	52544350 	subspl	r4, r4, #80, 6	; 0x40000001
    b95c:	20333153 	eorscs	r3, r3, r3, asr r1
    b960:	20202020 	eorcs	r2, r0, r0, lsr #32
    b964:	00003d20 	andeq	r3, r0, r0, lsr #26
    b968:	5f443356 	svcpl	0x00443356
    b96c:	52544350 	subspl	r4, r4, #80, 6	; 0x40000001
    b970:	20203431 	eorcs	r3, r0, r1, lsr r4
    b974:	20202020 	eorcs	r2, r0, r0, lsr #32
    b978:	00003d20 	andeq	r3, r0, r0, lsr #26
    b97c:	5f443356 	svcpl	0x00443356
    b980:	52544350 	subspl	r4, r4, #80, 6	; 0x40000001
    b984:	20343153 	eorscs	r3, r4, r3, asr r1
    b988:	20202020 	eorcs	r2, r0, r0, lsr #32
    b98c:	00003d20 	andeq	r3, r0, r0, lsr #26
    b990:	5f443356 	svcpl	0x00443356
    b994:	52544350 	subspl	r4, r4, #80, 6	; 0x40000001
    b998:	20203531 	eorcs	r3, r0, r1, lsr r5
    b99c:	20202020 	eorcs	r2, r0, r0, lsr #32
    b9a0:	00003d20 	andeq	r3, r0, r0, lsr #26
    b9a4:	5f443356 	svcpl	0x00443356
    b9a8:	52544350 	subspl	r4, r4, #80, 6	; 0x40000001
    b9ac:	20353153 	eorscs	r3, r5, r3, asr r1
    b9b0:	20202020 	eorcs	r2, r0, r0, lsr #32
    b9b4:	00003d20 	andeq	r3, r0, r0, lsr #26
    b9b8:	5f443356 	svcpl	0x00443356
    b9bc:	45474244 	strbmi	r4, [r7, #-580]	; 0xfffffdbc
    b9c0:	20202020 	eorcs	r2, r0, r0, lsr #32
    b9c4:	20202020 	eorcs	r2, r0, r0, lsr #32
    b9c8:	00003d20 	andeq	r3, r0, r0, lsr #26
    b9cc:	5f443356 	svcpl	0x00443356
    b9d0:	47424446 	strbmi	r4, [r2, -r6, asr #8]
    b9d4:	2020204f 	eorcs	r2, r0, pc, asr #32
    b9d8:	20202020 	eorcs	r2, r0, r0, lsr #32
    b9dc:	00003d20 	andeq	r3, r0, r0, lsr #26
    b9e0:	5f443356 	svcpl	0x00443356
    b9e4:	47424446 	strbmi	r4, [r2, -r6, asr #8]
    b9e8:	20202042 	eorcs	r2, r0, r2, asr #32
    b9ec:	20202020 	eorcs	r2, r0, r0, lsr #32
    b9f0:	00003d20 	andeq	r3, r0, r0, lsr #26
    b9f4:	5f443356 	svcpl	0x00443356
    b9f8:	47424446 	strbmi	r4, [r2, -r6, asr #8]
    b9fc:	20202052 	eorcs	r2, r0, r2, asr r0
    ba00:	20202020 	eorcs	r2, r0, r0, lsr #32
    ba04:	00003d20 	andeq	r3, r0, r0, lsr #26
    ba08:	5f443356 	svcpl	0x00443356
    ba0c:	47424446 	strbmi	r4, [r2, -r6, asr #8]
    ba10:	20202053 	eorcs	r2, r0, r3, asr r0
    ba14:	20202020 	eorcs	r2, r0, r0, lsr #32
    ba18:	00003d20 	andeq	r3, r0, r0, lsr #26
    ba1c:	5f443356 	svcpl	0x00443356
    ba20:	53525245 	cmppl	r2, #1342177284	; 0x50000004
    ba24:	20544154 	subscs	r4, r4, r4, asr r1
    ba28:	20202020 	eorcs	r2, r0, r0, lsr #32
    ba2c:	Address 0x000000000000ba2c is out of bounds.


Disassembly of section .rodata:

0000ba30 <_ZZ11calc_matrixP16vertex_format_nvimfE11cube_vertex-0x40>:
    ba30:	3f800000 	svccc	0x00800000
	...
    ba3c:	3f800000 	svccc	0x00800000
    ba40:	3f800000 	svccc	0x00800000
    ba44:	3f800000 	svccc	0x00800000
    ba48:	00000000 	andeq	r0, r0, r0
    ba4c:	3f800000 	svccc	0x00800000
    ba50:	3f800000 	svccc	0x00800000
    ba54:	00000000 	andeq	r0, r0, r0
    ba58:	3f800000 	svccc	0x00800000
    ba5c:	3f800000 	svccc	0x00800000
    ba60:	00000000 	andeq	r0, r0, r0
    ba64:	3f800000 	svccc	0x00800000
    ba68:	3f800000 	svccc	0x00800000
    ba6c:	3f800000 	svccc	0x00800000

0000ba70 <_ZZ11calc_matrixP16vertex_format_nvimfE11cube_vertex>:
    ba70:	bf800000 	svclt	0x00800000
    ba74:	bf800000 	svclt	0x00800000
    ba78:	3f800000 	svccc	0x00800000
    ba7c:	3f800000 	svccc	0x00800000
    ba80:	3f800000 	svccc	0x00800000
    ba84:	bf800000 	svclt	0x00800000
    ba88:	3f800000 	svccc	0x00800000
    ba8c:	3f800000 	svccc	0x00800000
    ba90:	3f800000 	svccc	0x00800000
    ba94:	3f800000 	svccc	0x00800000
    ba98:	3f800000 	svccc	0x00800000
    ba9c:	3f800000 	svccc	0x00800000
    baa0:	bf800000 	svclt	0x00800000
    baa4:	3f800000 	svccc	0x00800000
    baa8:	3f800000 	svccc	0x00800000
    baac:	3f800000 	svccc	0x00800000
    bab0:	bf800000 	svclt	0x00800000
    bab4:	bf800000 	svclt	0x00800000
    bab8:	bf800000 	svclt	0x00800000
    babc:	3f800000 	svccc	0x00800000
    bac0:	3f800000 	svccc	0x00800000
    bac4:	bf800000 	svclt	0x00800000
    bac8:	bf800000 	svclt	0x00800000
    bacc:	3f800000 	svccc	0x00800000
    bad0:	3f800000 	svccc	0x00800000
    bad4:	3f800000 	svccc	0x00800000
    bad8:	bf800000 	svclt	0x00800000
    badc:	3f800000 	svccc	0x00800000
    bae0:	bf800000 	svclt	0x00800000
    bae4:	3f800000 	svccc	0x00800000
    bae8:	bf800000 	svclt	0x00800000
    baec:	3f800000 	svccc	0x00800000

0000baf0 <_ZZ11calc_matrixP16vertex_format_nvimfE6indexs>:
    baf0:	00000000 	andeq	r0, r0, r0
    baf4:	00000001 	andeq	r0, r0, r1
    baf8:	00000002 	andeq	r0, r0, r2
    bafc:	00000002 	andeq	r0, r0, r2
    bb00:	00000003 	andeq	r0, r0, r3
    bb04:	00000000 	andeq	r0, r0, r0
    bb08:	00000003 	andeq	r0, r0, r3
    bb0c:	00000002 	andeq	r0, r0, r2
    bb10:	00000006 	andeq	r0, r0, r6
    bb14:	00000006 	andeq	r0, r0, r6
    bb18:	00000007 	andeq	r0, r0, r7
    bb1c:	00000003 	andeq	r0, r0, r3
    bb20:	00000007 	andeq	r0, r0, r7
    bb24:	00000006 	andeq	r0, r0, r6
    bb28:	00000005 	andeq	r0, r0, r5
    bb2c:	00000005 	andeq	r0, r0, r5
    bb30:	00000004 	andeq	r0, r0, r4
    bb34:	00000007 	andeq	r0, r0, r7
    bb38:	00000004 	andeq	r0, r0, r4
    bb3c:	00000005 	andeq	r0, r0, r5
    bb40:	00000001 	andeq	r0, r0, r1
    bb44:	00000001 	andeq	r0, r0, r1
    bb48:	00000000 	andeq	r0, r0, r0
    bb4c:	00000004 	andeq	r0, r0, r4
    bb50:	00000004 	andeq	r0, r0, r4
    bb54:	00000000 	andeq	r0, r0, r0
    bb58:	00000003 	andeq	r0, r0, r3
    bb5c:	00000003 	andeq	r0, r0, r3
    bb60:	00000007 	andeq	r0, r0, r7
    bb64:	00000004 	andeq	r0, r0, r4
    bb68:	00000001 	andeq	r0, r0, r1
    bb6c:	00000005 	andeq	r0, r0, r5
    bb70:	00000006 	andeq	r0, r0, r6
    bb74:	00000006 	andeq	r0, r0, r6
    bb78:	00000002 	andeq	r0, r0, r2
    bb7c:	00000001 	andeq	r0, r0, r1

0000bb80 <_ZL11fs_normal_z>:
    bb80:	009e7000 	addseq	r7, lr, r0
    bb84:	100009e7 	andne	r0, r0, r7, ror #19
    bb88:	009e7000 	addseq	r7, lr, r0
    bb8c:	100009e7 	andne	r0, r0, r7, ror #19
    bb90:	958e0dbf 	strls	r0, [lr, #3519]	; 0xdbf
    bb94:	d1f24823 	mvnsle	r4, r3, lsr #16
    bb98:	818e7176 	orrhi	r7, lr, r6, ror r1
    bb9c:	40024821 	andmi	r4, r2, r1, lsr #16
    bba0:	818e7376 	orrhi	r7, lr, r6, ror r3
    bba4:	10024862 	andne	r4, r2, r2, ror #16
    bba8:	819e7540 	orrshi	r7, lr, r0, asr #10
    bbac:	11c248a3 	bicne	r4, r2, r3, lsr #17
    bbb0:	809e7009 	addshi	r7, lr, r9
    bbb4:	11d049e3 	bicsne	r4, r0, r3, ror #19
    bbb8:	809e7012 	addshi	r7, lr, r2, lsl r0
    bbbc:	11e049e3 	mvnne	r4, r3, ror #19
    bbc0:	159cffc0 	ldrne	pc, [ip, #4032]	; 0xfc0
    bbc4:	10020b27 	andne	r0, r2, r7, lsr #22
    bbc8:	159e76c0 	ldrne	r7, [lr, #1728]	; 0x6c0
    bbcc:	30020ba7 	andcc	r0, r2, r7, lsr #23
    bbd0:	009e7000 	addseq	r7, lr, r0
    bbd4:	100009e7 	andne	r0, r0, r7, ror #19
    bbd8:	009e7000 	addseq	r7, lr, r0
    bbdc:	500009e7 	andpl	r0, r0, r7, ror #19

0000bbe0 <_ZL6fs_add>:
    bbe0:	009e7000 	addseq	r7, lr, r0
    bbe4:	100009e7 	andne	r0, r0, r7, ror #19
    bbe8:	009e7000 	addseq	r7, lr, r0
    bbec:	100009e7 	andne	r0, r0, r7, ror #19
    bbf0:	958e0dbf 	strls	r0, [lr, #3519]	; 0xdbf
    bbf4:	d1f24823 	mvnsle	r4, r3, lsr #16
    bbf8:	818e7176 	orrhi	r7, lr, r6, ror r1
    bbfc:	40024821 	andmi	r4, r2, r1, lsr #16
    bc00:	818e7376 	orrhi	r7, lr, r6, ror r3
    bc04:	10024862 	andne	r4, r2, r2, ror #16
    bc08:	819e7540 	orrshi	r7, lr, r0, asr #10
    bc0c:	11c248a3 	bicne	r4, r2, r3, lsr #17
    bc10:	809e7009 	addshi	r7, lr, r9
    bc14:	11d049e3 	bicsne	r4, r0, r3, ror #19
    bc18:	809e7012 	addshi	r7, lr, r2, lsl r0
    bc1c:	11e049e3 	mvnne	r4, r3, ror #19
    bc20:	809e7012 	addshi	r7, lr, r2, lsl r0
    bc24:	81e049e3 	mvnhi	r4, r3, ror #19
    bc28:	c09e701c 	addsgt	r7, lr, ip, lsl r0
    bc2c:	100049e3 	andne	r4, r0, r3, ror #19
    bc30:	159e76c0 	ldrne	r7, [lr, #1728]	; 0x6c0
    bc34:	30020ba7 	andcc	r0, r2, r7, lsr #23
    bc38:	009e7000 	addseq	r7, lr, r0
    bc3c:	100009e7 	andne	r0, r0, r7, ror #19
    bc40:	009e7000 	addseq	r7, lr, r0
    bc44:	500009e7 	andpl	r0, r0, r7, ror #19

0000bc48 <char_table>:
    bc48:	33323130 	teqcc	r2, #48, 2
    bc4c:	37363534 			; <UNDEFINED> instruction: 0x37363534
    bc50:	42413938 	submi	r3, r1, #56, 18	; 0xe0000
    bc54:	46454443 	strbmi	r4, [r5], -r3, asr #8

Disassembly of section .data:

00020000 <b.5485>:
   20000:	0012dad2 			; <UNDEFINED> instruction: 0x0012dad2

00020004 <a.5484>:
   20004:	00000001 	andeq	r0, r0, r1

00020008 <c.5486>:
   20008:	00955437 	addseq	r5, r5, r7, lsr r4

0002000c <vsintable>:
   2000c:	00000000 	andeq	r0, r0, r0
   20010:	3ac91080 	bcc	ff264218 <mailbox_data+0xff22bb18>
   20014:	3b491080 	blcc	126421c <mailbox_data+0x122bb1c>
   20018:	3b96cc60 	blcc	fe5d31a0 <mailbox_data+0xfe59aaa0>
   2001c:	3bc91080 	blcc	ff264224 <mailbox_data+0xff22bb24>
   20020:	3bfb54a0 	blcc	ffef52a8 <mailbox_data+0xffebcba8>
   20024:	3c16cc60 	ldccc	12, cr12, [r6], {96}	; 0x60
   20028:	3c2fee70 	stccc	14, cr14, [pc], #-448	; 1fe70 <char_table+0x14228>
   2002c:	3c491080 	mcrrcc	0, 8, r1, r9, cr0
   20030:	3c622e5e 	stclcc	14, cr2, [r2], #-376	; 0xfffffe88
   20034:	3c7b506e 	ldclcc	0, cr5, [fp], #-440	; 0xfffffe48
   20038:	3c8a393f 			; <UNDEFINED> instruction: 0x3c8a393f
   2003c:	3c96ca47 	vldmiacc	r6, {s24-s94}
   20040:	3ca35936 			; <UNDEFINED> instruction: 0x3ca35936
   20044:	3cafea3e 	vstmiacc	pc!, {s28-s89}
   20048:	3cbc7b46 	vldmiacc	ip!, {d7-<overflow reg d41>}
   2004c:	3cc90a35 	vstmiacc	r9, {s1-s53}
   20050:	3cd59b3d 	fldmiaxcc	r5, {d25-d54}	;@ Deprecated
   20054:	3ce22a2c 	vstmiacc	r2!, {s5-s48}
   20058:	3ceebb34 	vstmiacc	lr!, {d27-<overflow reg d52>}
   2005c:	3cfb4a23 	vldmiacc	fp!, {s9-s43}
   20060:	3d03ec89 	stccc	12, cr14, [r3, #-548]	; 0xfffffddc
   20064:	3d0a3401 	cfstrscc	mvf3, [sl, #-4]
   20068:	3d107b78 	vldrcc	d7, [r0, #-480]	; 0xfffffe20
   2006c:	3d16c2f0 	lfmcc	f4, 1, [r6, #-960]	; 0xfffffc40
   20070:	3d1d0a67 	vldrcc	s0, [sp, #-412]	; 0xfffffe64
   20074:	3d2351df 	stfccs	f5, [r3, #-892]!	; 0xfffffc84
   20078:	3d299956 			; <UNDEFINED> instruction: 0x3d299956
   2007c:	3d2fdfc2 	stccc	15, cr13, [pc, #-776]!	; 1fd7c <char_table+0x14134>
   20080:	3d362739 	ldccc	7, cr2, [r6, #-228]!	; 0xffffff1c
   20084:	3d3c6da4 	ldccc	13, cr6, [ip, #-656]!	; 0xfffffd70
   20088:	3d42b40f 	cfstrdcc	mvd11, [r2, #-60]	; 0xffffffc4
   2008c:	3d48fb87 	vstrcc	d31, [r8, #-540]	; 0xfffffde4
   20090:	3d4f41f2 	stfcce	f4, [pc, #-968]	; 1fcd0 <char_table+0x14088>
   20094:	3d55885d 	ldclcc	8, cr8, [r5, #-372]	; 0xfffffe8c
   20098:	3d5bcec8 	ldclcc	14, cr12, [fp, #-800]	; 0xfffffce0
   2009c:	3d621427 	cfstrdcc	mvd1, [r2, #-156]!	; 0xffffff64
   200a0:	3d685a92 	vstmdbcc	r8!, {s11-s156}
   200a4:	3d6e9ff1 	stclcc	15, cr9, [lr, #-964]!	; 0xfffffc3c
   200a8:	3d74e65c 	ldclcc	6, cr14, [r4, #-368]!	; 0xfffffe90
   200ac:	3d7b2bbb 	fldmdbxcc	fp!, {d18-d110}	;@ Deprecated
   200b0:	3d80b88d 	stccc	8, cr11, [r0, #564]	; 0x234
   200b4:	3d83db3c 	vstrcc	d13, [r3, #240]	; 0xf0
   200b8:	3d86fd65 	stccc	13, cr15, [r6, #404]	; 0x194
   200bc:	3d8a2014 	stccc	0, cr2, [sl, #80]	; 0x50
   200c0:	3d8d423e 	sfmcc	f4, 4, [sp, #248]	; 0xf8
   200c4:	3d9064ed 	cfldrscc	mvf6, [r0, #948]	; 0x3b4
   200c8:	3d938716 	ldccc	7, cr8, [r3, #88]	; 0x58
   200cc:	3d96a93f 	vldrcc.16	s20, [r6, #126]	; 0x7e	; <UNPREDICTABLE>
   200d0:	3d99cae2 	vldrcc	s24, [r9, #904]	; 0x388
   200d4:	3d9ced0b 	ldccc	13, cr14, [ip, #44]	; 0x2c
   200d8:	3da00eae 	stccc	14, cr0, [r0, #696]!	; 0x2b8
   200dc:	3da33051 	stccc	0, cr3, [r3, #324]!	; 0x144
   200e0:	3da651f4 	stfccs	f5, [r6, #976]!	; 0x3d0
   200e4:	3da97397 	stccc	3, cr7, [r9, #604]!	; 0x25c
   200e8:	3dac953a 	cfstr32cc	mvfx9, [ip, #232]!	; 0xe8
   200ec:	3dafb656 	stccc	6, cr11, [pc, #344]!	; 2024c <vsintable+0x240>
   200f0:	3db2d7f9 	ldccc	7, cr13, [r2, #996]!	; 0x3e4
   200f4:	3db5f916 			; <UNDEFINED> instruction: 0x3db5f916
   200f8:	3db919ac 			; <UNDEFINED> instruction: 0x3db919ac
   200fc:	3dbc3ac9 			; <UNDEFINED> instruction: 0x3dbc3ac9
   20100:	3dbf5b60 			; <UNDEFINED> instruction: 0x3dbf5b60
   20104:	3dc27bf6 	vstrcc	d23, [r2, #984]	; 0x3d8
   20108:	3dc59c8d 	stclcc	12, cr9, [r5, #564]	; 0x234
   2010c:	3dc8bd23 	stclcc	13, cr11, [r8, #140]	; 0x8c
   20110:	3dcbddba 	stclcc	13, cr13, [fp, #744]	; 0x2e8
   20114:	3dcefdca 	stclcc	13, cr15, [lr, #808]	; 0x328
   20118:	3dd21dda 	ldclcc	13, cr1, [r2, #872]	; 0x368
   2011c:	3dd53dea 	ldclcc	13, cr3, [r5, #936]	; 0x3a8
   20120:	3dd85d74 	ldclcc	13, cr5, [r8, #464]	; 0x1d0
   20124:	3ddb7cfe 	ldclcc	12, cr7, [fp, #1016]	; 0x3f8
   20128:	3dde9c88 	ldclcc	12, cr9, [lr, #544]	; 0x220
   2012c:	3de1bc12 	stclcc	12, cr11, [r1, #72]!	; 0x48
   20130:	3de4db9c 			; <UNDEFINED> instruction: 0x3de4db9c
   20134:	3de7faa0 			; <UNDEFINED> instruction: 0x3de7faa0
   20138:	3deb19a4 			; <UNDEFINED> instruction: 0x3deb19a4
   2013c:	3dee38a8 	stclcc	8, cr3, [lr, #672]!	; 0x2a0
   20140:	3df15726 	ldclcc	7, cr5, [r1, #152]!	; 0x98
   20144:	3df475a3 	cfldr64cc	mvdx7, [r4, #652]!	; 0x28c
   20148:	3df79421 	cfldrdcc	mvd9, [r7, #132]!	; 0x84
   2014c:	3dfab29e 	lfmcc	f3, 3, [sl, #632]!	; 0x278
   20150:	3dfdd096 	ldclcc	0, cr13, [sp, #600]!	; 0x258
   20154:	3e007747 	cdpcc	7, 0, cr7, cr0, cr7, {2}
   20158:	3e020642 	cfmadd32cc	mvax2, mvfx0, mvfx2, mvfx2
   2015c:	3e0394fb 	mcrcc	4, 0, r9, cr3, cr11, {7}
   20160:	3e0523b3 	mcrcc	3, 0, r2, cr5, cr3, {5}
   20164:	3e06b26c 	cdpcc	2, 0, cr11, cr6, cr12, {3}
   20168:	3e084125 	adfccep	f4, f0, f5
   2016c:	3e09cf9a 	mcrcc	15, 0, ip, cr9, cr10, {4}
   20170:	3e0b5e0f 	cdpcc	14, 0, cr5, cr11, cr15, {0}
   20174:	3e0cec42 	cdpcc	12, 0, cr14, cr12, cr2, {2}
   20178:	3e0e7a74 			; <UNDEFINED> instruction: 0x3e0e7a74
   2017c:	3e1008a7 	cdpcc	8, 1, cr0, cr0, cr7, {5}
   20180:	3e1196d9 	mrccc	6, 0, r9, cr1, cr9, {6}
   20184:	3e1324c8 	cdpcc	4, 1, cr2, cr3, cr8, {6}
   20188:	3e14b2b7 	mrccc	2, 0, fp, cr4, cr7, {5}
   2018c:	3e164064 	cdpcc	0, 1, cr4, cr6, cr4, {3}
   20190:	3e17ce53 	mrccc	14, 0, ip, cr7, cr3, {2}
   20194:	3e195bff 	vmovcc.s16	r5, d25[1]
   20198:	3e1ae968 	vnmlacc.f16	s28, s20, s17	; <UNPREDICTABLE>
   2019c:	3e1c76d1 	mrccc	6, 0, r7, cr12, cr1, {6}
   201a0:	3e1e043a 	mrccc	4, 0, r0, cr14, cr10, {1}
   201a4:	3e1f9160 	mnfccez	f1, f0
   201a8:	3e211e86 	cdpcc	14, 2, cr1, cr1, cr6, {4}
   201ac:	3e22abac 	vmulcc.f64	d10, d18, d28
   201b0:	3e24388f 	cdpcc	8, 2, cr3, cr4, cr15, {4}
   201b4:	3e25c572 	mcrcc	5, 1, ip, cr5, cr2, {3}
   201b8:	3e275254 	mcrcc	2, 1, r5, cr7, cr4, {2}
   201bc:	3e28def4 	mcrcc	14, 1, sp, cr8, cr4, {7}
   201c0:	3e2a6b94 	vmovcc.32	d26[1], r6
   201c4:	3e2bf7f0 	mcrcc	7, 1, pc, cr11, cr0, {7}	; <UNPREDICTABLE>
   201c8:	3e2d844d 	cdpcc	4, 2, cr8, cr13, cr13, {2}
   201cc:	3e2f10aa 	cdpcc	0, 2, cr1, cr15, cr10, {5}
   201d0:	3e309cc3 	cdpcc	12, 3, cr9, cr0, cr3, {6}
   201d4:	3e3228dd 	mrccc	8, 1, r2, cr2, cr13, {6}
   201d8:	3e33b4b3 	mrccc	4, 1, fp, cr3, cr3, {5}
   201dc:	3e354089 	cdpcc	0, 3, cr4, cr5, cr9, {4}
   201e0:	3e36cc60 	cdpcc	12, 3, cr12, cr6, cr0, {3}
   201e4:	3e3857f3 	mrccc	7, 1, r5, cr8, cr3, {7}
   201e8:	3e39e386 	cdpcc	3, 3, cr14, cr9, cr6, {4}
   201ec:	3e3b6ed6 	mrccc	14, 1, r6, cr11, cr6, {6}
   201f0:	3e3cfa27 	vaddcc.f32	s30, s24, s15
   201f4:	3e3e8534 	mrccc	5, 1, r8, cr14, cr4, {1}
   201f8:	3e401041 	cdpcc	0, 4, cr1, cr0, cr1, {2}
   201fc:	3e419b4e 	vmlscc.f64	d25, d1, d14
   20200:	3e432618 	mcrcc	6, 2, r2, cr3, cr8, {0}
   20204:	3e44b09f 	mcrcc	0, 2, fp, cr4, cr15, {4}
   20208:	3e463b69 	vmlscc.f64	d19, d6, d25
   2020c:	3e47c5ac 	cdpcc	5, 4, cr12, cr7, cr12, {5}
   20210:	3e495033 	mcrcc	0, 2, r5, cr9, cr3, {1}
   20214:	3e4ada34 			; <UNDEFINED> instruction: 0x3e4ada34
   20218:	3e4c6477 	mcrcc	4, 2, r6, cr12, cr7, {3}
   2021c:	3e4dee78 	mcrcc	14, 2, lr, cr13, cr8, {3}
   20220:	3e4f7836 	mcrcc	8, 2, r7, cr15, cr6, {1}
   20224:	3e5101f3 	mrccc	1, 2, r0, cr1, cr3, {7}
   20228:	3e528b6e 	vnmlacc.f64	d24, d2, d30
   2022c:	3e5414e8 	cdpcc	4, 5, cr1, cr4, cr8, {7}
   20230:	3e559e62 	cdpcc	14, 5, cr9, cr5, cr2, {3}
   20234:	3e57279a 	mrccc	7, 2, r2, cr7, cr10, {4}
   20238:	3e58b08e 	cdpcc	0, 5, cr11, cr8, cr14, {4}
   2023c:	3e5a3982 	vnmlscc.f16	s7, s21, s4	; <UNPREDICTABLE>
   20240:	3e5bc276 	mrccc	2, 2, ip, cr11, cr6, {3}
   20244:	3e5d4b27 	vnmlscc.f64	d20, d13, d23
   20248:	3e5ed395 	mrccc	3, 2, sp, cr14, cr5, {4}
   2024c:	3e605c03 	cdpcc	12, 6, cr5, cr0, cr3, {0}
   20250:	3e61e471 	mcrcc	4, 3, lr, cr1, cr1, {3}
   20254:	3e636c9c 	mcrcc	12, 3, r6, cr3, cr12, {4}
   20258:	3e64f484 	cdpcc	4, 6, cr15, cr4, cr4, {4}
   2025c:	3e667c6c 	cdpcc	12, 6, cr7, cr6, cr12, {3}
   20260:	3e680410 	mcrcc	4, 3, r0, cr8, cr0, {0}
   20264:	3e698bb5 	vmovcc.8	d25[5], r8
   20268:	3e6b1316 	mcrcc	3, 3, r1, cr11, cr6, {0}
   2026c:	3e6c9a78 			; <UNDEFINED> instruction: 0x3e6c9a78
   20270:	3e6e2196 	mcrcc	1, 3, r2, cr14, cr6, {4}
   20274:	3e6fa8b5 	mcrcc	8, 3, sl, cr15, cr5, {5}
   20278:	3e712f90 	mrccc	15, 3, r2, cr1, cr0, {4}
   2027c:	3e72b66b 	cdpcc	6, 7, cr11, cr2, cr11, {3}
   20280:	3e743d04 	cdpcc	13, 7, cr3, cr4, cr4, {0}
   20284:	3e75c359 	mrccc	3, 3, ip, cr5, cr9, {2}
   20288:	3e7749ae 	vaddcc.f16	s9, s15, s29	; <UNPREDICTABLE>
   2028c:	3e78cfc0 	cdpcc	15, 7, cr12, cr8, cr0, {6}
   20290:	3e7a55d2 	mrccc	5, 3, r5, cr10, cr2, {6}
   20294:	3e7bdba1 	vaddcc.f64	d29, d27, d17
   20298:	3e7d6170 	mrccc	1, 3, r6, cr13, cr0, {3}
   2029c:	3e7ee6fb 	mrccc	6, 3, lr, cr14, cr11, {7}
   202a0:	3e803622 	cdpcc	6, 8, cr3, cr0, cr2, {1}
   202a4:	3e80f8c6 	cdpcc	8, 8, cr15, cr0, cr6, {6}
   202a8:	3e81bb49 			; <UNDEFINED> instruction: 0x3e81bb49
   202ac:	3e827dcc 	cdpcc	13, 8, cr7, cr2, cr12, {6}
   202b0:	3e83402d 	cdpcc	0, 8, cr4, cr3, cr13, {1}
   202b4:	3e84026d 	cdpcc	2, 8, cr0, cr4, cr13, {3}
   202b8:	3e84c4ac 	cdpcc	4, 8, cr12, cr4, cr12, {5}
   202bc:	3e8586cb 	cdpcc	6, 8, cr8, cr5, cr11, {6}
   202c0:	3e8648e9 	cdpcc	8, 8, cr4, cr6, cr9, {7}
   202c4:	3e870ae5 			; <UNDEFINED> instruction: 0x3e870ae5
   202c8:	3e87ccc0 	cdpcc	12, 8, cr12, cr7, cr0, {6}
   202cc:	3e888e9b 	mcrcc	14, 4, r8, cr8, cr11, {4}
   202d0:	3e895055 	mcrcc	0, 4, r5, cr9, cr5, {2}
   202d4:	3e8a11ed 	rmfcc<illegal precision>z	f1, f2, #5.0
   202d8:	3e8ad384 	cdpcc	3, 8, cr13, cr10, cr4, {4}
   202dc:	3e8b94fb 	mcrcc	4, 4, r9, cr11, cr11, {7}
   202e0:	3e8c5671 	mcrcc	6, 4, r5, cr12, cr1, {3}
   202e4:	3e8d17c6 	cdpcc	7, 8, cr1, cr13, cr6, {6}
   202e8:	3e8dd8f9 	mcrcc	8, 4, sp, cr13, cr9, {7}
   202ec:	3e8e9a2c 	vdivcc.f32	s18, s28, s25
   202f0:	3e8f5b3e 			; <UNDEFINED> instruction: 0x3e8f5b3e
   202f4:	3e901c2e 	cdpcc	12, 9, cr1, cr0, cr14, {1}
   202f8:	3e90dd1e 	mrccc	13, 4, sp, cr0, cr14, {0}
   202fc:	3e919ded 	cdpcc	13, 9, cr9, cr1, cr13, {7}
   20300:	3e925e9a 	mrccc	14, 4, r5, cr2, cr10, {4}
   20304:	3e931f25 	cdpcc	15, 9, cr1, cr3, cr5, {1}
   20308:	3e93dfb1 	mrccc	15, 4, sp, cr3, cr1, {5}
   2030c:	3e94a03c 	mrccc	0, 4, sl, cr4, cr12, {1}
   20310:	3e956085 	cdpcc	0, 9, cr6, cr5, cr5, {4}
   20314:	3e9620cd 	cdpcc	0, 9, cr2, cr6, cr13, {6}
   20318:	3e96e0f4 	mrccc	0, 4, lr, cr6, cr4, {7}
   2031c:	3e97a11b 	mrccc	1, 4, sl, cr7, cr11, {0}
   20320:	3e986120 	fmlccep	f6, f0, f0
   20324:	3e992104 	fmlcce	f2, f1, f4
   20328:	3e99e0c6 	cdpcc	0, 9, cr14, cr9, cr6, {6}
   2032c:	3e9aa088 	cdpcc	0, 9, cr10, cr10, cr8, {4}
   20330:	3e9b6028 	cdpcc	0, 9, cr6, cr11, cr8, {1}
   20334:	3e9c1fa7 	cdpcc	15, 9, cr1, cr12, cr7, {5}
   20338:	3e9cdf26 	cdpcc	15, 9, cr13, cr12, cr6, {1}
   2033c:	3e9d9e84 	cdpcc	14, 9, cr9, cr13, cr4, {4}
   20340:	3e9e5dc0 	cdpcc	13, 9, cr5, cr14, cr0, {6}
   20344:	3e9f1cda 	mrccc	12, 4, r1, cr15, cr10, {6}
   20348:	3e9fdbf5 	vmovcc.u16	sp, d31[1]
   2034c:	3ea09aed 	vfmscc.f32	s18, s1, s27
   20350:	3ea159c5 	vfmscc.f16	s10, s3, s10	; <UNPREDICTABLE>
   20354:	3ea2187a 	mcrcc	8, 5, r1, cr2, cr10, {3}
   20358:	3ea2d730 	mcrcc	7, 5, sp, cr2, cr0, {1}
   2035c:	3ea395c4 	cdpcc	5, 10, cr9, cr3, cr4, {6}
   20360:	3ea45437 	mcrcc	4, 5, r5, cr4, cr7, {1}
   20364:	3ea512a9 	cdpcc	2, 10, cr1, cr5, cr9, {5}
   20368:	3ea5d0d9 	mcrcc	0, 5, sp, cr5, cr9, {6}
   2036c:	3ea68f08 	cdpcc	15, 10, cr8, cr6, cr8, {0}
   20370:	3ea74d16 	mcrcc	13, 5, r4, cr7, cr6, {0}
   20374:	3ea80b24 	vfmacc.f64	d0, d8, d20
   20378:	3ea8c8ef 	cdpcc	8, 10, cr12, cr8, cr15, {7}
   2037c:	3ea986ba 	mcrcc	6, 5, r8, cr9, cr10, {5}
   20380:	3eaa4463 	cdpcc	4, 10, cr4, cr10, cr3, {3}
   20384:	3eab020c 	cdpcc	2, 10, cr0, cr11, cr12, {0}
   20388:	3eabbf72 	mcrcc	15, 5, fp, cr11, cr2, {3}
   2038c:	3eac7cd9 	mcrcc	12, 5, r7, cr12, cr9, {6}
   20390:	3ead3a1d 			; <UNDEFINED> instruction: 0x3ead3a1d
   20394:	3eadf740 	cdpcc	7, 10, cr15, cr13, cr0, {2}
   20398:	3eaeb442 	cdpcc	4, 10, cr11, cr14, cr2, {2}
   2039c:	3eaf7143 	fdvccem	f7, f7, f3
   203a0:	3eb02e02 	cdpcc	14, 11, cr2, cr0, cr2, {0}
   203a4:	3eb0eac0 	vabscc.f32	s28, s0
   203a8:	3eb1a75d 	mrccc	7, 5, sl, cr1, cr13, {2}
   203ac:	3eb263fa 	mrccc	3, 5, r6, cr2, cr10, {7}
   203b0:	3eb32053 	mrccc	0, 5, r2, cr3, cr3, {2}
   203b4:	3eb3dcad 	cdpcc	12, 11, cr13, cr3, cr13, {5}
   203b8:	3eb498e5 	cdpcc	8, 11, cr9, cr4, cr5, {7}
   203bc:	3eb554fc 	mrccc	4, 5, r5, cr5, cr12, {7}
   203c0:	3eb610f1 	mrccc	0, 5, r1, cr6, cr1, {7}
   203c4:	3eb6ccc4 	cdpcc	12, 11, cr12, cr6, cr4, {6}
   203c8:	3eb78876 	mrccc	8, 5, r8, cr7, cr6, {3}
   203cc:	3eb84428 	cdpcc	4, 11, cr4, cr8, cr8, {1}
   203d0:	3eb8ffb9 	mrccc	15, 5, APSR_nzcv, cr8, cr9, {5}
   203d4:	3eb9bb28 			; <UNDEFINED> instruction: 0x3eb9bb28
   203d8:	3eba7675 	mrccc	6, 5, r7, cr10, cr5, {3}
   203dc:	3ebb31a1 	frdcc<illegal precision>p	f3, f3, f1
   203e0:	3ebbecab 	cdpcc	12, 11, cr14, cr11, cr11, {5}
   203e4:	3ebca7b5 	mrccc	7, 5, sl, cr12, cr5, {5}
   203e8:	3ebd627c 	mrccc	2, 5, r6, cr13, cr12, {3}
   203ec:	3ebe1d43 	cdpcc	13, 11, cr1, cr14, cr3, {2}
   203f0:	3ebed7e9 	cdpcc	7, 11, cr13, cr14, cr9, {7}
   203f4:	3ebf926c 	cdpcc	2, 11, cr9, cr15, cr12, {3}
   203f8:	3ec04ccf 	cdpcc	12, 12, cr4, cr0, cr15, {6}
   203fc:	3ec10710 	mcrcc	7, 6, r0, cr1, cr0, {0}
   20400:	3ec1c151 	mcrcc	1, 6, ip, cr1, cr1, {2}
   20404:	3ec27b4e 			; <UNDEFINED> instruction: 0x3ec27b4e
   20408:	3ec3354c 	cdpcc	5, 12, cr3, cr3, cr12, {2}
   2040c:	3ec3ef07 	cdpcc	15, 12, cr14, cr3, cr7, {0}
   20410:	3ec4a8c1 	cdpcc	8, 12, cr10, cr4, cr1, {6}
   20414:	3ec5625a 	mcrcc	2, 6, r6, cr5, cr10, {2}
   20418:	3ec61bd2 			; <UNDEFINED> instruction: 0x3ec61bd2
   2041c:	3ec6d528 	cdpcc	5, 12, cr13, cr6, cr8, {1}
   20420:	3ec78e5c 	mcrcc	14, 6, r8, cr7, cr12, {2}
   20424:	3ec8476f 	cdpcc	7, 12, cr4, cr8, cr15, {3}
   20428:	3ec90082 	cdpcc	0, 12, cr0, cr9, cr2, {4}
   2042c:	3ec9b952 			; <UNDEFINED> instruction: 0x3ec9b952
   20430:	3eca7200 	cdpcc	2, 12, cr7, cr10, cr0, {0}
   20434:	3ecb2aae 	vdivcc.f32	s5, s23, s29
   20438:	3ecbe33b 	mcrcc	3, 6, lr, cr11, cr11, {1}
   2043c:	3ecc9b84 	vdivcc.f64	d25, d28, d4
   20440:	3ecd53ce 	cdpcc	3, 12, cr5, cr13, cr14, {6}
   20444:	3ece0bf6 			; <UNDEFINED> instruction: 0x3ece0bf6
   20448:	3ecec3db 	mcrcc	3, 6, ip, cr14, cr11, {6}
   2044c:	3ecf7bc0 			; <UNDEFINED> instruction: 0x3ecf7bc0
   20450:	3ed03383 	cdpcc	3, 13, cr3, cr0, cr3, {4}
   20454:	3ed0eb25 	vfnmscc.f64	d30, d0, d21
   20458:	3ed1a2a5 	cdpcc	2, 13, cr10, cr1, cr5, {5}
   2045c:	3ed25a04 	vfnmscc.f32	s11, s4, s8
   20460:	3ed31141 	cdpcc	1, 13, cr1, cr3, cr1, {2}
   20464:	3ed3c85c 	mrccc	8, 6, ip, cr3, cr12, {2}
   20468:	3ed47f56 	mrccc	15, 6, r7, cr4, cr6, {2}
   2046c:	3ed53650 	mrccc	6, 6, r3, cr5, cr0, {2}
   20470:	3ed5ed07 	cdpcc	13, 13, cr14, cr5, cr7, {0}
   20474:	3ed6a39c 	mrccc	3, 6, sl, cr6, cr12, {4}
   20478:	3ed75a10 			; <UNDEFINED> instruction: 0x3ed75a10
   2047c:	3ed81062 	cdpcc	0, 13, cr1, cr8, cr2, {3}
   20480:	3ed8c693 	mrccc	6, 6, ip, cr8, cr3, {4}
   20484:	3ed97cc4 	cdpcc	12, 13, cr7, cr9, cr4, {6}
   20488:	3eda32b1 	mrccc	2, 6, r3, cr10, cr1, {5}
   2048c:	3edae87d 	mrccc	8, 6, lr, cr10, cr13, {3}
   20490:	3edb9e28 	cdpcc	14, 13, cr9, cr11, cr8, {1}
   20494:	3edc53b1 	mrccc	3, 6, r5, cr12, cr1, {5}
   20498:	3edd0939 			; <UNDEFINED> instruction: 0x3edd0939
   2049c:	3eddbe7f 	mrccc	14, 6, fp, cr13, cr15, {3}
   204a0:	3ede73a3 	cdpcc	3, 13, cr7, cr14, cr3, {5}
   204a4:	3edf28a6 	cdpcc	8, 13, cr2, cr15, cr6, {5}
   204a8:	3edfdd87 	cdpcc	13, 13, cr13, cr15, cr7, {4}
   204ac:	3ee09247 	cdpcc	2, 14, cr9, cr0, cr7, {2}
   204b0:	3ee146e5 	cdpcc	6, 14, cr4, cr1, cr5, {7}
   204b4:	3ee1fb61 	vfmscc.f64	d31, d1, d17
   204b8:	3ee2afbc 	mcrcc	15, 7, sl, cr2, cr12, {5}
   204bc:	3ee363f5 	mcrcc	3, 7, r6, cr3, cr5, {7}
   204c0:	3ee4180d 	cdpcc	8, 14, cr1, cr4, cr13, {0}
   204c4:	3ee4cc03 	cdpcc	12, 14, cr12, cr4, cr3, {0}
   204c8:	3ee57fd8 	mcrcc	15, 7, r7, cr5, cr8, {6}
   204cc:	3ee6336a 	cdpcc	3, 14, cr3, cr6, cr10, {3}
   204d0:	3ee6e6fb 	mcrcc	6, 7, lr, cr6, cr11, {7}
   204d4:	3ee79a6b 	vfmscc.f32	s19, s14, s23
   204d8:	3ee84d98 	mcrcc	13, 7, r4, cr8, cr8, {4}
   204dc:	3ee900c5 	cdpcc	0, 14, cr0, cr9, cr5, {6}
   204e0:	3ee9b3af 	cdpcc	3, 14, cr11, cr9, cr15, {5}
   204e4:	3eea6677 	mcrcc	6, 7, r6, cr10, cr7, {3}
   204e8:	3eeb193f 			; <UNDEFINED> instruction: 0x3eeb193f
   204ec:	3eebcbc5 	vfmscc.f64	d28, d27, d5
   204f0:	3eec7e28 	cdpcc	14, 14, cr7, cr12, cr8, {1}
   204f4:	3eed306a 	cdpcc	0, 14, cr3, cr13, cr10, {3}
   204f8:	3eede28b 	cdpcc	2, 14, cr14, cr13, cr11, {4}
   204fc:	3eee948a 	cdpcc	4, 14, cr9, cr14, cr10, {4}
   20500:	3eef4645 	cdpcc	6, 14, cr4, cr15, cr5, {2}
   20504:	3eeff801 	cdpcc	8, 14, cr15, cr15, cr1, {0}
   20508:	3ef0a97a 			; <UNDEFINED> instruction: 0x3ef0a97a
   2050c:	3ef15af3 			; <UNDEFINED> instruction: 0x3ef15af3
   20510:	3ef20c28 	cdpcc	12, 15, cr0, cr2, cr8, {1}
   20514:	3ef2bd3c 	mrccc	13, 7, fp, cr2, cr12, {1}
   20518:	3ef36e2f 	cdpcc	14, 15, cr6, cr3, cr15, {1}
   2051c:	3ef41f00 	cdpcc	15, 15, cr1, cr4, cr0, {0}
   20520:	3ef4cfaf 	cdpcc	15, 15, cr12, cr4, cr15, {5}
   20524:	3ef5803d 	mrccc	0, 7, r8, cr5, cr13, {1}
   20528:	3ef63088 	cdpcc	0, 15, cr3, cr6, cr8, {4}
   2052c:	3ef6e0d2 	mrccc	0, 7, lr, cr6, cr2, {6}
   20530:	3ef790da 	mrccc	0, 7, r9, cr7, cr10, {6}
   20534:	3ef840c0 	cdpcc	0, 15, cr4, cr8, cr0, {6}
   20538:	3ef8f084 	cdpcc	0, 15, cr15, cr8, cr4, {4}
   2053c:	3ef9a027 	cdpcc	0, 15, cr10, cr9, cr7, {1}
   20540:	3efa4fa9 	cdpcc	15, 15, cr4, cr10, cr9, {5}
   20544:	3efafee7 	cdpcc	14, 15, cr15, cr10, cr7, {7}
   20548:	3efbae25 	cdpcc	14, 15, cr10, cr11, cr5, {1}
   2054c:	3efc5d20 	cdpcc	13, 15, cr5, cr12, cr0, {1}
   20550:	3efd0bfa 	vmovcc.u8	r0, d29[7]
   20554:	3efdbab2 			; <UNDEFINED> instruction: 0x3efdbab2
   20558:	3efe6949 			; <UNDEFINED> instruction: 0x3efe6949
   2055c:	3eff17be 	mrccc	7, 7, r1, cr15, cr14, {5}
   20560:	3effc5ef 	cdpcc	5, 15, cr12, cr15, cr15, {7}
   20564:	3f003a00 	svccc	0x00003a00
   20568:	3f0090f7 	svccc	0x000090f7
   2056c:	3f00e7de 	svccc	0x0000e7de
   20570:	3f013eb4 	svccc	0x00013eb4
   20574:	3f019579 	svccc	0x00019579
   20578:	3f01ec1c 	svccc	0x0001ec1c
   2057c:	3f0242af 	svccc	0x000242af
   20580:	3f029931 	svccc	0x00029931
   20584:	3f02efa2 	svccc	0x0002efa2
   20588:	3f0345f1 	svccc	0x000345f1
   2058c:	3f039c41 	svccc	0x00039c41
   20590:	3f03f26f 	svccc	0x0003f26f
   20594:	3f04488c 	svccc	0x0004488c
   20598:	3f049e99 	svccc	0x00049e99
   2059c:	3f04f484 	svccc	0x0004f484
   205a0:	3f054a5e 	svccc	0x00054a5e
   205a4:	3f05a027 	svccc	0x0005a027
   205a8:	3f05f5e0 	svccc	0x0005f5e0
   205ac:	3f064b88 	svccc	0x00064b88
   205b0:	3f06a10e 	svccc	0x0006a10e
   205b4:	3f06f683 	svccc	0x0006f683
   205b8:	3f074be8 	svccc	0x00074be8
   205bc:	3f07a13c 	svccc	0x0007a13c
   205c0:	3f07f66f 	svccc	0x0007f66f
   205c4:	3f084b90 	svccc	0x00084b90
   205c8:	3f08a0a1 	svccc	0x0008a0a1
   205cc:	3f08f5a1 	svccc	0x0008f5a1
   205d0:	3f094a80 	svccc	0x00094a80
   205d4:	3f099f4d 	svccc	0x00099f4d
   205d8:	3f09f40a 	svccc	0x0009f40a
   205dc:	3f0a48a6 	svccc	0x000a48a6
   205e0:	3f0a9d41 	svccc	0x000a9d41
   205e4:	3f0af1bb 	svccc	0x000af1bb
   205e8:	3f0b4624 	svccc	0x000b4624
   205ec:	3f0b9a6b 	svccc	0x000b9a6b
   205f0:	3f0beea2 	svccc	0x000beea2
   205f4:	3f0c42c8 	svccc	0x000c42c8
   205f8:	3f0c96dd 	svccc	0x000c96dd
   205fc:	3f0cead1 	svccc	0x000cead1
   20600:	3f0d3eb4 	svccc	0x000d3eb4
   20604:	3f0d9286 	svccc	0x000d9286
   20608:	3f0de636 	svccc	0x000de636
   2060c:	3f0e39d6 	svccc	0x000e39d6
   20610:	3f0e8d65 	svccc	0x000e8d65
   20614:	3f0ee0e3 	svccc	0x000ee0e3
   20618:	3f0f3440 	svccc	0x000f3440
   2061c:	3f0f878b 	svccc	0x000f878b
   20620:	3f0fdab6 	svccc	0x000fdab6
   20624:	3f102dcf 	svccc	0x00102dcf
   20628:	3f1080d8 	svccc	0x001080d8
   2062c:	3f10d3d0 	svccc	0x0010d3d0
   20630:	3f1126a6 	svccc	0x001126a6
   20634:	3f11796c 	svccc	0x0011796c
   20638:	3f11cc21 	svccc	0x0011cc21
   2063c:	3f121eb4 	svccc	0x00121eb4
   20640:	3f127137 	svccc	0x00127137
   20644:	3f12c398 	svccc	0x0012c398
   20648:	3f1315e8 	svccc	0x001315e8
   2064c:	3f136827 	svccc	0x00136827
   20650:	3f13ba56 	svccc	0x0013ba56
   20654:	3f140c63 	svccc	0x00140c63
   20658:	3f145e5f 	svccc	0x00145e5f
   2065c:	3f14b03a 	svccc	0x0014b03a
   20660:	3f150204 	svccc	0x00150204
   20664:	3f1553bd 	svccc	0x001553bd
   20668:	3f15a555 	svccc	0x0015a555
   2066c:	3f15f6dc 	svccc	0x0015f6dc
   20670:	3f164841 	svccc	0x00164841
   20674:	3f1699a6 	svccc	0x001699a6
   20678:	3f16ead9 	svccc	0x0016ead9
   2067c:	3f173c0c 	svccc	0x00173c0c
   20680:	3f178d1e 	svccc	0x00178d1e
   20684:	3f17de0d 	svccc	0x0017de0d
   20688:	3f182efd 	svccc	0x00182efd
   2068c:	3f187fbb 	svccc	0x00187fbb
   20690:	3f18d078 	svccc	0x0018d078
   20694:	3f192114 	svccc	0x00192114
   20698:	3f19718f 	svccc	0x0019718f
   2069c:	3f19c1f8 	svccc	0x0019c1f8
   206a0:	3f1a1251 	svccc	0x001a1251
   206a4:	3f1a6299 	svccc	0x001a6299
   206a8:	3f1ab2c0 	svccc	0x001ab2c0
   206ac:	3f1b02c5 	svccc	0x001b02c5
   206b0:	3f1b52b9 	svccc	0x001b52b9
   206b4:	3f1ba29c 	svccc	0x001ba29c
   206b8:	3f1bf25e 	svccc	0x001bf25e
   206bc:	3f1c420f 	svccc	0x001c420f
   206c0:	3f1c919f 	svccc	0x001c919f
   206c4:	3f1ce11e 	svccc	0x001ce11e
   206c8:	3f1d308c 	svccc	0x001d308c
   206cc:	3f1d7fd8 	svccc	0x001d7fd8
   206d0:	3f1dcf03 	svccc	0x001dcf03
   206d4:	3f1e1e1d 	svccc	0x001e1e1d
   206d8:	3f1e6d26 	svccc	0x001e6d26
   206dc:	3f1ebc0e 	svccc	0x001ebc0e
   206e0:	3f1f0ae5 	svccc	0x001f0ae5
   206e4:	3f1f599b 	svccc	0x001f599b
   206e8:	3f1fa83f 	svccc	0x001fa83f
   206ec:	3f1ff6d3 	svccc	0x001ff6d3
   206f0:	3f204535 	svccc	0x00204535
   206f4:	3f209396 	svccc	0x00209396
   206f8:	3f20e1d6 	svccc	0x0020e1d6
   206fc:	3f212ff5 	svccc	0x00212ff5
   20700:	3f217e02 	svccc	0x00217e02
   20704:	3f21cbff 	svccc	0x0021cbff
   20708:	3f2219db 	svccc	0x002219db
   2070c:	3f226794 	svccc	0x00226794
   20710:	3f22b53d 	svccc	0x0022b53d
   20714:	3f2302d6 	svccc	0x002302d6
   20718:	3f23504c 	svccc	0x0023504c
   2071c:	3f239da1 	svccc	0x00239da1
   20720:	3f23eae6 	svccc	0x0023eae6
   20724:	3f243819 	svccc	0x00243819
   20728:	3f24852b 	svccc	0x0024852b
   2072c:	3f24d22d 	svccc	0x0024d22d
   20730:	3f251f0c 	svccc	0x00251f0c
   20734:	3f256bca 	svccc	0x00256bca
   20738:	3f25b878 	svccc	0x0025b878
   2073c:	3f260503 	svccc	0x00260503
   20740:	3f26517e 	svccc	0x0026517e
   20744:	3f269de9 	svccc	0x00269de9
   20748:	3f26ea31 	svccc	0x0026ea31
   2074c:	3f273659 	svccc	0x00273659
   20750:	3f27826f 	svccc	0x0027826f
   20754:	3f27ce64 	svccc	0x0027ce64
   20758:	3f281a48 	svccc	0x00281a48
   2075c:	3f28660a 	svccc	0x0028660a
   20760:	3f28b1ab 	svccc	0x0028b1ab
   20764:	3f28fd3b 	svccc	0x0028fd3b
   20768:	3f2948bb 	svccc	0x002948bb
   2076c:	3f299418 	svccc	0x00299418
   20770:	3f29df55 	svccc	0x0029df55
   20774:	3f2a2a80 	svccc	0x002a2a80
   20778:	3f2a758a 	svccc	0x002a758a
   2077c:	3f2ac083 	svccc	0x002ac083
   20780:	3f2b0b5b 	svccc	0x002b0b5b
   20784:	3f2b5621 	svccc	0x002b5621
   20788:	3f2ba0c7 	svccc	0x002ba0c7
   2078c:	3f2beb4a 	svccc	0x002beb4a
   20790:	3f2c35bd 	svccc	0x002c35bd
   20794:	3f2c800f 	svccc	0x002c800f
   20798:	3f2cca4f 	svccc	0x002cca4f
   2079c:	3f2d146e 	svccc	0x002d146e
   207a0:	3f2d5e6c 	svccc	0x002d5e6c
   207a4:	3f2da858 	svccc	0x002da858
   207a8:	3f2df224 	svccc	0x002df224
   207ac:	3f2e3bde 	svccc	0x002e3bde
   207b0:	3f2e8577 	svccc	0x002e8577
   207b4:	3f2eceff 	svccc	0x002eceff
   207b8:	3f2f1855 	svccc	0x002f1855
   207bc:	3f2f61aa 	svccc	0x002f61aa
   207c0:	3f2faace 	svccc	0x002faace
   207c4:	3f2ff3e0 	svccc	0x002ff3e0
   207c8:	3f303ce2 	svccc	0x00303ce2
   207cc:	3f3085c2 	svccc	0x003085c2
   207d0:	3f30ce81 	svccc	0x0030ce81
   207d4:	3f31171e 	svccc	0x0031171e
   207d8:	3f315fab 	svccc	0x00315fab
   207dc:	3f31a815 	svccc	0x0031a815
   207e0:	3f31f06f 	svccc	0x0031f06f
   207e4:	3f3238a8 	svccc	0x003238a8
   207e8:	3f3280bf 	svccc	0x003280bf
   207ec:	3f32c8c5 	svccc	0x0032c8c5
   207f0:	3f3310aa 	svccc	0x003310aa
   207f4:	3f33587d 	svccc	0x0033587d
   207f8:	3f33a030 	svccc	0x0033a030
   207fc:	3f33e7c0 	svccc	0x0033e7c0
   20800:	3f342f30 	svccc	0x00342f30
   20804:	3f34768e 	svccc	0x0034768e
   20808:	3f34bdcb 	svccc	0x0034bdcb
   2080c:	3f3504f7 	svccc	0x003504f7
   20810:	3f354c01 	svccc	0x00354c01
   20814:	3f3592ea 	svccc	0x003592ea
   20818:	3f35d9b2 	svccc	0x0035d9b2
   2081c:	3f362068 	svccc	0x00362068
   20820:	3f3666fd 	svccc	0x003666fd
   20824:	3f36ad82 	svccc	0x0036ad82
   20828:	3f36f3e4 	svccc	0x0036f3e4
   2082c:	3f373a26 	svccc	0x00373a26
   20830:	3f378045 	svccc	0x00378045
   20834:	3f37c654 	svccc	0x0037c654
   20838:	3f380c41 	svccc	0x00380c41
   2083c:	3f38521e 	svccc	0x0038521e
   20840:	3f3897c8 	svccc	0x003897c8
   20844:	3f38dd61 	svccc	0x0038dd61
   20848:	3f3922d9 	svccc	0x003922d9
   2084c:	3f396840 	svccc	0x00396840
   20850:	3f39ad86 	svccc	0x0039ad86
   20854:	3f39f2aa 	svccc	0x0039f2aa
   20858:	3f3a37bd 	svccc	0x003a37bd
   2085c:	3f3a7c9e 	svccc	0x003a7c9e
   20860:	3f3ac16e 	svccc	0x003ac16e
   20864:	3f3b062d 	svccc	0x003b062d
   20868:	3f3b4aba 	svccc	0x003b4aba
   2086c:	3f3b8f36 	svccc	0x003b8f36
   20870:	3f3bd391 	svccc	0x003bd391
   20874:	3f3c17db 	svccc	0x003c17db
   20878:	3f3c5c03 	svccc	0x003c5c03
   2087c:	3f3ca00a 	svccc	0x003ca00a
   20880:	3f3ce3ef 	svccc	0x003ce3ef
   20884:	3f3d27b3 	svccc	0x003d27b3
   20888:	3f3d6b66 	svccc	0x003d6b66
   2088c:	3f3daef7 	svccc	0x003daef7
   20890:	3f3df267 	svccc	0x003df267
   20894:	3f3e35c6 	svccc	0x003e35c6
   20898:	3f3e7903 	svccc	0x003e7903
   2089c:	3f3ebc1f 	svccc	0x003ebc1f
   208a0:	3f3eff19 	svccc	0x003eff19
   208a4:	3f3f4203 	svccc	0x003f4203
   208a8:	3f3f84ba 	svccc	0x003f84ba
   208ac:	3f3fc760 	svccc	0x003fc760
   208b0:	3f4009f6 	svccc	0x004009f6
   208b4:	3f404c59 	svccc	0x00404c59
   208b8:	3f408eac 	svccc	0x00408eac
   208bc:	3f40d0dd 	svccc	0x0040d0dd
   208c0:	3f4112ec 	svccc	0x004112ec
   208c4:	3f4154da 	svccc	0x004154da
   208c8:	3f4196b7 	svccc	0x004196b7
   208cc:	3f41d873 	svccc	0x0041d873
   208d0:	3f421a0d 	svccc	0x00421a0d
   208d4:	3f425b85 	svccc	0x00425b85
   208d8:	3f429ced 	svccc	0x00429ced
   208dc:	3f42de22 	svccc	0x0042de22
   208e0:	3f431f47 	svccc	0x00431f47
   208e4:	3f43604a 	svccc	0x0043604a
   208e8:	3f43a13c 	svccc	0x0043a13c
   208ec:	3f43e1fc 	svccc	0x0043e1fc
   208f0:	3f4422ab 	svccc	0x004422ab
   208f4:	3f446339 	svccc	0x00446339
   208f8:	3f44a3a5 	svccc	0x0044a3a5
   208fc:	3f44e3ef 	svccc	0x0044e3ef
   20900:	3f452429 	svccc	0x00452429
   20904:	3f456441 	svccc	0x00456441
   20908:	3f45a427 	svccc	0x0045a427
   2090c:	3f45e3fc 	svccc	0x0045e3fc
   20910:	3f4623c0 	svccc	0x004623c0
   20914:	3f466352 	svccc	0x00466352
   20918:	3f46a2d3 	svccc	0x0046a2d3
   2091c:	3f46e222 	svccc	0x0046e222
   20920:	3f472160 	svccc	0x00472160
   20924:	3f47608d 	svccc	0x0047608d
   20928:	3f479f88 	svccc	0x00479f88
   2092c:	3f47de61 	svccc	0x0047de61
   20930:	3f481d2a 	svccc	0x00481d2a
   20934:	3f485bd1 	svccc	0x00485bd1
   20938:	3f489a56 	svccc	0x00489a56
   2093c:	3f48d8ba 	svccc	0x0048d8ba
   20940:	3f4916fd 	svccc	0x004916fd
   20944:	3f49551d 	svccc	0x0049551d
   20948:	3f49932d 	svccc	0x0049932d
   2094c:	3f49d10b 	svccc	0x0049d10b
   20950:	3f4a0ed8 	svccc	0x004a0ed8
   20954:	3f4a4c83 	svccc	0x004a4c83
   20958:	3f4a8a0d 	svccc	0x004a8a0d
   2095c:	3f4ac786 	svccc	0x004ac786
   20960:	3f4b04cd 	svccc	0x004b04cd
   20964:	3f4b41f2 	svccc	0x004b41f2
   20968:	3f4b7f06 	svccc	0x004b7f06
   2096c:	3f4bbbf9 	svccc	0x004bbbf9
   20970:	3f4bf8cb 	svccc	0x004bf8cb
   20974:	3f4c357a 	svccc	0x004c357a
   20978:	3f4c7208 	svccc	0x004c7208
   2097c:	3f4cae75 	svccc	0x004cae75
   20980:	3f4cead1 	svccc	0x004cead1
   20984:	3f4d26fa 	svccc	0x004d26fa
   20988:	3f4d6313 	svccc	0x004d6313
   2098c:	3f4d9f0a 	svccc	0x004d9f0a
   20990:	3f4ddacf 	svccc	0x004ddacf
   20994:	3f4e1683 	svccc	0x004e1683
   20998:	3f4e5215 	svccc	0x004e5215
   2099c:	3f4e8d97 	svccc	0x004e8d97
   209a0:	3f4ec8e7 	svccc	0x004ec8e7
   209a4:	3f4f0414 	svccc	0x004f0414
   209a8:	3f4f3f31 	svccc	0x004f3f31
   209ac:	3f4f7a1c 	svccc	0x004f7a1c
   209b0:	3f4fb4f6 	svccc	0x004fb4f6
   209b4:	3f4fefae 	svccc	0x004fefae
   209b8:	3f502a35 	svccc	0x00502a35
   209bc:	3f5064aa 	svccc	0x005064aa
   209c0:	3f509efe 	svccc	0x00509efe
   209c4:	3f50d930 	svccc	0x0050d930
   209c8:	3f511351 	svccc	0x00511351
   209cc:	3f514d40 	svccc	0x00514d40
   209d0:	3f51870e 	svccc	0x0051870e
   209d4:	3f51c0ca 	svccc	0x0051c0ca
   209d8:	3f51fa55 	svccc	0x0051fa55
   209dc:	3f5233be 	svccc	0x005233be
   209e0:	3f526d16 	svccc	0x00526d16
   209e4:	3f52a64c 	svccc	0x0052a64c
   209e8:	3f52df61 	svccc	0x0052df61
   209ec:	3f531844 	svccc	0x00531844
   209f0:	3f535116 	svccc	0x00535116
   209f4:	3f5389c6 	svccc	0x005389c6
   209f8:	3f53c255 	svccc	0x0053c255
   209fc:	3f53fac2 	svccc	0x0053fac2
   20a00:	3f54330d 	svccc	0x0054330d
   20a04:	3f546b38 	svccc	0x00546b38
   20a08:	3f54a340 	svccc	0x0054a340
   20a0c:	3f54db38 	svccc	0x0054db38
   20a10:	3f5512fd 	svccc	0x005512fd
   20a14:	3f554aa1 	svccc	0x00554aa1
   20a18:	3f558234 	svccc	0x00558234
   20a1c:	3f55b995 	svccc	0x0055b995
   20a20:	3f55f0d4 	svccc	0x0055f0d4
   20a24:	3f562802 	svccc	0x00562802
   20a28:	3f565eff 	svccc	0x00565eff
   20a2c:	3f5695ea 	svccc	0x005695ea
   20a30:	3f56cca3 	svccc	0x0056cca3
   20a34:	3f57034b 	svccc	0x0057034b
   20a38:	3f5739c1 	svccc	0x005739c1
   20a3c:	3f577026 	svccc	0x00577026
   20a40:	3f57a66a 	svccc	0x0057a66a
   20a44:	3f57dc7b 	svccc	0x0057dc7b
   20a48:	3f58127b 	svccc	0x0058127b
   20a4c:	3f58485a 	svccc	0x0058485a
   20a50:	3f587e07 	svccc	0x00587e07
   20a54:	3f58b3a2 	svccc	0x0058b3a2
   20a58:	3f58e91d 	svccc	0x0058e91d
   20a5c:	3f591e64 	svccc	0x00591e64
   20a60:	3f59539c 	svccc	0x0059539c
   20a64:	3f5988b1 	svccc	0x005988b1
   20a68:	3f59bd94 	svccc	0x0059bd94
   20a6c:	3f59f267 	svccc	0x0059f267
   20a70:	3f5a2718 	svccc	0x005a2718
   20a74:	3f5a5ba7 	svccc	0x005a5ba7
   20a78:	3f5a9004 	svccc	0x005a9004
   20a7c:	3f5ac450 	svccc	0x005ac450
   20a80:	3f5af87b 	svccc	0x005af87b
   20a84:	3f5b2c73 	svccc	0x005b2c73
   20a88:	3f5b605b 	svccc	0x005b605b
   20a8c:	3f5b9421 	svccc	0x005b9421
   20a90:	3f5bc7b4 	svccc	0x005bc7b4
   20a94:	3f5bfb37 	svccc	0x005bfb37
   20a98:	3f5c2e88 	svccc	0x005c2e88
   20a9c:	3f5c61c8 	svccc	0x005c61c8
   20aa0:	3f5c94d5 	svccc	0x005c94d5
   20aa4:	3f5cc7d2 	svccc	0x005cc7d2
   20aa8:	3f5cfa9c 	svccc	0x005cfa9c
   20aac:	3f5d2d56 	svccc	0x005d2d56
   20ab0:	3f5d5fdd 	svccc	0x005d5fdd
   20ab4:	3f5d9253 	svccc	0x005d9253
   20ab8:	3f5dc497 	svccc	0x005dc497
   20abc:	3f5df6ba 	svccc	0x005df6ba
   20ac0:	3f5e28bb 	svccc	0x005e28bb
   20ac4:	3f5e5aab 	svccc	0x005e5aab
   20ac8:	3f5e8c69 	svccc	0x005e8c69
   20acc:	3f5ebe06 	svccc	0x005ebe06
   20ad0:	3f5eef80 	svccc	0x005eef80
   20ad4:	3f5f20da 	svccc	0x005f20da
   20ad8:	3f5f5211 	svccc	0x005f5211
   20adc:	3f5f8327 	svccc	0x005f8327
   20ae0:	3f5fb41c 	svccc	0x005fb41c
   20ae4:	3f5fe4ef 	svccc	0x005fe4ef
   20ae8:	3f601590 	svccc	0x00601590
   20aec:	3f604620 	svccc	0x00604620
   20af0:	3f60768e 	svccc	0x0060768e
   20af4:	3f60a6ca 	svccc	0x0060a6ca
   20af8:	3f60d6f5 	svccc	0x0060d6f5
   20afc:	3f6106ee 	svccc	0x006106ee
   20b00:	3f6136d6 	svccc	0x006136d6
   20b04:	3f61668c 	svccc	0x0061668c
   20b08:	3f619620 	svccc	0x00619620
   20b0c:	3f61c593 	svccc	0x0061c593
   20b10:	3f61f4e4 	svccc	0x0061f4e4
   20b14:	3f622414 	svccc	0x00622414
   20b18:	3f625322 	svccc	0x00625322
   20b1c:	3f62820e 	svccc	0x0062820e
   20b20:	3f62b0d9 	svccc	0x0062b0d9
   20b24:	3f62df83 	svccc	0x0062df83
   20b28:	3f630dfa 	svccc	0x00630dfa
   20b2c:	3f633c60 	svccc	0x00633c60
   20b30:	3f636a94 	svccc	0x00636a94
   20b34:	3f6398a6 	svccc	0x006398a6
   20b38:	3f63c6a8 	svccc	0x0063c6a8
   20b3c:	3f63f477 	svccc	0x0063f477
   20b40:	3f642225 	svccc	0x00642225
   20b44:	3f644fb1 	svccc	0x00644fb1
   20b48:	3f647d1c 	svccc	0x00647d1c
   20b4c:	3f64aa54 	svccc	0x0064aa54
   20b50:	3f64d77b 	svccc	0x0064d77b
   20b54:	3f650471 	svccc	0x00650471
   20b58:	3f653155 	svccc	0x00653155
   20b5c:	3f655e07 	svccc	0x00655e07
   20b60:	3f658a98 	svccc	0x00658a98
   20b64:	3f65b717 	svccc	0x0065b717
   20b68:	3f65e365 	svccc	0x0065e365
   20b6c:	3f660f80 	svccc	0x00660f80
   20b70:	3f663b8a 	svccc	0x00663b8a
   20b74:	3f666773 	svccc	0x00666773
   20b78:	3f669329 	svccc	0x00669329
   20b7c:	3f66becf 	svccc	0x0066becf
   20b80:	3f66ea42 	svccc	0x0066ea42
   20b84:	3f671594 	svccc	0x00671594
   20b88:	3f6740c4 	svccc	0x006740c4
   20b8c:	3f676bd3 	svccc	0x00676bd3
   20b90:	3f6796c0 	svccc	0x006796c0
   20b94:	3f67c18b 	svccc	0x0067c18b
   20b98:	3f67ec25 	svccc	0x0067ec25
   20b9c:	3f6816ad 	svccc	0x006816ad
   20ba0:	3f684103 	svccc	0x00684103
   20ba4:	3f686b38 	svccc	0x00686b38
   20ba8:	3f68954a 	svccc	0x0068954a
   20bac:	3f68bf3c 	svccc	0x0068bf3c
   20bb0:	3f68e90c 	svccc	0x0068e90c
   20bb4:	3f6912a9 	svccc	0x006912a9
   20bb8:	3f693c36 	svccc	0x00693c36
   20bbc:	3f696590 	svccc	0x00696590
   20bc0:	3f698ec9 	svccc	0x00698ec9
   20bc4:	3f69b7e1 	svccc	0x0069b7e1
   20bc8:	3f69e0d6 	svccc	0x0069e0d6
   20bcc:	3f6a09ab 	svccc	0x006a09ab
   20bd0:	3f6a324d 	svccc	0x006a324d
   20bd4:	3f6a5ade 	svccc	0x006a5ade
   20bd8:	3f6a833c 	svccc	0x006a833c
   20bdc:	3f6aab7a 	svccc	0x006aab7a
   20be0:	3f6ad395 	svccc	0x006ad395
   20be4:	3f6afb8f 	svccc	0x006afb8f
   20be8:	3f6b2357 	svccc	0x006b2357
   20bec:	3f6b4b0e 	svccc	0x006b4b0e
   20bf0:	3f6b7293 	svccc	0x006b7293
   20bf4:	3f6b99f6 	svccc	0x006b99f6
   20bf8:	3f6bc137 	svccc	0x006bc137
   20bfc:	3f6be857 	svccc	0x006be857
   20c00:	3f6c0f56 	svccc	0x006c0f56
   20c04:	3f6c3622 	svccc	0x006c3622
   20c08:	3f6c5ccd 	svccc	0x006c5ccd
   20c0c:	3f6c8366 	svccc	0x006c8366
   20c10:	3f6ca9bd 	svccc	0x006ca9bd
   20c14:	3f6cd003 	svccc	0x006cd003
   20c18:	3f6cf627 	svccc	0x006cf627
   20c1c:	3f6d1c19 	svccc	0x006d1c19
   20c20:	3f6d41ea 	svccc	0x006d41ea
   20c24:	3f6d67a9 	svccc	0x006d67a9
   20c28:	3f6d8d26 	svccc	0x006d8d26
   20c2c:	3f6db292 	svccc	0x006db292
   20c30:	3f6dd7dc 	svccc	0x006dd7dc
   20c34:	3f6dfcf4 	svccc	0x006dfcf4
   20c38:	3f6e21ea 	svccc	0x006e21ea
   20c3c:	3f6e46bf 	svccc	0x006e46bf
   20c40:	3f6e6b72 	svccc	0x006e6b72
   20c44:	3f6e8ff3 	svccc	0x006e8ff3
   20c48:	3f6eb463 	svccc	0x006eb463
   20c4c:	3f6ed8a1 	svccc	0x006ed8a1
   20c50:	3f6efcbd 	svccc	0x006efcbd
   20c54:	3f6f20b8 	svccc	0x006f20b8
   20c58:	3f6f4480 	svccc	0x006f4480
   20c5c:	3f6f6838 	svccc	0x006f6838
   20c60:	3f6f8bbd 	svccc	0x006f8bbd
   20c64:	3f6faf21 	svccc	0x006faf21
   20c68:	3f6fd252 	svccc	0x006fd252
   20c6c:	3f6ff573 	svccc	0x006ff573
   20c70:	3f701861 	svccc	0x00701861
   20c74:	3f703b3f 	svccc	0x00703b3f
   20c78:	3f705dd9 	svccc	0x00705dd9
   20c7c:	3f708063 	svccc	0x00708063
   20c80:	3f70a2cb 	svccc	0x0070a2cb
   20c84:	3f70c500 	svccc	0x0070c500
   20c88:	3f70e714 	svccc	0x0070e714
   20c8c:	3f710907 	svccc	0x00710907
   20c90:	3f712ad8 	svccc	0x00712ad8
   20c94:	3f714c77 	svccc	0x00714c77
   20c98:	3f716df4 	svccc	0x00716df4
   20c9c:	3f718f50 	svccc	0x00718f50
   20ca0:	3f71b08a 	svccc	0x0071b08a
   20ca4:	3f71d1a2 	svccc	0x0071d1a2
   20ca8:	3f71f288 	svccc	0x0071f288
   20cac:	3f72134d 	svccc	0x0072134d
   20cb0:	3f7233f0 	svccc	0x007233f0
   20cb4:	3f725471 	svccc	0x00725471
   20cb8:	3f7274c1 	svccc	0x007274c1
   20cbc:	3f7294ff 	svccc	0x007294ff
   20cc0:	3f72b50b 	svccc	0x0072b50b
   20cc4:	3f72d4e5 	svccc	0x0072d4e5
   20cc8:	3f72f4ae 	svccc	0x0072f4ae
   20ccc:	3f731444 	svccc	0x00731444
   20cd0:	3f7333b9 	svccc	0x007333b9
   20cd4:	3f73530d 	svccc	0x0073530d
   20cd8:	3f73723f 	svccc	0x0073723f
   20cdc:	3f73913f 	svccc	0x0073913f
   20ce0:	3f73b01d 	svccc	0x0073b01d
   20ce4:	3f73ced9 	svccc	0x0073ced9
   20ce8:	3f73ed74 	svccc	0x0073ed74
   20cec:	3f740bdd 	svccc	0x00740bdd
   20cf0:	3f742a24 	svccc	0x00742a24
   20cf4:	3f744849 	svccc	0x00744849
   20cf8:	3f74664d 	svccc	0x0074664d
   20cfc:	3f74841f 	svccc	0x0074841f
   20d00:	3f74a1cf 	svccc	0x0074a1cf
   20d04:	3f74bf5d 	svccc	0x0074bf5d
   20d08:	3f74dcca 	svccc	0x0074dcca
   20d0c:	3f74fa05 	svccc	0x0074fa05
   20d10:	3f75172f 	svccc	0x0075172f
   20d14:	3f753416 	svccc	0x00753416
   20d18:	3f7550ec 	svccc	0x007550ec
   20d1c:	3f756d8f 	svccc	0x00756d8f
   20d20:	3f758a22 	svccc	0x00758a22
   20d24:	3f75a683 	svccc	0x0075a683
   20d28:	3f75c2b1 	svccc	0x0075c2b1
   20d2c:	3f75dece 	svccc	0x0075dece
   20d30:	3f75fab9 	svccc	0x0075fab9
   20d34:	3f761672 	svccc	0x00761672
   20d38:	3f76321a 	svccc	0x0076321a
   20d3c:	3f764d90 	svccc	0x00764d90
   20d40:	3f7668e4 	svccc	0x007668e4
   20d44:	3f768416 	svccc	0x00768416
   20d48:	3f769f27 	svccc	0x00769f27
   20d4c:	3f76ba06 	svccc	0x0076ba06
   20d50:	3f76d4c3 	svccc	0x0076d4c3
   20d54:	3f76ef5f 	svccc	0x0076ef5f
   20d58:	3f7709c8 	svccc	0x007709c8
   20d5c:	3f772410 	svccc	0x00772410
   20d60:	3f773e36 	svccc	0x00773e36
   20d64:	3f77583a 	svccc	0x0077583a
   20d68:	3f77720d 	svccc	0x0077720d
   20d6c:	3f778bbd 	svccc	0x00778bbd
   20d70:	3f77a54c 	svccc	0x0077a54c
   20d74:	3f77beba 	svccc	0x0077beba
   20d78:	3f77d7f5 	svccc	0x0077d7f5
   20d7c:	3f77f10f 	svccc	0x0077f10f
   20d80:	3f780a07 	svccc	0x00780a07
   20d84:	3f7822cd 	svccc	0x007822cd
   20d88:	3f783b71 	svccc	0x00783b71
   20d8c:	3f7853f4 	svccc	0x007853f4
   20d90:	3f786c55 	svccc	0x00786c55
   20d94:	3f788484 	svccc	0x00788484
   20d98:	3f789c91 	svccc	0x00789c91
   20d9c:	3f78b47c 	svccc	0x0078b47c
   20da0:	3f78cc36 	svccc	0x0078cc36
   20da4:	3f78e3de 	svccc	0x0078e3de
   20da8:	3f78fb44 	svccc	0x0078fb44
   20dac:	3f791299 	svccc	0x00791299
   20db0:	3f7929bb 	svccc	0x007929bb
   20db4:	3f7940bc 	svccc	0x007940bc
   20db8:	3f79579b 	svccc	0x0079579b
   20dbc:	3f796e48 	svccc	0x00796e48
   20dc0:	3f7984e4 	svccc	0x007984e4
   20dc4:	3f799b3d 	svccc	0x00799b3d
   20dc8:	3f79b185 	svccc	0x0079b185
   20dcc:	3f79c79b 	svccc	0x0079c79b
   20dd0:	3f79dd90 	svccc	0x0079dd90
   20dd4:	3f79f362 	svccc	0x0079f362
   20dd8:	3f7a0903 	svccc	0x007a0903
   20ddc:	3f7a1e82 	svccc	0x007a1e82
   20de0:	3f7a33df 	svccc	0x007a33df
   20de4:	3f7a490a 	svccc	0x007a490a
   20de8:	3f7a5e14 	svccc	0x007a5e14
   20dec:	3f7a72fc 	svccc	0x007a72fc
   20df0:	3f7a87c2 	svccc	0x007a87c2
   20df4:	3f7a9c56 	svccc	0x007a9c56
   20df8:	3f7ab0c9 	svccc	0x007ab0c9
   20dfc:	3f7ac519 	svccc	0x007ac519
   20e00:	3f7ad938 	svccc	0x007ad938
   20e04:	3f7aed35 	svccc	0x007aed35
   20e08:	3f7b0111 	svccc	0x007b0111
   20e0c:	3f7b14ba 	svccc	0x007b14ba
   20e10:	3f7b2841 	svccc	0x007b2841
   20e14:	3f7b3ba7 	svccc	0x007b3ba7
   20e18:	3f7b4eec 	svccc	0x007b4eec
   20e1c:	3f7b61fe 	svccc	0x007b61fe
   20e20:	3f7b74ef 	svccc	0x007b74ef
   20e24:	3f7b87ad 	svccc	0x007b87ad
   20e28:	3f7b9a5b 	svccc	0x007b9a5b
   20e2c:	3f7bacc5 	svccc	0x007bacc5
   20e30:	3f7bbf1f 	svccc	0x007bbf1f
   20e34:	3f7bd146 	svccc	0x007bd146
   20e38:	3f7be34c 	svccc	0x007be34c
   20e3c:	3f7bf530 	svccc	0x007bf530
   20e40:	3f7c06e2 	svccc	0x007c06e2
   20e44:	3f7c1872 	svccc	0x007c1872
   20e48:	3f7c29e1 	svccc	0x007c29e1
   20e4c:	3f7c3b2e 	svccc	0x007c3b2e
   20e50:	3f7c4c49 	svccc	0x007c4c49
   20e54:	3f7c5d42 	svccc	0x007c5d42
   20e58:	3f7c6e09 	svccc	0x007c6e09
   20e5c:	3f7c7eae 	svccc	0x007c7eae
   20e60:	3f7c8f32 	svccc	0x007c8f32
   20e64:	3f7c9f84 	svccc	0x007c9f84
   20e68:	3f7cafc4 	svccc	0x007cafc4
   20e6c:	3f7cbfc2 	svccc	0x007cbfc2
   20e70:	3f7ccfaf 	svccc	0x007ccfaf
   20e74:	3f7cdf6a 	svccc	0x007cdf6a
   20e78:	3f7cef03 	svccc	0x007cef03
   20e7c:	3f7cfe7a 	svccc	0x007cfe7a
   20e80:	3f7d0dbf 	svccc	0x007d0dbf
   20e84:	3f7d1ce3 	svccc	0x007d1ce3
   20e88:	3f7d2bd4 	svccc	0x007d2bd4
   20e8c:	3f7d3ab4 	svccc	0x007d3ab4
   20e90:	3f7d4952 	svccc	0x007d4952
   20e94:	3f7d57de 	svccc	0x007d57de
   20e98:	3f7d6638 	svccc	0x007d6638
   20e9c:	3f7d7471 	svccc	0x007d7471
   20ea0:	3f7d8288 	svccc	0x007d8288
   20ea4:	3f7d906d 	svccc	0x007d906d
   20ea8:	3f7d9e30 	svccc	0x007d9e30
   20eac:	3f7dabd2 	svccc	0x007dabd2
   20eb0:	3f7db941 	svccc	0x007db941
   20eb4:	3f7dc68f 	svccc	0x007dc68f
   20eb8:	3f7dd3aa 	svccc	0x007dd3aa
   20ebc:	3f7de0b5 	svccc	0x007de0b5
   20ec0:	3f7ded8d 	svccc	0x007ded8d
   20ec4:	3f7dfa33 	svccc	0x007dfa33
   20ec8:	3f7e06c8 	svccc	0x007e06c8
   20ecc:	3f7e132b 	svccc	0x007e132b
   20ed0:	3f7e1f5c 	svccc	0x007e1f5c
   20ed4:	3f7e2b6b 	svccc	0x007e2b6b
   20ed8:	3f7e3758 	svccc	0x007e3758
   20edc:	3f7e4324 	svccc	0x007e4324
   20ee0:	3f7e4ebe 	svccc	0x007e4ebe
   20ee4:	3f7e5a36 	svccc	0x007e5a36
   20ee8:	3f7e658c 	svccc	0x007e658c
   20eec:	3f7e70b0 	svccc	0x007e70b0
   20ef0:	3f7e7bb3 	svccc	0x007e7bb3
   20ef4:	3f7e8683 	svccc	0x007e8683
   20ef8:	3f7e9143 	svccc	0x007e9143
   20efc:	3f7e9bd0 	svccc	0x007e9bd0
   20f00:	3f7ea62b 	svccc	0x007ea62b
   20f04:	3f7eb064 	svccc	0x007eb064
   20f08:	3f7eba7c 	svccc	0x007eba7c
   20f0c:	3f7ec472 	svccc	0x007ec472
   20f10:	3f7ece36 	svccc	0x007ece36
   20f14:	3f7ed7d8 	svccc	0x007ed7d8
   20f18:	3f7ee148 	svccc	0x007ee148
   20f1c:	3f7eea96 	svccc	0x007eea96
   20f20:	3f7ef3c3 	svccc	0x007ef3c3
   20f24:	3f7efcce 	svccc	0x007efcce
   20f28:	3f7f05a7 	svccc	0x007f05a7
   20f2c:	3f7f0e5e 	svccc	0x007f0e5e
   20f30:	3f7f16e3 	svccc	0x007f16e3
   20f34:	3f7f1f47 	svccc	0x007f1f47
   20f38:	3f7f2789 	svccc	0x007f2789
   20f3c:	3f7f2f98 	svccc	0x007f2f98
   20f40:	3f7f3786 	svccc	0x007f3786
   20f44:	3f7f3f53 	svccc	0x007f3f53
   20f48:	3f7f46ed 	svccc	0x007f46ed
   20f4c:	3f7f4e66 	svccc	0x007f4e66
   20f50:	3f7f55bd 	svccc	0x007f55bd
   20f54:	3f7f5ce2 	svccc	0x007f5ce2
   20f58:	3f7f63e5 	svccc	0x007f63e5
   20f5c:	3f7f6ac6 	svccc	0x007f6ac6
   20f60:	3f7f7176 	svccc	0x007f7176
   20f64:	3f7f7803 	svccc	0x007f7803
   20f68:	3f7f7e6f 	svccc	0x007f7e6f
   20f6c:	3f7f84a9 	svccc	0x007f84a9
   20f70:	3f7f8ac2 	svccc	0x007f8ac2
   20f74:	3f7f90b8 	svccc	0x007f90b8
   20f78:	3f7f967d 	svccc	0x007f967d
   20f7c:	3f7f9c20 	svccc	0x007f9c20
   20f80:	3f7fa190 	svccc	0x007fa190
   20f84:	3f7fa6df 	svccc	0x007fa6df
   20f88:	3f7fac0c 	svccc	0x007fac0c
   20f8c:	3f7fb107 	svccc	0x007fb107
   20f90:	3f7fb5f2 	svccc	0x007fb5f2
   20f94:	3f7fba99 	svccc	0x007fba99
   20f98:	3f7fbf2f 	svccc	0x007fbf2f
   20f9c:	3f7fc393 	svccc	0x007fc393
   20fa0:	3f7fc7c5 	svccc	0x007fc7c5
   20fa4:	3f7fcbe6 	svccc	0x007fcbe6
   20fa8:	3f7fcfd5 	svccc	0x007fcfd5
   20fac:	3f7fd391 	svccc	0x007fd391
   20fb0:	3f7fd73d 	svccc	0x007fd73d
   20fb4:	3f7fdab6 	svccc	0x007fdab6
   20fb8:	3f7fddfd 	svccc	0x007fddfd
   20fbc:	3f7fe122 	svccc	0x007fe122
   20fc0:	3f7fe426 	svccc	0x007fe426
   20fc4:	3f7fe708 	svccc	0x007fe708
   20fc8:	3f7fe9b8 	svccc	0x007fe9b8
   20fcc:	3f7fec46 	svccc	0x007fec46
   20fd0:	3f7feea2 	svccc	0x007feea2
   20fd4:	3f7ff0dc 	svccc	0x007ff0dc
   20fd8:	3f7ff2f5 	svccc	0x007ff2f5
   20fdc:	3f7ff4ed 	svccc	0x007ff4ed
   20fe0:	3f7ff6b2 	svccc	0x007ff6b2
   20fe4:	3f7ff844 	svccc	0x007ff844
   20fe8:	3f7ff9c6 	svccc	0x007ff9c6
   20fec:	3f7ffb16 	svccc	0x007ffb16
   20ff0:	3f7ffc33 	svccc	0x007ffc33
   20ff4:	3f7ffd3f 	svccc	0x007ffd3f
   20ff8:	3f7ffe19 	svccc	0x007ffe19
   20ffc:	3f7ffec1 	svccc	0x007ffec1
   21000:	3f7fff47 	svccc	0x007fff47
   21004:	3f7fffac 	svccc	0x007fffac
   21008:	3f7fffef 	svccc	0x007fffef
   2100c:	3f800000 	svccc	0x00800000
   21010:	3f7fffef 	svccc	0x007fffef
   21014:	3f7fffac 	svccc	0x007fffac
   21018:	3f7fff47 	svccc	0x007fff47
   2101c:	3f7ffec1 	svccc	0x007ffec1
   21020:	3f7ffe19 	svccc	0x007ffe19
   21024:	3f7ffd3f 	svccc	0x007ffd3f
   21028:	3f7ffc33 	svccc	0x007ffc33
   2102c:	3f7ffb16 	svccc	0x007ffb16
   21030:	3f7ff9c6 	svccc	0x007ff9c6
   21034:	3f7ff844 	svccc	0x007ff844
   21038:	3f7ff6b2 	svccc	0x007ff6b2
   2103c:	3f7ff4ed 	svccc	0x007ff4ed
   21040:	3f7ff2f5 	svccc	0x007ff2f5
   21044:	3f7ff0dc 	svccc	0x007ff0dc
   21048:	3f7feea2 	svccc	0x007feea2
   2104c:	3f7fec46 	svccc	0x007fec46
   21050:	3f7fe9b8 	svccc	0x007fe9b8
   21054:	3f7fe708 	svccc	0x007fe708
   21058:	3f7fe426 	svccc	0x007fe426
   2105c:	3f7fe122 	svccc	0x007fe122
   21060:	3f7fddfd 	svccc	0x007fddfd
   21064:	3f7fdab6 	svccc	0x007fdab6
   21068:	3f7fd73d 	svccc	0x007fd73d
   2106c:	3f7fd391 	svccc	0x007fd391
   21070:	3f7fcfd5 	svccc	0x007fcfd5
   21074:	3f7fcbe6 	svccc	0x007fcbe6
   21078:	3f7fc7c5 	svccc	0x007fc7c5
   2107c:	3f7fc393 	svccc	0x007fc393
   21080:	3f7fbf2f 	svccc	0x007fbf2f
   21084:	3f7fba99 	svccc	0x007fba99
   21088:	3f7fb5f2 	svccc	0x007fb5f2
   2108c:	3f7fb107 	svccc	0x007fb107
   21090:	3f7fac0c 	svccc	0x007fac0c
   21094:	3f7fa6df 	svccc	0x007fa6df
   21098:	3f7fa190 	svccc	0x007fa190
   2109c:	3f7f9c20 	svccc	0x007f9c20
   210a0:	3f7f967d 	svccc	0x007f967d
   210a4:	3f7f90b8 	svccc	0x007f90b8
   210a8:	3f7f8ac2 	svccc	0x007f8ac2
   210ac:	3f7f84a9 	svccc	0x007f84a9
   210b0:	3f7f7e6f 	svccc	0x007f7e6f
   210b4:	3f7f7803 	svccc	0x007f7803
   210b8:	3f7f7176 	svccc	0x007f7176
   210bc:	3f7f6ac6 	svccc	0x007f6ac6
   210c0:	3f7f63e5 	svccc	0x007f63e5
   210c4:	3f7f5ce2 	svccc	0x007f5ce2
   210c8:	3f7f55bd 	svccc	0x007f55bd
   210cc:	3f7f4e66 	svccc	0x007f4e66
   210d0:	3f7f46ed 	svccc	0x007f46ed
   210d4:	3f7f3f53 	svccc	0x007f3f53
   210d8:	3f7f3786 	svccc	0x007f3786
   210dc:	3f7f2f98 	svccc	0x007f2f98
   210e0:	3f7f2789 	svccc	0x007f2789
   210e4:	3f7f1f47 	svccc	0x007f1f47
   210e8:	3f7f16e3 	svccc	0x007f16e3
   210ec:	3f7f0e5e 	svccc	0x007f0e5e
   210f0:	3f7f05a7 	svccc	0x007f05a7
   210f4:	3f7efcce 	svccc	0x007efcce
   210f8:	3f7ef3c3 	svccc	0x007ef3c3
   210fc:	3f7eea96 	svccc	0x007eea96
   21100:	3f7ee148 	svccc	0x007ee148
   21104:	3f7ed7d8 	svccc	0x007ed7d8
   21108:	3f7ece36 	svccc	0x007ece36
   2110c:	3f7ec472 	svccc	0x007ec472
   21110:	3f7eba7c 	svccc	0x007eba7c
   21114:	3f7eb064 	svccc	0x007eb064
   21118:	3f7ea62b 	svccc	0x007ea62b
   2111c:	3f7e9bd0 	svccc	0x007e9bd0
   21120:	3f7e9143 	svccc	0x007e9143
   21124:	3f7e8683 	svccc	0x007e8683
   21128:	3f7e7bb3 	svccc	0x007e7bb3
   2112c:	3f7e70b0 	svccc	0x007e70b0
   21130:	3f7e658c 	svccc	0x007e658c
   21134:	3f7e5a36 	svccc	0x007e5a36
   21138:	3f7e4ebe 	svccc	0x007e4ebe
   2113c:	3f7e4324 	svccc	0x007e4324
   21140:	3f7e3758 	svccc	0x007e3758
   21144:	3f7e2b6b 	svccc	0x007e2b6b
   21148:	3f7e1f5c 	svccc	0x007e1f5c
   2114c:	3f7e132b 	svccc	0x007e132b
   21150:	3f7e06c8 	svccc	0x007e06c8
   21154:	3f7dfa33 	svccc	0x007dfa33
   21158:	3f7ded8d 	svccc	0x007ded8d
   2115c:	3f7de0b5 	svccc	0x007de0b5
   21160:	3f7dd3aa 	svccc	0x007dd3aa
   21164:	3f7dc68f 	svccc	0x007dc68f
   21168:	3f7db941 	svccc	0x007db941
   2116c:	3f7dabd2 	svccc	0x007dabd2
   21170:	3f7d9e30 	svccc	0x007d9e30
   21174:	3f7d906d 	svccc	0x007d906d
   21178:	3f7d8288 	svccc	0x007d8288
   2117c:	3f7d7471 	svccc	0x007d7471
   21180:	3f7d6638 	svccc	0x007d6638
   21184:	3f7d57de 	svccc	0x007d57de
   21188:	3f7d4952 	svccc	0x007d4952
   2118c:	3f7d3ab4 	svccc	0x007d3ab4
   21190:	3f7d2bd4 	svccc	0x007d2bd4
   21194:	3f7d1ce3 	svccc	0x007d1ce3
   21198:	3f7d0dbf 	svccc	0x007d0dbf
   2119c:	3f7cfe7a 	svccc	0x007cfe7a
   211a0:	3f7cef03 	svccc	0x007cef03
   211a4:	3f7cdf6a 	svccc	0x007cdf6a
   211a8:	3f7ccfaf 	svccc	0x007ccfaf
   211ac:	3f7cbfc2 	svccc	0x007cbfc2
   211b0:	3f7cafc4 	svccc	0x007cafc4
   211b4:	3f7c9f84 	svccc	0x007c9f84
   211b8:	3f7c8f32 	svccc	0x007c8f32
   211bc:	3f7c7eae 	svccc	0x007c7eae
   211c0:	3f7c6e09 	svccc	0x007c6e09
   211c4:	3f7c5d42 	svccc	0x007c5d42
   211c8:	3f7c4c49 	svccc	0x007c4c49
   211cc:	3f7c3b2e 	svccc	0x007c3b2e
   211d0:	3f7c29e1 	svccc	0x007c29e1
   211d4:	3f7c1872 	svccc	0x007c1872
   211d8:	3f7c06e2 	svccc	0x007c06e2
   211dc:	3f7bf530 	svccc	0x007bf530
   211e0:	3f7be34c 	svccc	0x007be34c
   211e4:	3f7bd146 	svccc	0x007bd146
   211e8:	3f7bbf1f 	svccc	0x007bbf1f
   211ec:	3f7bacc5 	svccc	0x007bacc5
   211f0:	3f7b9a5b 	svccc	0x007b9a5b
   211f4:	3f7b87ad 	svccc	0x007b87ad
   211f8:	3f7b74ef 	svccc	0x007b74ef
   211fc:	3f7b61fe 	svccc	0x007b61fe
   21200:	3f7b4eec 	svccc	0x007b4eec
   21204:	3f7b3ba7 	svccc	0x007b3ba7
   21208:	3f7b2841 	svccc	0x007b2841
   2120c:	3f7b14ba 	svccc	0x007b14ba
   21210:	3f7b0111 	svccc	0x007b0111
   21214:	3f7aed35 	svccc	0x007aed35
   21218:	3f7ad938 	svccc	0x007ad938
   2121c:	3f7ac519 	svccc	0x007ac519
   21220:	3f7ab0c9 	svccc	0x007ab0c9
   21224:	3f7a9c56 	svccc	0x007a9c56
   21228:	3f7a87c2 	svccc	0x007a87c2
   2122c:	3f7a72fc 	svccc	0x007a72fc
   21230:	3f7a5e14 	svccc	0x007a5e14
   21234:	3f7a490a 	svccc	0x007a490a
   21238:	3f7a33df 	svccc	0x007a33df
   2123c:	3f7a1e82 	svccc	0x007a1e82
   21240:	3f7a0903 	svccc	0x007a0903
   21244:	3f79f362 	svccc	0x0079f362
   21248:	3f79dd90 	svccc	0x0079dd90
   2124c:	3f79c79b 	svccc	0x0079c79b
   21250:	3f79b185 	svccc	0x0079b185
   21254:	3f799b3d 	svccc	0x00799b3d
   21258:	3f7984e4 	svccc	0x007984e4
   2125c:	3f796e48 	svccc	0x00796e48
   21260:	3f79579b 	svccc	0x0079579b
   21264:	3f7940bc 	svccc	0x007940bc
   21268:	3f7929bb 	svccc	0x007929bb
   2126c:	3f791299 	svccc	0x00791299
   21270:	3f78fb44 	svccc	0x0078fb44
   21274:	3f78e3de 	svccc	0x0078e3de
   21278:	3f78cc36 	svccc	0x0078cc36
   2127c:	3f78b47c 	svccc	0x0078b47c
   21280:	3f789c91 	svccc	0x00789c91
   21284:	3f788484 	svccc	0x00788484
   21288:	3f786c55 	svccc	0x00786c55
   2128c:	3f7853f4 	svccc	0x007853f4
   21290:	3f783b71 	svccc	0x00783b71
   21294:	3f7822cd 	svccc	0x007822cd
   21298:	3f780a07 	svccc	0x00780a07
   2129c:	3f77f10f 	svccc	0x0077f10f
   212a0:	3f77d7f5 	svccc	0x0077d7f5
   212a4:	3f77beba 	svccc	0x0077beba
   212a8:	3f77a54c 	svccc	0x0077a54c
   212ac:	3f778bbd 	svccc	0x00778bbd
   212b0:	3f77720d 	svccc	0x0077720d
   212b4:	3f77583a 	svccc	0x0077583a
   212b8:	3f773e36 	svccc	0x00773e36
   212bc:	3f772410 	svccc	0x00772410
   212c0:	3f7709c8 	svccc	0x007709c8
   212c4:	3f76ef5f 	svccc	0x0076ef5f
   212c8:	3f76d4c3 	svccc	0x0076d4c3
   212cc:	3f76ba06 	svccc	0x0076ba06
   212d0:	3f769f27 	svccc	0x00769f27
   212d4:	3f768416 	svccc	0x00768416
   212d8:	3f7668e4 	svccc	0x007668e4
   212dc:	3f764d90 	svccc	0x00764d90
   212e0:	3f76321a 	svccc	0x0076321a
   212e4:	3f761672 	svccc	0x00761672
   212e8:	3f75fab9 	svccc	0x0075fab9
   212ec:	3f75dece 	svccc	0x0075dece
   212f0:	3f75c2b1 	svccc	0x0075c2b1
   212f4:	3f75a683 	svccc	0x0075a683
   212f8:	3f758a22 	svccc	0x00758a22
   212fc:	3f756d8f 	svccc	0x00756d8f
   21300:	3f7550ec 	svccc	0x007550ec
   21304:	3f753416 	svccc	0x00753416
   21308:	3f75172f 	svccc	0x0075172f
   2130c:	3f74fa05 	svccc	0x0074fa05
   21310:	3f74dcca 	svccc	0x0074dcca
   21314:	3f74bf5d 	svccc	0x0074bf5d
   21318:	3f74a1cf 	svccc	0x0074a1cf
   2131c:	3f74841f 	svccc	0x0074841f
   21320:	3f74664d 	svccc	0x0074664d
   21324:	3f744849 	svccc	0x00744849
   21328:	3f742a24 	svccc	0x00742a24
   2132c:	3f740bdd 	svccc	0x00740bdd
   21330:	3f73ed74 	svccc	0x0073ed74
   21334:	3f73ced9 	svccc	0x0073ced9
   21338:	3f73b01d 	svccc	0x0073b01d
   2133c:	3f73913f 	svccc	0x0073913f
   21340:	3f73723f 	svccc	0x0073723f
   21344:	3f73530d 	svccc	0x0073530d
   21348:	3f7333b9 	svccc	0x007333b9
   2134c:	3f731444 	svccc	0x00731444
   21350:	3f72f4ae 	svccc	0x0072f4ae
   21354:	3f72d4e5 	svccc	0x0072d4e5
   21358:	3f72b50b 	svccc	0x0072b50b
   2135c:	3f7294ff 	svccc	0x007294ff
   21360:	3f7274c1 	svccc	0x007274c1
   21364:	3f725471 	svccc	0x00725471
   21368:	3f7233f0 	svccc	0x007233f0
   2136c:	3f72134d 	svccc	0x0072134d
   21370:	3f71f288 	svccc	0x0071f288
   21374:	3f71d1a2 	svccc	0x0071d1a2
   21378:	3f71b08a 	svccc	0x0071b08a
   2137c:	3f718f50 	svccc	0x00718f50
   21380:	3f716df4 	svccc	0x00716df4
   21384:	3f714c77 	svccc	0x00714c77
   21388:	3f712ad8 	svccc	0x00712ad8
   2138c:	3f710907 	svccc	0x00710907
   21390:	3f70e714 	svccc	0x0070e714
   21394:	3f70c500 	svccc	0x0070c500
   21398:	3f70a2cb 	svccc	0x0070a2cb
   2139c:	3f708063 	svccc	0x00708063
   213a0:	3f705dd9 	svccc	0x00705dd9
   213a4:	3f703b3f 	svccc	0x00703b3f
   213a8:	3f701861 	svccc	0x00701861
   213ac:	3f6ff573 	svccc	0x006ff573
   213b0:	3f6fd252 	svccc	0x006fd252
   213b4:	3f6faf21 	svccc	0x006faf21
   213b8:	3f6f8bbd 	svccc	0x006f8bbd
   213bc:	3f6f6838 	svccc	0x006f6838
   213c0:	3f6f4480 	svccc	0x006f4480
   213c4:	3f6f20b8 	svccc	0x006f20b8
   213c8:	3f6efcbd 	svccc	0x006efcbd
   213cc:	3f6ed8a1 	svccc	0x006ed8a1
   213d0:	3f6eb463 	svccc	0x006eb463
   213d4:	3f6e8ff3 	svccc	0x006e8ff3
   213d8:	3f6e6b72 	svccc	0x006e6b72
   213dc:	3f6e46bf 	svccc	0x006e46bf
   213e0:	3f6e21ea 	svccc	0x006e21ea
   213e4:	3f6dfcf4 	svccc	0x006dfcf4
   213e8:	3f6dd7dc 	svccc	0x006dd7dc
   213ec:	3f6db292 	svccc	0x006db292
   213f0:	3f6d8d26 	svccc	0x006d8d26
   213f4:	3f6d67a9 	svccc	0x006d67a9
   213f8:	3f6d41ea 	svccc	0x006d41ea
   213fc:	3f6d1c19 	svccc	0x006d1c19
   21400:	3f6cf627 	svccc	0x006cf627
   21404:	3f6cd003 	svccc	0x006cd003
   21408:	3f6ca9bd 	svccc	0x006ca9bd
   2140c:	3f6c8366 	svccc	0x006c8366
   21410:	3f6c5ccd 	svccc	0x006c5ccd
   21414:	3f6c3622 	svccc	0x006c3622
   21418:	3f6c0f56 	svccc	0x006c0f56
   2141c:	3f6be857 	svccc	0x006be857
   21420:	3f6bc137 	svccc	0x006bc137
   21424:	3f6b99f6 	svccc	0x006b99f6
   21428:	3f6b7293 	svccc	0x006b7293
   2142c:	3f6b4b0e 	svccc	0x006b4b0e
   21430:	3f6b2357 	svccc	0x006b2357
   21434:	3f6afb8f 	svccc	0x006afb8f
   21438:	3f6ad395 	svccc	0x006ad395
   2143c:	3f6aab7a 	svccc	0x006aab7a
   21440:	3f6a833c 	svccc	0x006a833c
   21444:	3f6a5ade 	svccc	0x006a5ade
   21448:	3f6a324d 	svccc	0x006a324d
   2144c:	3f6a09ab 	svccc	0x006a09ab
   21450:	3f69e0d6 	svccc	0x0069e0d6
   21454:	3f69b7e1 	svccc	0x0069b7e1
   21458:	3f698ec9 	svccc	0x00698ec9
   2145c:	3f696590 	svccc	0x00696590
   21460:	3f693c36 	svccc	0x00693c36
   21464:	3f6912a9 	svccc	0x006912a9
   21468:	3f68e90c 	svccc	0x0068e90c
   2146c:	3f68bf3c 	svccc	0x0068bf3c
   21470:	3f68954a 	svccc	0x0068954a
   21474:	3f686b38 	svccc	0x00686b38
   21478:	3f684103 	svccc	0x00684103
   2147c:	3f6816ad 	svccc	0x006816ad
   21480:	3f67ec25 	svccc	0x0067ec25
   21484:	3f67c18b 	svccc	0x0067c18b
   21488:	3f6796c0 	svccc	0x006796c0
   2148c:	3f676bd3 	svccc	0x00676bd3
   21490:	3f6740c4 	svccc	0x006740c4
   21494:	3f671594 	svccc	0x00671594
   21498:	3f66ea42 	svccc	0x0066ea42
   2149c:	3f66becf 	svccc	0x0066becf
   214a0:	3f669329 	svccc	0x00669329
   214a4:	3f666773 	svccc	0x00666773
   214a8:	3f663b8a 	svccc	0x00663b8a
   214ac:	3f660f80 	svccc	0x00660f80
   214b0:	3f65e365 	svccc	0x0065e365
   214b4:	3f65b717 	svccc	0x0065b717
   214b8:	3f658a98 	svccc	0x00658a98
   214bc:	3f655e07 	svccc	0x00655e07
   214c0:	3f653155 	svccc	0x00653155
   214c4:	3f650471 	svccc	0x00650471
   214c8:	3f64d77b 	svccc	0x0064d77b
   214cc:	3f64aa54 	svccc	0x0064aa54
   214d0:	3f647d1c 	svccc	0x00647d1c
   214d4:	3f644fb1 	svccc	0x00644fb1
   214d8:	3f642225 	svccc	0x00642225
   214dc:	3f63f477 	svccc	0x0063f477
   214e0:	3f63c6a8 	svccc	0x0063c6a8
   214e4:	3f6398a6 	svccc	0x006398a6
   214e8:	3f636a94 	svccc	0x00636a94
   214ec:	3f633c60 	svccc	0x00633c60
   214f0:	3f630dfa 	svccc	0x00630dfa
   214f4:	3f62df83 	svccc	0x0062df83
   214f8:	3f62b0d9 	svccc	0x0062b0d9
   214fc:	3f62820e 	svccc	0x0062820e
   21500:	3f625322 	svccc	0x00625322
   21504:	3f622414 	svccc	0x00622414
   21508:	3f61f4e4 	svccc	0x0061f4e4
   2150c:	3f61c593 	svccc	0x0061c593
   21510:	3f619620 	svccc	0x00619620
   21514:	3f61668c 	svccc	0x0061668c
   21518:	3f6136d6 	svccc	0x006136d6
   2151c:	3f6106ee 	svccc	0x006106ee
   21520:	3f60d6f5 	svccc	0x0060d6f5
   21524:	3f60a6ca 	svccc	0x0060a6ca
   21528:	3f60768e 	svccc	0x0060768e
   2152c:	3f604620 	svccc	0x00604620
   21530:	3f601590 	svccc	0x00601590
   21534:	3f5fe4ef 	svccc	0x005fe4ef
   21538:	3f5fb41c 	svccc	0x005fb41c
   2153c:	3f5f8327 	svccc	0x005f8327
   21540:	3f5f5211 	svccc	0x005f5211
   21544:	3f5f20da 	svccc	0x005f20da
   21548:	3f5eef80 	svccc	0x005eef80
   2154c:	3f5ebe06 	svccc	0x005ebe06
   21550:	3f5e8c69 	svccc	0x005e8c69
   21554:	3f5e5aab 	svccc	0x005e5aab
   21558:	3f5e28bb 	svccc	0x005e28bb
   2155c:	3f5df6ba 	svccc	0x005df6ba
   21560:	3f5dc497 	svccc	0x005dc497
   21564:	3f5d9253 	svccc	0x005d9253
   21568:	3f5d5fdd 	svccc	0x005d5fdd
   2156c:	3f5d2d56 	svccc	0x005d2d56
   21570:	3f5cfa9c 	svccc	0x005cfa9c
   21574:	3f5cc7d2 	svccc	0x005cc7d2
   21578:	3f5c94d5 	svccc	0x005c94d5
   2157c:	3f5c61c8 	svccc	0x005c61c8
   21580:	3f5c2e88 	svccc	0x005c2e88
   21584:	3f5bfb37 	svccc	0x005bfb37
   21588:	3f5bc7b4 	svccc	0x005bc7b4
   2158c:	3f5b9421 	svccc	0x005b9421
   21590:	3f5b605b 	svccc	0x005b605b
   21594:	3f5b2c73 	svccc	0x005b2c73
   21598:	3f5af87b 	svccc	0x005af87b
   2159c:	3f5ac450 	svccc	0x005ac450
   215a0:	3f5a9004 	svccc	0x005a9004
   215a4:	3f5a5ba7 	svccc	0x005a5ba7
   215a8:	3f5a2718 	svccc	0x005a2718
   215ac:	3f59f267 	svccc	0x0059f267
   215b0:	3f59bd94 	svccc	0x0059bd94
   215b4:	3f5988b1 	svccc	0x005988b1
   215b8:	3f59539c 	svccc	0x0059539c
   215bc:	3f591e64 	svccc	0x00591e64
   215c0:	3f58e91d 	svccc	0x0058e91d
   215c4:	3f58b3a2 	svccc	0x0058b3a2
   215c8:	3f587e07 	svccc	0x00587e07
   215cc:	3f58485a 	svccc	0x0058485a
   215d0:	3f58127b 	svccc	0x0058127b
   215d4:	3f57dc7b 	svccc	0x0057dc7b
   215d8:	3f57a66a 	svccc	0x0057a66a
   215dc:	3f577026 	svccc	0x00577026
   215e0:	3f5739c1 	svccc	0x005739c1
   215e4:	3f57034b 	svccc	0x0057034b
   215e8:	3f56cca3 	svccc	0x0056cca3
   215ec:	3f5695ea 	svccc	0x005695ea
   215f0:	3f565eff 	svccc	0x00565eff
   215f4:	3f562802 	svccc	0x00562802
   215f8:	3f55f0d4 	svccc	0x0055f0d4
   215fc:	3f55b995 	svccc	0x0055b995
   21600:	3f558234 	svccc	0x00558234
   21604:	3f554aa1 	svccc	0x00554aa1
   21608:	3f5512fd 	svccc	0x005512fd
   2160c:	3f54db38 	svccc	0x0054db38
   21610:	3f54a340 	svccc	0x0054a340
   21614:	3f546b38 	svccc	0x00546b38
   21618:	3f54330d 	svccc	0x0054330d
   2161c:	3f53fac2 	svccc	0x0053fac2
   21620:	3f53c255 	svccc	0x0053c255
   21624:	3f5389c6 	svccc	0x005389c6
   21628:	3f535116 	svccc	0x00535116
   2162c:	3f531844 	svccc	0x00531844
   21630:	3f52df61 	svccc	0x0052df61
   21634:	3f52a64c 	svccc	0x0052a64c
   21638:	3f526d16 	svccc	0x00526d16
   2163c:	3f5233be 	svccc	0x005233be
   21640:	3f51fa55 	svccc	0x0051fa55
   21644:	3f51c0ca 	svccc	0x0051c0ca
   21648:	3f51870e 	svccc	0x0051870e
   2164c:	3f514d40 	svccc	0x00514d40
   21650:	3f511351 	svccc	0x00511351
   21654:	3f50d930 	svccc	0x0050d930
   21658:	3f509efe 	svccc	0x00509efe
   2165c:	3f5064aa 	svccc	0x005064aa
   21660:	3f502a35 	svccc	0x00502a35
   21664:	3f4fefae 	svccc	0x004fefae
   21668:	3f4fb4f6 	svccc	0x004fb4f6
   2166c:	3f4f7a1c 	svccc	0x004f7a1c
   21670:	3f4f3f31 	svccc	0x004f3f31
   21674:	3f4f0414 	svccc	0x004f0414
   21678:	3f4ec8e7 	svccc	0x004ec8e7
   2167c:	3f4e8d97 	svccc	0x004e8d97
   21680:	3f4e5215 	svccc	0x004e5215
   21684:	3f4e1683 	svccc	0x004e1683
   21688:	3f4ddacf 	svccc	0x004ddacf
   2168c:	3f4d9f0a 	svccc	0x004d9f0a
   21690:	3f4d6313 	svccc	0x004d6313
   21694:	3f4d26fa 	svccc	0x004d26fa
   21698:	3f4cead1 	svccc	0x004cead1
   2169c:	3f4cae75 	svccc	0x004cae75
   216a0:	3f4c7208 	svccc	0x004c7208
   216a4:	3f4c357a 	svccc	0x004c357a
   216a8:	3f4bf8cb 	svccc	0x004bf8cb
   216ac:	3f4bbbf9 	svccc	0x004bbbf9
   216b0:	3f4b7f06 	svccc	0x004b7f06
   216b4:	3f4b41f2 	svccc	0x004b41f2
   216b8:	3f4b04cd 	svccc	0x004b04cd
   216bc:	3f4ac786 	svccc	0x004ac786
   216c0:	3f4a8a0d 	svccc	0x004a8a0d
   216c4:	3f4a4c83 	svccc	0x004a4c83
   216c8:	3f4a0ed8 	svccc	0x004a0ed8
   216cc:	3f49d10b 	svccc	0x0049d10b
   216d0:	3f49932d 	svccc	0x0049932d
   216d4:	3f49551d 	svccc	0x0049551d
   216d8:	3f4916fd 	svccc	0x004916fd
   216dc:	3f48d8ba 	svccc	0x0048d8ba
   216e0:	3f489a56 	svccc	0x00489a56
   216e4:	3f485bd1 	svccc	0x00485bd1
   216e8:	3f481d2a 	svccc	0x00481d2a
   216ec:	3f47de61 	svccc	0x0047de61
   216f0:	3f479f88 	svccc	0x00479f88
   216f4:	3f47608d 	svccc	0x0047608d
   216f8:	3f472160 	svccc	0x00472160
   216fc:	3f46e222 	svccc	0x0046e222
   21700:	3f46a2d3 	svccc	0x0046a2d3
   21704:	3f466352 	svccc	0x00466352
   21708:	3f4623c0 	svccc	0x004623c0
   2170c:	3f45e3fc 	svccc	0x0045e3fc
   21710:	3f45a427 	svccc	0x0045a427
   21714:	3f456441 	svccc	0x00456441
   21718:	3f452429 	svccc	0x00452429
   2171c:	3f44e3ef 	svccc	0x0044e3ef
   21720:	3f44a3a5 	svccc	0x0044a3a5
   21724:	3f446339 	svccc	0x00446339
   21728:	3f4422ab 	svccc	0x004422ab
   2172c:	3f43e1fc 	svccc	0x0043e1fc
   21730:	3f43a13c 	svccc	0x0043a13c
   21734:	3f43604a 	svccc	0x0043604a
   21738:	3f431f47 	svccc	0x00431f47
   2173c:	3f42de22 	svccc	0x0042de22
   21740:	3f429ced 	svccc	0x00429ced
   21744:	3f425b85 	svccc	0x00425b85
   21748:	3f421a0d 	svccc	0x00421a0d
   2174c:	3f41d873 	svccc	0x0041d873
   21750:	3f4196b7 	svccc	0x004196b7
   21754:	3f4154da 	svccc	0x004154da
   21758:	3f4112ec 	svccc	0x004112ec
   2175c:	3f40d0dd 	svccc	0x0040d0dd
   21760:	3f408eac 	svccc	0x00408eac
   21764:	3f404c59 	svccc	0x00404c59
   21768:	3f4009f6 	svccc	0x004009f6
   2176c:	3f3fc760 	svccc	0x003fc760
   21770:	3f3f84ba 	svccc	0x003f84ba
   21774:	3f3f4203 	svccc	0x003f4203
   21778:	3f3eff19 	svccc	0x003eff19
   2177c:	3f3ebc1f 	svccc	0x003ebc1f
   21780:	3f3e7903 	svccc	0x003e7903
   21784:	3f3e35c6 	svccc	0x003e35c6
   21788:	3f3df267 	svccc	0x003df267
   2178c:	3f3daef7 	svccc	0x003daef7
   21790:	3f3d6b66 	svccc	0x003d6b66
   21794:	3f3d27b3 	svccc	0x003d27b3
   21798:	3f3ce3ef 	svccc	0x003ce3ef
   2179c:	3f3ca00a 	svccc	0x003ca00a
   217a0:	3f3c5c03 	svccc	0x003c5c03
   217a4:	3f3c17db 	svccc	0x003c17db
   217a8:	3f3bd391 	svccc	0x003bd391
   217ac:	3f3b8f36 	svccc	0x003b8f36
   217b0:	3f3b4aba 	svccc	0x003b4aba
   217b4:	3f3b062d 	svccc	0x003b062d
   217b8:	3f3ac16e 	svccc	0x003ac16e
   217bc:	3f3a7c9e 	svccc	0x003a7c9e
   217c0:	3f3a37bd 	svccc	0x003a37bd
   217c4:	3f39f2aa 	svccc	0x0039f2aa
   217c8:	3f39ad86 	svccc	0x0039ad86
   217cc:	3f396840 	svccc	0x00396840
   217d0:	3f3922d9 	svccc	0x003922d9
   217d4:	3f38dd61 	svccc	0x0038dd61
   217d8:	3f3897c8 	svccc	0x003897c8
   217dc:	3f38521e 	svccc	0x0038521e
   217e0:	3f380c41 	svccc	0x00380c41
   217e4:	3f37c654 	svccc	0x0037c654
   217e8:	3f378045 	svccc	0x00378045
   217ec:	3f373a26 	svccc	0x00373a26
   217f0:	3f36f3e4 	svccc	0x0036f3e4
   217f4:	3f36ad82 	svccc	0x0036ad82
   217f8:	3f3666fd 	svccc	0x003666fd
   217fc:	3f362068 	svccc	0x00362068
   21800:	3f35d9b2 	svccc	0x0035d9b2
   21804:	3f3592ea 	svccc	0x003592ea
   21808:	3f354c01 	svccc	0x00354c01
   2180c:	3f3504f7 	svccc	0x003504f7
   21810:	3f34bdcb 	svccc	0x0034bdcb
   21814:	3f34768e 	svccc	0x0034768e
   21818:	3f342f30 	svccc	0x00342f30
   2181c:	3f33e7c0 	svccc	0x0033e7c0
   21820:	3f33a030 	svccc	0x0033a030
   21824:	3f33587d 	svccc	0x0033587d
   21828:	3f3310aa 	svccc	0x003310aa
   2182c:	3f32c8c5 	svccc	0x0032c8c5
   21830:	3f3280bf 	svccc	0x003280bf
   21834:	3f3238a8 	svccc	0x003238a8
   21838:	3f31f06f 	svccc	0x0031f06f
   2183c:	3f31a815 	svccc	0x0031a815
   21840:	3f315fab 	svccc	0x00315fab
   21844:	3f31171e 	svccc	0x0031171e
   21848:	3f30ce81 	svccc	0x0030ce81
   2184c:	3f3085c2 	svccc	0x003085c2
   21850:	3f303ce2 	svccc	0x00303ce2
   21854:	3f2ff3e0 	svccc	0x002ff3e0
   21858:	3f2faace 	svccc	0x002faace
   2185c:	3f2f61aa 	svccc	0x002f61aa
   21860:	3f2f1855 	svccc	0x002f1855
   21864:	3f2eceff 	svccc	0x002eceff
   21868:	3f2e8577 	svccc	0x002e8577
   2186c:	3f2e3bde 	svccc	0x002e3bde
   21870:	3f2df224 	svccc	0x002df224
   21874:	3f2da858 	svccc	0x002da858
   21878:	3f2d5e6c 	svccc	0x002d5e6c
   2187c:	3f2d146e 	svccc	0x002d146e
   21880:	3f2cca4f 	svccc	0x002cca4f
   21884:	3f2c800f 	svccc	0x002c800f
   21888:	3f2c35bd 	svccc	0x002c35bd
   2188c:	3f2beb4a 	svccc	0x002beb4a
   21890:	3f2ba0c7 	svccc	0x002ba0c7
   21894:	3f2b5621 	svccc	0x002b5621
   21898:	3f2b0b5b 	svccc	0x002b0b5b
   2189c:	3f2ac083 	svccc	0x002ac083
   218a0:	3f2a758a 	svccc	0x002a758a
   218a4:	3f2a2a80 	svccc	0x002a2a80
   218a8:	3f29df55 	svccc	0x0029df55
   218ac:	3f299418 	svccc	0x00299418
   218b0:	3f2948bb 	svccc	0x002948bb
   218b4:	3f28fd3b 	svccc	0x0028fd3b
   218b8:	3f28b1ab 	svccc	0x0028b1ab
   218bc:	3f28660a 	svccc	0x0028660a
   218c0:	3f281a48 	svccc	0x00281a48
   218c4:	3f27ce64 	svccc	0x0027ce64
   218c8:	3f27826f 	svccc	0x0027826f
   218cc:	3f273659 	svccc	0x00273659
   218d0:	3f26ea31 	svccc	0x0026ea31
   218d4:	3f269de9 	svccc	0x00269de9
   218d8:	3f26517e 	svccc	0x0026517e
   218dc:	3f260503 	svccc	0x00260503
   218e0:	3f25b878 	svccc	0x0025b878
   218e4:	3f256bca 	svccc	0x00256bca
   218e8:	3f251f0c 	svccc	0x00251f0c
   218ec:	3f24d22d 	svccc	0x0024d22d
   218f0:	3f24852b 	svccc	0x0024852b
   218f4:	3f243819 	svccc	0x00243819
   218f8:	3f23eae6 	svccc	0x0023eae6
   218fc:	3f239da1 	svccc	0x00239da1
   21900:	3f23504c 	svccc	0x0023504c
   21904:	3f2302d6 	svccc	0x002302d6
   21908:	3f22b53d 	svccc	0x0022b53d
   2190c:	3f226794 	svccc	0x00226794
   21910:	3f2219db 	svccc	0x002219db
   21914:	3f21cbff 	svccc	0x0021cbff
   21918:	3f217e02 	svccc	0x00217e02
   2191c:	3f212ff5 	svccc	0x00212ff5
   21920:	3f20e1d6 	svccc	0x0020e1d6
   21924:	3f209396 	svccc	0x00209396
   21928:	3f204535 	svccc	0x00204535
   2192c:	3f1ff6d3 	svccc	0x001ff6d3
   21930:	3f1fa83f 	svccc	0x001fa83f
   21934:	3f1f599b 	svccc	0x001f599b
   21938:	3f1f0ae5 	svccc	0x001f0ae5
   2193c:	3f1ebc0e 	svccc	0x001ebc0e
   21940:	3f1e6d26 	svccc	0x001e6d26
   21944:	3f1e1e1d 	svccc	0x001e1e1d
   21948:	3f1dcf03 	svccc	0x001dcf03
   2194c:	3f1d7fd8 	svccc	0x001d7fd8
   21950:	3f1d308c 	svccc	0x001d308c
   21954:	3f1ce11e 	svccc	0x001ce11e
   21958:	3f1c919f 	svccc	0x001c919f
   2195c:	3f1c420f 	svccc	0x001c420f
   21960:	3f1bf25e 	svccc	0x001bf25e
   21964:	3f1ba29c 	svccc	0x001ba29c
   21968:	3f1b52b9 	svccc	0x001b52b9
   2196c:	3f1b02c5 	svccc	0x001b02c5
   21970:	3f1ab2c0 	svccc	0x001ab2c0
   21974:	3f1a6299 	svccc	0x001a6299
   21978:	3f1a1251 	svccc	0x001a1251
   2197c:	3f19c1f8 	svccc	0x0019c1f8
   21980:	3f19718f 	svccc	0x0019718f
   21984:	3f192114 	svccc	0x00192114
   21988:	3f18d078 	svccc	0x0018d078
   2198c:	3f187fbb 	svccc	0x00187fbb
   21990:	3f182efd 	svccc	0x00182efd
   21994:	3f17de0d 	svccc	0x0017de0d
   21998:	3f178d1e 	svccc	0x00178d1e
   2199c:	3f173c0c 	svccc	0x00173c0c
   219a0:	3f16ead9 	svccc	0x0016ead9
   219a4:	3f1699a6 	svccc	0x001699a6
   219a8:	3f164841 	svccc	0x00164841
   219ac:	3f15f6dc 	svccc	0x0015f6dc
   219b0:	3f15a555 	svccc	0x0015a555
   219b4:	3f1553bd 	svccc	0x001553bd
   219b8:	3f150204 	svccc	0x00150204
   219bc:	3f14b03a 	svccc	0x0014b03a
   219c0:	3f145e5f 	svccc	0x00145e5f
   219c4:	3f140c63 	svccc	0x00140c63
   219c8:	3f13ba56 	svccc	0x0013ba56
   219cc:	3f136827 	svccc	0x00136827
   219d0:	3f1315e8 	svccc	0x001315e8
   219d4:	3f12c398 	svccc	0x0012c398
   219d8:	3f127137 	svccc	0x00127137
   219dc:	3f121eb4 	svccc	0x00121eb4
   219e0:	3f11cc21 	svccc	0x0011cc21
   219e4:	3f11796c 	svccc	0x0011796c
   219e8:	3f1126a6 	svccc	0x001126a6
   219ec:	3f10d3d0 	svccc	0x0010d3d0
   219f0:	3f1080d8 	svccc	0x001080d8
   219f4:	3f102dcf 	svccc	0x00102dcf
   219f8:	3f0fdab6 	svccc	0x000fdab6
   219fc:	3f0f878b 	svccc	0x000f878b
   21a00:	3f0f3440 	svccc	0x000f3440
   21a04:	3f0ee0e3 	svccc	0x000ee0e3
   21a08:	3f0e8d65 	svccc	0x000e8d65
   21a0c:	3f0e39d6 	svccc	0x000e39d6
   21a10:	3f0de636 	svccc	0x000de636
   21a14:	3f0d9286 	svccc	0x000d9286
   21a18:	3f0d3eb4 	svccc	0x000d3eb4
   21a1c:	3f0cead1 	svccc	0x000cead1
   21a20:	3f0c96dd 	svccc	0x000c96dd
   21a24:	3f0c42c8 	svccc	0x000c42c8
   21a28:	3f0beea2 	svccc	0x000beea2
   21a2c:	3f0b9a6b 	svccc	0x000b9a6b
   21a30:	3f0b4624 	svccc	0x000b4624
   21a34:	3f0af1bb 	svccc	0x000af1bb
   21a38:	3f0a9d41 	svccc	0x000a9d41
   21a3c:	3f0a48a6 	svccc	0x000a48a6
   21a40:	3f09f40a 	svccc	0x0009f40a
   21a44:	3f099f4d 	svccc	0x00099f4d
   21a48:	3f094a80 	svccc	0x00094a80
   21a4c:	3f08f5a1 	svccc	0x0008f5a1
   21a50:	3f08a0a1 	svccc	0x0008a0a1
   21a54:	3f084b90 	svccc	0x00084b90
   21a58:	3f07f66f 	svccc	0x0007f66f
   21a5c:	3f07a13c 	svccc	0x0007a13c
   21a60:	3f074be8 	svccc	0x00074be8
   21a64:	3f06f683 	svccc	0x0006f683
   21a68:	3f06a10e 	svccc	0x0006a10e
   21a6c:	3f064b88 	svccc	0x00064b88
   21a70:	3f05f5e0 	svccc	0x0005f5e0
   21a74:	3f05a027 	svccc	0x0005a027
   21a78:	3f054a5e 	svccc	0x00054a5e
   21a7c:	3f04f484 	svccc	0x0004f484
   21a80:	3f049e99 	svccc	0x00049e99
   21a84:	3f04488c 	svccc	0x0004488c
   21a88:	3f03f26f 	svccc	0x0003f26f
   21a8c:	3f039c41 	svccc	0x00039c41
   21a90:	3f0345f1 	svccc	0x000345f1
   21a94:	3f02efa2 	svccc	0x0002efa2
   21a98:	3f029931 	svccc	0x00029931
   21a9c:	3f0242af 	svccc	0x000242af
   21aa0:	3f01ec1c 	svccc	0x0001ec1c
   21aa4:	3f019579 	svccc	0x00019579
   21aa8:	3f013eb4 	svccc	0x00013eb4
   21aac:	3f00e7de 	svccc	0x0000e7de
   21ab0:	3f0090f7 	svccc	0x000090f7
   21ab4:	3f003a00 	svccc	0x00003a00
   21ab8:	3effc5ef 	cdpcc	5, 15, cr12, cr15, cr15, {7}
   21abc:	3eff17be 	mrccc	7, 7, r1, cr15, cr14, {5}
   21ac0:	3efe6949 			; <UNDEFINED> instruction: 0x3efe6949
   21ac4:	3efdbab2 			; <UNDEFINED> instruction: 0x3efdbab2
   21ac8:	3efd0bfa 	vmovcc.u8	r0, d29[7]
   21acc:	3efc5d20 	cdpcc	13, 15, cr5, cr12, cr0, {1}
   21ad0:	3efbae25 	cdpcc	14, 15, cr10, cr11, cr5, {1}
   21ad4:	3efafee7 	cdpcc	14, 15, cr15, cr10, cr7, {7}
   21ad8:	3efa4fa9 	cdpcc	15, 15, cr4, cr10, cr9, {5}
   21adc:	3ef9a027 	cdpcc	0, 15, cr10, cr9, cr7, {1}
   21ae0:	3ef8f084 	cdpcc	0, 15, cr15, cr8, cr4, {4}
   21ae4:	3ef840c0 	cdpcc	0, 15, cr4, cr8, cr0, {6}
   21ae8:	3ef790da 	mrccc	0, 7, r9, cr7, cr10, {6}
   21aec:	3ef6e0d2 	mrccc	0, 7, lr, cr6, cr2, {6}
   21af0:	3ef63088 	cdpcc	0, 15, cr3, cr6, cr8, {4}
   21af4:	3ef5803d 	mrccc	0, 7, r8, cr5, cr13, {1}
   21af8:	3ef4cfaf 	cdpcc	15, 15, cr12, cr4, cr15, {5}
   21afc:	3ef41f00 	cdpcc	15, 15, cr1, cr4, cr0, {0}
   21b00:	3ef36e2f 	cdpcc	14, 15, cr6, cr3, cr15, {1}
   21b04:	3ef2bd3c 	mrccc	13, 7, fp, cr2, cr12, {1}
   21b08:	3ef20c28 	cdpcc	12, 15, cr0, cr2, cr8, {1}
   21b0c:	3ef15af3 			; <UNDEFINED> instruction: 0x3ef15af3
   21b10:	3ef0a97a 			; <UNDEFINED> instruction: 0x3ef0a97a
   21b14:	3eeff801 	cdpcc	8, 14, cr15, cr15, cr1, {0}
   21b18:	3eef4645 	cdpcc	6, 14, cr4, cr15, cr5, {2}
   21b1c:	3eee948a 	cdpcc	4, 14, cr9, cr14, cr10, {4}
   21b20:	3eede28b 	cdpcc	2, 14, cr14, cr13, cr11, {4}
   21b24:	3eed306a 	cdpcc	0, 14, cr3, cr13, cr10, {3}
   21b28:	3eec7e28 	cdpcc	14, 14, cr7, cr12, cr8, {1}
   21b2c:	3eebcbc5 	vfmscc.f64	d28, d27, d5
   21b30:	3eeb193f 			; <UNDEFINED> instruction: 0x3eeb193f
   21b34:	3eea6677 	mcrcc	6, 7, r6, cr10, cr7, {3}
   21b38:	3ee9b3af 	cdpcc	3, 14, cr11, cr9, cr15, {5}
   21b3c:	3ee900c5 	cdpcc	0, 14, cr0, cr9, cr5, {6}
   21b40:	3ee84d98 	mcrcc	13, 7, r4, cr8, cr8, {4}
   21b44:	3ee79a6b 	vfmscc.f32	s19, s14, s23
   21b48:	3ee6e6fb 	mcrcc	6, 7, lr, cr6, cr11, {7}
   21b4c:	3ee6336a 	cdpcc	3, 14, cr3, cr6, cr10, {3}
   21b50:	3ee57fd8 	mcrcc	15, 7, r7, cr5, cr8, {6}
   21b54:	3ee4cc03 	cdpcc	12, 14, cr12, cr4, cr3, {0}
   21b58:	3ee4180d 	cdpcc	8, 14, cr1, cr4, cr13, {0}
   21b5c:	3ee363f5 	mcrcc	3, 7, r6, cr3, cr5, {7}
   21b60:	3ee2afbc 	mcrcc	15, 7, sl, cr2, cr12, {5}
   21b64:	3ee1fb61 	vfmscc.f64	d31, d1, d17
   21b68:	3ee146e5 	cdpcc	6, 14, cr4, cr1, cr5, {7}
   21b6c:	3ee09247 	cdpcc	2, 14, cr9, cr0, cr7, {2}
   21b70:	3edfdd87 	cdpcc	13, 13, cr13, cr15, cr7, {4}
   21b74:	3edf28a6 	cdpcc	8, 13, cr2, cr15, cr6, {5}
   21b78:	3ede73a3 	cdpcc	3, 13, cr7, cr14, cr3, {5}
   21b7c:	3eddbe7f 	mrccc	14, 6, fp, cr13, cr15, {3}
   21b80:	3edd0939 			; <UNDEFINED> instruction: 0x3edd0939
   21b84:	3edc53b1 	mrccc	3, 6, r5, cr12, cr1, {5}
   21b88:	3edb9e28 	cdpcc	14, 13, cr9, cr11, cr8, {1}
   21b8c:	3edae87d 	mrccc	8, 6, lr, cr10, cr13, {3}
   21b90:	3eda32b1 	mrccc	2, 6, r3, cr10, cr1, {5}
   21b94:	3ed97cc4 	cdpcc	12, 13, cr7, cr9, cr4, {6}
   21b98:	3ed8c693 	mrccc	6, 6, ip, cr8, cr3, {4}
   21b9c:	3ed81062 	cdpcc	0, 13, cr1, cr8, cr2, {3}
   21ba0:	3ed75a10 			; <UNDEFINED> instruction: 0x3ed75a10
   21ba4:	3ed6a39c 	mrccc	3, 6, sl, cr6, cr12, {4}
   21ba8:	3ed5ed07 	cdpcc	13, 13, cr14, cr5, cr7, {0}
   21bac:	3ed53650 	mrccc	6, 6, r3, cr5, cr0, {2}
   21bb0:	3ed47f56 	mrccc	15, 6, r7, cr4, cr6, {2}
   21bb4:	3ed3c85c 	mrccc	8, 6, ip, cr3, cr12, {2}
   21bb8:	3ed31141 	cdpcc	1, 13, cr1, cr3, cr1, {2}
   21bbc:	3ed25a04 	vfnmscc.f32	s11, s4, s8
   21bc0:	3ed1a2a5 	cdpcc	2, 13, cr10, cr1, cr5, {5}
   21bc4:	3ed0eb25 	vfnmscc.f64	d30, d0, d21
   21bc8:	3ed03383 	cdpcc	3, 13, cr3, cr0, cr3, {4}
   21bcc:	3ecf7bc0 			; <UNDEFINED> instruction: 0x3ecf7bc0
   21bd0:	3ecec3db 	mcrcc	3, 6, ip, cr14, cr11, {6}
   21bd4:	3ece0bf6 			; <UNDEFINED> instruction: 0x3ece0bf6
   21bd8:	3ecd53ce 	cdpcc	3, 12, cr5, cr13, cr14, {6}
   21bdc:	3ecc9b84 	vdivcc.f64	d25, d28, d4
   21be0:	3ecbe33b 	mcrcc	3, 6, lr, cr11, cr11, {1}
   21be4:	3ecb2aae 	vdivcc.f32	s5, s23, s29
   21be8:	3eca7200 	cdpcc	2, 12, cr7, cr10, cr0, {0}
   21bec:	3ec9b952 			; <UNDEFINED> instruction: 0x3ec9b952
   21bf0:	3ec90082 	cdpcc	0, 12, cr0, cr9, cr2, {4}
   21bf4:	3ec8476f 	cdpcc	7, 12, cr4, cr8, cr15, {3}
   21bf8:	3ec78e5c 	mcrcc	14, 6, r8, cr7, cr12, {2}
   21bfc:	3ec6d528 	cdpcc	5, 12, cr13, cr6, cr8, {1}
   21c00:	3ec61bd2 			; <UNDEFINED> instruction: 0x3ec61bd2
   21c04:	3ec5625a 	mcrcc	2, 6, r6, cr5, cr10, {2}
   21c08:	3ec4a8c1 	cdpcc	8, 12, cr10, cr4, cr1, {6}
   21c0c:	3ec3ef07 	cdpcc	15, 12, cr14, cr3, cr7, {0}
   21c10:	3ec3354c 	cdpcc	5, 12, cr3, cr3, cr12, {2}
   21c14:	3ec27b4e 			; <UNDEFINED> instruction: 0x3ec27b4e
   21c18:	3ec1c151 	mcrcc	1, 6, ip, cr1, cr1, {2}
   21c1c:	3ec10710 	mcrcc	7, 6, r0, cr1, cr0, {0}
   21c20:	3ec04ccf 	cdpcc	12, 12, cr4, cr0, cr15, {6}
   21c24:	3ebf926c 	cdpcc	2, 11, cr9, cr15, cr12, {3}
   21c28:	3ebed7e9 	cdpcc	7, 11, cr13, cr14, cr9, {7}
   21c2c:	3ebe1d43 	cdpcc	13, 11, cr1, cr14, cr3, {2}
   21c30:	3ebd627c 	mrccc	2, 5, r6, cr13, cr12, {3}
   21c34:	3ebca7b5 	mrccc	7, 5, sl, cr12, cr5, {5}
   21c38:	3ebbecab 	cdpcc	12, 11, cr14, cr11, cr11, {5}
   21c3c:	3ebb31a1 	frdcc<illegal precision>p	f3, f3, f1
   21c40:	3eba7675 	mrccc	6, 5, r7, cr10, cr5, {3}
   21c44:	3eb9bb28 			; <UNDEFINED> instruction: 0x3eb9bb28
   21c48:	3eb8ffb9 	mrccc	15, 5, APSR_nzcv, cr8, cr9, {5}
   21c4c:	3eb84428 	cdpcc	4, 11, cr4, cr8, cr8, {1}
   21c50:	3eb78876 	mrccc	8, 5, r8, cr7, cr6, {3}
   21c54:	3eb6ccc4 	cdpcc	12, 11, cr12, cr6, cr4, {6}
   21c58:	3eb610f1 	mrccc	0, 5, r1, cr6, cr1, {7}
   21c5c:	3eb554fc 	mrccc	4, 5, r5, cr5, cr12, {7}
   21c60:	3eb498e5 	cdpcc	8, 11, cr9, cr4, cr5, {7}
   21c64:	3eb3dcad 	cdpcc	12, 11, cr13, cr3, cr13, {5}
   21c68:	3eb32053 	mrccc	0, 5, r2, cr3, cr3, {2}
   21c6c:	3eb263fa 	mrccc	3, 5, r6, cr2, cr10, {7}
   21c70:	3eb1a75d 	mrccc	7, 5, sl, cr1, cr13, {2}
   21c74:	3eb0eac0 	vabscc.f32	s28, s0
   21c78:	3eb02e02 	cdpcc	14, 11, cr2, cr0, cr2, {0}
   21c7c:	3eaf7143 	fdvccem	f7, f7, f3
   21c80:	3eaeb442 	cdpcc	4, 10, cr11, cr14, cr2, {2}
   21c84:	3eadf740 	cdpcc	7, 10, cr15, cr13, cr0, {2}
   21c88:	3ead3a1d 			; <UNDEFINED> instruction: 0x3ead3a1d
   21c8c:	3eac7cd9 	mcrcc	12, 5, r7, cr12, cr9, {6}
   21c90:	3eabbf72 	mcrcc	15, 5, fp, cr11, cr2, {3}
   21c94:	3eab020c 	cdpcc	2, 10, cr0, cr11, cr12, {0}
   21c98:	3eaa4463 	cdpcc	4, 10, cr4, cr10, cr3, {3}
   21c9c:	3ea986ba 	mcrcc	6, 5, r8, cr9, cr10, {5}
   21ca0:	3ea8c8ef 	cdpcc	8, 10, cr12, cr8, cr15, {7}
   21ca4:	3ea80b24 	vfmacc.f64	d0, d8, d20
   21ca8:	3ea74d16 	mcrcc	13, 5, r4, cr7, cr6, {0}
   21cac:	3ea68f08 	cdpcc	15, 10, cr8, cr6, cr8, {0}
   21cb0:	3ea5d0d9 	mcrcc	0, 5, sp, cr5, cr9, {6}
   21cb4:	3ea512a9 	cdpcc	2, 10, cr1, cr5, cr9, {5}
   21cb8:	3ea45437 	mcrcc	4, 5, r5, cr4, cr7, {1}
   21cbc:	3ea395c4 	cdpcc	5, 10, cr9, cr3, cr4, {6}
   21cc0:	3ea2d730 	mcrcc	7, 5, sp, cr2, cr0, {1}
   21cc4:	3ea2187a 	mcrcc	8, 5, r1, cr2, cr10, {3}
   21cc8:	3ea159c5 	vfmscc.f16	s10, s3, s10	; <UNPREDICTABLE>
   21ccc:	3ea09aed 	vfmscc.f32	s18, s1, s27
   21cd0:	3e9fdbf5 	vmovcc.u16	sp, d31[1]
   21cd4:	3e9f1cda 	mrccc	12, 4, r1, cr15, cr10, {6}
   21cd8:	3e9e5dc0 	cdpcc	13, 9, cr5, cr14, cr0, {6}
   21cdc:	3e9d9e84 	cdpcc	14, 9, cr9, cr13, cr4, {4}
   21ce0:	3e9cdf26 	cdpcc	15, 9, cr13, cr12, cr6, {1}
   21ce4:	3e9c1fa7 	cdpcc	15, 9, cr1, cr12, cr7, {5}
   21ce8:	3e9b6028 	cdpcc	0, 9, cr6, cr11, cr8, {1}
   21cec:	3e9aa088 	cdpcc	0, 9, cr10, cr10, cr8, {4}
   21cf0:	3e99e0c6 	cdpcc	0, 9, cr14, cr9, cr6, {6}
   21cf4:	3e992104 	fmlcce	f2, f1, f4
   21cf8:	3e986120 	fmlccep	f6, f0, f0
   21cfc:	3e97a11b 	mrccc	1, 4, sl, cr7, cr11, {0}
   21d00:	3e96e0f4 	mrccc	0, 4, lr, cr6, cr4, {7}
   21d04:	3e9620cd 	cdpcc	0, 9, cr2, cr6, cr13, {6}
   21d08:	3e956085 	cdpcc	0, 9, cr6, cr5, cr5, {4}
   21d0c:	3e94a03c 	mrccc	0, 4, sl, cr4, cr12, {1}
   21d10:	3e93dfb1 	mrccc	15, 4, sp, cr3, cr1, {5}
   21d14:	3e931f25 	cdpcc	15, 9, cr1, cr3, cr5, {1}
   21d18:	3e925e9a 	mrccc	14, 4, r5, cr2, cr10, {4}
   21d1c:	3e919ded 	cdpcc	13, 9, cr9, cr1, cr13, {7}
   21d20:	3e90dd1e 	mrccc	13, 4, sp, cr0, cr14, {0}
   21d24:	3e901c2e 	cdpcc	12, 9, cr1, cr0, cr14, {1}
   21d28:	3e8f5b3e 			; <UNDEFINED> instruction: 0x3e8f5b3e
   21d2c:	3e8e9a2c 	vdivcc.f32	s18, s28, s25
   21d30:	3e8dd8f9 	mcrcc	8, 4, sp, cr13, cr9, {7}
   21d34:	3e8d17c6 	cdpcc	7, 8, cr1, cr13, cr6, {6}
   21d38:	3e8c5671 	mcrcc	6, 4, r5, cr12, cr1, {3}
   21d3c:	3e8b94fb 	mcrcc	4, 4, r9, cr11, cr11, {7}
   21d40:	3e8ad384 	cdpcc	3, 8, cr13, cr10, cr4, {4}
   21d44:	3e8a11ed 	rmfcc<illegal precision>z	f1, f2, #5.0
   21d48:	3e895055 	mcrcc	0, 4, r5, cr9, cr5, {2}
   21d4c:	3e888e9b 	mcrcc	14, 4, r8, cr8, cr11, {4}
   21d50:	3e87ccc0 	cdpcc	12, 8, cr12, cr7, cr0, {6}
   21d54:	3e870ae5 			; <UNDEFINED> instruction: 0x3e870ae5
   21d58:	3e8648e9 	cdpcc	8, 8, cr4, cr6, cr9, {7}
   21d5c:	3e8586cb 	cdpcc	6, 8, cr8, cr5, cr11, {6}
   21d60:	3e84c4ac 	cdpcc	4, 8, cr12, cr4, cr12, {5}
   21d64:	3e84026d 	cdpcc	2, 8, cr0, cr4, cr13, {3}
   21d68:	3e83402d 	cdpcc	0, 8, cr4, cr3, cr13, {1}
   21d6c:	3e827dcc 	cdpcc	13, 8, cr7, cr2, cr12, {6}
   21d70:	3e81bb49 			; <UNDEFINED> instruction: 0x3e81bb49
   21d74:	3e80f8c6 	cdpcc	8, 8, cr15, cr0, cr6, {6}
   21d78:	3e803622 	cdpcc	6, 8, cr3, cr0, cr2, {1}
   21d7c:	3e7ee6fb 	mrccc	6, 3, lr, cr14, cr11, {7}
   21d80:	3e7d6170 	mrccc	1, 3, r6, cr13, cr0, {3}
   21d84:	3e7bdba1 	vaddcc.f64	d29, d27, d17
   21d88:	3e7a55d2 	mrccc	5, 3, r5, cr10, cr2, {6}
   21d8c:	3e78cfc0 	cdpcc	15, 7, cr12, cr8, cr0, {6}
   21d90:	3e7749ae 	vaddcc.f16	s9, s15, s29	; <UNPREDICTABLE>
   21d94:	3e75c359 	mrccc	3, 3, ip, cr5, cr9, {2}
   21d98:	3e743d04 	cdpcc	13, 7, cr3, cr4, cr4, {0}
   21d9c:	3e72b66b 	cdpcc	6, 7, cr11, cr2, cr11, {3}
   21da0:	3e712f90 	mrccc	15, 3, r2, cr1, cr0, {4}
   21da4:	3e6fa8b5 	mcrcc	8, 3, sl, cr15, cr5, {5}
   21da8:	3e6e2196 	mcrcc	1, 3, r2, cr14, cr6, {4}
   21dac:	3e6c9a78 			; <UNDEFINED> instruction: 0x3e6c9a78
   21db0:	3e6b1316 	mcrcc	3, 3, r1, cr11, cr6, {0}
   21db4:	3e698bb5 	vmovcc.8	d25[5], r8
   21db8:	3e680410 	mcrcc	4, 3, r0, cr8, cr0, {0}
   21dbc:	3e667c6c 	cdpcc	12, 6, cr7, cr6, cr12, {3}
   21dc0:	3e64f484 	cdpcc	4, 6, cr15, cr4, cr4, {4}
   21dc4:	3e636c9c 	mcrcc	12, 3, r6, cr3, cr12, {4}
   21dc8:	3e61e471 	mcrcc	4, 3, lr, cr1, cr1, {3}
   21dcc:	3e605c03 	cdpcc	12, 6, cr5, cr0, cr3, {0}
   21dd0:	3e5ed395 	mrccc	3, 2, sp, cr14, cr5, {4}
   21dd4:	3e5d4b27 	vnmlscc.f64	d20, d13, d23
   21dd8:	3e5bc276 	mrccc	2, 2, ip, cr11, cr6, {3}
   21ddc:	3e5a3982 	vnmlscc.f16	s7, s21, s4	; <UNPREDICTABLE>
   21de0:	3e58b08e 	cdpcc	0, 5, cr11, cr8, cr14, {4}
   21de4:	3e57279a 	mrccc	7, 2, r2, cr7, cr10, {4}
   21de8:	3e559e62 	cdpcc	14, 5, cr9, cr5, cr2, {3}
   21dec:	3e5414e8 	cdpcc	4, 5, cr1, cr4, cr8, {7}
   21df0:	3e528b6e 	vnmlacc.f64	d24, d2, d30
   21df4:	3e5101f3 	mrccc	1, 2, r0, cr1, cr3, {7}
   21df8:	3e4f7836 	mcrcc	8, 2, r7, cr15, cr6, {1}
   21dfc:	3e4dee78 	mcrcc	14, 2, lr, cr13, cr8, {3}
   21e00:	3e4c6477 	mcrcc	4, 2, r6, cr12, cr7, {3}
   21e04:	3e4ada34 			; <UNDEFINED> instruction: 0x3e4ada34
   21e08:	3e495033 	mcrcc	0, 2, r5, cr9, cr3, {1}
   21e0c:	3e47c5ac 	cdpcc	5, 4, cr12, cr7, cr12, {5}
   21e10:	3e463b69 	vmlscc.f64	d19, d6, d25
   21e14:	3e44b09f 	mcrcc	0, 2, fp, cr4, cr15, {4}
   21e18:	3e432618 	mcrcc	6, 2, r2, cr3, cr8, {0}
   21e1c:	3e419b4e 	vmlscc.f64	d25, d1, d14
   21e20:	3e401041 	cdpcc	0, 4, cr1, cr0, cr1, {2}
   21e24:	3e3e8534 	mrccc	5, 1, r8, cr14, cr4, {1}
   21e28:	3e3cfa27 	vaddcc.f32	s30, s24, s15
   21e2c:	3e3b6ed6 	mrccc	14, 1, r6, cr11, cr6, {6}
   21e30:	3e39e386 	cdpcc	3, 3, cr14, cr9, cr6, {4}
   21e34:	3e3857f3 	mrccc	7, 1, r5, cr8, cr3, {7}
   21e38:	3e36cc60 	cdpcc	12, 3, cr12, cr6, cr0, {3}
   21e3c:	3e354089 	cdpcc	0, 3, cr4, cr5, cr9, {4}
   21e40:	3e33b4b3 	mrccc	4, 1, fp, cr3, cr3, {5}
   21e44:	3e3228dd 	mrccc	8, 1, r2, cr2, cr13, {6}
   21e48:	3e309cc3 	cdpcc	12, 3, cr9, cr0, cr3, {6}
   21e4c:	3e2f10aa 	cdpcc	0, 2, cr1, cr15, cr10, {5}
   21e50:	3e2d844d 	cdpcc	4, 2, cr8, cr13, cr13, {2}
   21e54:	3e2bf7f0 	mcrcc	7, 1, pc, cr11, cr0, {7}	; <UNPREDICTABLE>
   21e58:	3e2a6b94 	vmovcc.32	d26[1], r6
   21e5c:	3e28def4 	mcrcc	14, 1, sp, cr8, cr4, {7}
   21e60:	3e275254 	mcrcc	2, 1, r5, cr7, cr4, {2}
   21e64:	3e25c572 	mcrcc	5, 1, ip, cr5, cr2, {3}
   21e68:	3e24388f 	cdpcc	8, 2, cr3, cr4, cr15, {4}
   21e6c:	3e22abac 	vmulcc.f64	d10, d18, d28
   21e70:	3e211e86 	cdpcc	14, 2, cr1, cr1, cr6, {4}
   21e74:	3e1f9160 	mnfccez	f1, f0
   21e78:	3e1e043a 	mrccc	4, 0, r0, cr14, cr10, {1}
   21e7c:	3e1c76d1 	mrccc	6, 0, r7, cr12, cr1, {6}
   21e80:	3e1ae968 	vnmlacc.f16	s28, s20, s17	; <UNPREDICTABLE>
   21e84:	3e195bff 	vmovcc.s16	r5, d25[1]
   21e88:	3e17ce53 	mrccc	14, 0, ip, cr7, cr3, {2}
   21e8c:	3e164064 	cdpcc	0, 1, cr4, cr6, cr4, {3}
   21e90:	3e14b2b7 	mrccc	2, 0, fp, cr4, cr7, {5}
   21e94:	3e1324c8 	cdpcc	4, 1, cr2, cr3, cr8, {6}
   21e98:	3e1196d9 	mrccc	6, 0, r9, cr1, cr9, {6}
   21e9c:	3e1008a7 	cdpcc	8, 1, cr0, cr0, cr7, {5}
   21ea0:	3e0e7a74 			; <UNDEFINED> instruction: 0x3e0e7a74
   21ea4:	3e0cec42 	cdpcc	12, 0, cr14, cr12, cr2, {2}
   21ea8:	3e0b5e0f 	cdpcc	14, 0, cr5, cr11, cr15, {0}
   21eac:	3e09cf9a 	mcrcc	15, 0, ip, cr9, cr10, {4}
   21eb0:	3e084125 	adfccep	f4, f0, f5
   21eb4:	3e06b26c 	cdpcc	2, 0, cr11, cr6, cr12, {3}
   21eb8:	3e0523b3 	mcrcc	3, 0, r2, cr5, cr3, {5}
   21ebc:	3e0394fb 	mcrcc	4, 0, r9, cr3, cr11, {7}
   21ec0:	3e020642 	cfmadd32cc	mvax2, mvfx0, mvfx2, mvfx2
   21ec4:	3e007747 	cdpcc	7, 0, cr7, cr0, cr7, {2}
   21ec8:	3dfdd096 	ldclcc	0, cr13, [sp, #600]!	; 0x258
   21ecc:	3dfab29e 	lfmcc	f3, 3, [sl, #632]!	; 0x278
   21ed0:	3df79421 	cfldrdcc	mvd9, [r7, #132]!	; 0x84
   21ed4:	3df475a3 	cfldr64cc	mvdx7, [r4, #652]!	; 0x28c
   21ed8:	3df15726 	ldclcc	7, cr5, [r1, #152]!	; 0x98
   21edc:	3dee38a8 	stclcc	8, cr3, [lr, #672]!	; 0x2a0
   21ee0:	3deb19a4 			; <UNDEFINED> instruction: 0x3deb19a4
   21ee4:	3de7faa0 			; <UNDEFINED> instruction: 0x3de7faa0
   21ee8:	3de4db9c 			; <UNDEFINED> instruction: 0x3de4db9c
   21eec:	3de1bc12 	stclcc	12, cr11, [r1, #72]!	; 0x48
   21ef0:	3dde9c88 	ldclcc	12, cr9, [lr, #544]	; 0x220
   21ef4:	3ddb7cfe 	ldclcc	12, cr7, [fp, #1016]	; 0x3f8
   21ef8:	3dd85d74 	ldclcc	13, cr5, [r8, #464]	; 0x1d0
   21efc:	3dd53dea 	ldclcc	13, cr3, [r5, #936]	; 0x3a8
   21f00:	3dd21dda 	ldclcc	13, cr1, [r2, #872]	; 0x368
   21f04:	3dcefdca 	stclcc	13, cr15, [lr, #808]	; 0x328
   21f08:	3dcbddba 	stclcc	13, cr13, [fp, #744]	; 0x2e8
   21f0c:	3dc8bd23 	stclcc	13, cr11, [r8, #140]	; 0x8c
   21f10:	3dc59c8d 	stclcc	12, cr9, [r5, #564]	; 0x234
   21f14:	3dc27bf6 	vstrcc	d23, [r2, #984]	; 0x3d8
   21f18:	3dbf5b60 			; <UNDEFINED> instruction: 0x3dbf5b60
   21f1c:	3dbc3ac9 			; <UNDEFINED> instruction: 0x3dbc3ac9
   21f20:	3db919ac 			; <UNDEFINED> instruction: 0x3db919ac
   21f24:	3db5f916 			; <UNDEFINED> instruction: 0x3db5f916
   21f28:	3db2d7f9 	ldccc	7, cr13, [r2, #996]!	; 0x3e4
   21f2c:	3dafb656 	stccc	6, cr11, [pc, #344]!	; 2208c <vsintable+0x2080>
   21f30:	3dac953a 	cfstr32cc	mvfx9, [ip, #232]!	; 0xe8
   21f34:	3da97397 	stccc	3, cr7, [r9, #604]!	; 0x25c
   21f38:	3da651f4 	stfccs	f5, [r6, #976]!	; 0x3d0
   21f3c:	3da33051 	stccc	0, cr3, [r3, #324]!	; 0x144
   21f40:	3da00eae 	stccc	14, cr0, [r0, #696]!	; 0x2b8
   21f44:	3d9ced0b 	ldccc	13, cr14, [ip, #44]	; 0x2c
   21f48:	3d99cae2 	vldrcc	s24, [r9, #904]	; 0x388
   21f4c:	3d96a93f 	vldrcc.16	s20, [r6, #126]	; 0x7e	; <UNPREDICTABLE>
   21f50:	3d938716 	ldccc	7, cr8, [r3, #88]	; 0x58
   21f54:	3d9064ed 	cfldrscc	mvf6, [r0, #948]	; 0x3b4
   21f58:	3d8d423e 	sfmcc	f4, 4, [sp, #248]	; 0xf8
   21f5c:	3d8a2014 	stccc	0, cr2, [sl, #80]	; 0x50
   21f60:	3d86fd65 	stccc	13, cr15, [r6, #404]	; 0x194
   21f64:	3d83db3c 	vstrcc	d13, [r3, #240]	; 0xf0
   21f68:	3d80b88d 	stccc	8, cr11, [r0, #564]	; 0x234
   21f6c:	3d7b2bbb 	fldmdbxcc	fp!, {d18-d110}	;@ Deprecated
   21f70:	3d74e65c 	ldclcc	6, cr14, [r4, #-368]!	; 0xfffffe90
   21f74:	3d6e9ff1 	stclcc	15, cr9, [lr, #-964]!	; 0xfffffc3c
   21f78:	3d685a92 	vstmdbcc	r8!, {s11-s156}
   21f7c:	3d621427 	cfstrdcc	mvd1, [r2, #-156]!	; 0xffffff64
   21f80:	3d5bcec8 	ldclcc	14, cr12, [fp, #-800]	; 0xfffffce0
   21f84:	3d55885d 	ldclcc	8, cr8, [r5, #-372]	; 0xfffffe8c
   21f88:	3d4f41f2 	stfcce	f4, [pc, #-968]	; 21bc8 <vsintable+0x1bbc>
   21f8c:	3d48fb87 	vstrcc	d31, [r8, #-540]	; 0xfffffde4
   21f90:	3d42b40f 	cfstrdcc	mvd11, [r2, #-60]	; 0xffffffc4
   21f94:	3d3c6da4 	ldccc	13, cr6, [ip, #-656]!	; 0xfffffd70
   21f98:	3d362739 	ldccc	7, cr2, [r6, #-228]!	; 0xffffff1c
   21f9c:	3d2fdfc2 	stccc	15, cr13, [pc, #-776]!	; 21c9c <vsintable+0x1c90>
   21fa0:	3d299956 			; <UNDEFINED> instruction: 0x3d299956
   21fa4:	3d2351df 	stfccs	f5, [r3, #-892]!	; 0xfffffc84
   21fa8:	3d1d0a67 	vldrcc	s0, [sp, #-412]	; 0xfffffe64
   21fac:	3d16c2f0 	lfmcc	f4, 1, [r6, #-960]	; 0xfffffc40
   21fb0:	3d107b78 	vldrcc	d7, [r0, #-480]	; 0xfffffe20
   21fb4:	3d0a3401 	cfstrscc	mvf3, [sl, #-4]
   21fb8:	3d03ec89 	stccc	12, cr14, [r3, #-548]	; 0xfffffddc
   21fbc:	3cfb4a23 	vldmiacc	fp!, {s9-s43}
   21fc0:	3ceebb34 	vstmiacc	lr!, {d27-<overflow reg d52>}
   21fc4:	3ce22a2c 	vstmiacc	r2!, {s5-s48}
   21fc8:	3cd59b3d 	fldmiaxcc	r5, {d25-d54}	;@ Deprecated
   21fcc:	3cc90a35 	vstmiacc	r9, {s1-s53}
   21fd0:	3cbc7b46 	vldmiacc	ip!, {d7-<overflow reg d41>}
   21fd4:	3cafea3e 	vstmiacc	pc!, {s28-s89}
   21fd8:	3ca35936 			; <UNDEFINED> instruction: 0x3ca35936
   21fdc:	3c96ca47 	vldmiacc	r6, {s24-s94}
   21fe0:	3c8a393f 			; <UNDEFINED> instruction: 0x3c8a393f
   21fe4:	3c7b506e 	ldclcc	0, cr5, [fp], #-440	; 0xfffffe48
   21fe8:	3c622e5e 	stclcc	14, cr2, [r2], #-376	; 0xfffffe88
   21fec:	3c491080 	mcrrcc	0, 8, r1, r9, cr0
   21ff0:	3c2fee70 	stccc	14, cr14, [pc], #-448	; 21e38 <vsintable+0x1e2c>
   21ff4:	3c16cc60 	ldccc	12, cr12, [r6], {96}	; 0x60
   21ff8:	3bfb54a0 	blcc	ffef7280 <mailbox_data+0xffebeb80>
   21ffc:	3bc91080 	blcc	ff266204 <mailbox_data+0xff22db04>
   22000:	3b96cc60 	blcc	fe5d5188 <mailbox_data+0xfe59ca88>
   22004:	3b491080 	blcc	126620c <mailbox_data+0x122db0c>
   22008:	3ac91080 	bcc	ff266210 <mailbox_data+0xff22db10>
   2200c:	00000000 	andeq	r0, r0, r0
   22010:	bac91080 	blt	ff266218 <mailbox_data+0xff22db18>
   22014:	bb491080 	bllt	126621c <mailbox_data+0x122db1c>
   22018:	bb96cc60 	bllt	fe5d51a0 <mailbox_data+0xfe59caa0>
   2201c:	bbc91080 	bllt	ff266224 <mailbox_data+0xff22db24>
   22020:	bbfb54a0 	bllt	ffef72a8 <mailbox_data+0xffebeba8>
   22024:	bc16cc60 	ldclt	12, cr12, [r6], {96}	; 0x60
   22028:	bc2fee70 	stclt	14, cr14, [pc], #-448	; 21e70 <vsintable+0x1e64>
   2202c:	bc491080 	mcrrlt	0, 8, r1, r9, cr0
   22030:	bc622e5e 	stcllt	14, cr2, [r2], #-376	; 0xfffffe88
   22034:	bc7b506e 	ldcllt	0, cr5, [fp], #-440	; 0xfffffe48
   22038:	bc8a393f 			; <UNDEFINED> instruction: 0xbc8a393f
   2203c:	bc96ca47 	vldmialt	r6, {s24-s94}
   22040:	bca35936 			; <UNDEFINED> instruction: 0xbca35936
   22044:	bcafea3e 	vstmialt	pc!, {s28-s89}
   22048:	bcbc7b46 	vldmialt	ip!, {d7-<overflow reg d41>}
   2204c:	bcc90a35 	vstmialt	r9, {s1-s53}
   22050:	bcd59b3d 	fldmiaxlt	r5, {d25-d54}	;@ Deprecated
   22054:	bce22a2c 	vstmialt	r2!, {s5-s48}
   22058:	bceebb34 	vstmialt	lr!, {d27-<overflow reg d52>}
   2205c:	bcfb4a23 	vldmialt	fp!, {s9-s43}
   22060:	bd03ec89 	stclt	12, cr14, [r3, #-548]	; 0xfffffddc
   22064:	bd0a3401 	cfstrslt	mvf3, [sl, #-4]
   22068:	bd107b78 	vldrlt	d7, [r0, #-480]	; 0xfffffe20
   2206c:	bd16c2f0 	lfmlt	f4, 1, [r6, #-960]	; 0xfffffc40
   22070:	bd1d0a67 	vldrlt	s0, [sp, #-412]	; 0xfffffe64
   22074:	bd2351df 	stflts	f5, [r3, #-892]!	; 0xfffffc84
   22078:	bd299956 			; <UNDEFINED> instruction: 0xbd299956
   2207c:	bd2fdfc2 	stclt	15, cr13, [pc, #-776]!	; 21d7c <vsintable+0x1d70>
   22080:	bd362739 	ldclt	7, cr2, [r6, #-228]!	; 0xffffff1c
   22084:	bd3c6da4 	ldclt	13, cr6, [ip, #-656]!	; 0xfffffd70
   22088:	bd42b40f 	cfstrdlt	mvd11, [r2, #-60]	; 0xffffffc4
   2208c:	bd48fb87 	vstrlt	d31, [r8, #-540]	; 0xfffffde4
   22090:	bd4f41f2 	stflte	f4, [pc, #-968]	; 21cd0 <vsintable+0x1cc4>
   22094:	bd55885d 	ldcllt	8, cr8, [r5, #-372]	; 0xfffffe8c
   22098:	bd5bcec8 	ldcllt	14, cr12, [fp, #-800]	; 0xfffffce0
   2209c:	bd621427 	cfstrdlt	mvd1, [r2, #-156]!	; 0xffffff64
   220a0:	bd685a92 	vstmdblt	r8!, {s11-s156}
   220a4:	bd6e9ff1 	stcllt	15, cr9, [lr, #-964]!	; 0xfffffc3c
   220a8:	bd74e65c 	ldcllt	6, cr14, [r4, #-368]!	; 0xfffffe90
   220ac:	bd7b2bbb 	fldmdbxlt	fp!, {d18-d110}	;@ Deprecated
   220b0:	bd80b88d 	stclt	8, cr11, [r0, #564]	; 0x234
   220b4:	bd83db3c 	vstrlt	d13, [r3, #240]	; 0xf0
   220b8:	bd86fd65 	stclt	13, cr15, [r6, #404]	; 0x194
   220bc:	bd8a2014 	stclt	0, cr2, [sl, #80]	; 0x50
   220c0:	bd8d423e 	sfmlt	f4, 4, [sp, #248]	; 0xf8
   220c4:	bd9064ed 	cfldrslt	mvf6, [r0, #948]	; 0x3b4
   220c8:	bd938716 	ldclt	7, cr8, [r3, #88]	; 0x58
   220cc:	bd96a93f 	vldrlt.16	s20, [r6, #126]	; 0x7e	; <UNPREDICTABLE>
   220d0:	bd99cae2 	vldrlt	s24, [r9, #904]	; 0x388
   220d4:	bd9ced0b 	ldclt	13, cr14, [ip, #44]	; 0x2c
   220d8:	bda00eae 	stclt	14, cr0, [r0, #696]!	; 0x2b8
   220dc:	bda33051 	stclt	0, cr3, [r3, #324]!	; 0x144
   220e0:	bda651f4 	stflts	f5, [r6, #976]!	; 0x3d0
   220e4:	bda97397 	stclt	3, cr7, [r9, #604]!	; 0x25c
   220e8:	bdac953a 	cfstr32lt	mvfx9, [ip, #232]!	; 0xe8
   220ec:	bdafb656 	stclt	6, cr11, [pc, #344]!	; 2224c <vsintable+0x2240>
   220f0:	bdb2d7f9 	ldclt	7, cr13, [r2, #996]!	; 0x3e4
   220f4:	bdb5f916 			; <UNDEFINED> instruction: 0xbdb5f916
   220f8:	bdb919ac 			; <UNDEFINED> instruction: 0xbdb919ac
   220fc:	bdbc3ac9 			; <UNDEFINED> instruction: 0xbdbc3ac9
   22100:	bdbf5b60 			; <UNDEFINED> instruction: 0xbdbf5b60
   22104:	bdc27bf6 	vstrlt	d23, [r2, #984]	; 0x3d8
   22108:	bdc59c8d 	stcllt	12, cr9, [r5, #564]	; 0x234
   2210c:	bdc8bd23 	stcllt	13, cr11, [r8, #140]	; 0x8c
   22110:	bdcbddba 	stcllt	13, cr13, [fp, #744]	; 0x2e8
   22114:	bdcefdca 	stcllt	13, cr15, [lr, #808]	; 0x328
   22118:	bdd21dda 	ldcllt	13, cr1, [r2, #872]	; 0x368
   2211c:	bdd53dea 	ldcllt	13, cr3, [r5, #936]	; 0x3a8
   22120:	bdd85d74 	ldcllt	13, cr5, [r8, #464]	; 0x1d0
   22124:	bddb7cfe 	ldcllt	12, cr7, [fp, #1016]	; 0x3f8
   22128:	bdde9c88 	ldcllt	12, cr9, [lr, #544]	; 0x220
   2212c:	bde1bc12 	stcllt	12, cr11, [r1, #72]!	; 0x48
   22130:	bde4db9c 			; <UNDEFINED> instruction: 0xbde4db9c
   22134:	bde7faa0 			; <UNDEFINED> instruction: 0xbde7faa0
   22138:	bdeb19a4 			; <UNDEFINED> instruction: 0xbdeb19a4
   2213c:	bdee38a8 	stcllt	8, cr3, [lr, #672]!	; 0x2a0
   22140:	bdf15726 	ldcllt	7, cr5, [r1, #152]!	; 0x98
   22144:	bdf475a3 	cfldr64lt	mvdx7, [r4, #652]!	; 0x28c
   22148:	bdf79421 	cfldrdlt	mvd9, [r7, #132]!	; 0x84
   2214c:	bdfab29e 	lfmlt	f3, 3, [sl, #632]!	; 0x278
   22150:	bdfdd096 	ldcllt	0, cr13, [sp, #600]!	; 0x258
   22154:	be007747 	cdplt	7, 0, cr7, cr0, cr7, {2}
   22158:	be020642 	cfmadd32lt	mvax2, mvfx0, mvfx2, mvfx2
   2215c:	be0394fb 	mcrlt	4, 0, r9, cr3, cr11, {7}
   22160:	be0523b3 	mcrlt	3, 0, r2, cr5, cr3, {5}
   22164:	be06b26c 	cdplt	2, 0, cr11, cr6, cr12, {3}
   22168:	be084125 	adfltep	f4, f0, f5
   2216c:	be09cf9a 	mcrlt	15, 0, ip, cr9, cr10, {4}
   22170:	be0b5e0f 	cdplt	14, 0, cr5, cr11, cr15, {0}
   22174:	be0cec42 	cdplt	12, 0, cr14, cr12, cr2, {2}
   22178:	be0e7a74 			; <UNDEFINED> instruction: 0xbe0e7a74
   2217c:	be1008a7 	cdplt	8, 1, cr0, cr0, cr7, {5}
   22180:	be1196d9 	mrclt	6, 0, r9, cr1, cr9, {6}
   22184:	be1324c8 	cdplt	4, 1, cr2, cr3, cr8, {6}
   22188:	be14b2b7 	mrclt	2, 0, fp, cr4, cr7, {5}
   2218c:	be164064 	cdplt	0, 1, cr4, cr6, cr4, {3}
   22190:	be17ce53 	mrclt	14, 0, ip, cr7, cr3, {2}
   22194:	be195bff 	vmovlt.s16	r5, d25[1]
   22198:	be1ae968 	vnmlalt.f16	s28, s20, s17	; <UNPREDICTABLE>
   2219c:	be1c76d1 	mrclt	6, 0, r7, cr12, cr1, {6}
   221a0:	be1e043a 	mrclt	4, 0, r0, cr14, cr10, {1}
   221a4:	be1f9160 	mnfltez	f1, f0
   221a8:	be211e86 	cdplt	14, 2, cr1, cr1, cr6, {4}
   221ac:	be22abac 	vmullt.f64	d10, d18, d28
   221b0:	be24388f 	cdplt	8, 2, cr3, cr4, cr15, {4}
   221b4:	be25c572 	mcrlt	5, 1, ip, cr5, cr2, {3}
   221b8:	be275254 	mcrlt	2, 1, r5, cr7, cr4, {2}
   221bc:	be28def4 	mcrlt	14, 1, sp, cr8, cr4, {7}
   221c0:	be2a6b94 	vmovlt.32	d26[1], r6
   221c4:	be2bf7f0 	mcrlt	7, 1, pc, cr11, cr0, {7}	; <UNPREDICTABLE>
   221c8:	be2d844d 	cdplt	4, 2, cr8, cr13, cr13, {2}
   221cc:	be2f10aa 	cdplt	0, 2, cr1, cr15, cr10, {5}
   221d0:	be309cc3 	cdplt	12, 3, cr9, cr0, cr3, {6}
   221d4:	be3228dd 	mrclt	8, 1, r2, cr2, cr13, {6}
   221d8:	be33b4b3 	mrclt	4, 1, fp, cr3, cr3, {5}
   221dc:	be354089 	cdplt	0, 3, cr4, cr5, cr9, {4}
   221e0:	be36cc60 	cdplt	12, 3, cr12, cr6, cr0, {3}
   221e4:	be3857f3 	mrclt	7, 1, r5, cr8, cr3, {7}
   221e8:	be39e386 	cdplt	3, 3, cr14, cr9, cr6, {4}
   221ec:	be3b6ed6 	mrclt	14, 1, r6, cr11, cr6, {6}
   221f0:	be3cfa27 	vaddlt.f32	s30, s24, s15
   221f4:	be3e8534 	mrclt	5, 1, r8, cr14, cr4, {1}
   221f8:	be401041 	cdplt	0, 4, cr1, cr0, cr1, {2}
   221fc:	be419b4e 	vmlslt.f64	d25, d1, d14
   22200:	be432618 	mcrlt	6, 2, r2, cr3, cr8, {0}
   22204:	be44b09f 	mcrlt	0, 2, fp, cr4, cr15, {4}
   22208:	be463b69 	vmlslt.f64	d19, d6, d25
   2220c:	be47c5ac 	cdplt	5, 4, cr12, cr7, cr12, {5}
   22210:	be495033 	mcrlt	0, 2, r5, cr9, cr3, {1}
   22214:	be4ada34 			; <UNDEFINED> instruction: 0xbe4ada34
   22218:	be4c6477 	mcrlt	4, 2, r6, cr12, cr7, {3}
   2221c:	be4dee78 	mcrlt	14, 2, lr, cr13, cr8, {3}
   22220:	be4f7836 	mcrlt	8, 2, r7, cr15, cr6, {1}
   22224:	be5101f3 	mrclt	1, 2, r0, cr1, cr3, {7}
   22228:	be528b6e 	vnmlalt.f64	d24, d2, d30
   2222c:	be5414e8 	cdplt	4, 5, cr1, cr4, cr8, {7}
   22230:	be559e62 	cdplt	14, 5, cr9, cr5, cr2, {3}
   22234:	be57279a 	mrclt	7, 2, r2, cr7, cr10, {4}
   22238:	be58b08e 	cdplt	0, 5, cr11, cr8, cr14, {4}
   2223c:	be5a3982 	vnmlslt.f16	s7, s21, s4	; <UNPREDICTABLE>
   22240:	be5bc276 	mrclt	2, 2, ip, cr11, cr6, {3}
   22244:	be5d4b27 	vnmlslt.f64	d20, d13, d23
   22248:	be5ed395 	mrclt	3, 2, sp, cr14, cr5, {4}
   2224c:	be605c03 	cdplt	12, 6, cr5, cr0, cr3, {0}
   22250:	be61e471 	mcrlt	4, 3, lr, cr1, cr1, {3}
   22254:	be636c9c 	mcrlt	12, 3, r6, cr3, cr12, {4}
   22258:	be64f484 	cdplt	4, 6, cr15, cr4, cr4, {4}
   2225c:	be667c6c 	cdplt	12, 6, cr7, cr6, cr12, {3}
   22260:	be680410 	mcrlt	4, 3, r0, cr8, cr0, {0}
   22264:	be698bb5 	vmovlt.8	d25[5], r8
   22268:	be6b1316 	mcrlt	3, 3, r1, cr11, cr6, {0}
   2226c:	be6c9a78 			; <UNDEFINED> instruction: 0xbe6c9a78
   22270:	be6e2196 	mcrlt	1, 3, r2, cr14, cr6, {4}
   22274:	be6fa8b5 	mcrlt	8, 3, sl, cr15, cr5, {5}
   22278:	be712f90 	mrclt	15, 3, r2, cr1, cr0, {4}
   2227c:	be72b66b 	cdplt	6, 7, cr11, cr2, cr11, {3}
   22280:	be743d04 	cdplt	13, 7, cr3, cr4, cr4, {0}
   22284:	be75c359 	mrclt	3, 3, ip, cr5, cr9, {2}
   22288:	be7749ae 	vaddlt.f16	s9, s15, s29	; <UNPREDICTABLE>
   2228c:	be78cfc0 	cdplt	15, 7, cr12, cr8, cr0, {6}
   22290:	be7a55d2 	mrclt	5, 3, r5, cr10, cr2, {6}
   22294:	be7bdba1 	vaddlt.f64	d29, d27, d17
   22298:	be7d6170 	mrclt	1, 3, r6, cr13, cr0, {3}
   2229c:	be7ee6fb 	mrclt	6, 3, lr, cr14, cr11, {7}
   222a0:	be803622 	cdplt	6, 8, cr3, cr0, cr2, {1}
   222a4:	be80f8c6 	cdplt	8, 8, cr15, cr0, cr6, {6}
   222a8:	be81bb49 			; <UNDEFINED> instruction: 0xbe81bb49
   222ac:	be827dcc 	cdplt	13, 8, cr7, cr2, cr12, {6}
   222b0:	be83402d 	cdplt	0, 8, cr4, cr3, cr13, {1}
   222b4:	be84026d 	cdplt	2, 8, cr0, cr4, cr13, {3}
   222b8:	be84c4ac 	cdplt	4, 8, cr12, cr4, cr12, {5}
   222bc:	be8586cb 	cdplt	6, 8, cr8, cr5, cr11, {6}
   222c0:	be8648e9 	cdplt	8, 8, cr4, cr6, cr9, {7}
   222c4:	be870ae5 			; <UNDEFINED> instruction: 0xbe870ae5
   222c8:	be87ccc0 	cdplt	12, 8, cr12, cr7, cr0, {6}
   222cc:	be888e9b 	mcrlt	14, 4, r8, cr8, cr11, {4}
   222d0:	be895055 	mcrlt	0, 4, r5, cr9, cr5, {2}
   222d4:	be8a11ed 	rmflt<illegal precision>z	f1, f2, #5.0
   222d8:	be8ad384 	cdplt	3, 8, cr13, cr10, cr4, {4}
   222dc:	be8b94fb 	mcrlt	4, 4, r9, cr11, cr11, {7}
   222e0:	be8c5671 	mcrlt	6, 4, r5, cr12, cr1, {3}
   222e4:	be8d17c6 	cdplt	7, 8, cr1, cr13, cr6, {6}
   222e8:	be8dd8f9 	mcrlt	8, 4, sp, cr13, cr9, {7}
   222ec:	be8e9a2c 	vdivlt.f32	s18, s28, s25
   222f0:	be8f5b3e 			; <UNDEFINED> instruction: 0xbe8f5b3e
   222f4:	be901c2e 	cdplt	12, 9, cr1, cr0, cr14, {1}
   222f8:	be90dd1e 	mrclt	13, 4, sp, cr0, cr14, {0}
   222fc:	be919ded 	cdplt	13, 9, cr9, cr1, cr13, {7}
   22300:	be925e9a 	mrclt	14, 4, r5, cr2, cr10, {4}
   22304:	be931f25 	cdplt	15, 9, cr1, cr3, cr5, {1}
   22308:	be93dfb1 	mrclt	15, 4, sp, cr3, cr1, {5}
   2230c:	be94a03c 	mrclt	0, 4, sl, cr4, cr12, {1}
   22310:	be956085 	cdplt	0, 9, cr6, cr5, cr5, {4}
   22314:	be9620cd 	cdplt	0, 9, cr2, cr6, cr13, {6}
   22318:	be96e0f4 	mrclt	0, 4, lr, cr6, cr4, {7}
   2231c:	be97a11b 	mrclt	1, 4, sl, cr7, cr11, {0}
   22320:	be986120 	fmlltep	f6, f0, f0
   22324:	be992104 	fmllte	f2, f1, f4
   22328:	be99e0c6 	cdplt	0, 9, cr14, cr9, cr6, {6}
   2232c:	be9aa088 	cdplt	0, 9, cr10, cr10, cr8, {4}
   22330:	be9b6028 	cdplt	0, 9, cr6, cr11, cr8, {1}
   22334:	be9c1fa7 	cdplt	15, 9, cr1, cr12, cr7, {5}
   22338:	be9cdf26 	cdplt	15, 9, cr13, cr12, cr6, {1}
   2233c:	be9d9e84 	cdplt	14, 9, cr9, cr13, cr4, {4}
   22340:	be9e5dc0 	cdplt	13, 9, cr5, cr14, cr0, {6}
   22344:	be9f1cda 	mrclt	12, 4, r1, cr15, cr10, {6}
   22348:	be9fdbf5 	vmovlt.u16	sp, d31[1]
   2234c:	bea09aed 	vfmslt.f32	s18, s1, s27
   22350:	bea159c5 	vfmslt.f16	s10, s3, s10	; <UNPREDICTABLE>
   22354:	bea2187a 	mcrlt	8, 5, r1, cr2, cr10, {3}
   22358:	bea2d730 	mcrlt	7, 5, sp, cr2, cr0, {1}
   2235c:	bea395c4 	cdplt	5, 10, cr9, cr3, cr4, {6}
   22360:	bea45437 	mcrlt	4, 5, r5, cr4, cr7, {1}
   22364:	bea512a9 	cdplt	2, 10, cr1, cr5, cr9, {5}
   22368:	bea5d0d9 	mcrlt	0, 5, sp, cr5, cr9, {6}
   2236c:	bea68f08 	cdplt	15, 10, cr8, cr6, cr8, {0}
   22370:	bea74d16 	mcrlt	13, 5, r4, cr7, cr6, {0}
   22374:	bea80b24 	vfmalt.f64	d0, d8, d20
   22378:	bea8c8ef 	cdplt	8, 10, cr12, cr8, cr15, {7}
   2237c:	bea986ba 	mcrlt	6, 5, r8, cr9, cr10, {5}
   22380:	beaa4463 	cdplt	4, 10, cr4, cr10, cr3, {3}
   22384:	beab020c 	cdplt	2, 10, cr0, cr11, cr12, {0}
   22388:	beabbf72 	mcrlt	15, 5, fp, cr11, cr2, {3}
   2238c:	beac7cd9 	mcrlt	12, 5, r7, cr12, cr9, {6}
   22390:	bead3a1d 			; <UNDEFINED> instruction: 0xbead3a1d
   22394:	beadf740 	cdplt	7, 10, cr15, cr13, cr0, {2}
   22398:	beaeb442 	cdplt	4, 10, cr11, cr14, cr2, {2}
   2239c:	beaf7143 	fdvltem	f7, f7, f3
   223a0:	beb02e02 	cdplt	14, 11, cr2, cr0, cr2, {0}
   223a4:	beb0eac0 	vabslt.f32	s28, s0
   223a8:	beb1a75d 	mrclt	7, 5, sl, cr1, cr13, {2}
   223ac:	beb263fa 	mrclt	3, 5, r6, cr2, cr10, {7}
   223b0:	beb32053 	mrclt	0, 5, r2, cr3, cr3, {2}
   223b4:	beb3dcad 	cdplt	12, 11, cr13, cr3, cr13, {5}
   223b8:	beb498e5 	cdplt	8, 11, cr9, cr4, cr5, {7}
   223bc:	beb554fc 	mrclt	4, 5, r5, cr5, cr12, {7}
   223c0:	beb610f1 	mrclt	0, 5, r1, cr6, cr1, {7}
   223c4:	beb6ccc4 	cdplt	12, 11, cr12, cr6, cr4, {6}
   223c8:	beb78876 	mrclt	8, 5, r8, cr7, cr6, {3}
   223cc:	beb84428 	cdplt	4, 11, cr4, cr8, cr8, {1}
   223d0:	beb8ffb9 	mrclt	15, 5, APSR_nzcv, cr8, cr9, {5}
   223d4:	beb9bb28 			; <UNDEFINED> instruction: 0xbeb9bb28
   223d8:	beba7675 	mrclt	6, 5, r7, cr10, cr5, {3}
   223dc:	bebb31a1 	frdlt<illegal precision>p	f3, f3, f1
   223e0:	bebbecab 	cdplt	12, 11, cr14, cr11, cr11, {5}
   223e4:	bebca7b5 	mrclt	7, 5, sl, cr12, cr5, {5}
   223e8:	bebd627c 	mrclt	2, 5, r6, cr13, cr12, {3}
   223ec:	bebe1d43 	cdplt	13, 11, cr1, cr14, cr3, {2}
   223f0:	bebed7e9 	cdplt	7, 11, cr13, cr14, cr9, {7}
   223f4:	bebf926c 	cdplt	2, 11, cr9, cr15, cr12, {3}
   223f8:	bec04ccf 	cdplt	12, 12, cr4, cr0, cr15, {6}
   223fc:	bec10710 	mcrlt	7, 6, r0, cr1, cr0, {0}
   22400:	bec1c151 	mcrlt	1, 6, ip, cr1, cr1, {2}
   22404:	bec27b4e 			; <UNDEFINED> instruction: 0xbec27b4e
   22408:	bec3354c 	cdplt	5, 12, cr3, cr3, cr12, {2}
   2240c:	bec3ef07 	cdplt	15, 12, cr14, cr3, cr7, {0}
   22410:	bec4a8c1 	cdplt	8, 12, cr10, cr4, cr1, {6}
   22414:	bec5625a 	mcrlt	2, 6, r6, cr5, cr10, {2}
   22418:	bec61bd2 			; <UNDEFINED> instruction: 0xbec61bd2
   2241c:	bec6d528 	cdplt	5, 12, cr13, cr6, cr8, {1}
   22420:	bec78e5c 	mcrlt	14, 6, r8, cr7, cr12, {2}
   22424:	bec8476f 	cdplt	7, 12, cr4, cr8, cr15, {3}
   22428:	bec90082 	cdplt	0, 12, cr0, cr9, cr2, {4}
   2242c:	bec9b952 			; <UNDEFINED> instruction: 0xbec9b952
   22430:	beca7200 	cdplt	2, 12, cr7, cr10, cr0, {0}
   22434:	becb2aae 	vdivlt.f32	s5, s23, s29
   22438:	becbe33b 	mcrlt	3, 6, lr, cr11, cr11, {1}
   2243c:	becc9b84 	vdivlt.f64	d25, d28, d4
   22440:	becd53ce 	cdplt	3, 12, cr5, cr13, cr14, {6}
   22444:	bece0bf6 			; <UNDEFINED> instruction: 0xbece0bf6
   22448:	becec3db 	mcrlt	3, 6, ip, cr14, cr11, {6}
   2244c:	becf7bc0 			; <UNDEFINED> instruction: 0xbecf7bc0
   22450:	bed03383 	cdplt	3, 13, cr3, cr0, cr3, {4}
   22454:	bed0eb25 	vfnmslt.f64	d30, d0, d21
   22458:	bed1a2a5 	cdplt	2, 13, cr10, cr1, cr5, {5}
   2245c:	bed25a04 	vfnmslt.f32	s11, s4, s8
   22460:	bed31141 	cdplt	1, 13, cr1, cr3, cr1, {2}
   22464:	bed3c85c 	mrclt	8, 6, ip, cr3, cr12, {2}
   22468:	bed47f56 	mrclt	15, 6, r7, cr4, cr6, {2}
   2246c:	bed53650 	mrclt	6, 6, r3, cr5, cr0, {2}
   22470:	bed5ed07 	cdplt	13, 13, cr14, cr5, cr7, {0}
   22474:	bed6a39c 	mrclt	3, 6, sl, cr6, cr12, {4}
   22478:	bed75a10 			; <UNDEFINED> instruction: 0xbed75a10
   2247c:	bed81062 	cdplt	0, 13, cr1, cr8, cr2, {3}
   22480:	bed8c693 	mrclt	6, 6, ip, cr8, cr3, {4}
   22484:	bed97cc4 	cdplt	12, 13, cr7, cr9, cr4, {6}
   22488:	beda32b1 	mrclt	2, 6, r3, cr10, cr1, {5}
   2248c:	bedae87d 	mrclt	8, 6, lr, cr10, cr13, {3}
   22490:	bedb9e28 	cdplt	14, 13, cr9, cr11, cr8, {1}
   22494:	bedc53b1 	mrclt	3, 6, r5, cr12, cr1, {5}
   22498:	bedd0939 			; <UNDEFINED> instruction: 0xbedd0939
   2249c:	beddbe7f 	mrclt	14, 6, fp, cr13, cr15, {3}
   224a0:	bede73a3 	cdplt	3, 13, cr7, cr14, cr3, {5}
   224a4:	bedf28a6 	cdplt	8, 13, cr2, cr15, cr6, {5}
   224a8:	bedfdd87 	cdplt	13, 13, cr13, cr15, cr7, {4}
   224ac:	bee09247 	cdplt	2, 14, cr9, cr0, cr7, {2}
   224b0:	bee146e5 	cdplt	6, 14, cr4, cr1, cr5, {7}
   224b4:	bee1fb61 	vfmslt.f64	d31, d1, d17
   224b8:	bee2afbc 	mcrlt	15, 7, sl, cr2, cr12, {5}
   224bc:	bee363f5 	mcrlt	3, 7, r6, cr3, cr5, {7}
   224c0:	bee4180d 	cdplt	8, 14, cr1, cr4, cr13, {0}
   224c4:	bee4cc03 	cdplt	12, 14, cr12, cr4, cr3, {0}
   224c8:	bee57fd8 	mcrlt	15, 7, r7, cr5, cr8, {6}
   224cc:	bee6336a 	cdplt	3, 14, cr3, cr6, cr10, {3}
   224d0:	bee6e6fb 	mcrlt	6, 7, lr, cr6, cr11, {7}
   224d4:	bee79a6b 	vfmslt.f32	s19, s14, s23
   224d8:	bee84d98 	mcrlt	13, 7, r4, cr8, cr8, {4}
   224dc:	bee900c5 	cdplt	0, 14, cr0, cr9, cr5, {6}
   224e0:	bee9b3af 	cdplt	3, 14, cr11, cr9, cr15, {5}
   224e4:	beea6677 	mcrlt	6, 7, r6, cr10, cr7, {3}
   224e8:	beeb193f 			; <UNDEFINED> instruction: 0xbeeb193f
   224ec:	beebcbc5 	vfmslt.f64	d28, d27, d5
   224f0:	beec7e28 	cdplt	14, 14, cr7, cr12, cr8, {1}
   224f4:	beed306a 	cdplt	0, 14, cr3, cr13, cr10, {3}
   224f8:	beede28b 	cdplt	2, 14, cr14, cr13, cr11, {4}
   224fc:	beee948a 	cdplt	4, 14, cr9, cr14, cr10, {4}
   22500:	beef4645 	cdplt	6, 14, cr4, cr15, cr5, {2}
   22504:	beeff801 	cdplt	8, 14, cr15, cr15, cr1, {0}
   22508:	bef0a97a 			; <UNDEFINED> instruction: 0xbef0a97a
   2250c:	bef15af3 			; <UNDEFINED> instruction: 0xbef15af3
   22510:	bef20c28 	cdplt	12, 15, cr0, cr2, cr8, {1}
   22514:	bef2bd3c 	mrclt	13, 7, fp, cr2, cr12, {1}
   22518:	bef36e2f 	cdplt	14, 15, cr6, cr3, cr15, {1}
   2251c:	bef41f00 	cdplt	15, 15, cr1, cr4, cr0, {0}
   22520:	bef4cfaf 	cdplt	15, 15, cr12, cr4, cr15, {5}
   22524:	bef5803d 	mrclt	0, 7, r8, cr5, cr13, {1}
   22528:	bef63088 	cdplt	0, 15, cr3, cr6, cr8, {4}
   2252c:	bef6e0d2 	mrclt	0, 7, lr, cr6, cr2, {6}
   22530:	bef790da 	mrclt	0, 7, r9, cr7, cr10, {6}
   22534:	bef840c0 	cdplt	0, 15, cr4, cr8, cr0, {6}
   22538:	bef8f084 	cdplt	0, 15, cr15, cr8, cr4, {4}
   2253c:	bef9a027 	cdplt	0, 15, cr10, cr9, cr7, {1}
   22540:	befa4fa9 	cdplt	15, 15, cr4, cr10, cr9, {5}
   22544:	befafee7 	cdplt	14, 15, cr15, cr10, cr7, {7}
   22548:	befbae25 	cdplt	14, 15, cr10, cr11, cr5, {1}
   2254c:	befc5d20 	cdplt	13, 15, cr5, cr12, cr0, {1}
   22550:	befd0bfa 	vmovlt.u8	r0, d29[7]
   22554:	befdbab2 			; <UNDEFINED> instruction: 0xbefdbab2
   22558:	befe6949 			; <UNDEFINED> instruction: 0xbefe6949
   2255c:	beff17be 	mrclt	7, 7, r1, cr15, cr14, {5}
   22560:	beffc5ef 	cdplt	5, 15, cr12, cr15, cr15, {7}
   22564:	bf003a00 	svclt	0x00003a00
   22568:	bf0090f7 	svclt	0x000090f7
   2256c:	bf00e7de 	svclt	0x0000e7de
   22570:	bf013eb4 	svclt	0x00013eb4
   22574:	bf019579 	svclt	0x00019579
   22578:	bf01ec1c 	svclt	0x0001ec1c
   2257c:	bf0242af 	svclt	0x000242af
   22580:	bf029931 	svclt	0x00029931
   22584:	bf02efa2 	svclt	0x0002efa2
   22588:	bf0345f1 	svclt	0x000345f1
   2258c:	bf039c41 	svclt	0x00039c41
   22590:	bf03f26f 	svclt	0x0003f26f
   22594:	bf04488c 	svclt	0x0004488c
   22598:	bf049e99 	svclt	0x00049e99
   2259c:	bf04f484 	svclt	0x0004f484
   225a0:	bf054a5e 	svclt	0x00054a5e
   225a4:	bf05a027 	svclt	0x0005a027
   225a8:	bf05f5e0 	svclt	0x0005f5e0
   225ac:	bf064b88 	svclt	0x00064b88
   225b0:	bf06a10e 	svclt	0x0006a10e
   225b4:	bf06f683 	svclt	0x0006f683
   225b8:	bf074be8 	svclt	0x00074be8
   225bc:	bf07a13c 	svclt	0x0007a13c
   225c0:	bf07f66f 	svclt	0x0007f66f
   225c4:	bf084b90 	svclt	0x00084b90
   225c8:	bf08a0a1 	svclt	0x0008a0a1
   225cc:	bf08f5a1 	svclt	0x0008f5a1
   225d0:	bf094a80 	svclt	0x00094a80
   225d4:	bf099f4d 	svclt	0x00099f4d
   225d8:	bf09f40a 	svclt	0x0009f40a
   225dc:	bf0a48a6 	svclt	0x000a48a6
   225e0:	bf0a9d41 	svclt	0x000a9d41
   225e4:	bf0af1bb 	svclt	0x000af1bb
   225e8:	bf0b4624 	svclt	0x000b4624
   225ec:	bf0b9a6b 	svclt	0x000b9a6b
   225f0:	bf0beea2 	svclt	0x000beea2
   225f4:	bf0c42c8 	svclt	0x000c42c8
   225f8:	bf0c96dd 	svclt	0x000c96dd
   225fc:	bf0cead1 	svclt	0x000cead1
   22600:	bf0d3eb4 	svclt	0x000d3eb4
   22604:	bf0d9286 	svclt	0x000d9286
   22608:	bf0de636 	svclt	0x000de636
   2260c:	bf0e39d6 	svclt	0x000e39d6
   22610:	bf0e8d65 	svclt	0x000e8d65
   22614:	bf0ee0e3 	svclt	0x000ee0e3
   22618:	bf0f3440 	svclt	0x000f3440
   2261c:	bf0f878b 	svclt	0x000f878b
   22620:	bf0fdab6 	svclt	0x000fdab6
   22624:	bf102dcf 	svclt	0x00102dcf
   22628:	bf1080d8 	svclt	0x001080d8
   2262c:	bf10d3d0 	svclt	0x0010d3d0
   22630:	bf1126a6 	svclt	0x001126a6
   22634:	bf11796c 	svclt	0x0011796c
   22638:	bf11cc21 	svclt	0x0011cc21
   2263c:	bf121eb4 	svclt	0x00121eb4
   22640:	bf127137 	svclt	0x00127137
   22644:	bf12c398 	svclt	0x0012c398
   22648:	bf1315e8 	svclt	0x001315e8
   2264c:	bf136827 	svclt	0x00136827
   22650:	bf13ba56 	svclt	0x0013ba56
   22654:	bf140c63 	svclt	0x00140c63
   22658:	bf145e5f 	svclt	0x00145e5f
   2265c:	bf14b03a 	svclt	0x0014b03a
   22660:	bf150204 	svclt	0x00150204
   22664:	bf1553bd 	svclt	0x001553bd
   22668:	bf15a555 	svclt	0x0015a555
   2266c:	bf15f6dc 	svclt	0x0015f6dc
   22670:	bf164841 	svclt	0x00164841
   22674:	bf1699a6 	svclt	0x001699a6
   22678:	bf16ead9 	svclt	0x0016ead9
   2267c:	bf173c0c 	svclt	0x00173c0c
   22680:	bf178d1e 	svclt	0x00178d1e
   22684:	bf17de0d 	svclt	0x0017de0d
   22688:	bf182efd 	svclt	0x00182efd
   2268c:	bf187fbb 	svclt	0x00187fbb
   22690:	bf18d078 	svclt	0x0018d078
   22694:	bf192114 	svclt	0x00192114
   22698:	bf19718f 	svclt	0x0019718f
   2269c:	bf19c1f8 	svclt	0x0019c1f8
   226a0:	bf1a1251 	svclt	0x001a1251
   226a4:	bf1a6299 	svclt	0x001a6299
   226a8:	bf1ab2c0 	svclt	0x001ab2c0
   226ac:	bf1b02c5 	svclt	0x001b02c5
   226b0:	bf1b52b9 	svclt	0x001b52b9
   226b4:	bf1ba29c 	svclt	0x001ba29c
   226b8:	bf1bf25e 	svclt	0x001bf25e
   226bc:	bf1c420f 	svclt	0x001c420f
   226c0:	bf1c919f 	svclt	0x001c919f
   226c4:	bf1ce11e 	svclt	0x001ce11e
   226c8:	bf1d308c 	svclt	0x001d308c
   226cc:	bf1d7fd8 	svclt	0x001d7fd8
   226d0:	bf1dcf03 	svclt	0x001dcf03
   226d4:	bf1e1e1d 	svclt	0x001e1e1d
   226d8:	bf1e6d26 	svclt	0x001e6d26
   226dc:	bf1ebc0e 	svclt	0x001ebc0e
   226e0:	bf1f0ae5 	svclt	0x001f0ae5
   226e4:	bf1f599b 	svclt	0x001f599b
   226e8:	bf1fa83f 	svclt	0x001fa83f
   226ec:	bf1ff6d3 	svclt	0x001ff6d3
   226f0:	bf204535 	svclt	0x00204535
   226f4:	bf209396 	svclt	0x00209396
   226f8:	bf20e1d6 	svclt	0x0020e1d6
   226fc:	bf212ff5 	svclt	0x00212ff5
   22700:	bf217e02 	svclt	0x00217e02
   22704:	bf21cbff 	svclt	0x0021cbff
   22708:	bf2219db 	svclt	0x002219db
   2270c:	bf226794 	svclt	0x00226794
   22710:	bf22b53d 	svclt	0x0022b53d
   22714:	bf2302d6 	svclt	0x002302d6
   22718:	bf23504c 	svclt	0x0023504c
   2271c:	bf239da1 	svclt	0x00239da1
   22720:	bf23eae6 	svclt	0x0023eae6
   22724:	bf243819 	svclt	0x00243819
   22728:	bf24852b 	svclt	0x0024852b
   2272c:	bf24d22d 	svclt	0x0024d22d
   22730:	bf251f0c 	svclt	0x00251f0c
   22734:	bf256bca 	svclt	0x00256bca
   22738:	bf25b878 	svclt	0x0025b878
   2273c:	bf260503 	svclt	0x00260503
   22740:	bf26517e 	svclt	0x0026517e
   22744:	bf269de9 	svclt	0x00269de9
   22748:	bf26ea31 	svclt	0x0026ea31
   2274c:	bf273659 	svclt	0x00273659
   22750:	bf27826f 	svclt	0x0027826f
   22754:	bf27ce64 	svclt	0x0027ce64
   22758:	bf281a48 	svclt	0x00281a48
   2275c:	bf28660a 	svclt	0x0028660a
   22760:	bf28b1ab 	svclt	0x0028b1ab
   22764:	bf28fd3b 	svclt	0x0028fd3b
   22768:	bf2948bb 	svclt	0x002948bb
   2276c:	bf299418 	svclt	0x00299418
   22770:	bf29df55 	svclt	0x0029df55
   22774:	bf2a2a80 	svclt	0x002a2a80
   22778:	bf2a758a 	svclt	0x002a758a
   2277c:	bf2ac083 	svclt	0x002ac083
   22780:	bf2b0b5b 	svclt	0x002b0b5b
   22784:	bf2b5621 	svclt	0x002b5621
   22788:	bf2ba0c7 	svclt	0x002ba0c7
   2278c:	bf2beb4a 	svclt	0x002beb4a
   22790:	bf2c35bd 	svclt	0x002c35bd
   22794:	bf2c800f 	svclt	0x002c800f
   22798:	bf2cca4f 	svclt	0x002cca4f
   2279c:	bf2d146e 	svclt	0x002d146e
   227a0:	bf2d5e6c 	svclt	0x002d5e6c
   227a4:	bf2da858 	svclt	0x002da858
   227a8:	bf2df224 	svclt	0x002df224
   227ac:	bf2e3bde 	svclt	0x002e3bde
   227b0:	bf2e8577 	svclt	0x002e8577
   227b4:	bf2eceff 	svclt	0x002eceff
   227b8:	bf2f1855 	svclt	0x002f1855
   227bc:	bf2f61aa 	svclt	0x002f61aa
   227c0:	bf2faace 	svclt	0x002faace
   227c4:	bf2ff3e0 	svclt	0x002ff3e0
   227c8:	bf303ce2 	svclt	0x00303ce2
   227cc:	bf3085c2 	svclt	0x003085c2
   227d0:	bf30ce81 	svclt	0x0030ce81
   227d4:	bf31171e 	svclt	0x0031171e
   227d8:	bf315fab 	svclt	0x00315fab
   227dc:	bf31a815 	svclt	0x0031a815
   227e0:	bf31f06f 	svclt	0x0031f06f
   227e4:	bf3238a8 	svclt	0x003238a8
   227e8:	bf3280bf 	svclt	0x003280bf
   227ec:	bf32c8c5 	svclt	0x0032c8c5
   227f0:	bf3310aa 	svclt	0x003310aa
   227f4:	bf33587d 	svclt	0x0033587d
   227f8:	bf33a030 	svclt	0x0033a030
   227fc:	bf33e7c0 	svclt	0x0033e7c0
   22800:	bf342f30 	svclt	0x00342f30
   22804:	bf34768e 	svclt	0x0034768e
   22808:	bf34bdcb 	svclt	0x0034bdcb
   2280c:	bf3504f7 	svclt	0x003504f7
   22810:	bf354c01 	svclt	0x00354c01
   22814:	bf3592ea 	svclt	0x003592ea
   22818:	bf35d9b2 	svclt	0x0035d9b2
   2281c:	bf362068 	svclt	0x00362068
   22820:	bf3666fd 	svclt	0x003666fd
   22824:	bf36ad82 	svclt	0x0036ad82
   22828:	bf36f3e4 	svclt	0x0036f3e4
   2282c:	bf373a26 	svclt	0x00373a26
   22830:	bf378045 	svclt	0x00378045
   22834:	bf37c654 	svclt	0x0037c654
   22838:	bf380c41 	svclt	0x00380c41
   2283c:	bf38521e 	svclt	0x0038521e
   22840:	bf3897c8 	svclt	0x003897c8
   22844:	bf38dd61 	svclt	0x0038dd61
   22848:	bf3922d9 	svclt	0x003922d9
   2284c:	bf396840 	svclt	0x00396840
   22850:	bf39ad86 	svclt	0x0039ad86
   22854:	bf39f2aa 	svclt	0x0039f2aa
   22858:	bf3a37bd 	svclt	0x003a37bd
   2285c:	bf3a7c9e 	svclt	0x003a7c9e
   22860:	bf3ac16e 	svclt	0x003ac16e
   22864:	bf3b062d 	svclt	0x003b062d
   22868:	bf3b4aba 	svclt	0x003b4aba
   2286c:	bf3b8f36 	svclt	0x003b8f36
   22870:	bf3bd391 	svclt	0x003bd391
   22874:	bf3c17db 	svclt	0x003c17db
   22878:	bf3c5c03 	svclt	0x003c5c03
   2287c:	bf3ca00a 	svclt	0x003ca00a
   22880:	bf3ce3ef 	svclt	0x003ce3ef
   22884:	bf3d27b3 	svclt	0x003d27b3
   22888:	bf3d6b66 	svclt	0x003d6b66
   2288c:	bf3daef7 	svclt	0x003daef7
   22890:	bf3df267 	svclt	0x003df267
   22894:	bf3e35c6 	svclt	0x003e35c6
   22898:	bf3e7903 	svclt	0x003e7903
   2289c:	bf3ebc1f 	svclt	0x003ebc1f
   228a0:	bf3eff19 	svclt	0x003eff19
   228a4:	bf3f4203 	svclt	0x003f4203
   228a8:	bf3f84ba 	svclt	0x003f84ba
   228ac:	bf3fc760 	svclt	0x003fc760
   228b0:	bf4009f6 	svclt	0x004009f6
   228b4:	bf404c59 	svclt	0x00404c59
   228b8:	bf408eac 	svclt	0x00408eac
   228bc:	bf40d0dd 	svclt	0x0040d0dd
   228c0:	bf4112ec 	svclt	0x004112ec
   228c4:	bf4154da 	svclt	0x004154da
   228c8:	bf4196b7 	svclt	0x004196b7
   228cc:	bf41d873 	svclt	0x0041d873
   228d0:	bf421a0d 	svclt	0x00421a0d
   228d4:	bf425b85 	svclt	0x00425b85
   228d8:	bf429ced 	svclt	0x00429ced
   228dc:	bf42de22 	svclt	0x0042de22
   228e0:	bf431f47 	svclt	0x00431f47
   228e4:	bf43604a 	svclt	0x0043604a
   228e8:	bf43a13c 	svclt	0x0043a13c
   228ec:	bf43e1fc 	svclt	0x0043e1fc
   228f0:	bf4422ab 	svclt	0x004422ab
   228f4:	bf446339 	svclt	0x00446339
   228f8:	bf44a3a5 	svclt	0x0044a3a5
   228fc:	bf44e3ef 	svclt	0x0044e3ef
   22900:	bf452429 	svclt	0x00452429
   22904:	bf456441 	svclt	0x00456441
   22908:	bf45a427 	svclt	0x0045a427
   2290c:	bf45e3fc 	svclt	0x0045e3fc
   22910:	bf4623c0 	svclt	0x004623c0
   22914:	bf466352 	svclt	0x00466352
   22918:	bf46a2d3 	svclt	0x0046a2d3
   2291c:	bf46e222 	svclt	0x0046e222
   22920:	bf472160 	svclt	0x00472160
   22924:	bf47608d 	svclt	0x0047608d
   22928:	bf479f88 	svclt	0x00479f88
   2292c:	bf47de61 	svclt	0x0047de61
   22930:	bf481d2a 	svclt	0x00481d2a
   22934:	bf485bd1 	svclt	0x00485bd1
   22938:	bf489a56 	svclt	0x00489a56
   2293c:	bf48d8ba 	svclt	0x0048d8ba
   22940:	bf4916fd 	svclt	0x004916fd
   22944:	bf49551d 	svclt	0x0049551d
   22948:	bf49932d 	svclt	0x0049932d
   2294c:	bf49d10b 	svclt	0x0049d10b
   22950:	bf4a0ed8 	svclt	0x004a0ed8
   22954:	bf4a4c83 	svclt	0x004a4c83
   22958:	bf4a8a0d 	svclt	0x004a8a0d
   2295c:	bf4ac786 	svclt	0x004ac786
   22960:	bf4b04cd 	svclt	0x004b04cd
   22964:	bf4b41f2 	svclt	0x004b41f2
   22968:	bf4b7f06 	svclt	0x004b7f06
   2296c:	bf4bbbf9 	svclt	0x004bbbf9
   22970:	bf4bf8cb 	svclt	0x004bf8cb
   22974:	bf4c357a 	svclt	0x004c357a
   22978:	bf4c7208 	svclt	0x004c7208
   2297c:	bf4cae75 	svclt	0x004cae75
   22980:	bf4cead1 	svclt	0x004cead1
   22984:	bf4d26fa 	svclt	0x004d26fa
   22988:	bf4d6313 	svclt	0x004d6313
   2298c:	bf4d9f0a 	svclt	0x004d9f0a
   22990:	bf4ddacf 	svclt	0x004ddacf
   22994:	bf4e1683 	svclt	0x004e1683
   22998:	bf4e5215 	svclt	0x004e5215
   2299c:	bf4e8d97 	svclt	0x004e8d97
   229a0:	bf4ec8e7 	svclt	0x004ec8e7
   229a4:	bf4f0414 	svclt	0x004f0414
   229a8:	bf4f3f31 	svclt	0x004f3f31
   229ac:	bf4f7a1c 	svclt	0x004f7a1c
   229b0:	bf4fb4f6 	svclt	0x004fb4f6
   229b4:	bf4fefae 	svclt	0x004fefae
   229b8:	bf502a35 	svclt	0x00502a35
   229bc:	bf5064aa 	svclt	0x005064aa
   229c0:	bf509efe 	svclt	0x00509efe
   229c4:	bf50d930 	svclt	0x0050d930
   229c8:	bf511351 	svclt	0x00511351
   229cc:	bf514d40 	svclt	0x00514d40
   229d0:	bf51870e 	svclt	0x0051870e
   229d4:	bf51c0ca 	svclt	0x0051c0ca
   229d8:	bf51fa55 	svclt	0x0051fa55
   229dc:	bf5233be 	svclt	0x005233be
   229e0:	bf526d16 	svclt	0x00526d16
   229e4:	bf52a64c 	svclt	0x0052a64c
   229e8:	bf52df61 	svclt	0x0052df61
   229ec:	bf531844 	svclt	0x00531844
   229f0:	bf535116 	svclt	0x00535116
   229f4:	bf5389c6 	svclt	0x005389c6
   229f8:	bf53c255 	svclt	0x0053c255
   229fc:	bf53fac2 	svclt	0x0053fac2
   22a00:	bf54330d 	svclt	0x0054330d
   22a04:	bf546b38 	svclt	0x00546b38
   22a08:	bf54a340 	svclt	0x0054a340
   22a0c:	bf54db38 	svclt	0x0054db38
   22a10:	bf5512fd 	svclt	0x005512fd
   22a14:	bf554aa1 	svclt	0x00554aa1
   22a18:	bf558234 	svclt	0x00558234
   22a1c:	bf55b995 	svclt	0x0055b995
   22a20:	bf55f0d4 	svclt	0x0055f0d4
   22a24:	bf562802 	svclt	0x00562802
   22a28:	bf565eff 	svclt	0x00565eff
   22a2c:	bf5695ea 	svclt	0x005695ea
   22a30:	bf56cca3 	svclt	0x0056cca3
   22a34:	bf57034b 	svclt	0x0057034b
   22a38:	bf5739c1 	svclt	0x005739c1
   22a3c:	bf577026 	svclt	0x00577026
   22a40:	bf57a66a 	svclt	0x0057a66a
   22a44:	bf57dc7b 	svclt	0x0057dc7b
   22a48:	bf58127b 	svclt	0x0058127b
   22a4c:	bf58485a 	svclt	0x0058485a
   22a50:	bf587e07 	svclt	0x00587e07
   22a54:	bf58b3a2 	svclt	0x0058b3a2
   22a58:	bf58e91d 	svclt	0x0058e91d
   22a5c:	bf591e64 	svclt	0x00591e64
   22a60:	bf59539c 	svclt	0x0059539c
   22a64:	bf5988b1 	svclt	0x005988b1
   22a68:	bf59bd94 	svclt	0x0059bd94
   22a6c:	bf59f267 	svclt	0x0059f267
   22a70:	bf5a2718 	svclt	0x005a2718
   22a74:	bf5a5ba7 	svclt	0x005a5ba7
   22a78:	bf5a9004 	svclt	0x005a9004
   22a7c:	bf5ac450 	svclt	0x005ac450
   22a80:	bf5af87b 	svclt	0x005af87b
   22a84:	bf5b2c73 	svclt	0x005b2c73
   22a88:	bf5b605b 	svclt	0x005b605b
   22a8c:	bf5b9421 	svclt	0x005b9421
   22a90:	bf5bc7b4 	svclt	0x005bc7b4
   22a94:	bf5bfb37 	svclt	0x005bfb37
   22a98:	bf5c2e88 	svclt	0x005c2e88
   22a9c:	bf5c61c8 	svclt	0x005c61c8
   22aa0:	bf5c94d5 	svclt	0x005c94d5
   22aa4:	bf5cc7d2 	svclt	0x005cc7d2
   22aa8:	bf5cfa9c 	svclt	0x005cfa9c
   22aac:	bf5d2d56 	svclt	0x005d2d56
   22ab0:	bf5d5fdd 	svclt	0x005d5fdd
   22ab4:	bf5d9253 	svclt	0x005d9253
   22ab8:	bf5dc497 	svclt	0x005dc497
   22abc:	bf5df6ba 	svclt	0x005df6ba
   22ac0:	bf5e28bb 	svclt	0x005e28bb
   22ac4:	bf5e5aab 	svclt	0x005e5aab
   22ac8:	bf5e8c69 	svclt	0x005e8c69
   22acc:	bf5ebe06 	svclt	0x005ebe06
   22ad0:	bf5eef80 	svclt	0x005eef80
   22ad4:	bf5f20da 	svclt	0x005f20da
   22ad8:	bf5f5211 	svclt	0x005f5211
   22adc:	bf5f8327 	svclt	0x005f8327
   22ae0:	bf5fb41c 	svclt	0x005fb41c
   22ae4:	bf5fe4ef 	svclt	0x005fe4ef
   22ae8:	bf601590 	svclt	0x00601590
   22aec:	bf604620 	svclt	0x00604620
   22af0:	bf60768e 	svclt	0x0060768e
   22af4:	bf60a6ca 	svclt	0x0060a6ca
   22af8:	bf60d6f5 	svclt	0x0060d6f5
   22afc:	bf6106ee 	svclt	0x006106ee
   22b00:	bf6136d6 	svclt	0x006136d6
   22b04:	bf61668c 	svclt	0x0061668c
   22b08:	bf619620 	svclt	0x00619620
   22b0c:	bf61c593 	svclt	0x0061c593
   22b10:	bf61f4e4 	svclt	0x0061f4e4
   22b14:	bf622414 	svclt	0x00622414
   22b18:	bf625322 	svclt	0x00625322
   22b1c:	bf62820e 	svclt	0x0062820e
   22b20:	bf62b0d9 	svclt	0x0062b0d9
   22b24:	bf62df83 	svclt	0x0062df83
   22b28:	bf630dfa 	svclt	0x00630dfa
   22b2c:	bf633c60 	svclt	0x00633c60
   22b30:	bf636a94 	svclt	0x00636a94
   22b34:	bf6398a6 	svclt	0x006398a6
   22b38:	bf63c6a8 	svclt	0x0063c6a8
   22b3c:	bf63f477 	svclt	0x0063f477
   22b40:	bf642225 	svclt	0x00642225
   22b44:	bf644fb1 	svclt	0x00644fb1
   22b48:	bf647d1c 	svclt	0x00647d1c
   22b4c:	bf64aa54 	svclt	0x0064aa54
   22b50:	bf64d77b 	svclt	0x0064d77b
   22b54:	bf650471 	svclt	0x00650471
   22b58:	bf653155 	svclt	0x00653155
   22b5c:	bf655e07 	svclt	0x00655e07
   22b60:	bf658a98 	svclt	0x00658a98
   22b64:	bf65b717 	svclt	0x0065b717
   22b68:	bf65e365 	svclt	0x0065e365
   22b6c:	bf660f80 	svclt	0x00660f80
   22b70:	bf663b8a 	svclt	0x00663b8a
   22b74:	bf666773 	svclt	0x00666773
   22b78:	bf669329 	svclt	0x00669329
   22b7c:	bf66becf 	svclt	0x0066becf
   22b80:	bf66ea42 	svclt	0x0066ea42
   22b84:	bf671594 	svclt	0x00671594
   22b88:	bf6740c4 	svclt	0x006740c4
   22b8c:	bf676bd3 	svclt	0x00676bd3
   22b90:	bf6796c0 	svclt	0x006796c0
   22b94:	bf67c18b 	svclt	0x0067c18b
   22b98:	bf67ec25 	svclt	0x0067ec25
   22b9c:	bf6816ad 	svclt	0x006816ad
   22ba0:	bf684103 	svclt	0x00684103
   22ba4:	bf686b38 	svclt	0x00686b38
   22ba8:	bf68954a 	svclt	0x0068954a
   22bac:	bf68bf3c 	svclt	0x0068bf3c
   22bb0:	bf68e90c 	svclt	0x0068e90c
   22bb4:	bf6912a9 	svclt	0x006912a9
   22bb8:	bf693c36 	svclt	0x00693c36
   22bbc:	bf696590 	svclt	0x00696590
   22bc0:	bf698ec9 	svclt	0x00698ec9
   22bc4:	bf69b7e1 	svclt	0x0069b7e1
   22bc8:	bf69e0d6 	svclt	0x0069e0d6
   22bcc:	bf6a09ab 	svclt	0x006a09ab
   22bd0:	bf6a324d 	svclt	0x006a324d
   22bd4:	bf6a5ade 	svclt	0x006a5ade
   22bd8:	bf6a833c 	svclt	0x006a833c
   22bdc:	bf6aab7a 	svclt	0x006aab7a
   22be0:	bf6ad395 	svclt	0x006ad395
   22be4:	bf6afb8f 	svclt	0x006afb8f
   22be8:	bf6b2357 	svclt	0x006b2357
   22bec:	bf6b4b0e 	svclt	0x006b4b0e
   22bf0:	bf6b7293 	svclt	0x006b7293
   22bf4:	bf6b99f6 	svclt	0x006b99f6
   22bf8:	bf6bc137 	svclt	0x006bc137
   22bfc:	bf6be857 	svclt	0x006be857
   22c00:	bf6c0f56 	svclt	0x006c0f56
   22c04:	bf6c3622 	svclt	0x006c3622
   22c08:	bf6c5ccd 	svclt	0x006c5ccd
   22c0c:	bf6c8366 	svclt	0x006c8366
   22c10:	bf6ca9bd 	svclt	0x006ca9bd
   22c14:	bf6cd003 	svclt	0x006cd003
   22c18:	bf6cf627 	svclt	0x006cf627
   22c1c:	bf6d1c19 	svclt	0x006d1c19
   22c20:	bf6d41ea 	svclt	0x006d41ea
   22c24:	bf6d67a9 	svclt	0x006d67a9
   22c28:	bf6d8d26 	svclt	0x006d8d26
   22c2c:	bf6db292 	svclt	0x006db292
   22c30:	bf6dd7dc 	svclt	0x006dd7dc
   22c34:	bf6dfcf4 	svclt	0x006dfcf4
   22c38:	bf6e21ea 	svclt	0x006e21ea
   22c3c:	bf6e46bf 	svclt	0x006e46bf
   22c40:	bf6e6b72 	svclt	0x006e6b72
   22c44:	bf6e8ff3 	svclt	0x006e8ff3
   22c48:	bf6eb463 	svclt	0x006eb463
   22c4c:	bf6ed8a1 	svclt	0x006ed8a1
   22c50:	bf6efcbd 	svclt	0x006efcbd
   22c54:	bf6f20b8 	svclt	0x006f20b8
   22c58:	bf6f4480 	svclt	0x006f4480
   22c5c:	bf6f6838 	svclt	0x006f6838
   22c60:	bf6f8bbd 	svclt	0x006f8bbd
   22c64:	bf6faf21 	svclt	0x006faf21
   22c68:	bf6fd252 	svclt	0x006fd252
   22c6c:	bf6ff573 	svclt	0x006ff573
   22c70:	bf701861 	svclt	0x00701861
   22c74:	bf703b3f 	svclt	0x00703b3f
   22c78:	bf705dd9 	svclt	0x00705dd9
   22c7c:	bf708063 	svclt	0x00708063
   22c80:	bf70a2cb 	svclt	0x0070a2cb
   22c84:	bf70c500 	svclt	0x0070c500
   22c88:	bf70e714 	svclt	0x0070e714
   22c8c:	bf710907 	svclt	0x00710907
   22c90:	bf712ad8 	svclt	0x00712ad8
   22c94:	bf714c77 	svclt	0x00714c77
   22c98:	bf716df4 	svclt	0x00716df4
   22c9c:	bf718f50 	svclt	0x00718f50
   22ca0:	bf71b08a 	svclt	0x0071b08a
   22ca4:	bf71d1a2 	svclt	0x0071d1a2
   22ca8:	bf71f288 	svclt	0x0071f288
   22cac:	bf72134d 	svclt	0x0072134d
   22cb0:	bf7233f0 	svclt	0x007233f0
   22cb4:	bf725471 	svclt	0x00725471
   22cb8:	bf7274c1 	svclt	0x007274c1
   22cbc:	bf7294ff 	svclt	0x007294ff
   22cc0:	bf72b50b 	svclt	0x0072b50b
   22cc4:	bf72d4e5 	svclt	0x0072d4e5
   22cc8:	bf72f4ae 	svclt	0x0072f4ae
   22ccc:	bf731444 	svclt	0x00731444
   22cd0:	bf7333b9 	svclt	0x007333b9
   22cd4:	bf73530d 	svclt	0x0073530d
   22cd8:	bf73723f 	svclt	0x0073723f
   22cdc:	bf73913f 	svclt	0x0073913f
   22ce0:	bf73b01d 	svclt	0x0073b01d
   22ce4:	bf73ced9 	svclt	0x0073ced9
   22ce8:	bf73ed74 	svclt	0x0073ed74
   22cec:	bf740bdd 	svclt	0x00740bdd
   22cf0:	bf742a24 	svclt	0x00742a24
   22cf4:	bf744849 	svclt	0x00744849
   22cf8:	bf74664d 	svclt	0x0074664d
   22cfc:	bf74841f 	svclt	0x0074841f
   22d00:	bf74a1cf 	svclt	0x0074a1cf
   22d04:	bf74bf5d 	svclt	0x0074bf5d
   22d08:	bf74dcca 	svclt	0x0074dcca
   22d0c:	bf74fa05 	svclt	0x0074fa05
   22d10:	bf75172f 	svclt	0x0075172f
   22d14:	bf753416 	svclt	0x00753416
   22d18:	bf7550ec 	svclt	0x007550ec
   22d1c:	bf756d8f 	svclt	0x00756d8f
   22d20:	bf758a22 	svclt	0x00758a22
   22d24:	bf75a683 	svclt	0x0075a683
   22d28:	bf75c2b1 	svclt	0x0075c2b1
   22d2c:	bf75dece 	svclt	0x0075dece
   22d30:	bf75fab9 	svclt	0x0075fab9
   22d34:	bf761672 	svclt	0x00761672
   22d38:	bf76321a 	svclt	0x0076321a
   22d3c:	bf764d90 	svclt	0x00764d90
   22d40:	bf7668e4 	svclt	0x007668e4
   22d44:	bf768416 	svclt	0x00768416
   22d48:	bf769f27 	svclt	0x00769f27
   22d4c:	bf76ba06 	svclt	0x0076ba06
   22d50:	bf76d4c3 	svclt	0x0076d4c3
   22d54:	bf76ef5f 	svclt	0x0076ef5f
   22d58:	bf7709c8 	svclt	0x007709c8
   22d5c:	bf772410 	svclt	0x00772410
   22d60:	bf773e36 	svclt	0x00773e36
   22d64:	bf77583a 	svclt	0x0077583a
   22d68:	bf77720d 	svclt	0x0077720d
   22d6c:	bf778bbd 	svclt	0x00778bbd
   22d70:	bf77a54c 	svclt	0x0077a54c
   22d74:	bf77beba 	svclt	0x0077beba
   22d78:	bf77d7f5 	svclt	0x0077d7f5
   22d7c:	bf77f10f 	svclt	0x0077f10f
   22d80:	bf780a07 	svclt	0x00780a07
   22d84:	bf7822cd 	svclt	0x007822cd
   22d88:	bf783b71 	svclt	0x00783b71
   22d8c:	bf7853f4 	svclt	0x007853f4
   22d90:	bf786c55 	svclt	0x00786c55
   22d94:	bf788484 	svclt	0x00788484
   22d98:	bf789c91 	svclt	0x00789c91
   22d9c:	bf78b47c 	svclt	0x0078b47c
   22da0:	bf78cc36 	svclt	0x0078cc36
   22da4:	bf78e3de 	svclt	0x0078e3de
   22da8:	bf78fb44 	svclt	0x0078fb44
   22dac:	bf791299 	svclt	0x00791299
   22db0:	bf7929bb 	svclt	0x007929bb
   22db4:	bf7940bc 	svclt	0x007940bc
   22db8:	bf79579b 	svclt	0x0079579b
   22dbc:	bf796e48 	svclt	0x00796e48
   22dc0:	bf7984e4 	svclt	0x007984e4
   22dc4:	bf799b3d 	svclt	0x00799b3d
   22dc8:	bf79b185 	svclt	0x0079b185
   22dcc:	bf79c79b 	svclt	0x0079c79b
   22dd0:	bf79dd90 	svclt	0x0079dd90
   22dd4:	bf79f362 	svclt	0x0079f362
   22dd8:	bf7a0903 	svclt	0x007a0903
   22ddc:	bf7a1e82 	svclt	0x007a1e82
   22de0:	bf7a33df 	svclt	0x007a33df
   22de4:	bf7a490a 	svclt	0x007a490a
   22de8:	bf7a5e14 	svclt	0x007a5e14
   22dec:	bf7a72fc 	svclt	0x007a72fc
   22df0:	bf7a87c2 	svclt	0x007a87c2
   22df4:	bf7a9c56 	svclt	0x007a9c56
   22df8:	bf7ab0c9 	svclt	0x007ab0c9
   22dfc:	bf7ac519 	svclt	0x007ac519
   22e00:	bf7ad938 	svclt	0x007ad938
   22e04:	bf7aed35 	svclt	0x007aed35
   22e08:	bf7b0111 	svclt	0x007b0111
   22e0c:	bf7b14ba 	svclt	0x007b14ba
   22e10:	bf7b2841 	svclt	0x007b2841
   22e14:	bf7b3ba7 	svclt	0x007b3ba7
   22e18:	bf7b4eec 	svclt	0x007b4eec
   22e1c:	bf7b61fe 	svclt	0x007b61fe
   22e20:	bf7b74ef 	svclt	0x007b74ef
   22e24:	bf7b87ad 	svclt	0x007b87ad
   22e28:	bf7b9a5b 	svclt	0x007b9a5b
   22e2c:	bf7bacc5 	svclt	0x007bacc5
   22e30:	bf7bbf1f 	svclt	0x007bbf1f
   22e34:	bf7bd146 	svclt	0x007bd146
   22e38:	bf7be34c 	svclt	0x007be34c
   22e3c:	bf7bf530 	svclt	0x007bf530
   22e40:	bf7c06e2 	svclt	0x007c06e2
   22e44:	bf7c1872 	svclt	0x007c1872
   22e48:	bf7c29e1 	svclt	0x007c29e1
   22e4c:	bf7c3b2e 	svclt	0x007c3b2e
   22e50:	bf7c4c49 	svclt	0x007c4c49
   22e54:	bf7c5d42 	svclt	0x007c5d42
   22e58:	bf7c6e09 	svclt	0x007c6e09
   22e5c:	bf7c7eae 	svclt	0x007c7eae
   22e60:	bf7c8f32 	svclt	0x007c8f32
   22e64:	bf7c9f84 	svclt	0x007c9f84
   22e68:	bf7cafc4 	svclt	0x007cafc4
   22e6c:	bf7cbfc2 	svclt	0x007cbfc2
   22e70:	bf7ccfaf 	svclt	0x007ccfaf
   22e74:	bf7cdf6a 	svclt	0x007cdf6a
   22e78:	bf7cef03 	svclt	0x007cef03
   22e7c:	bf7cfe7a 	svclt	0x007cfe7a
   22e80:	bf7d0dbf 	svclt	0x007d0dbf
   22e84:	bf7d1ce3 	svclt	0x007d1ce3
   22e88:	bf7d2bd4 	svclt	0x007d2bd4
   22e8c:	bf7d3ab4 	svclt	0x007d3ab4
   22e90:	bf7d4952 	svclt	0x007d4952
   22e94:	bf7d57de 	svclt	0x007d57de
   22e98:	bf7d6638 	svclt	0x007d6638
   22e9c:	bf7d7471 	svclt	0x007d7471
   22ea0:	bf7d8288 	svclt	0x007d8288
   22ea4:	bf7d906d 	svclt	0x007d906d
   22ea8:	bf7d9e30 	svclt	0x007d9e30
   22eac:	bf7dabd2 	svclt	0x007dabd2
   22eb0:	bf7db941 	svclt	0x007db941
   22eb4:	bf7dc68f 	svclt	0x007dc68f
   22eb8:	bf7dd3aa 	svclt	0x007dd3aa
   22ebc:	bf7de0b5 	svclt	0x007de0b5
   22ec0:	bf7ded8d 	svclt	0x007ded8d
   22ec4:	bf7dfa33 	svclt	0x007dfa33
   22ec8:	bf7e06c8 	svclt	0x007e06c8
   22ecc:	bf7e132b 	svclt	0x007e132b
   22ed0:	bf7e1f5c 	svclt	0x007e1f5c
   22ed4:	bf7e2b6b 	svclt	0x007e2b6b
   22ed8:	bf7e3758 	svclt	0x007e3758
   22edc:	bf7e4324 	svclt	0x007e4324
   22ee0:	bf7e4ebe 	svclt	0x007e4ebe
   22ee4:	bf7e5a36 	svclt	0x007e5a36
   22ee8:	bf7e658c 	svclt	0x007e658c
   22eec:	bf7e70b0 	svclt	0x007e70b0
   22ef0:	bf7e7bb3 	svclt	0x007e7bb3
   22ef4:	bf7e8683 	svclt	0x007e8683
   22ef8:	bf7e9143 	svclt	0x007e9143
   22efc:	bf7e9bd0 	svclt	0x007e9bd0
   22f00:	bf7ea62b 	svclt	0x007ea62b
   22f04:	bf7eb064 	svclt	0x007eb064
   22f08:	bf7eba7c 	svclt	0x007eba7c
   22f0c:	bf7ec472 	svclt	0x007ec472
   22f10:	bf7ece36 	svclt	0x007ece36
   22f14:	bf7ed7d8 	svclt	0x007ed7d8
   22f18:	bf7ee148 	svclt	0x007ee148
   22f1c:	bf7eea96 	svclt	0x007eea96
   22f20:	bf7ef3c3 	svclt	0x007ef3c3
   22f24:	bf7efcce 	svclt	0x007efcce
   22f28:	bf7f05a7 	svclt	0x007f05a7
   22f2c:	bf7f0e5e 	svclt	0x007f0e5e
   22f30:	bf7f16e3 	svclt	0x007f16e3
   22f34:	bf7f1f47 	svclt	0x007f1f47
   22f38:	bf7f2789 	svclt	0x007f2789
   22f3c:	bf7f2f98 	svclt	0x007f2f98
   22f40:	bf7f3786 	svclt	0x007f3786
   22f44:	bf7f3f53 	svclt	0x007f3f53
   22f48:	bf7f46ed 	svclt	0x007f46ed
   22f4c:	bf7f4e66 	svclt	0x007f4e66
   22f50:	bf7f55bd 	svclt	0x007f55bd
   22f54:	bf7f5ce2 	svclt	0x007f5ce2
   22f58:	bf7f63e5 	svclt	0x007f63e5
   22f5c:	bf7f6ac6 	svclt	0x007f6ac6
   22f60:	bf7f7176 	svclt	0x007f7176
   22f64:	bf7f7803 	svclt	0x007f7803
   22f68:	bf7f7e6f 	svclt	0x007f7e6f
   22f6c:	bf7f84a9 	svclt	0x007f84a9
   22f70:	bf7f8ac2 	svclt	0x007f8ac2
   22f74:	bf7f90b8 	svclt	0x007f90b8
   22f78:	bf7f967d 	svclt	0x007f967d
   22f7c:	bf7f9c20 	svclt	0x007f9c20
   22f80:	bf7fa190 	svclt	0x007fa190
   22f84:	bf7fa6df 	svclt	0x007fa6df
   22f88:	bf7fac0c 	svclt	0x007fac0c
   22f8c:	bf7fb107 	svclt	0x007fb107
   22f90:	bf7fb5f2 	svclt	0x007fb5f2
   22f94:	bf7fba99 	svclt	0x007fba99
   22f98:	bf7fbf2f 	svclt	0x007fbf2f
   22f9c:	bf7fc393 	svclt	0x007fc393
   22fa0:	bf7fc7c5 	svclt	0x007fc7c5
   22fa4:	bf7fcbe6 	svclt	0x007fcbe6
   22fa8:	bf7fcfd5 	svclt	0x007fcfd5
   22fac:	bf7fd391 	svclt	0x007fd391
   22fb0:	bf7fd73d 	svclt	0x007fd73d
   22fb4:	bf7fdab6 	svclt	0x007fdab6
   22fb8:	bf7fddfd 	svclt	0x007fddfd
   22fbc:	bf7fe122 	svclt	0x007fe122
   22fc0:	bf7fe426 	svclt	0x007fe426
   22fc4:	bf7fe708 	svclt	0x007fe708
   22fc8:	bf7fe9b8 	svclt	0x007fe9b8
   22fcc:	bf7fec46 	svclt	0x007fec46
   22fd0:	bf7feea2 	svclt	0x007feea2
   22fd4:	bf7ff0dc 	svclt	0x007ff0dc
   22fd8:	bf7ff2f5 	svclt	0x007ff2f5
   22fdc:	bf7ff4ed 	svclt	0x007ff4ed
   22fe0:	bf7ff6b2 	svclt	0x007ff6b2
   22fe4:	bf7ff844 	svclt	0x007ff844
   22fe8:	bf7ff9c6 	svclt	0x007ff9c6
   22fec:	bf7ffb16 	svclt	0x007ffb16
   22ff0:	bf7ffc33 	svclt	0x007ffc33
   22ff4:	bf7ffd3f 	svclt	0x007ffd3f
   22ff8:	bf7ffe19 	svclt	0x007ffe19
   22ffc:	bf7ffec1 	svclt	0x007ffec1
   23000:	bf7fff47 	svclt	0x007fff47
   23004:	bf7fffac 	svclt	0x007fffac
   23008:	bf7fffef 	svclt	0x007fffef
   2300c:	bf800000 	svclt	0x00800000
   23010:	bf7fffef 	svclt	0x007fffef
   23014:	bf7fffac 	svclt	0x007fffac
   23018:	bf7fff47 	svclt	0x007fff47
   2301c:	bf7ffec1 	svclt	0x007ffec1
   23020:	bf7ffe19 	svclt	0x007ffe19
   23024:	bf7ffd3f 	svclt	0x007ffd3f
   23028:	bf7ffc33 	svclt	0x007ffc33
   2302c:	bf7ffb16 	svclt	0x007ffb16
   23030:	bf7ff9c6 	svclt	0x007ff9c6
   23034:	bf7ff844 	svclt	0x007ff844
   23038:	bf7ff6b2 	svclt	0x007ff6b2
   2303c:	bf7ff4ed 	svclt	0x007ff4ed
   23040:	bf7ff2f5 	svclt	0x007ff2f5
   23044:	bf7ff0dc 	svclt	0x007ff0dc
   23048:	bf7feea2 	svclt	0x007feea2
   2304c:	bf7fec46 	svclt	0x007fec46
   23050:	bf7fe9b8 	svclt	0x007fe9b8
   23054:	bf7fe708 	svclt	0x007fe708
   23058:	bf7fe426 	svclt	0x007fe426
   2305c:	bf7fe122 	svclt	0x007fe122
   23060:	bf7fddfd 	svclt	0x007fddfd
   23064:	bf7fdab6 	svclt	0x007fdab6
   23068:	bf7fd73d 	svclt	0x007fd73d
   2306c:	bf7fd391 	svclt	0x007fd391
   23070:	bf7fcfd5 	svclt	0x007fcfd5
   23074:	bf7fcbe6 	svclt	0x007fcbe6
   23078:	bf7fc7c5 	svclt	0x007fc7c5
   2307c:	bf7fc393 	svclt	0x007fc393
   23080:	bf7fbf2f 	svclt	0x007fbf2f
   23084:	bf7fba99 	svclt	0x007fba99
   23088:	bf7fb5f2 	svclt	0x007fb5f2
   2308c:	bf7fb107 	svclt	0x007fb107
   23090:	bf7fac0c 	svclt	0x007fac0c
   23094:	bf7fa6df 	svclt	0x007fa6df
   23098:	bf7fa190 	svclt	0x007fa190
   2309c:	bf7f9c20 	svclt	0x007f9c20
   230a0:	bf7f967d 	svclt	0x007f967d
   230a4:	bf7f90b8 	svclt	0x007f90b8
   230a8:	bf7f8ac2 	svclt	0x007f8ac2
   230ac:	bf7f84a9 	svclt	0x007f84a9
   230b0:	bf7f7e6f 	svclt	0x007f7e6f
   230b4:	bf7f7803 	svclt	0x007f7803
   230b8:	bf7f7176 	svclt	0x007f7176
   230bc:	bf7f6ac6 	svclt	0x007f6ac6
   230c0:	bf7f63e5 	svclt	0x007f63e5
   230c4:	bf7f5ce2 	svclt	0x007f5ce2
   230c8:	bf7f55bd 	svclt	0x007f55bd
   230cc:	bf7f4e66 	svclt	0x007f4e66
   230d0:	bf7f46ed 	svclt	0x007f46ed
   230d4:	bf7f3f53 	svclt	0x007f3f53
   230d8:	bf7f3786 	svclt	0x007f3786
   230dc:	bf7f2f98 	svclt	0x007f2f98
   230e0:	bf7f2789 	svclt	0x007f2789
   230e4:	bf7f1f47 	svclt	0x007f1f47
   230e8:	bf7f16e3 	svclt	0x007f16e3
   230ec:	bf7f0e5e 	svclt	0x007f0e5e
   230f0:	bf7f05a7 	svclt	0x007f05a7
   230f4:	bf7efcce 	svclt	0x007efcce
   230f8:	bf7ef3c3 	svclt	0x007ef3c3
   230fc:	bf7eea96 	svclt	0x007eea96
   23100:	bf7ee148 	svclt	0x007ee148
   23104:	bf7ed7d8 	svclt	0x007ed7d8
   23108:	bf7ece36 	svclt	0x007ece36
   2310c:	bf7ec472 	svclt	0x007ec472
   23110:	bf7eba7c 	svclt	0x007eba7c
   23114:	bf7eb064 	svclt	0x007eb064
   23118:	bf7ea62b 	svclt	0x007ea62b
   2311c:	bf7e9bd0 	svclt	0x007e9bd0
   23120:	bf7e9143 	svclt	0x007e9143
   23124:	bf7e8683 	svclt	0x007e8683
   23128:	bf7e7bb3 	svclt	0x007e7bb3
   2312c:	bf7e70b0 	svclt	0x007e70b0
   23130:	bf7e658c 	svclt	0x007e658c
   23134:	bf7e5a36 	svclt	0x007e5a36
   23138:	bf7e4ebe 	svclt	0x007e4ebe
   2313c:	bf7e4324 	svclt	0x007e4324
   23140:	bf7e3758 	svclt	0x007e3758
   23144:	bf7e2b6b 	svclt	0x007e2b6b
   23148:	bf7e1f5c 	svclt	0x007e1f5c
   2314c:	bf7e132b 	svclt	0x007e132b
   23150:	bf7e06c8 	svclt	0x007e06c8
   23154:	bf7dfa33 	svclt	0x007dfa33
   23158:	bf7ded8d 	svclt	0x007ded8d
   2315c:	bf7de0b5 	svclt	0x007de0b5
   23160:	bf7dd3aa 	svclt	0x007dd3aa
   23164:	bf7dc68f 	svclt	0x007dc68f
   23168:	bf7db941 	svclt	0x007db941
   2316c:	bf7dabd2 	svclt	0x007dabd2
   23170:	bf7d9e30 	svclt	0x007d9e30
   23174:	bf7d906d 	svclt	0x007d906d
   23178:	bf7d8288 	svclt	0x007d8288
   2317c:	bf7d7471 	svclt	0x007d7471
   23180:	bf7d6638 	svclt	0x007d6638
   23184:	bf7d57de 	svclt	0x007d57de
   23188:	bf7d4952 	svclt	0x007d4952
   2318c:	bf7d3ab4 	svclt	0x007d3ab4
   23190:	bf7d2bd4 	svclt	0x007d2bd4
   23194:	bf7d1ce3 	svclt	0x007d1ce3
   23198:	bf7d0dbf 	svclt	0x007d0dbf
   2319c:	bf7cfe7a 	svclt	0x007cfe7a
   231a0:	bf7cef03 	svclt	0x007cef03
   231a4:	bf7cdf6a 	svclt	0x007cdf6a
   231a8:	bf7ccfaf 	svclt	0x007ccfaf
   231ac:	bf7cbfc2 	svclt	0x007cbfc2
   231b0:	bf7cafc4 	svclt	0x007cafc4
   231b4:	bf7c9f84 	svclt	0x007c9f84
   231b8:	bf7c8f32 	svclt	0x007c8f32
   231bc:	bf7c7eae 	svclt	0x007c7eae
   231c0:	bf7c6e09 	svclt	0x007c6e09
   231c4:	bf7c5d42 	svclt	0x007c5d42
   231c8:	bf7c4c49 	svclt	0x007c4c49
   231cc:	bf7c3b2e 	svclt	0x007c3b2e
   231d0:	bf7c29e1 	svclt	0x007c29e1
   231d4:	bf7c1872 	svclt	0x007c1872
   231d8:	bf7c06e2 	svclt	0x007c06e2
   231dc:	bf7bf530 	svclt	0x007bf530
   231e0:	bf7be34c 	svclt	0x007be34c
   231e4:	bf7bd146 	svclt	0x007bd146
   231e8:	bf7bbf1f 	svclt	0x007bbf1f
   231ec:	bf7bacc5 	svclt	0x007bacc5
   231f0:	bf7b9a5b 	svclt	0x007b9a5b
   231f4:	bf7b87ad 	svclt	0x007b87ad
   231f8:	bf7b74ef 	svclt	0x007b74ef
   231fc:	bf7b61fe 	svclt	0x007b61fe
   23200:	bf7b4eec 	svclt	0x007b4eec
   23204:	bf7b3ba7 	svclt	0x007b3ba7
   23208:	bf7b2841 	svclt	0x007b2841
   2320c:	bf7b14ba 	svclt	0x007b14ba
   23210:	bf7b0111 	svclt	0x007b0111
   23214:	bf7aed35 	svclt	0x007aed35
   23218:	bf7ad938 	svclt	0x007ad938
   2321c:	bf7ac519 	svclt	0x007ac519
   23220:	bf7ab0c9 	svclt	0x007ab0c9
   23224:	bf7a9c56 	svclt	0x007a9c56
   23228:	bf7a87c2 	svclt	0x007a87c2
   2322c:	bf7a72fc 	svclt	0x007a72fc
   23230:	bf7a5e14 	svclt	0x007a5e14
   23234:	bf7a490a 	svclt	0x007a490a
   23238:	bf7a33df 	svclt	0x007a33df
   2323c:	bf7a1e82 	svclt	0x007a1e82
   23240:	bf7a0903 	svclt	0x007a0903
   23244:	bf79f362 	svclt	0x0079f362
   23248:	bf79dd90 	svclt	0x0079dd90
   2324c:	bf79c79b 	svclt	0x0079c79b
   23250:	bf79b185 	svclt	0x0079b185
   23254:	bf799b3d 	svclt	0x00799b3d
   23258:	bf7984e4 	svclt	0x007984e4
   2325c:	bf796e48 	svclt	0x00796e48
   23260:	bf79579b 	svclt	0x0079579b
   23264:	bf7940bc 	svclt	0x007940bc
   23268:	bf7929bb 	svclt	0x007929bb
   2326c:	bf791299 	svclt	0x00791299
   23270:	bf78fb44 	svclt	0x0078fb44
   23274:	bf78e3de 	svclt	0x0078e3de
   23278:	bf78cc36 	svclt	0x0078cc36
   2327c:	bf78b47c 	svclt	0x0078b47c
   23280:	bf789c91 	svclt	0x00789c91
   23284:	bf788484 	svclt	0x00788484
   23288:	bf786c55 	svclt	0x00786c55
   2328c:	bf7853f4 	svclt	0x007853f4
   23290:	bf783b71 	svclt	0x00783b71
   23294:	bf7822cd 	svclt	0x007822cd
   23298:	bf780a07 	svclt	0x00780a07
   2329c:	bf77f10f 	svclt	0x0077f10f
   232a0:	bf77d7f5 	svclt	0x0077d7f5
   232a4:	bf77beba 	svclt	0x0077beba
   232a8:	bf77a54c 	svclt	0x0077a54c
   232ac:	bf778bbd 	svclt	0x00778bbd
   232b0:	bf77720d 	svclt	0x0077720d
   232b4:	bf77583a 	svclt	0x0077583a
   232b8:	bf773e36 	svclt	0x00773e36
   232bc:	bf772410 	svclt	0x00772410
   232c0:	bf7709c8 	svclt	0x007709c8
   232c4:	bf76ef5f 	svclt	0x0076ef5f
   232c8:	bf76d4c3 	svclt	0x0076d4c3
   232cc:	bf76ba06 	svclt	0x0076ba06
   232d0:	bf769f27 	svclt	0x00769f27
   232d4:	bf768416 	svclt	0x00768416
   232d8:	bf7668e4 	svclt	0x007668e4
   232dc:	bf764d90 	svclt	0x00764d90
   232e0:	bf76321a 	svclt	0x0076321a
   232e4:	bf761672 	svclt	0x00761672
   232e8:	bf75fab9 	svclt	0x0075fab9
   232ec:	bf75dece 	svclt	0x0075dece
   232f0:	bf75c2b1 	svclt	0x0075c2b1
   232f4:	bf75a683 	svclt	0x0075a683
   232f8:	bf758a22 	svclt	0x00758a22
   232fc:	bf756d8f 	svclt	0x00756d8f
   23300:	bf7550ec 	svclt	0x007550ec
   23304:	bf753416 	svclt	0x00753416
   23308:	bf75172f 	svclt	0x0075172f
   2330c:	bf74fa05 	svclt	0x0074fa05
   23310:	bf74dcca 	svclt	0x0074dcca
   23314:	bf74bf5d 	svclt	0x0074bf5d
   23318:	bf74a1cf 	svclt	0x0074a1cf
   2331c:	bf74841f 	svclt	0x0074841f
   23320:	bf74664d 	svclt	0x0074664d
   23324:	bf744849 	svclt	0x00744849
   23328:	bf742a24 	svclt	0x00742a24
   2332c:	bf740bdd 	svclt	0x00740bdd
   23330:	bf73ed74 	svclt	0x0073ed74
   23334:	bf73ced9 	svclt	0x0073ced9
   23338:	bf73b01d 	svclt	0x0073b01d
   2333c:	bf73913f 	svclt	0x0073913f
   23340:	bf73723f 	svclt	0x0073723f
   23344:	bf73530d 	svclt	0x0073530d
   23348:	bf7333b9 	svclt	0x007333b9
   2334c:	bf731444 	svclt	0x00731444
   23350:	bf72f4ae 	svclt	0x0072f4ae
   23354:	bf72d4e5 	svclt	0x0072d4e5
   23358:	bf72b50b 	svclt	0x0072b50b
   2335c:	bf7294ff 	svclt	0x007294ff
   23360:	bf7274c1 	svclt	0x007274c1
   23364:	bf725471 	svclt	0x00725471
   23368:	bf7233f0 	svclt	0x007233f0
   2336c:	bf72134d 	svclt	0x0072134d
   23370:	bf71f288 	svclt	0x0071f288
   23374:	bf71d1a2 	svclt	0x0071d1a2
   23378:	bf71b08a 	svclt	0x0071b08a
   2337c:	bf718f50 	svclt	0x00718f50
   23380:	bf716df4 	svclt	0x00716df4
   23384:	bf714c77 	svclt	0x00714c77
   23388:	bf712ad8 	svclt	0x00712ad8
   2338c:	bf710907 	svclt	0x00710907
   23390:	bf70e714 	svclt	0x0070e714
   23394:	bf70c500 	svclt	0x0070c500
   23398:	bf70a2cb 	svclt	0x0070a2cb
   2339c:	bf708063 	svclt	0x00708063
   233a0:	bf705dd9 	svclt	0x00705dd9
   233a4:	bf703b3f 	svclt	0x00703b3f
   233a8:	bf701861 	svclt	0x00701861
   233ac:	bf6ff573 	svclt	0x006ff573
   233b0:	bf6fd252 	svclt	0x006fd252
   233b4:	bf6faf21 	svclt	0x006faf21
   233b8:	bf6f8bbd 	svclt	0x006f8bbd
   233bc:	bf6f6838 	svclt	0x006f6838
   233c0:	bf6f4480 	svclt	0x006f4480
   233c4:	bf6f20b8 	svclt	0x006f20b8
   233c8:	bf6efcbd 	svclt	0x006efcbd
   233cc:	bf6ed8a1 	svclt	0x006ed8a1
   233d0:	bf6eb463 	svclt	0x006eb463
   233d4:	bf6e8ff3 	svclt	0x006e8ff3
   233d8:	bf6e6b72 	svclt	0x006e6b72
   233dc:	bf6e46bf 	svclt	0x006e46bf
   233e0:	bf6e21ea 	svclt	0x006e21ea
   233e4:	bf6dfcf4 	svclt	0x006dfcf4
   233e8:	bf6dd7dc 	svclt	0x006dd7dc
   233ec:	bf6db292 	svclt	0x006db292
   233f0:	bf6d8d26 	svclt	0x006d8d26
   233f4:	bf6d67a9 	svclt	0x006d67a9
   233f8:	bf6d41ea 	svclt	0x006d41ea
   233fc:	bf6d1c19 	svclt	0x006d1c19
   23400:	bf6cf627 	svclt	0x006cf627
   23404:	bf6cd003 	svclt	0x006cd003
   23408:	bf6ca9bd 	svclt	0x006ca9bd
   2340c:	bf6c8366 	svclt	0x006c8366
   23410:	bf6c5ccd 	svclt	0x006c5ccd
   23414:	bf6c3622 	svclt	0x006c3622
   23418:	bf6c0f56 	svclt	0x006c0f56
   2341c:	bf6be857 	svclt	0x006be857
   23420:	bf6bc137 	svclt	0x006bc137
   23424:	bf6b99f6 	svclt	0x006b99f6
   23428:	bf6b7293 	svclt	0x006b7293
   2342c:	bf6b4b0e 	svclt	0x006b4b0e
   23430:	bf6b2357 	svclt	0x006b2357
   23434:	bf6afb8f 	svclt	0x006afb8f
   23438:	bf6ad395 	svclt	0x006ad395
   2343c:	bf6aab7a 	svclt	0x006aab7a
   23440:	bf6a833c 	svclt	0x006a833c
   23444:	bf6a5ade 	svclt	0x006a5ade
   23448:	bf6a324d 	svclt	0x006a324d
   2344c:	bf6a09ab 	svclt	0x006a09ab
   23450:	bf69e0d6 	svclt	0x0069e0d6
   23454:	bf69b7e1 	svclt	0x0069b7e1
   23458:	bf698ec9 	svclt	0x00698ec9
   2345c:	bf696590 	svclt	0x00696590
   23460:	bf693c36 	svclt	0x00693c36
   23464:	bf6912a9 	svclt	0x006912a9
   23468:	bf68e90c 	svclt	0x0068e90c
   2346c:	bf68bf3c 	svclt	0x0068bf3c
   23470:	bf68954a 	svclt	0x0068954a
   23474:	bf686b38 	svclt	0x00686b38
   23478:	bf684103 	svclt	0x00684103
   2347c:	bf6816ad 	svclt	0x006816ad
   23480:	bf67ec25 	svclt	0x0067ec25
   23484:	bf67c18b 	svclt	0x0067c18b
   23488:	bf6796c0 	svclt	0x006796c0
   2348c:	bf676bd3 	svclt	0x00676bd3
   23490:	bf6740c4 	svclt	0x006740c4
   23494:	bf671594 	svclt	0x00671594
   23498:	bf66ea42 	svclt	0x0066ea42
   2349c:	bf66becf 	svclt	0x0066becf
   234a0:	bf669329 	svclt	0x00669329
   234a4:	bf666773 	svclt	0x00666773
   234a8:	bf663b8a 	svclt	0x00663b8a
   234ac:	bf660f80 	svclt	0x00660f80
   234b0:	bf65e365 	svclt	0x0065e365
   234b4:	bf65b717 	svclt	0x0065b717
   234b8:	bf658a98 	svclt	0x00658a98
   234bc:	bf655e07 	svclt	0x00655e07
   234c0:	bf653155 	svclt	0x00653155
   234c4:	bf650471 	svclt	0x00650471
   234c8:	bf64d77b 	svclt	0x0064d77b
   234cc:	bf64aa54 	svclt	0x0064aa54
   234d0:	bf647d1c 	svclt	0x00647d1c
   234d4:	bf644fb1 	svclt	0x00644fb1
   234d8:	bf642225 	svclt	0x00642225
   234dc:	bf63f477 	svclt	0x0063f477
   234e0:	bf63c6a8 	svclt	0x0063c6a8
   234e4:	bf6398a6 	svclt	0x006398a6
   234e8:	bf636a94 	svclt	0x00636a94
   234ec:	bf633c60 	svclt	0x00633c60
   234f0:	bf630dfa 	svclt	0x00630dfa
   234f4:	bf62df83 	svclt	0x0062df83
   234f8:	bf62b0d9 	svclt	0x0062b0d9
   234fc:	bf62820e 	svclt	0x0062820e
   23500:	bf625322 	svclt	0x00625322
   23504:	bf622414 	svclt	0x00622414
   23508:	bf61f4e4 	svclt	0x0061f4e4
   2350c:	bf61c593 	svclt	0x0061c593
   23510:	bf619620 	svclt	0x00619620
   23514:	bf61668c 	svclt	0x0061668c
   23518:	bf6136d6 	svclt	0x006136d6
   2351c:	bf6106ee 	svclt	0x006106ee
   23520:	bf60d6f5 	svclt	0x0060d6f5
   23524:	bf60a6ca 	svclt	0x0060a6ca
   23528:	bf60768e 	svclt	0x0060768e
   2352c:	bf604620 	svclt	0x00604620
   23530:	bf601590 	svclt	0x00601590
   23534:	bf5fe4ef 	svclt	0x005fe4ef
   23538:	bf5fb41c 	svclt	0x005fb41c
   2353c:	bf5f8327 	svclt	0x005f8327
   23540:	bf5f5211 	svclt	0x005f5211
   23544:	bf5f20da 	svclt	0x005f20da
   23548:	bf5eef80 	svclt	0x005eef80
   2354c:	bf5ebe06 	svclt	0x005ebe06
   23550:	bf5e8c69 	svclt	0x005e8c69
   23554:	bf5e5aab 	svclt	0x005e5aab
   23558:	bf5e28bb 	svclt	0x005e28bb
   2355c:	bf5df6ba 	svclt	0x005df6ba
   23560:	bf5dc497 	svclt	0x005dc497
   23564:	bf5d9253 	svclt	0x005d9253
   23568:	bf5d5fdd 	svclt	0x005d5fdd
   2356c:	bf5d2d56 	svclt	0x005d2d56
   23570:	bf5cfa9c 	svclt	0x005cfa9c
   23574:	bf5cc7d2 	svclt	0x005cc7d2
   23578:	bf5c94d5 	svclt	0x005c94d5
   2357c:	bf5c61c8 	svclt	0x005c61c8
   23580:	bf5c2e88 	svclt	0x005c2e88
   23584:	bf5bfb37 	svclt	0x005bfb37
   23588:	bf5bc7b4 	svclt	0x005bc7b4
   2358c:	bf5b9421 	svclt	0x005b9421
   23590:	bf5b605b 	svclt	0x005b605b
   23594:	bf5b2c73 	svclt	0x005b2c73
   23598:	bf5af87b 	svclt	0x005af87b
   2359c:	bf5ac450 	svclt	0x005ac450
   235a0:	bf5a9004 	svclt	0x005a9004
   235a4:	bf5a5ba7 	svclt	0x005a5ba7
   235a8:	bf5a2718 	svclt	0x005a2718
   235ac:	bf59f267 	svclt	0x0059f267
   235b0:	bf59bd94 	svclt	0x0059bd94
   235b4:	bf5988b1 	svclt	0x005988b1
   235b8:	bf59539c 	svclt	0x0059539c
   235bc:	bf591e64 	svclt	0x00591e64
   235c0:	bf58e91d 	svclt	0x0058e91d
   235c4:	bf58b3a2 	svclt	0x0058b3a2
   235c8:	bf587e07 	svclt	0x00587e07
   235cc:	bf58485a 	svclt	0x0058485a
   235d0:	bf58127b 	svclt	0x0058127b
   235d4:	bf57dc7b 	svclt	0x0057dc7b
   235d8:	bf57a66a 	svclt	0x0057a66a
   235dc:	bf577026 	svclt	0x00577026
   235e0:	bf5739c1 	svclt	0x005739c1
   235e4:	bf57034b 	svclt	0x0057034b
   235e8:	bf56cca3 	svclt	0x0056cca3
   235ec:	bf5695ea 	svclt	0x005695ea
   235f0:	bf565eff 	svclt	0x00565eff
   235f4:	bf562802 	svclt	0x00562802
   235f8:	bf55f0d4 	svclt	0x0055f0d4
   235fc:	bf55b995 	svclt	0x0055b995
   23600:	bf558234 	svclt	0x00558234
   23604:	bf554aa1 	svclt	0x00554aa1
   23608:	bf5512fd 	svclt	0x005512fd
   2360c:	bf54db38 	svclt	0x0054db38
   23610:	bf54a340 	svclt	0x0054a340
   23614:	bf546b38 	svclt	0x00546b38
   23618:	bf54330d 	svclt	0x0054330d
   2361c:	bf53fac2 	svclt	0x0053fac2
   23620:	bf53c255 	svclt	0x0053c255
   23624:	bf5389c6 	svclt	0x005389c6
   23628:	bf535116 	svclt	0x00535116
   2362c:	bf531844 	svclt	0x00531844
   23630:	bf52df61 	svclt	0x0052df61
   23634:	bf52a64c 	svclt	0x0052a64c
   23638:	bf526d16 	svclt	0x00526d16
   2363c:	bf5233be 	svclt	0x005233be
   23640:	bf51fa55 	svclt	0x0051fa55
   23644:	bf51c0ca 	svclt	0x0051c0ca
   23648:	bf51870e 	svclt	0x0051870e
   2364c:	bf514d40 	svclt	0x00514d40
   23650:	bf511351 	svclt	0x00511351
   23654:	bf50d930 	svclt	0x0050d930
   23658:	bf509efe 	svclt	0x00509efe
   2365c:	bf5064aa 	svclt	0x005064aa
   23660:	bf502a35 	svclt	0x00502a35
   23664:	bf4fefae 	svclt	0x004fefae
   23668:	bf4fb4f6 	svclt	0x004fb4f6
   2366c:	bf4f7a1c 	svclt	0x004f7a1c
   23670:	bf4f3f31 	svclt	0x004f3f31
   23674:	bf4f0414 	svclt	0x004f0414
   23678:	bf4ec8e7 	svclt	0x004ec8e7
   2367c:	bf4e8d97 	svclt	0x004e8d97
   23680:	bf4e5215 	svclt	0x004e5215
   23684:	bf4e1683 	svclt	0x004e1683
   23688:	bf4ddacf 	svclt	0x004ddacf
   2368c:	bf4d9f0a 	svclt	0x004d9f0a
   23690:	bf4d6313 	svclt	0x004d6313
   23694:	bf4d26fa 	svclt	0x004d26fa
   23698:	bf4cead1 	svclt	0x004cead1
   2369c:	bf4cae75 	svclt	0x004cae75
   236a0:	bf4c7208 	svclt	0x004c7208
   236a4:	bf4c357a 	svclt	0x004c357a
   236a8:	bf4bf8cb 	svclt	0x004bf8cb
   236ac:	bf4bbbf9 	svclt	0x004bbbf9
   236b0:	bf4b7f06 	svclt	0x004b7f06
   236b4:	bf4b41f2 	svclt	0x004b41f2
   236b8:	bf4b04cd 	svclt	0x004b04cd
   236bc:	bf4ac786 	svclt	0x004ac786
   236c0:	bf4a8a0d 	svclt	0x004a8a0d
   236c4:	bf4a4c83 	svclt	0x004a4c83
   236c8:	bf4a0ed8 	svclt	0x004a0ed8
   236cc:	bf49d10b 	svclt	0x0049d10b
   236d0:	bf49932d 	svclt	0x0049932d
   236d4:	bf49551d 	svclt	0x0049551d
   236d8:	bf4916fd 	svclt	0x004916fd
   236dc:	bf48d8ba 	svclt	0x0048d8ba
   236e0:	bf489a56 	svclt	0x00489a56
   236e4:	bf485bd1 	svclt	0x00485bd1
   236e8:	bf481d2a 	svclt	0x00481d2a
   236ec:	bf47de61 	svclt	0x0047de61
   236f0:	bf479f88 	svclt	0x00479f88
   236f4:	bf47608d 	svclt	0x0047608d
   236f8:	bf472160 	svclt	0x00472160
   236fc:	bf46e222 	svclt	0x0046e222
   23700:	bf46a2d3 	svclt	0x0046a2d3
   23704:	bf466352 	svclt	0x00466352
   23708:	bf4623c0 	svclt	0x004623c0
   2370c:	bf45e3fc 	svclt	0x0045e3fc
   23710:	bf45a427 	svclt	0x0045a427
   23714:	bf456441 	svclt	0x00456441
   23718:	bf452429 	svclt	0x00452429
   2371c:	bf44e3ef 	svclt	0x0044e3ef
   23720:	bf44a3a5 	svclt	0x0044a3a5
   23724:	bf446339 	svclt	0x00446339
   23728:	bf4422ab 	svclt	0x004422ab
   2372c:	bf43e1fc 	svclt	0x0043e1fc
   23730:	bf43a13c 	svclt	0x0043a13c
   23734:	bf43604a 	svclt	0x0043604a
   23738:	bf431f47 	svclt	0x00431f47
   2373c:	bf42de22 	svclt	0x0042de22
   23740:	bf429ced 	svclt	0x00429ced
   23744:	bf425b85 	svclt	0x00425b85
   23748:	bf421a0d 	svclt	0x00421a0d
   2374c:	bf41d873 	svclt	0x0041d873
   23750:	bf4196b7 	svclt	0x004196b7
   23754:	bf4154da 	svclt	0x004154da
   23758:	bf4112ec 	svclt	0x004112ec
   2375c:	bf40d0dd 	svclt	0x0040d0dd
   23760:	bf408eac 	svclt	0x00408eac
   23764:	bf404c59 	svclt	0x00404c59
   23768:	bf4009f6 	svclt	0x004009f6
   2376c:	bf3fc760 	svclt	0x003fc760
   23770:	bf3f84ba 	svclt	0x003f84ba
   23774:	bf3f4203 	svclt	0x003f4203
   23778:	bf3eff19 	svclt	0x003eff19
   2377c:	bf3ebc1f 	svclt	0x003ebc1f
   23780:	bf3e7903 	svclt	0x003e7903
   23784:	bf3e35c6 	svclt	0x003e35c6
   23788:	bf3df267 	svclt	0x003df267
   2378c:	bf3daef7 	svclt	0x003daef7
   23790:	bf3d6b66 	svclt	0x003d6b66
   23794:	bf3d27b3 	svclt	0x003d27b3
   23798:	bf3ce3ef 	svclt	0x003ce3ef
   2379c:	bf3ca00a 	svclt	0x003ca00a
   237a0:	bf3c5c03 	svclt	0x003c5c03
   237a4:	bf3c17db 	svclt	0x003c17db
   237a8:	bf3bd391 	svclt	0x003bd391
   237ac:	bf3b8f36 	svclt	0x003b8f36
   237b0:	bf3b4aba 	svclt	0x003b4aba
   237b4:	bf3b062d 	svclt	0x003b062d
   237b8:	bf3ac16e 	svclt	0x003ac16e
   237bc:	bf3a7c9e 	svclt	0x003a7c9e
   237c0:	bf3a37bd 	svclt	0x003a37bd
   237c4:	bf39f2aa 	svclt	0x0039f2aa
   237c8:	bf39ad86 	svclt	0x0039ad86
   237cc:	bf396840 	svclt	0x00396840
   237d0:	bf3922ea 	svclt	0x003922ea
   237d4:	bf38dd61 	svclt	0x0038dd61
   237d8:	bf3897c8 	svclt	0x003897c8
   237dc:	bf38521e 	svclt	0x0038521e
   237e0:	bf380c41 	svclt	0x00380c41
   237e4:	bf37c654 	svclt	0x0037c654
   237e8:	bf378045 	svclt	0x00378045
   237ec:	bf373a26 	svclt	0x00373a26
   237f0:	bf36f3e4 	svclt	0x0036f3e4
   237f4:	bf36ad82 	svclt	0x0036ad82
   237f8:	bf3666fd 	svclt	0x003666fd
   237fc:	bf362068 	svclt	0x00362068
   23800:	bf35d9b2 	svclt	0x0035d9b2
   23804:	bf3592ea 	svclt	0x003592ea
   23808:	bf354c01 	svclt	0x00354c01
   2380c:	bf3504f7 	svclt	0x003504f7
   23810:	bf34bdcb 	svclt	0x0034bdcb
   23814:	bf34768e 	svclt	0x0034768e
   23818:	bf342f30 	svclt	0x00342f30
   2381c:	bf33e7c0 	svclt	0x0033e7c0
   23820:	bf33a030 	svclt	0x0033a030
   23824:	bf33587d 	svclt	0x0033587d
   23828:	bf3310aa 	svclt	0x003310aa
   2382c:	bf32c8c5 	svclt	0x0032c8c5
   23830:	bf3280bf 	svclt	0x003280bf
   23834:	bf3238a8 	svclt	0x003238a8
   23838:	bf31f06f 	svclt	0x0031f06f
   2383c:	bf31a815 	svclt	0x0031a815
   23840:	bf315fab 	svclt	0x00315fab
   23844:	bf31171e 	svclt	0x0031171e
   23848:	bf30ce81 	svclt	0x0030ce81
   2384c:	bf3085c2 	svclt	0x003085c2
   23850:	bf303ce2 	svclt	0x00303ce2
   23854:	bf2ff3e0 	svclt	0x002ff3e0
   23858:	bf2faace 	svclt	0x002faace
   2385c:	bf2f61aa 	svclt	0x002f61aa
   23860:	bf2f1855 	svclt	0x002f1855
   23864:	bf2eceff 	svclt	0x002eceff
   23868:	bf2e8577 	svclt	0x002e8577
   2386c:	bf2e3bde 	svclt	0x002e3bde
   23870:	bf2df224 	svclt	0x002df224
   23874:	bf2da858 	svclt	0x002da858
   23878:	bf2d5e6c 	svclt	0x002d5e6c
   2387c:	bf2d146e 	svclt	0x002d146e
   23880:	bf2cca4f 	svclt	0x002cca4f
   23884:	bf2c800f 	svclt	0x002c800f
   23888:	bf2c35bd 	svclt	0x002c35bd
   2388c:	bf2beb4a 	svclt	0x002beb4a
   23890:	bf2ba0c7 	svclt	0x002ba0c7
   23894:	bf2b5621 	svclt	0x002b5621
   23898:	bf2b0b5b 	svclt	0x002b0b5b
   2389c:	bf2ac083 	svclt	0x002ac083
   238a0:	bf2a758a 	svclt	0x002a758a
   238a4:	bf2a2a80 	svclt	0x002a2a80
   238a8:	bf29df55 	svclt	0x0029df55
   238ac:	bf299418 	svclt	0x00299418
   238b0:	bf2948bb 	svclt	0x002948bb
   238b4:	bf28fd3b 	svclt	0x0028fd3b
   238b8:	bf28b1ab 	svclt	0x0028b1ab
   238bc:	bf28660a 	svclt	0x0028660a
   238c0:	bf281a48 	svclt	0x00281a48
   238c4:	bf27ce64 	svclt	0x0027ce64
   238c8:	bf27826f 	svclt	0x0027826f
   238cc:	bf273659 	svclt	0x00273659
   238d0:	bf26ea31 	svclt	0x0026ea31
   238d4:	bf269de9 	svclt	0x00269de9
   238d8:	bf26517e 	svclt	0x0026517e
   238dc:	bf260503 	svclt	0x00260503
   238e0:	bf25b878 	svclt	0x0025b878
   238e4:	bf256bca 	svclt	0x00256bca
   238e8:	bf251f0c 	svclt	0x00251f0c
   238ec:	bf24d22d 	svclt	0x0024d22d
   238f0:	bf24852b 	svclt	0x0024852b
   238f4:	bf243819 	svclt	0x00243819
   238f8:	bf23eae6 	svclt	0x0023eae6
   238fc:	bf239da1 	svclt	0x00239da1
   23900:	bf23504c 	svclt	0x0023504c
   23904:	bf2302d6 	svclt	0x002302d6
   23908:	bf22b53d 	svclt	0x0022b53d
   2390c:	bf226794 	svclt	0x00226794
   23910:	bf2219db 	svclt	0x002219db
   23914:	bf21cbff 	svclt	0x0021cbff
   23918:	bf217e02 	svclt	0x00217e02
   2391c:	bf212ff5 	svclt	0x00212ff5
   23920:	bf20e1d6 	svclt	0x0020e1d6
   23924:	bf209396 	svclt	0x00209396
   23928:	bf204535 	svclt	0x00204535
   2392c:	bf1ff6d3 	svclt	0x001ff6d3
   23930:	bf1fa83f 	svclt	0x001fa83f
   23934:	bf1f599b 	svclt	0x001f599b
   23938:	bf1f0ae5 	svclt	0x001f0ae5
   2393c:	bf1ebc0e 	svclt	0x001ebc0e
   23940:	bf1e6d26 	svclt	0x001e6d26
   23944:	bf1e1e1d 	svclt	0x001e1e1d
   23948:	bf1dcf03 	svclt	0x001dcf03
   2394c:	bf1d7fd8 	svclt	0x001d7fd8
   23950:	bf1d308c 	svclt	0x001d308c
   23954:	bf1ce11e 	svclt	0x001ce11e
   23958:	bf1c919f 	svclt	0x001c919f
   2395c:	bf1c420f 	svclt	0x001c420f
   23960:	bf1bf25e 	svclt	0x001bf25e
   23964:	bf1ba29c 	svclt	0x001ba29c
   23968:	bf1b52b9 	svclt	0x001b52b9
   2396c:	bf1b02c5 	svclt	0x001b02c5
   23970:	bf1ab2c0 	svclt	0x001ab2c0
   23974:	bf1a6299 	svclt	0x001a6299
   23978:	bf1a1251 	svclt	0x001a1251
   2397c:	bf19c1f8 	svclt	0x0019c1f8
   23980:	bf19718f 	svclt	0x0019718f
   23984:	bf192114 	svclt	0x00192114
   23988:	bf18d078 	svclt	0x0018d078
   2398c:	bf187fbb 	svclt	0x00187fbb
   23990:	bf182efd 	svclt	0x00182efd
   23994:	bf17de0d 	svclt	0x0017de0d
   23998:	bf178d1e 	svclt	0x00178d1e
   2399c:	bf173c0c 	svclt	0x00173c0c
   239a0:	bf16ead9 	svclt	0x0016ead9
   239a4:	bf1699a6 	svclt	0x001699a6
   239a8:	bf164841 	svclt	0x00164841
   239ac:	bf15f6dc 	svclt	0x0015f6dc
   239b0:	bf15a555 	svclt	0x0015a555
   239b4:	bf1553bd 	svclt	0x001553bd
   239b8:	bf150204 	svclt	0x00150204
   239bc:	bf14b03a 	svclt	0x0014b03a
   239c0:	bf145e5f 	svclt	0x00145e5f
   239c4:	bf140c63 	svclt	0x00140c63
   239c8:	bf13ba56 	svclt	0x0013ba56
   239cc:	bf136827 	svclt	0x00136827
   239d0:	bf1315e8 	svclt	0x001315e8
   239d4:	bf12c398 	svclt	0x0012c398
   239d8:	bf127137 	svclt	0x00127137
   239dc:	bf121eb4 	svclt	0x00121eb4
   239e0:	bf11cc21 	svclt	0x0011cc21
   239e4:	bf11796c 	svclt	0x0011796c
   239e8:	bf1126a6 	svclt	0x001126a6
   239ec:	bf10d3d0 	svclt	0x0010d3d0
   239f0:	bf1080d8 	svclt	0x001080d8
   239f4:	bf102dcf 	svclt	0x00102dcf
   239f8:	bf0fdab6 	svclt	0x000fdab6
   239fc:	bf0f878b 	svclt	0x000f878b
   23a00:	bf0f3440 	svclt	0x000f3440
   23a04:	bf0ee0e3 	svclt	0x000ee0e3
   23a08:	bf0e8d65 	svclt	0x000e8d65
   23a0c:	bf0e39d6 	svclt	0x000e39d6
   23a10:	bf0de636 	svclt	0x000de636
   23a14:	bf0d9286 	svclt	0x000d9286
   23a18:	bf0d3eb4 	svclt	0x000d3eb4
   23a1c:	bf0cead1 	svclt	0x000cead1
   23a20:	bf0c96dd 	svclt	0x000c96dd
   23a24:	bf0c42c8 	svclt	0x000c42c8
   23a28:	bf0beea2 	svclt	0x000beea2
   23a2c:	bf0b9a6b 	svclt	0x000b9a6b
   23a30:	bf0b4624 	svclt	0x000b4624
   23a34:	bf0af1bb 	svclt	0x000af1bb
   23a38:	bf0a9d41 	svclt	0x000a9d41
   23a3c:	bf0a48a6 	svclt	0x000a48a6
   23a40:	bf09f40a 	svclt	0x0009f40a
   23a44:	bf099f4d 	svclt	0x00099f4d
   23a48:	bf094a80 	svclt	0x00094a80
   23a4c:	bf08f5a1 	svclt	0x0008f5a1
   23a50:	bf08a0a1 	svclt	0x0008a0a1
   23a54:	bf084b90 	svclt	0x00084b90
   23a58:	bf07f66f 	svclt	0x0007f66f
   23a5c:	bf07a13c 	svclt	0x0007a13c
   23a60:	bf074be8 	svclt	0x00074be8
   23a64:	bf06f683 	svclt	0x0006f683
   23a68:	bf06a10e 	svclt	0x0006a10e
   23a6c:	bf064b88 	svclt	0x00064b88
   23a70:	bf05f5e0 	svclt	0x0005f5e0
   23a74:	bf05a027 	svclt	0x0005a027
   23a78:	bf054a5e 	svclt	0x00054a5e
   23a7c:	bf04f484 	svclt	0x0004f484
   23a80:	bf049e99 	svclt	0x00049e99
   23a84:	bf04488c 	svclt	0x0004488c
   23a88:	bf03f26f 	svclt	0x0003f26f
   23a8c:	bf039c41 	svclt	0x00039c41
   23a90:	bf0345f1 	svclt	0x000345f1
   23a94:	bf02efa2 	svclt	0x0002efa2
   23a98:	bf029931 	svclt	0x00029931
   23a9c:	bf0242af 	svclt	0x000242af
   23aa0:	bf01ec1c 	svclt	0x0001ec1c
   23aa4:	bf019579 	svclt	0x00019579
   23aa8:	bf013eb4 	svclt	0x00013eb4
   23aac:	bf00e7de 	svclt	0x0000e7de
   23ab0:	bf0090f7 	svclt	0x000090f7
   23ab4:	bf003a00 	svclt	0x00003a00
   23ab8:	beffc5ef 	cdplt	5, 15, cr12, cr15, cr15, {7}
   23abc:	beff17be 	mrclt	7, 7, r1, cr15, cr14, {5}
   23ac0:	befe6949 			; <UNDEFINED> instruction: 0xbefe6949
   23ac4:	befdbab2 			; <UNDEFINED> instruction: 0xbefdbab2
   23ac8:	befd0bfa 	vmovlt.u8	r0, d29[7]
   23acc:	befc5d20 	cdplt	13, 15, cr5, cr12, cr0, {1}
   23ad0:	befbae25 	cdplt	14, 15, cr10, cr11, cr5, {1}
   23ad4:	befafee7 	cdplt	14, 15, cr15, cr10, cr7, {7}
   23ad8:	befa4fa9 	cdplt	15, 15, cr4, cr10, cr9, {5}
   23adc:	bef9a027 	cdplt	0, 15, cr10, cr9, cr7, {1}
   23ae0:	bef8f084 	cdplt	0, 15, cr15, cr8, cr4, {4}
   23ae4:	bef840c0 	cdplt	0, 15, cr4, cr8, cr0, {6}
   23ae8:	bef790da 	mrclt	0, 7, r9, cr7, cr10, {6}
   23aec:	bef6e0d2 	mrclt	0, 7, lr, cr6, cr2, {6}
   23af0:	bef63088 	cdplt	0, 15, cr3, cr6, cr8, {4}
   23af4:	bef5803d 	mrclt	0, 7, r8, cr5, cr13, {1}
   23af8:	bef4cfaf 	cdplt	15, 15, cr12, cr4, cr15, {5}
   23afc:	bef41f00 	cdplt	15, 15, cr1, cr4, cr0, {0}
   23b00:	bef36e2f 	cdplt	14, 15, cr6, cr3, cr15, {1}
   23b04:	bef2bd3c 	mrclt	13, 7, fp, cr2, cr12, {1}
   23b08:	bef20c28 	cdplt	12, 15, cr0, cr2, cr8, {1}
   23b0c:	bef15af3 			; <UNDEFINED> instruction: 0xbef15af3
   23b10:	bef0a97a 			; <UNDEFINED> instruction: 0xbef0a97a
   23b14:	beeff801 	cdplt	8, 14, cr15, cr15, cr1, {0}
   23b18:	beef4645 	cdplt	6, 14, cr4, cr15, cr5, {2}
   23b1c:	beee948a 	cdplt	4, 14, cr9, cr14, cr10, {4}
   23b20:	beede28b 	cdplt	2, 14, cr14, cr13, cr11, {4}
   23b24:	beed306a 	cdplt	0, 14, cr3, cr13, cr10, {3}
   23b28:	beec7e28 	cdplt	14, 14, cr7, cr12, cr8, {1}
   23b2c:	beebcbc5 	vfmslt.f64	d28, d27, d5
   23b30:	beeb193f 			; <UNDEFINED> instruction: 0xbeeb193f
   23b34:	beea6677 	mcrlt	6, 7, r6, cr10, cr7, {3}
   23b38:	bee9b3af 	cdplt	3, 14, cr11, cr9, cr15, {5}
   23b3c:	bee900c5 	cdplt	0, 14, cr0, cr9, cr5, {6}
   23b40:	bee84d98 	mcrlt	13, 7, r4, cr8, cr8, {4}
   23b44:	bee79a6b 	vfmslt.f32	s19, s14, s23
   23b48:	bee6e6fb 	mcrlt	6, 7, lr, cr6, cr11, {7}
   23b4c:	bee6336a 	cdplt	3, 14, cr3, cr6, cr10, {3}
   23b50:	bee57fd8 	mcrlt	15, 7, r7, cr5, cr8, {6}
   23b54:	bee4cc03 	cdplt	12, 14, cr12, cr4, cr3, {0}
   23b58:	bee4180d 	cdplt	8, 14, cr1, cr4, cr13, {0}
   23b5c:	bee363f5 	mcrlt	3, 7, r6, cr3, cr5, {7}
   23b60:	bee2afbc 	mcrlt	15, 7, sl, cr2, cr12, {5}
   23b64:	bee1fb61 	vfmslt.f64	d31, d1, d17
   23b68:	bee146e5 	cdplt	6, 14, cr4, cr1, cr5, {7}
   23b6c:	bee09247 	cdplt	2, 14, cr9, cr0, cr7, {2}
   23b70:	bedfdd87 	cdplt	13, 13, cr13, cr15, cr7, {4}
   23b74:	bedf28a6 	cdplt	8, 13, cr2, cr15, cr6, {5}
   23b78:	bede73a3 	cdplt	3, 13, cr7, cr14, cr3, {5}
   23b7c:	beddbe7f 	mrclt	14, 6, fp, cr13, cr15, {3}
   23b80:	bedd0939 			; <UNDEFINED> instruction: 0xbedd0939
   23b84:	bedc53b1 	mrclt	3, 6, r5, cr12, cr1, {5}
   23b88:	bedb9e28 	cdplt	14, 13, cr9, cr11, cr8, {1}
   23b8c:	bedae87d 	mrclt	8, 6, lr, cr10, cr13, {3}
   23b90:	beda32b1 	mrclt	2, 6, r3, cr10, cr1, {5}
   23b94:	bed97cc4 	cdplt	12, 13, cr7, cr9, cr4, {6}
   23b98:	bed8c693 	mrclt	6, 6, ip, cr8, cr3, {4}
   23b9c:	bed81062 	cdplt	0, 13, cr1, cr8, cr2, {3}
   23ba0:	bed75a10 			; <UNDEFINED> instruction: 0xbed75a10
   23ba4:	bed6a39c 	mrclt	3, 6, sl, cr6, cr12, {4}
   23ba8:	bed5ed07 	cdplt	13, 13, cr14, cr5, cr7, {0}
   23bac:	bed53650 	mrclt	6, 6, r3, cr5, cr0, {2}
   23bb0:	bed47f56 	mrclt	15, 6, r7, cr4, cr6, {2}
   23bb4:	bed3c85c 	mrclt	8, 6, ip, cr3, cr12, {2}
   23bb8:	bed31141 	cdplt	1, 13, cr1, cr3, cr1, {2}
   23bbc:	bed25a04 	vfnmslt.f32	s11, s4, s8
   23bc0:	bed1a2a5 	cdplt	2, 13, cr10, cr1, cr5, {5}
   23bc4:	bed0eb25 	vfnmslt.f64	d30, d0, d21
   23bc8:	bed03383 	cdplt	3, 13, cr3, cr0, cr3, {4}
   23bcc:	becf7bc0 			; <UNDEFINED> instruction: 0xbecf7bc0
   23bd0:	becec3db 	mcrlt	3, 6, ip, cr14, cr11, {6}
   23bd4:	bece0bf6 			; <UNDEFINED> instruction: 0xbece0bf6
   23bd8:	becd53ce 	cdplt	3, 12, cr5, cr13, cr14, {6}
   23bdc:	becc9b84 	vdivlt.f64	d25, d28, d4
   23be0:	becbe33b 	mcrlt	3, 6, lr, cr11, cr11, {1}
   23be4:	becb2aae 	vdivlt.f32	s5, s23, s29
   23be8:	beca7200 	cdplt	2, 12, cr7, cr10, cr0, {0}
   23bec:	bec9b952 			; <UNDEFINED> instruction: 0xbec9b952
   23bf0:	bec90082 	cdplt	0, 12, cr0, cr9, cr2, {4}
   23bf4:	bec8476f 	cdplt	7, 12, cr4, cr8, cr15, {3}
   23bf8:	bec78e5c 	mcrlt	14, 6, r8, cr7, cr12, {2}
   23bfc:	bec6d528 	cdplt	5, 12, cr13, cr6, cr8, {1}
   23c00:	bec61bd2 			; <UNDEFINED> instruction: 0xbec61bd2
   23c04:	bec5625a 	mcrlt	2, 6, r6, cr5, cr10, {2}
   23c08:	bec4a8c1 	cdplt	8, 12, cr10, cr4, cr1, {6}
   23c0c:	bec3ef07 	cdplt	15, 12, cr14, cr3, cr7, {0}
   23c10:	bec3354c 	cdplt	5, 12, cr3, cr3, cr12, {2}
   23c14:	bec27b4e 			; <UNDEFINED> instruction: 0xbec27b4e
   23c18:	bec1c151 	mcrlt	1, 6, ip, cr1, cr1, {2}
   23c1c:	bec10710 	mcrlt	7, 6, r0, cr1, cr0, {0}
   23c20:	bec04ccf 	cdplt	12, 12, cr4, cr0, cr15, {6}
   23c24:	bebf926c 	cdplt	2, 11, cr9, cr15, cr12, {3}
   23c28:	bebed7e9 	cdplt	7, 11, cr13, cr14, cr9, {7}
   23c2c:	bebe1d43 	cdplt	13, 11, cr1, cr14, cr3, {2}
   23c30:	bebd627c 	mrclt	2, 5, r6, cr13, cr12, {3}
   23c34:	bebca7b5 	mrclt	7, 5, sl, cr12, cr5, {5}
   23c38:	bebbecab 	cdplt	12, 11, cr14, cr11, cr11, {5}
   23c3c:	bebb31a1 	frdlt<illegal precision>p	f3, f3, f1
   23c40:	beba7675 	mrclt	6, 5, r7, cr10, cr5, {3}
   23c44:	beb9bb28 			; <UNDEFINED> instruction: 0xbeb9bb28
   23c48:	beb8ffb9 	mrclt	15, 5, APSR_nzcv, cr8, cr9, {5}
   23c4c:	beb84428 	cdplt	4, 11, cr4, cr8, cr8, {1}
   23c50:	beb78876 	mrclt	8, 5, r8, cr7, cr6, {3}
   23c54:	beb6ccc4 	cdplt	12, 11, cr12, cr6, cr4, {6}
   23c58:	beb610f1 	mrclt	0, 5, r1, cr6, cr1, {7}
   23c5c:	beb554fc 	mrclt	4, 5, r5, cr5, cr12, {7}
   23c60:	beb498e5 	cdplt	8, 11, cr9, cr4, cr5, {7}
   23c64:	beb3dcad 	cdplt	12, 11, cr13, cr3, cr13, {5}
   23c68:	beb32053 	mrclt	0, 5, r2, cr3, cr3, {2}
   23c6c:	beb263fa 	mrclt	3, 5, r6, cr2, cr10, {7}
   23c70:	beb1a75d 	mrclt	7, 5, sl, cr1, cr13, {2}
   23c74:	beb0eac0 	vabslt.f32	s28, s0
   23c78:	beb02e02 	cdplt	14, 11, cr2, cr0, cr2, {0}
   23c7c:	beaf7143 	fdvltem	f7, f7, f3
   23c80:	beaeb442 	cdplt	4, 10, cr11, cr14, cr2, {2}
   23c84:	beadf740 	cdplt	7, 10, cr15, cr13, cr0, {2}
   23c88:	bead3a1d 			; <UNDEFINED> instruction: 0xbead3a1d
   23c8c:	beac7cd9 	mcrlt	12, 5, r7, cr12, cr9, {6}
   23c90:	beabbf72 	mcrlt	15, 5, fp, cr11, cr2, {3}
   23c94:	beab020c 	cdplt	2, 10, cr0, cr11, cr12, {0}
   23c98:	beaa4463 	cdplt	4, 10, cr4, cr10, cr3, {3}
   23c9c:	bea986ba 	mcrlt	6, 5, r8, cr9, cr10, {5}
   23ca0:	bea8c8ef 	cdplt	8, 10, cr12, cr8, cr15, {7}
   23ca4:	bea80b24 	vfmalt.f64	d0, d8, d20
   23ca8:	bea74d16 	mcrlt	13, 5, r4, cr7, cr6, {0}
   23cac:	bea68f08 	cdplt	15, 10, cr8, cr6, cr8, {0}
   23cb0:	bea5d0d9 	mcrlt	0, 5, sp, cr5, cr9, {6}
   23cb4:	bea512a9 	cdplt	2, 10, cr1, cr5, cr9, {5}
   23cb8:	bea45437 	mcrlt	4, 5, r5, cr4, cr7, {1}
   23cbc:	bea395c4 	cdplt	5, 10, cr9, cr3, cr4, {6}
   23cc0:	bea2d730 	mcrlt	7, 5, sp, cr2, cr0, {1}
   23cc4:	bea2187a 	mcrlt	8, 5, r1, cr2, cr10, {3}
   23cc8:	bea159c5 	vfmslt.f16	s10, s3, s10	; <UNPREDICTABLE>
   23ccc:	bea09aed 	vfmslt.f32	s18, s1, s27
   23cd0:	be9fdbf5 	vmovlt.u16	sp, d31[1]
   23cd4:	be9f1cda 	mrclt	12, 4, r1, cr15, cr10, {6}
   23cd8:	be9e5dc0 	cdplt	13, 9, cr5, cr14, cr0, {6}
   23cdc:	be9d9e84 	cdplt	14, 9, cr9, cr13, cr4, {4}
   23ce0:	be9cdf26 	cdplt	15, 9, cr13, cr12, cr6, {1}
   23ce4:	be9c1fa7 	cdplt	15, 9, cr1, cr12, cr7, {5}
   23ce8:	be9b6028 	cdplt	0, 9, cr6, cr11, cr8, {1}
   23cec:	be9aa088 	cdplt	0, 9, cr10, cr10, cr8, {4}
   23cf0:	be99e0c6 	cdplt	0, 9, cr14, cr9, cr6, {6}
   23cf4:	be992104 	fmllte	f2, f1, f4
   23cf8:	be986120 	fmlltep	f6, f0, f0
   23cfc:	be97a11b 	mrclt	1, 4, sl, cr7, cr11, {0}
   23d00:	be96e0f4 	mrclt	0, 4, lr, cr6, cr4, {7}
   23d04:	be9620cd 	cdplt	0, 9, cr2, cr6, cr13, {6}
   23d08:	be956085 	cdplt	0, 9, cr6, cr5, cr5, {4}
   23d0c:	be94a03c 	mrclt	0, 4, sl, cr4, cr12, {1}
   23d10:	be93dfb1 	mrclt	15, 4, sp, cr3, cr1, {5}
   23d14:	be931f25 	cdplt	15, 9, cr1, cr3, cr5, {1}
   23d18:	be925e9a 	mrclt	14, 4, r5, cr2, cr10, {4}
   23d1c:	be919ded 	cdplt	13, 9, cr9, cr1, cr13, {7}
   23d20:	be90dd1e 	mrclt	13, 4, sp, cr0, cr14, {0}
   23d24:	be901c2e 	cdplt	12, 9, cr1, cr0, cr14, {1}
   23d28:	be8f5b3e 			; <UNDEFINED> instruction: 0xbe8f5b3e
   23d2c:	be8e9a2c 	vdivlt.f32	s18, s28, s25
   23d30:	be8dd8f9 	mcrlt	8, 4, sp, cr13, cr9, {7}
   23d34:	be8d17c6 	cdplt	7, 8, cr1, cr13, cr6, {6}
   23d38:	be8c5671 	mcrlt	6, 4, r5, cr12, cr1, {3}
   23d3c:	be8b94fb 	mcrlt	4, 4, r9, cr11, cr11, {7}
   23d40:	be8ad384 	cdplt	3, 8, cr13, cr10, cr4, {4}
   23d44:	be8a11ed 	rmflt<illegal precision>z	f1, f2, #5.0
   23d48:	be895055 	mcrlt	0, 4, r5, cr9, cr5, {2}
   23d4c:	be888e9b 	mcrlt	14, 4, r8, cr8, cr11, {4}
   23d50:	be87ccc0 	cdplt	12, 8, cr12, cr7, cr0, {6}
   23d54:	be870ae5 			; <UNDEFINED> instruction: 0xbe870ae5
   23d58:	be8648e9 	cdplt	8, 8, cr4, cr6, cr9, {7}
   23d5c:	be8586cb 	cdplt	6, 8, cr8, cr5, cr11, {6}
   23d60:	be84c4ac 	cdplt	4, 8, cr12, cr4, cr12, {5}
   23d64:	be84026d 	cdplt	2, 8, cr0, cr4, cr13, {3}
   23d68:	be83402d 	cdplt	0, 8, cr4, cr3, cr13, {1}
   23d6c:	be827dcc 	cdplt	13, 8, cr7, cr2, cr12, {6}
   23d70:	be81bb49 			; <UNDEFINED> instruction: 0xbe81bb49
   23d74:	be80f8c6 	cdplt	8, 8, cr15, cr0, cr6, {6}
   23d78:	be803622 	cdplt	6, 8, cr3, cr0, cr2, {1}
   23d7c:	be7ee6fb 	mrclt	6, 3, lr, cr14, cr11, {7}
   23d80:	be7d6170 	mrclt	1, 3, r6, cr13, cr0, {3}
   23d84:	be7bdba1 	vaddlt.f64	d29, d27, d17
   23d88:	be7a55d2 	mrclt	5, 3, r5, cr10, cr2, {6}
   23d8c:	be78cfc0 	cdplt	15, 7, cr12, cr8, cr0, {6}
   23d90:	be7749ae 	vaddlt.f16	s9, s15, s29	; <UNPREDICTABLE>
   23d94:	be75c359 	mrclt	3, 3, ip, cr5, cr9, {2}
   23d98:	be743d04 	cdplt	13, 7, cr3, cr4, cr4, {0}
   23d9c:	be72b66b 	cdplt	6, 7, cr11, cr2, cr11, {3}
   23da0:	be712f90 	mrclt	15, 3, r2, cr1, cr0, {4}
   23da4:	be6fa8b5 	mcrlt	8, 3, sl, cr15, cr5, {5}
   23da8:	be6e2196 	mcrlt	1, 3, r2, cr14, cr6, {4}
   23dac:	be6c9a78 			; <UNDEFINED> instruction: 0xbe6c9a78
   23db0:	be6b1316 	mcrlt	3, 3, r1, cr11, cr6, {0}
   23db4:	be698bb5 	vmovlt.8	d25[5], r8
   23db8:	be680410 	mcrlt	4, 3, r0, cr8, cr0, {0}
   23dbc:	be667c6c 	cdplt	12, 6, cr7, cr6, cr12, {3}
   23dc0:	be64f484 	cdplt	4, 6, cr15, cr4, cr4, {4}
   23dc4:	be636c9c 	mcrlt	12, 3, r6, cr3, cr12, {4}
   23dc8:	be61e471 	mcrlt	4, 3, lr, cr1, cr1, {3}
   23dcc:	be605c03 	cdplt	12, 6, cr5, cr0, cr3, {0}
   23dd0:	be5ed395 	mrclt	3, 2, sp, cr14, cr5, {4}
   23dd4:	be5d4b27 	vnmlslt.f64	d20, d13, d23
   23dd8:	be5bc276 	mrclt	2, 2, ip, cr11, cr6, {3}
   23ddc:	be5a3982 	vnmlslt.f16	s7, s21, s4	; <UNPREDICTABLE>
   23de0:	be58b08e 	cdplt	0, 5, cr11, cr8, cr14, {4}
   23de4:	be57279a 	mrclt	7, 2, r2, cr7, cr10, {4}
   23de8:	be559e62 	cdplt	14, 5, cr9, cr5, cr2, {3}
   23dec:	be5414e8 	cdplt	4, 5, cr1, cr4, cr8, {7}
   23df0:	be528b6e 	vnmlalt.f64	d24, d2, d30
   23df4:	be5101f3 	mrclt	1, 2, r0, cr1, cr3, {7}
   23df8:	be4f7836 	mcrlt	8, 2, r7, cr15, cr6, {1}
   23dfc:	be4dee78 	mcrlt	14, 2, lr, cr13, cr8, {3}
   23e00:	be4c6477 	mcrlt	4, 2, r6, cr12, cr7, {3}
   23e04:	be4ada34 			; <UNDEFINED> instruction: 0xbe4ada34
   23e08:	be495033 	mcrlt	0, 2, r5, cr9, cr3, {1}
   23e0c:	be47c5ac 	cdplt	5, 4, cr12, cr7, cr12, {5}
   23e10:	be463b69 	vmlslt.f64	d19, d6, d25
   23e14:	be44b09f 	mcrlt	0, 2, fp, cr4, cr15, {4}
   23e18:	be432618 	mcrlt	6, 2, r2, cr3, cr8, {0}
   23e1c:	be419b4e 	vmlslt.f64	d25, d1, d14
   23e20:	be401041 	cdplt	0, 4, cr1, cr0, cr1, {2}
   23e24:	be3e8534 	mrclt	5, 1, r8, cr14, cr4, {1}
   23e28:	be3cfa27 	vaddlt.f32	s30, s24, s15
   23e2c:	be3b6ed6 	mrclt	14, 1, r6, cr11, cr6, {6}
   23e30:	be39e386 	cdplt	3, 3, cr14, cr9, cr6, {4}
   23e34:	be3857f3 	mrclt	7, 1, r5, cr8, cr3, {7}
   23e38:	be36cc60 	cdplt	12, 3, cr12, cr6, cr0, {3}
   23e3c:	be354089 	cdplt	0, 3, cr4, cr5, cr9, {4}
   23e40:	be33b4b3 	mrclt	4, 1, fp, cr3, cr3, {5}
   23e44:	be3228dd 	mrclt	8, 1, r2, cr2, cr13, {6}
   23e48:	be309cc3 	cdplt	12, 3, cr9, cr0, cr3, {6}
   23e4c:	be2f10aa 	cdplt	0, 2, cr1, cr15, cr10, {5}
   23e50:	be2d844d 	cdplt	4, 2, cr8, cr13, cr13, {2}
   23e54:	be2bf7f0 	mcrlt	7, 1, pc, cr11, cr0, {7}	; <UNPREDICTABLE>
   23e58:	be2a6b94 	vmovlt.32	d26[1], r6
   23e5c:	be28def4 	mcrlt	14, 1, sp, cr8, cr4, {7}
   23e60:	be275254 	mcrlt	2, 1, r5, cr7, cr4, {2}
   23e64:	be25c572 	mcrlt	5, 1, ip, cr5, cr2, {3}
   23e68:	be24388f 	cdplt	8, 2, cr3, cr4, cr15, {4}
   23e6c:	be22abac 	vmullt.f64	d10, d18, d28
   23e70:	be211e86 	cdplt	14, 2, cr1, cr1, cr6, {4}
   23e74:	be1f9160 	mnfltez	f1, f0
   23e78:	be1e043a 	mrclt	4, 0, r0, cr14, cr10, {1}
   23e7c:	be1c76d1 	mrclt	6, 0, r7, cr12, cr1, {6}
   23e80:	be1ae968 	vnmlalt.f16	s28, s20, s17	; <UNPREDICTABLE>
   23e84:	be195bff 	vmovlt.s16	r5, d25[1]
   23e88:	be17ce53 	mrclt	14, 0, ip, cr7, cr3, {2}
   23e8c:	be164064 	cdplt	0, 1, cr4, cr6, cr4, {3}
   23e90:	be14b2b7 	mrclt	2, 0, fp, cr4, cr7, {5}
   23e94:	be1324c8 	cdplt	4, 1, cr2, cr3, cr8, {6}
   23e98:	be1196d9 	mrclt	6, 0, r9, cr1, cr9, {6}
   23e9c:	be1008a7 	cdplt	8, 1, cr0, cr0, cr7, {5}
   23ea0:	be0e7a74 			; <UNDEFINED> instruction: 0xbe0e7a74
   23ea4:	be0cec42 	cdplt	12, 0, cr14, cr12, cr2, {2}
   23ea8:	be0b5e0f 	cdplt	14, 0, cr5, cr11, cr15, {0}
   23eac:	be09cf9a 	mcrlt	15, 0, ip, cr9, cr10, {4}
   23eb0:	be084125 	adfltep	f4, f0, f5
   23eb4:	be06b26c 	cdplt	2, 0, cr11, cr6, cr12, {3}
   23eb8:	be0523b3 	mcrlt	3, 0, r2, cr5, cr3, {5}
   23ebc:	be0394fb 	mcrlt	4, 0, r9, cr3, cr11, {7}
   23ec0:	be020642 	cfmadd32lt	mvax2, mvfx0, mvfx2, mvfx2
   23ec4:	be007747 	cdplt	7, 0, cr7, cr0, cr7, {2}
   23ec8:	bdfdd096 	ldcllt	0, cr13, [sp, #600]!	; 0x258
   23ecc:	bdfab29e 	lfmlt	f3, 3, [sl, #632]!	; 0x278
   23ed0:	bdf79421 	cfldrdlt	mvd9, [r7, #132]!	; 0x84
   23ed4:	bdf475a3 	cfldr64lt	mvdx7, [r4, #652]!	; 0x28c
   23ed8:	bdf15726 	ldcllt	7, cr5, [r1, #152]!	; 0x98
   23edc:	bdee38a8 	stcllt	8, cr3, [lr, #672]!	; 0x2a0
   23ee0:	bdeb19a4 			; <UNDEFINED> instruction: 0xbdeb19a4
   23ee4:	bde7faa0 			; <UNDEFINED> instruction: 0xbde7faa0
   23ee8:	bde4db9c 			; <UNDEFINED> instruction: 0xbde4db9c
   23eec:	bde1bc12 	stcllt	12, cr11, [r1, #72]!	; 0x48
   23ef0:	bdde9c88 	ldcllt	12, cr9, [lr, #544]	; 0x220
   23ef4:	bddb7cfe 	ldcllt	12, cr7, [fp, #1016]	; 0x3f8
   23ef8:	bdd85d74 	ldcllt	13, cr5, [r8, #464]	; 0x1d0
   23efc:	bdd53dea 	ldcllt	13, cr3, [r5, #936]	; 0x3a8
   23f00:	bdd21dda 	ldcllt	13, cr1, [r2, #872]	; 0x368
   23f04:	bdcefdca 	stcllt	13, cr15, [lr, #808]	; 0x328
   23f08:	bdcbddba 	stcllt	13, cr13, [fp, #744]	; 0x2e8
   23f0c:	bdc8bd23 	stcllt	13, cr11, [r8, #140]	; 0x8c
   23f10:	bdc59c8d 	stcllt	12, cr9, [r5, #564]	; 0x234
   23f14:	bdc27bf6 	vstrlt	d23, [r2, #984]	; 0x3d8
   23f18:	bdbf5b60 			; <UNDEFINED> instruction: 0xbdbf5b60
   23f1c:	bdbc3ac9 			; <UNDEFINED> instruction: 0xbdbc3ac9
   23f20:	bdb919ac 			; <UNDEFINED> instruction: 0xbdb919ac
   23f24:	bdb5f916 			; <UNDEFINED> instruction: 0xbdb5f916
   23f28:	bdb2d7f9 	ldclt	7, cr13, [r2, #996]!	; 0x3e4
   23f2c:	bdafb656 	stclt	6, cr11, [pc, #344]!	; 2408c <vsintable+0x4080>
   23f30:	bdac953a 	cfstr32lt	mvfx9, [ip, #232]!	; 0xe8
   23f34:	bda97397 	stclt	3, cr7, [r9, #604]!	; 0x25c
   23f38:	bda651f4 	stflts	f5, [r6, #976]!	; 0x3d0
   23f3c:	bda33051 	stclt	0, cr3, [r3, #324]!	; 0x144
   23f40:	bda00eae 	stclt	14, cr0, [r0, #696]!	; 0x2b8
   23f44:	bd9ced0b 	ldclt	13, cr14, [ip, #44]	; 0x2c
   23f48:	bd99cae2 	vldrlt	s24, [r9, #904]	; 0x388
   23f4c:	bd96a93f 	vldrlt.16	s20, [r6, #126]	; 0x7e	; <UNPREDICTABLE>
   23f50:	bd938716 	ldclt	7, cr8, [r3, #88]	; 0x58
   23f54:	bd9064ed 	cfldrslt	mvf6, [r0, #948]	; 0x3b4
   23f58:	bd8d423e 	sfmlt	f4, 4, [sp, #248]	; 0xf8
   23f5c:	bd8a2014 	stclt	0, cr2, [sl, #80]	; 0x50
   23f60:	bd86fd65 	stclt	13, cr15, [r6, #404]	; 0x194
   23f64:	bd83db3c 	vstrlt	d13, [r3, #240]	; 0xf0
   23f68:	bd80b88d 	stclt	8, cr11, [r0, #564]	; 0x234
   23f6c:	bd7b2bbb 	fldmdbxlt	fp!, {d18-d110}	;@ Deprecated
   23f70:	bd74e65c 	ldcllt	6, cr14, [r4, #-368]!	; 0xfffffe90
   23f74:	bd6e9ff1 	stcllt	15, cr9, [lr, #-964]!	; 0xfffffc3c
   23f78:	bd685a92 	vstmdblt	r8!, {s11-s156}
   23f7c:	bd621427 	cfstrdlt	mvd1, [r2, #-156]!	; 0xffffff64
   23f80:	bd5bcec8 	ldcllt	14, cr12, [fp, #-800]	; 0xfffffce0
   23f84:	bd55885d 	ldcllt	8, cr8, [r5, #-372]	; 0xfffffe8c
   23f88:	bd4f41f2 	stflte	f4, [pc, #-968]	; 23bc8 <vsintable+0x3bbc>
   23f8c:	bd48fb87 	vstrlt	d31, [r8, #-540]	; 0xfffffde4
   23f90:	bd42b40f 	cfstrdlt	mvd11, [r2, #-60]	; 0xffffffc4
   23f94:	bd3c6da4 	ldclt	13, cr6, [ip, #-656]!	; 0xfffffd70
   23f98:	bd362739 	ldclt	7, cr2, [r6, #-228]!	; 0xffffff1c
   23f9c:	bd2fdfc2 	stclt	15, cr13, [pc, #-776]!	; 23c9c <vsintable+0x3c90>
   23fa0:	bd299956 			; <UNDEFINED> instruction: 0xbd299956
   23fa4:	bd2351df 	stflts	f5, [r3, #-892]!	; 0xfffffc84
   23fa8:	bd1d0a67 	vldrlt	s0, [sp, #-412]	; 0xfffffe64
   23fac:	bd16c2f0 	lfmlt	f4, 1, [r6, #-960]	; 0xfffffc40
   23fb0:	bd107b78 	vldrlt	d7, [r0, #-480]	; 0xfffffe20
   23fb4:	bd0a3401 	cfstrslt	mvf3, [sl, #-4]
   23fb8:	bd03ec89 	stclt	12, cr14, [r3, #-548]	; 0xfffffddc
   23fbc:	bcfb4a23 	vldmialt	fp!, {s9-s43}
   23fc0:	bceebb34 	vstmialt	lr!, {d27-<overflow reg d52>}
   23fc4:	bce22a2c 	vstmialt	r2!, {s5-s48}
   23fc8:	bcd59b3d 	fldmiaxlt	r5, {d25-d54}	;@ Deprecated
   23fcc:	bcc90a35 	vstmialt	r9, {s1-s53}
   23fd0:	bcbc7b46 	vldmialt	ip!, {d7-<overflow reg d41>}
   23fd4:	bcafea3e 	vstmialt	pc!, {s28-s89}
   23fd8:	bca35936 			; <UNDEFINED> instruction: 0xbca35936
   23fdc:	bc96ca47 	vldmialt	r6, {s24-s94}
   23fe0:	bc8a393f 			; <UNDEFINED> instruction: 0xbc8a393f
   23fe4:	bc7b506e 	ldcllt	0, cr5, [fp], #-440	; 0xfffffe48
   23fe8:	bc622e5e 	stcllt	14, cr2, [r2], #-376	; 0xfffffe88
   23fec:	bc491080 	mcrrlt	0, 8, r1, r9, cr0
   23ff0:	bc2fee70 	stclt	14, cr14, [pc], #-448	; 23e38 <vsintable+0x3e2c>
   23ff4:	bc16cc60 	ldclt	12, cr12, [r6], {96}	; 0x60
   23ff8:	bbfb54a0 	bllt	ffef9280 <mailbox_data+0xffec0b80>
   23ffc:	bbc91080 	bllt	ff268204 <mailbox_data+0xff22fb04>
   24000:	bb96cc60 	bllt	fe5d7188 <mailbox_data+0xfe59ea88>
   24004:	bb491080 	bllt	126820c <mailbox_data+0x122fb0c>
   24008:	bac91080 	blt	ff268210 <mailbox_data+0xff22fb10>

Disassembly of section .bss:

00024100 <frames.5541>:
   24100:	00000000 	andeq	r0, r0, r0

00024104 <last.5540>:
   24104:	00000000 	andeq	r0, r0, r0

00024108 <info.5539>:
	...

00024120 <dma_cb_index>:
	...

00024140 <g_dma_cbs>:
	...

00038140 <g_dma_cb_head>:
   38140:	00000000 	andeq	r0, r0, r0

00038144 <heaps>:
	...

00038600 <mailbox_fb_data>:
	...

00038700 <mailbox_data>:
	...

Disassembly of section .comment:

00000000 <.comment>:
   0:	3a434347 	bcc	10d0d24 <mailbox_data+0x1098624>
   4:	35312820 	ldrcc	r2, [r1, #-2080]!	; 0xfffff7e0
   8:	322d393a 	eorcc	r3, sp, #950272	; 0xe8000
   c:	2d393130 	ldfcss	f3, [r9, #-192]!	; 0xffffff40
  10:	302d3471 	eorcc	r3, sp, r1, ror r4
  14:	6e756275 	mrcvs	2, 3, r6, cr5, cr5, {3}
  18:	29317574 	ldmdbcs	r1!, {r2, r4, r5, r6, r8, sl, ip, sp, lr}
  1c:	322e3920 	eorcc	r3, lr, #32, 18	; 0x80000
  20:	3220312e 	eorcc	r3, r0, #-2147483637	; 0x8000000b
  24:	31393130 	teqcc	r9, r0, lsr r1
  28:	20353230 	eorscs	r3, r5, r0, lsr r2
  2c:	6c657228 	sfmvs	f7, 2, [r5], #-160	; 0xffffff60
  30:	65736165 	ldrbvs	r6, [r3, #-357]!	; 0xfffffe9b
  34:	415b2029 	cmpmi	fp, r9, lsr #32
  38:	612f4d52 			; <UNDEFINED> instruction: 0x612f4d52
  3c:	392d6d72 	pushcc	{r1, r4, r5, r6, r8, sl, fp, sp, lr}
  40:	6172622d 	cmnvs	r2, sp, lsr #4
  44:	2068636e 	rsbcs	r6, r8, lr, ror #6
  48:	69766572 	ldmdbvs	r6!, {r1, r4, r5, r6, r8, sl, sp, lr}^
  4c:	6e6f6973 			; <UNDEFINED> instruction: 0x6e6f6973
  50:	37373220 	ldrcc	r3, [r7, -r0, lsr #4]!
  54:	5d393935 			; <UNDEFINED> instruction: 0x5d393935
	...

Disassembly of section .ARM.attributes:

00000000 <.ARM.attributes>:
   0:	00002b41 	andeq	r2, r0, r1, asr #22
   4:	61656100 	cmnvs	r5, r0, lsl #2
   8:	01006962 	tsteq	r0, r2, ror #18
   c:	00000021 	andeq	r0, r0, r1, lsr #32
  10:	00543405 	subseq	r3, r4, r5, lsl #8
  14:	01080206 	tsteq	r8, r6, lsl #4
  18:	020a0109 	andeq	r0, sl, #1073741826	; 0x40000002
  1c:	01140412 	tsteq	r4, r2, lsl r4
  20:	03170115 	tsteq	r7, #1073741829	; 0x40000005
  24:	011a0118 	tsteq	sl, r8, lsl r1
  28:	021e011c 	andseq	r0, lr, #28, 2
