
image.elf:     file format elf32-littlearm


Disassembly of section .text:

00008000 <__start>:
    8000:	e3a00000 	mov	r0, #0
    8004:	e3a01000 	mov	r1, #0
    8008:	e3a02000 	mov	r2, #0
    800c:	e3a03000 	mov	r3, #0
    8010:	e3a04000 	mov	r4, #0
    8014:	e3a05000 	mov	r5, #0
    8018:	e3a06000 	mov	r6, #0
    801c:	e3a07000 	mov	r7, #0
    8020:	e3a08000 	mov	r8, #0
    8024:	e3a09000 	mov	r9, #0
    8028:	e3a0a000 	mov	sl, #0
    802c:	e3a0b000 	mov	fp, #0
    8030:	ee110f10 	mrc	15, 0, r0, cr1, cr0, {0}
    8034:	e3800004 	orr	r0, r0, #4
    8038:	e3800b02 	orr	r0, r0, #2048	; 0x800
    803c:	e3800a01 	orr	r0, r0, #4096	; 0x1000
    8040:	ee010f10 	mcr	15, 0, r0, cr1, cr0, {0}
    8044:	ee110f50 	mrc	15, 0, r0, cr1, cr0, {2}
    8048:	e3800603 	orr	r0, r0, #3145728	; 0x300000
    804c:	e2800503 	add	r0, r0, #12582912	; 0xc00000
    8050:	ee010f50 	mcr	15, 0, r0, cr1, cr0, {2}
    8054:	e3a00101 	mov	r0, #1073741824	; 0x40000000
    8058:	eee80a10 	vmsr	fpexc, r0
    805c:	ee100fb0 	mrc	15, 0, r0, cr0, cr0, {5}
    8060:	e3500003 	cmp	r0, #3
    8064:	0a00000b 	beq	8098 <_looping>
    8068:	e3500002 	cmp	r0, #2
    806c:	0a000009 	beq	8098 <_looping>
    8070:	e3500001 	cmp	r0, #1
    8074:	0a000003 	beq	8088 <_core1_boot>
    8078:	e3a0d902 	mov	sp, #32768	; 0x8000
    807c:	e3a000d3 	mov	r0, #211	; 0xd3
    8080:	e129f000 	msr	CPSR_fc, r0
    8084:	ea000948 	b	a5ac <main>

00008088 <_core1_boot>:
    8088:	e3a0d901 	mov	sp, #16384	; 0x4000
    808c:	e3a000d3 	mov	r0, #211	; 0xd3
    8090:	e129f000 	msr	CPSR_fc, r0
    8094:	ea00008d 	b	82d0 <core1_update>

00008098 <_looping>:
    8098:	eafffffe 	b	8098 <_looping>

0000809c <DataMemoryBarrierAll>:
    809c:	e3a00000 	mov	r0, #0
    80a0:	ee070f16 	mcr	15, 0, r0, cr7, cr6, {0}
    80a4:	ee070f1a 	mcr	15, 0, r0, cr7, cr10, {0}
    80a8:	ee070f1e 	mcr	15, 0, r0, cr7, cr14, {0}
    80ac:	ee070f9a 	mcr	15, 0, r0, cr7, cr10, {4}
    80b0:	ee070fba 	mcr	15, 0, r0, cr7, cr10, {5}
    80b4:	e1a0f00e 	mov	pc, lr

000080b8 <MemoryBarrier>:
    80b8:	ee07cf15 	mcr	15, 0, ip, cr7, cr5, {0}
    80bc:	ee07cfd5 	mcr	15, 0, ip, cr7, cr5, {6}
    80c0:	ee07cf9a 	mcr	15, 0, ip, cr7, cr10, {4}
    80c4:	ee07cf95 	mcr	15, 0, ip, cr7, cr5, {4}
    80c8:	e1a0f00e 	mov	pc, lr

000080cc <SetupCache>:
    80cc:	e3a00000 	mov	r0, #0
    80d0:	ee070f17 	mcr	15, 0, r0, cr7, cr7, {0}
    80d4:	ee080f17 	mcr	15, 0, r0, cr8, cr7, {0}
    80d8:	ee110f10 	mrc	15, 0, r0, cr1, cr0, {0}
    80dc:	e59f104c 	ldr	r1, [pc, #76]	; 8130 <reset_jump+0x14>
    80e0:	e1800001 	orr	r0, r0, r1
    80e4:	ee010f10 	mcr	15, 0, r0, cr1, cr0, {0}
    80e8:	e1a0f00e 	mov	pc, lr

000080ec <DiscardDataCache>:
    80ec:	e3a00000 	mov	r0, #0
    80f0:	ee070f16 	mcr	15, 0, r0, cr7, cr6, {0}
    80f4:	e1a0f00e 	mov	pc, lr

000080f8 <DataMemoryBarrier>:
    80f8:	e3a00000 	mov	r0, #0
    80fc:	ee070fba 	mcr	15, 0, r0, cr7, cr10, {5}
    8100:	e1a0f00e 	mov	pc, lr

00008104 <DataSyncBarrier>:
    8104:	e3a00000 	mov	r0, #0
    8108:	ee070f9a 	mcr	15, 0, r0, cr7, cr10, {4}
    810c:	e1a0f00e 	mov	pc, lr

00008110 <FlushCache>:
    8110:	e3a00000 	mov	r0, #0
    8114:	ee070f1a 	mcr	15, 0, r0, cr7, cr10, {0}
    8118:	e1a0f00e 	mov	pc, lr

0000811c <reset_jump>:
    811c:	e3a01000 	mov	r1, #0
    8120:	e3a02000 	mov	r2, #0
    8124:	e3a03000 	mov	r3, #0
    8128:	e3a04000 	mov	r4, #0
    812c:	e1a0f000 	mov	pc, r0
    8130:	00001004 	andeq	r1, r0, r4

00008134 <func_command>:
    8134:	e92d4070 	push	{r4, r5, r6, lr}
    8138:	e1a04000 	mov	r4, r0
    813c:	e5d03000 	ldrb	r3, [r0]
    8140:	e20330df 	and	r3, r3, #223	; 0xdf
    8144:	e3530044 	cmp	r3, #68	; 0x44
    8148:	02802001 	addeq	r2, r0, #1
    814c:	03a00000 	moveq	r0, #0
    8150:	0a00001e 	beq	81d0 <func_command+0x9c>
    8154:	e3530057 	cmp	r3, #87	; 0x57
    8158:	03a00000 	moveq	r0, #0
    815c:	0a000007 	beq	8180 <func_command+0x4c>
    8160:	ea00002b 	b	8214 <func_command+0xe0>
    8164:	e1a00200 	lsl	r0, r0, #4
    8168:	e35c0009 	cmp	ip, #9
    816c:	90800002 	addls	r0, r0, r2
    8170:	e35e0005 	cmp	lr, #5
    8174:	90800006 	addls	r0, r0, r6
    8178:	e3510005 	cmp	r1, #5
    817c:	90800005 	addls	r0, r0, r5
    8180:	e5f43001 	ldrb	r3, [r4, #1]!
    8184:	e3530000 	cmp	r3, #0
    8188:	e2432030 	sub	r2, r3, #48	; 0x30
    818c:	e243e041 	sub	lr, r3, #65	; 0x41
    8190:	e6efc072 	uxtb	ip, r2
    8194:	e2431061 	sub	r1, r3, #97	; 0x61
    8198:	e2436037 	sub	r6, r3, #55	; 0x37
    819c:	e2435057 	sub	r5, r3, #87	; 0x57
    81a0:	1affffef 	bne	8164 <func_command+0x30>
    81a4:	e3a01a01 	mov	r1, #4096	; 0x1000
    81a8:	e8bd4070 	pop	{r4, r5, r6, lr}
    81ac:	ea0006a9 	b	9c58 <uart_dump>
    81b0:	e1a00200 	lsl	r0, r0, #4
    81b4:	e35e0009 	cmp	lr, #9
    81b8:	e240e030 	sub	lr, r0, #48	; 0x30
    81bc:	9083000e 	addls	r0, r3, lr
    81c0:	e35c0005 	cmp	ip, #5
    81c4:	90800006 	addls	r0, r0, r6
    81c8:	e3510005 	cmp	r1, #5
    81cc:	90800005 	addls	r0, r0, r5
    81d0:	e5d23000 	ldrb	r3, [r2]
    81d4:	e1a04002 	mov	r4, r2
    81d8:	e2822001 	add	r2, r2, #1
    81dc:	e3530000 	cmp	r3, #0
    81e0:	e243e030 	sub	lr, r3, #48	; 0x30
    81e4:	e243c041 	sub	ip, r3, #65	; 0x41
    81e8:	e2431061 	sub	r1, r3, #97	; 0x61
    81ec:	e2436037 	sub	r6, r3, #55	; 0x37
    81f0:	e2435057 	sub	r5, r3, #87	; 0x57
    81f4:	1affffed 	bne	81b0 <func_command+0x7c>
    81f8:	e3a01a01 	mov	r1, #4096	; 0x1000
    81fc:	eb0006ba 	bl	9cec <uart_bytedump>
    8200:	e5d43000 	ldrb	r3, [r4]
    8204:	e20330df 	and	r3, r3, #223	; 0xdf
    8208:	e3530057 	cmp	r3, #87	; 0x57
    820c:	03a00000 	moveq	r0, #0
    8210:	0affffda 	beq	8180 <func_command+0x4c>
    8214:	e8bd8070 	pop	{r4, r5, r6, pc}

00008218 <console_reset>:
    8218:	e92d4010 	push	{r4, lr}
    821c:	e30d4000 	movw	r4, #53248	; 0xd000
    8220:	e3404001 	movt	r4, #1
    8224:	e3a02c01 	mov	r2, #256	; 0x100
    8228:	e3a01000 	mov	r1, #0
    822c:	e1a00004 	mov	r0, r4
    8230:	eb0007c8 	bl	a158 <memset_t>
    8234:	e3a03000 	mov	r3, #0
    8238:	e5c43100 	strb	r3, [r4, #256]	; 0x100
    823c:	e8bd8010 	pop	{r4, pc}

00008240 <console_update>:
    8240:	e92d4070 	push	{r4, r5, r6, lr}
    8244:	e1a05000 	mov	r5, r0
    8248:	eb000642 	bl	9b58 <uart_getc>
    824c:	e2504000 	subs	r4, r0, #0
    8250:	08bd8070 	popeq	{r4, r5, r6, pc}
    8254:	e354000d 	cmp	r4, #13
    8258:	0a000007 	beq	827c <console_update+0x3c>
    825c:	eb000634 	bl	9b34 <uart_putc>
    8260:	e30d3000 	movw	r3, #53248	; 0xd000
    8264:	e3403001 	movt	r3, #1
    8268:	e5d32100 	ldrb	r2, [r3, #256]	; 0x100
    826c:	e7c34002 	strb	r4, [r3, r2]
    8270:	e2822001 	add	r2, r2, #1
    8274:	e5c32100 	strb	r2, [r3, #256]	; 0x100
    8278:	e8bd8070 	pop	{r4, r5, r6, pc}
    827c:	e30d4000 	movw	r4, #53248	; 0xd000
    8280:	eb00062b 	bl	9b34 <uart_putc>
    8284:	e3404001 	movt	r4, #1
    8288:	e3a0000a 	mov	r0, #10
    828c:	e3a06000 	mov	r6, #0
    8290:	eb000627 	bl	9b34 <uart_putc>
    8294:	e5d43100 	ldrb	r3, [r4, #256]	; 0x100
    8298:	e3550000 	cmp	r5, #0
    829c:	e7c46003 	strb	r6, [r4, r3]
    82a0:	e2833001 	add	r3, r3, #1
    82a4:	e5c43100 	strb	r3, [r4, #256]	; 0x100
    82a8:	0a000007 	beq	82cc <console_update+0x8c>
    82ac:	e1a00004 	mov	r0, r4
    82b0:	e12fff35 	blx	r5
    82b4:	e3a02c01 	mov	r2, #256	; 0x100
    82b8:	e1a01006 	mov	r1, r6
    82bc:	e1a00004 	mov	r0, r4
    82c0:	eb0007a4 	bl	a158 <memset_t>
    82c4:	e5c46100 	strb	r6, [r4, #256]	; 0x100
    82c8:	e8bd8070 	pop	{r4, r5, r6, pc}
    82cc:	e8bd8070 	pop	{r4, r5, r6, pc}

000082d0 <core1_update>:
    82d0:	e92d4010 	push	{r4, lr}
    82d4:	eb0005fe 	bl	9ad4 <uart_init>
    82d8:	e30b0000 	movw	r0, #45056	; 0xb000
    82dc:	e3400001 	movt	r0, #1
    82e0:	eb000623 	bl	9b74 <uart_puts>
    82e4:	e3a00601 	mov	r0, #1048576	; 0x100000
    82e8:	eb00078d 	bl	a124 <usleep>
    82ec:	e3080134 	movw	r0, #33076	; 0x8134
    82f0:	e3400000 	movt	r0, #0
    82f4:	ebffffd1 	bl	8240 <console_update>
    82f8:	eafffffb 	b	82ec <core1_update+0x1c>

000082fc <dispDiag>:
    82fc:	e92d41f0 	push	{r4, r5, r6, r7, r8, lr}
    8300:	e3a065ff 	mov	r6, #1069547520	; 0x3fc00000
    8304:	e3a02002 	mov	r2, #2
    8308:	e3a01000 	mov	r1, #0
    830c:	e1a05000 	mov	r5, r0
    8310:	e3a07a01 	mov	r7, #4096	; 0x1000
    8314:	e5960100 	ldr	r0, [r6, #256]	; 0x100
    8318:	e3437f20 	movt	r7, #16160	; 0x3f20
    831c:	eb0006e1 	bl	9ea8 <draw_dword>
    8320:	e5960104 	ldr	r0, [r6, #260]	; 0x104
    8324:	e3a01000 	mov	r1, #0
    8328:	e1a04001 	mov	r4, r1
    832c:	e3a02003 	mov	r2, #3
    8330:	eb0006dc 	bl	9ea8 <draw_dword>
    8334:	e5960f20 	ldr	r0, [r6, #3872]	; 0xf20
    8338:	e3a02004 	mov	r2, #4
    833c:	e1a01004 	mov	r1, r4
    8340:	eb0006d8 	bl	9ea8 <draw_dword>
    8344:	e5960134 	ldr	r0, [r6, #308]	; 0x134
    8348:	e3a02006 	mov	r2, #6
    834c:	e1a01004 	mov	r1, r4
    8350:	eb0006d4 	bl	9ea8 <draw_dword>
    8354:	e5960138 	ldr	r0, [r6, #312]	; 0x138
    8358:	e3a02007 	mov	r2, #7
    835c:	e1a01004 	mov	r1, r4
    8360:	eb0006d0 	bl	9ea8 <draw_dword>
    8364:	e5960130 	ldr	r0, [r6, #304]	; 0x130
    8368:	e3a02008 	mov	r2, #8
    836c:	e1a01004 	mov	r1, r4
    8370:	eb0006cc 	bl	9ea8 <draw_dword>
    8374:	e5960f04 	ldr	r0, [r6, #3844]	; 0xf04
    8378:	e3a02009 	mov	r2, #9
    837c:	e1a01004 	mov	r1, r4
    8380:	eb0006c8 	bl	9ea8 <draw_dword>
    8384:	e5960030 	ldr	r0, [r6, #48]	; 0x30
    8388:	e3a0200a 	mov	r2, #10
    838c:	e1a01004 	mov	r1, r4
    8390:	eb0006c4 	bl	9ea8 <draw_dword>
    8394:	e5960500 	ldr	r0, [r6, #1280]	; 0x500
    8398:	e3a0200b 	mov	r2, #11
    839c:	e1a01004 	mov	r1, r4
    83a0:	eb0006c0 	bl	9ea8 <draw_dword>
    83a4:	e596030c 	ldr	r0, [r6, #780]	; 0x30c
    83a8:	e3a0200c 	mov	r2, #12
    83ac:	e1a01004 	mov	r1, r4
    83b0:	eb0006bc 	bl	9ea8 <draw_dword>
    83b4:	e5960308 	ldr	r0, [r6, #776]	; 0x308
    83b8:	e3a0200d 	mov	r2, #13
    83bc:	e1a01004 	mov	r1, r4
    83c0:	eb0006b8 	bl	9ea8 <draw_dword>
    83c4:	e5960304 	ldr	r0, [r6, #772]	; 0x304
    83c8:	e3a0200e 	mov	r2, #14
    83cc:	e1a01004 	mov	r1, r4
    83d0:	eb0006b4 	bl	9ea8 <draw_dword>
    83d4:	e5960008 	ldr	r0, [r6, #8]
    83d8:	e3a0200f 	mov	r2, #15
    83dc:	e1a01004 	mov	r1, r4
    83e0:	eb0006b0 	bl	9ea8 <draw_dword>
    83e4:	e5970000 	ldr	r0, [r7]
    83e8:	e3a02010 	mov	r2, #16
    83ec:	e1a01004 	mov	r1, r4
    83f0:	eb0006ac 	bl	9ea8 <draw_dword>
    83f4:	e5970018 	ldr	r0, [r7, #24]
    83f8:	e3a02011 	mov	r2, #17
    83fc:	e1a01004 	mov	r1, r4
    8400:	eb0006a8 	bl	9ea8 <draw_dword>
    8404:	e4950004 	ldr	r0, [r5], #4
    8408:	e1a02004 	mov	r2, r4
    840c:	e3a0101b 	mov	r1, #27
    8410:	e2844001 	add	r4, r4, #1
    8414:	eb0006a3 	bl	9ea8 <draw_dword>
    8418:	e3540018 	cmp	r4, #24
    841c:	1afffff8 	bne	8404 <dispDiag+0x108>
    8420:	e8bd81f0 	pop	{r4, r5, r6, r7, r8, pc}

00008424 <uartDiag>:
    8424:	e92d4070 	push	{r4, r5, r6, lr}
    8428:	e30b5010 	movw	r5, #45072	; 0xb010
    842c:	e3405001 	movt	r5, #1
    8430:	e3a045ff 	mov	r4, #1069547520	; 0x3fc00000
    8434:	e1a00005 	mov	r0, r5
    8438:	eb0005cd 	bl	9b74 <uart_puts>
    843c:	e5941100 	ldr	r1, [r4, #256]	; 0x100
    8440:	e30b0048 	movw	r0, #45128	; 0xb048
    8444:	e3400001 	movt	r0, #1
    8448:	eb0005e1 	bl	9bd4 <uart_debug_puts>
    844c:	e5941104 	ldr	r1, [r4, #260]	; 0x104
    8450:	e30b0064 	movw	r0, #45156	; 0xb064
    8454:	e3400001 	movt	r0, #1
    8458:	eb0005dd 	bl	9bd4 <uart_debug_puts>
    845c:	e5941f20 	ldr	r1, [r4, #3872]	; 0xf20
    8460:	e30b0080 	movw	r0, #45184	; 0xb080
    8464:	e3400001 	movt	r0, #1
    8468:	eb0005d9 	bl	9bd4 <uart_debug_puts>
    846c:	e5941134 	ldr	r1, [r4, #308]	; 0x134
    8470:	e30b009c 	movw	r0, #45212	; 0xb09c
    8474:	e3400001 	movt	r0, #1
    8478:	eb0005d5 	bl	9bd4 <uart_debug_puts>
    847c:	e5941138 	ldr	r1, [r4, #312]	; 0x138
    8480:	e30b00b8 	movw	r0, #45240	; 0xb0b8
    8484:	e3400001 	movt	r0, #1
    8488:	eb0005d1 	bl	9bd4 <uart_debug_puts>
    848c:	e5941130 	ldr	r1, [r4, #304]	; 0x130
    8490:	e30b00d4 	movw	r0, #45268	; 0xb0d4
    8494:	e3400001 	movt	r0, #1
    8498:	eb0005cd 	bl	9bd4 <uart_debug_puts>
    849c:	e5941f04 	ldr	r1, [r4, #3844]	; 0xf04
    84a0:	e30b00f0 	movw	r0, #45296	; 0xb0f0
    84a4:	e3400001 	movt	r0, #1
    84a8:	eb0005c9 	bl	9bd4 <uart_debug_puts>
    84ac:	e5941030 	ldr	r1, [r4, #48]	; 0x30
    84b0:	e30b010c 	movw	r0, #45324	; 0xb10c
    84b4:	e3400001 	movt	r0, #1
    84b8:	eb0005c5 	bl	9bd4 <uart_debug_puts>
    84bc:	e5941500 	ldr	r1, [r4, #1280]	; 0x500
    84c0:	e30b0128 	movw	r0, #45352	; 0xb128
    84c4:	e3400001 	movt	r0, #1
    84c8:	eb0005c1 	bl	9bd4 <uart_debug_puts>
    84cc:	e594130c 	ldr	r1, [r4, #780]	; 0x30c
    84d0:	e30b0144 	movw	r0, #45380	; 0xb144
    84d4:	e3400001 	movt	r0, #1
    84d8:	eb0005bd 	bl	9bd4 <uart_debug_puts>
    84dc:	e5941308 	ldr	r1, [r4, #776]	; 0x308
    84e0:	e30b0160 	movw	r0, #45408	; 0xb160
    84e4:	e3400001 	movt	r0, #1
    84e8:	eb0005b9 	bl	9bd4 <uart_debug_puts>
    84ec:	e5941304 	ldr	r1, [r4, #772]	; 0x304
    84f0:	e30b017c 	movw	r0, #45436	; 0xb17c
    84f4:	e3400001 	movt	r0, #1
    84f8:	eb0005b5 	bl	9bd4 <uart_debug_puts>
    84fc:	e5941008 	ldr	r1, [r4, #8]
    8500:	e30b0198 	movw	r0, #45464	; 0xb198
    8504:	e3400001 	movt	r0, #1
    8508:	eb0005b1 	bl	9bd4 <uart_debug_puts>
    850c:	e1a00005 	mov	r0, r5
    8510:	e8bd4070 	pop	{r4, r5, r6, lr}
    8514:	ea000596 	b	9b74 <uart_puts>

00008518 <get_fontdata16x16>:
    8518:	e30b0000 	movw	r0, #45056	; 0xb000
    851c:	e3400000 	movt	r0, #0
    8520:	e12fff1e 	bx	lr

00008524 <disp_wakeup_v3d>:
    8524:	e92d4070 	push	{r4, r5, r6, lr}
    8528:	e3a06e1d 	mov	r6, #464	; 0x1d0
    852c:	e3a04583 	mov	r4, #549453824	; 0x20c00000
    8530:	e34260c0 	movt	r6, #8384	; 0x20c0
    8534:	e3a05000 	mov	r5, #0
    8538:	e5940000 	ldr	r0, [r4]
    853c:	e1a02005 	mov	r2, r5
    8540:	e3a01000 	mov	r1, #0
    8544:	e2844010 	add	r4, r4, #16
    8548:	eb000656 	bl	9ea8 <draw_dword>
    854c:	e514000c 	ldr	r0, [r4, #-12]
    8550:	e1a02005 	mov	r2, r5
    8554:	e3a01009 	mov	r1, #9
    8558:	eb000652 	bl	9ea8 <draw_dword>
    855c:	e5140008 	ldr	r0, [r4, #-8]
    8560:	e1a02005 	mov	r2, r5
    8564:	e3a01012 	mov	r1, #18
    8568:	eb00064e 	bl	9ea8 <draw_dword>
    856c:	e5140004 	ldr	r0, [r4, #-4]
    8570:	e1a02005 	mov	r2, r5
    8574:	e3a0101b 	mov	r1, #27
    8578:	e2855001 	add	r5, r5, #1
    857c:	eb000649 	bl	9ea8 <draw_dword>
    8580:	e1540006 	cmp	r4, r6
    8584:	1affffeb 	bne	8538 <disp_wakeup_v3d+0x14>
    8588:	e8bd8070 	pop	{r4, r5, r6, pc}

0000858c <output_enable_status_led.part.0>:
    858c:	e3a03000 	mov	r3, #0
    8590:	e3a02602 	mov	r2, #2097152	; 0x200000
    8594:	e3433f20 	movt	r3, #16160	; 0x3f20
    8598:	e3a00ffa 	mov	r0, #1000	; 0x3e8
    859c:	e5832010 	str	r2, [r3, #16]
    85a0:	ea0006df 	b	a124 <usleep>

000085a4 <_hald_led>:
    85a4:	e92d4080 	push	{r7, lr}
    85a8:	e3a04000 	mov	r4, #0
    85ac:	e3a06902 	mov	r6, #32768	; 0x8000
    85b0:	e3434f20 	movt	r4, #16160	; 0x3f20
    85b4:	e1a07006 	mov	r7, r6
    85b8:	e1a05000 	mov	r5, r0
    85bc:	ebfffff2 	bl	858c <output_enable_status_led.part.0>
    85c0:	e5847020 	str	r7, [r4, #32]
    85c4:	e1a00005 	mov	r0, r5
    85c8:	eb0006d5 	bl	a124 <usleep>
    85cc:	e584602c 	str	r6, [r4, #44]	; 0x2c
    85d0:	e1a00005 	mov	r0, r5
    85d4:	eb0006d2 	bl	a124 <usleep>
    85d8:	eafffff8 	b	85c0 <_hald_led+0x1c>

000085dc <output_enable_status_led>:
    85dc:	eaffffea 	b	858c <output_enable_status_led.part.0>

000085e0 <halt_led0>:
    85e0:	e92d4010 	push	{r4, lr}
    85e4:	e30c0350 	movw	r0, #50000	; 0xc350
    85e8:	ebffffed 	bl	85a4 <_hald_led>

000085ec <halt_led1>:
    85ec:	e30a0e60 	movw	r0, #44640	; 0xae60
    85f0:	e92d4010 	push	{r4, lr}
    85f4:	e340000a 	movt	r0, #10
    85f8:	ebffffe9 	bl	85a4 <_hald_led>

000085fc <on_status_led>:
    85fc:	e92d4010 	push	{r4, lr}
    8600:	ebffffe1 	bl	858c <output_enable_status_led.part.0>
    8604:	e3a03000 	mov	r3, #0
    8608:	e3a02902 	mov	r2, #32768	; 0x8000
    860c:	e3433f20 	movt	r3, #16160	; 0x3f20
    8610:	e583202c 	str	r2, [r3, #44]	; 0x2c
    8614:	e8bd8010 	pop	{r4, pc}

00008618 <off_status_led>:
    8618:	e92d4010 	push	{r4, lr}
    861c:	ebffffda 	bl	858c <output_enable_status_led.part.0>
    8620:	e3a03000 	mov	r3, #0
    8624:	e3a02902 	mov	r2, #32768	; 0x8000
    8628:	e3433f20 	movt	r3, #16160	; 0x3f20
    862c:	e5832020 	str	r2, [r3, #32]
    8630:	e8bd8010 	pop	{r4, pc}

00008634 <mark_status_led>:
    8634:	e92d4070 	push	{r4, r5, r6, lr}
    8638:	e3a05000 	mov	r5, #0
    863c:	e3a0400a 	mov	r4, #10
    8640:	e3435f20 	movt	r5, #16160	; 0x3f20
    8644:	e3a06902 	mov	r6, #32768	; 0x8000
    8648:	ebffffcf 	bl	858c <output_enable_status_led.part.0>
    864c:	e5856020 	str	r6, [r5, #32]
    8650:	e30806a0 	movw	r0, #34464	; 0x86a0
    8654:	e3400001 	movt	r0, #1
    8658:	eb0006b1 	bl	a124 <usleep>
    865c:	e585602c 	str	r6, [r5, #44]	; 0x2c
    8660:	e30806a0 	movw	r0, #34464	; 0x86a0
    8664:	e3400001 	movt	r0, #1
    8668:	eb0006ad 	bl	a124 <usleep>
    866c:	e2544001 	subs	r4, r4, #1
    8670:	1afffff5 	bne	864c <mark_status_led+0x18>
    8674:	e8bd8070 	pop	{r4, r5, r6, pc}

00008678 <ArmToVc>:
    8678:	e2800103 	add	r0, r0, #-1073741824	; 0xc0000000
    867c:	e12fff1e 	bx	lr

00008680 <VcToArm>:
    8680:	e3c00103 	bic	r0, r0, #-1073741824	; 0xc0000000
    8684:	e12fff1e 	bx	lr

00008688 <mailbox_fb_getaddr>:
    8688:	e30d0200 	movw	r0, #53760	; 0xd200
    868c:	e3400001 	movt	r0, #1
    8690:	e12fff1e 	bx	lr

00008694 <mailbox_read>:
    8694:	e92d40f0 	push	{r4, r5, r6, r7, lr}
    8698:	e3a04a0b 	mov	r4, #45056	; 0xb000
    869c:	e24dd00c 	sub	sp, sp, #12
    86a0:	e3a03000 	mov	r3, #0
    86a4:	e3434f00 	movt	r4, #16128	; 0x3f00
    86a8:	e1a06000 	mov	r6, r0
    86ac:	e58d3004 	str	r3, [sp, #4]
    86b0:	e1a07004 	mov	r7, r4
    86b4:	ebffffd0 	bl	85fc <on_status_led>
    86b8:	ebfffe7e 	bl	80b8 <MemoryBarrier>
    86bc:	e5943898 	ldr	r3, [r4, #2200]	; 0x898
    86c0:	e3a00801 	mov	r0, #65536	; 0x10000
    86c4:	e3130101 	tst	r3, #1073741824	; 0x40000000
    86c8:	0a00000a 	beq	86f8 <mailbox_read+0x64>
    86cc:	eb000694 	bl	a124 <usleep>
    86d0:	e59d3004 	ldr	r3, [sp, #4]
    86d4:	e2833001 	add	r3, r3, #1
    86d8:	e58d3004 	str	r3, [sp, #4]
    86dc:	e59d3004 	ldr	r3, [sp, #4]
    86e0:	e3530a05 	cmp	r3, #20480	; 0x5000
    86e4:	dafffff4 	ble	86bc <mailbox_read+0x28>
    86e8:	ebffffca 	bl	8618 <off_status_led>
    86ec:	e3a00000 	mov	r0, #0
    86f0:	e28dd00c 	add	sp, sp, #12
    86f4:	e8bd80f0 	pop	{r4, r5, r6, r7, pc}
    86f8:	ebfffe6e 	bl	80b8 <MemoryBarrier>
    86fc:	e5975880 	ldr	r5, [r7, #2176]	; 0x880
    8700:	e205300f 	and	r3, r5, #15
    8704:	e1530006 	cmp	r3, r6
    8708:	1affffea 	bne	86b8 <mailbox_read+0x24>
    870c:	ebffffc1 	bl	8618 <off_status_led>
    8710:	e3c5000f 	bic	r0, r5, #15
    8714:	eafffff5 	b	86f0 <mailbox_read+0x5c>

00008718 <mailbox_write>:
    8718:	e92d4070 	push	{r4, r5, r6, lr}
    871c:	e1a04000 	mov	r4, r0
    8720:	e1a05001 	mov	r5, r1
    8724:	ebfffe63 	bl	80b8 <MemoryBarrier>
    8728:	ebffffb3 	bl	85fc <on_status_led>
    872c:	e3a03a0b 	mov	r3, #45056	; 0xb000
    8730:	e3433f00 	movt	r3, #16128	; 0x3f00
    8734:	e5932898 	ldr	r2, [r3, #2200]	; 0x898
    8738:	e3520000 	cmp	r2, #0
    873c:	ba000008 	blt	8764 <mailbox_write+0x4c>
    8740:	ebffffb4 	bl	8618 <off_status_led>
    8744:	ebfffe5b 	bl	80b8 <MemoryBarrier>
    8748:	e3c5000f 	bic	r0, r5, #15
    874c:	e3a03a0b 	mov	r3, #45056	; 0xb000
    8750:	e1800004 	orr	r0, r0, r4
    8754:	e3433f00 	movt	r3, #16128	; 0x3f00
    8758:	e58308a0 	str	r0, [r3, #2208]	; 0x8a0
    875c:	e3a00000 	mov	r0, #0
    8760:	e8bd8070 	pop	{r4, r5, r6, pc}
    8764:	e1a06003 	mov	r6, r3
    8768:	e3a00801 	mov	r0, #65536	; 0x10000
    876c:	eb00066c 	bl	a124 <usleep>
    8770:	e5963898 	ldr	r3, [r6, #2200]	; 0x898
    8774:	e3530000 	cmp	r3, #0
    8778:	aafffff0 	bge	8740 <mailbox_write+0x28>
    877c:	eafffff9 	b	8768 <mailbox_write+0x50>

00008780 <mailbox_qpu_enable>:
    8780:	e92d4070 	push	{r4, r5, r6, lr}
    8784:	e30d5200 	movw	r5, #53760	; 0xd200
    8788:	e3405001 	movt	r5, #1
    878c:	e308c002 	movw	ip, #32770	; 0x8002
    8790:	e3a03000 	mov	r3, #0
    8794:	e340c003 	movt	ip, #3
    8798:	e5853100 	str	r3, [r5, #256]	; 0x100
    879c:	e30b0280 	movw	r0, #45696	; 0xb280
    87a0:	e5853104 	str	r3, [r5, #260]	; 0x104
    87a4:	e3a02008 	mov	r2, #8
    87a8:	e585c108 	str	ip, [r5, #264]	; 0x108
    87ac:	e3400ee6 	movt	r0, #3814	; 0xee6
    87b0:	e585210c 	str	r2, [r5, #268]	; 0x10c
    87b4:	e3a0c005 	mov	ip, #5
    87b8:	e5852110 	str	r2, [r5, #272]	; 0x110
    87bc:	e3a01012 	mov	r1, #18
    87c0:	e585c114 	str	ip, [r5, #276]	; 0x114
    87c4:	e3a02004 	mov	r2, #4
    87c8:	e5850118 	str	r0, [r5, #280]	; 0x118
    87cc:	e3401003 	movt	r1, #3
    87d0:	e585111c 	str	r1, [r5, #284]	; 0x11c
    87d4:	e3a0c001 	mov	ip, #1
    87d8:	e5852120 	str	r2, [r5, #288]	; 0x120
    87dc:	e3a00030 	mov	r0, #48	; 0x30
    87e0:	e5852124 	str	r2, [r5, #292]	; 0x124
    87e4:	e1a06005 	mov	r6, r5
    87e8:	e585c128 	str	ip, [r5, #296]	; 0x128
    87ec:	e585312c 	str	r3, [r5, #300]	; 0x12c
    87f0:	e5850100 	str	r0, [r5, #256]	; 0x100
    87f4:	ea000001 	b	8800 <mailbox_qpu_enable+0x80>
    87f8:	e5961104 	ldr	r1, [r6, #260]	; 0x104
    87fc:	eb0004f4 	bl	9bd4 <uart_debug_puts>
    8800:	e30d1200 	movw	r1, #53760	; 0xd200
    8804:	e3a00008 	mov	r0, #8
    8808:	e3401001 	movt	r1, #1
    880c:	e30d4200 	movw	r4, #53760	; 0xd200
    8810:	e2811103 	add	r1, r1, #-1073741824	; 0xc0000000
    8814:	e3404001 	movt	r4, #1
    8818:	e2811c01 	add	r1, r1, #256	; 0x100
    881c:	ebffffbd 	bl	8718 <mailbox_write>
    8820:	e3a00008 	mov	r0, #8
    8824:	ebffff9a 	bl	8694 <mailbox_read>
    8828:	e5953104 	ldr	r3, [r5, #260]	; 0x104
    882c:	e30b0298 	movw	r0, #45720	; 0xb298
    8830:	e3400001 	movt	r0, #1
    8834:	e3530102 	cmp	r3, #-2147483648	; 0x80000000
    8838:	1affffee 	bne	87f8 <mailbox_qpu_enable+0x78>
    883c:	e5941104 	ldr	r1, [r4, #260]	; 0x104
    8840:	e30b02bc 	movw	r0, #45756	; 0xb2bc
    8844:	e3400001 	movt	r0, #1
    8848:	eb0004e1 	bl	9bd4 <uart_debug_puts>
    884c:	e5940104 	ldr	r0, [r4, #260]	; 0x104
    8850:	e8bd8070 	pop	{r4, r5, r6, pc}

00008854 <mailbox_allocate_memory>:
    8854:	e92d4070 	push	{r4, r5, r6, lr}
    8858:	e30d5200 	movw	r5, #53760	; 0xd200
    885c:	e3405001 	movt	r5, #1
    8860:	e3a0e00c 	mov	lr, #12
    8864:	e3a03000 	mov	r3, #0
    8868:	e340e003 	movt	lr, #3
    886c:	e5853100 	str	r3, [r5, #256]	; 0x100
    8870:	e3a0c00c 	mov	ip, #12
    8874:	e5853104 	str	r3, [r5, #260]	; 0x104
    8878:	e1a06005 	mov	r6, r5
    887c:	e585e108 	str	lr, [r5, #264]	; 0x108
    8880:	e3a0e024 	mov	lr, #36	; 0x24
    8884:	e585c10c 	str	ip, [r5, #268]	; 0x10c
    8888:	e585c110 	str	ip, [r5, #272]	; 0x110
    888c:	e5850114 	str	r0, [r5, #276]	; 0x114
    8890:	e5851118 	str	r1, [r5, #280]	; 0x118
    8894:	e585211c 	str	r2, [r5, #284]	; 0x11c
    8898:	e5853120 	str	r3, [r5, #288]	; 0x120
    889c:	e585e100 	str	lr, [r5, #256]	; 0x100
    88a0:	ea000001 	b	88ac <mailbox_allocate_memory+0x58>
    88a4:	e5961104 	ldr	r1, [r6, #260]	; 0x104
    88a8:	eb0004c9 	bl	9bd4 <uart_debug_puts>
    88ac:	e30d1200 	movw	r1, #53760	; 0xd200
    88b0:	e3a00008 	mov	r0, #8
    88b4:	e3401001 	movt	r1, #1
    88b8:	e30d4200 	movw	r4, #53760	; 0xd200
    88bc:	e2811103 	add	r1, r1, #-1073741824	; 0xc0000000
    88c0:	e3404001 	movt	r4, #1
    88c4:	e2811c01 	add	r1, r1, #256	; 0x100
    88c8:	ebffff92 	bl	8718 <mailbox_write>
    88cc:	e3a00008 	mov	r0, #8
    88d0:	ebffff6f 	bl	8694 <mailbox_read>
    88d4:	e5953104 	ldr	r3, [r5, #260]	; 0x104
    88d8:	e30b02d4 	movw	r0, #45780	; 0xb2d4
    88dc:	e3400001 	movt	r0, #1
    88e0:	e3530102 	cmp	r3, #-2147483648	; 0x80000000
    88e4:	1affffee 	bne	88a4 <mailbox_allocate_memory+0x50>
    88e8:	e5941114 	ldr	r1, [r4, #276]	; 0x114
    88ec:	e30b02f8 	movw	r0, #45816	; 0xb2f8
    88f0:	e3400001 	movt	r0, #1
    88f4:	eb0004b6 	bl	9bd4 <uart_debug_puts>
    88f8:	e5940114 	ldr	r0, [r4, #276]	; 0x114
    88fc:	e8bd8070 	pop	{r4, r5, r6, pc}

00008900 <mailbox_free_memory>:
    8900:	e92d4070 	push	{r4, r5, r6, lr}
    8904:	e30d4200 	movw	r4, #53760	; 0xd200
    8908:	e3404001 	movt	r4, #1
    890c:	e3a0100f 	mov	r1, #15
    8910:	e3a03000 	mov	r3, #0
    8914:	e3401003 	movt	r1, #3
    8918:	e5843100 	str	r3, [r4, #256]	; 0x100
    891c:	e3a02004 	mov	r2, #4
    8920:	e5843104 	str	r3, [r4, #260]	; 0x104
    8924:	e1a05004 	mov	r5, r4
    8928:	e5841108 	str	r1, [r4, #264]	; 0x108
    892c:	e3a0101c 	mov	r1, #28
    8930:	e584210c 	str	r2, [r4, #268]	; 0x10c
    8934:	e5842110 	str	r2, [r4, #272]	; 0x110
    8938:	e5840114 	str	r0, [r4, #276]	; 0x114
    893c:	e5843118 	str	r3, [r4, #280]	; 0x118
    8940:	e5841100 	str	r1, [r4, #256]	; 0x100
    8944:	ea000001 	b	8950 <mailbox_free_memory+0x50>
    8948:	e5951104 	ldr	r1, [r5, #260]	; 0x104
    894c:	eb0004a0 	bl	9bd4 <uart_debug_puts>
    8950:	e30d1200 	movw	r1, #53760	; 0xd200
    8954:	e3a00008 	mov	r0, #8
    8958:	e3401001 	movt	r1, #1
    895c:	e2811103 	add	r1, r1, #-1073741824	; 0xc0000000
    8960:	e2811c01 	add	r1, r1, #256	; 0x100
    8964:	ebffff6b 	bl	8718 <mailbox_write>
    8968:	e3a00008 	mov	r0, #8
    896c:	ebffff48 	bl	8694 <mailbox_read>
    8970:	e5942104 	ldr	r2, [r4, #260]	; 0x104
    8974:	e30b02d4 	movw	r0, #45780	; 0xb2d4
    8978:	e30d3200 	movw	r3, #53760	; 0xd200
    897c:	e3400001 	movt	r0, #1
    8980:	e3520102 	cmp	r2, #-2147483648	; 0x80000000
    8984:	e3403001 	movt	r3, #1
    8988:	1affffee 	bne	8948 <mailbox_free_memory+0x48>
    898c:	e5930114 	ldr	r0, [r3, #276]	; 0x114
    8990:	e8bd8070 	pop	{r4, r5, r6, pc}

00008994 <mailbox_lock_memory>:
    8994:	e92d4070 	push	{r4, r5, r6, lr}
    8998:	e30d5200 	movw	r5, #53760	; 0xd200
    899c:	e3405001 	movt	r5, #1
    89a0:	e3a0100d 	mov	r1, #13
    89a4:	e3a03000 	mov	r3, #0
    89a8:	e3401003 	movt	r1, #3
    89ac:	e5853100 	str	r3, [r5, #256]	; 0x100
    89b0:	e3a02004 	mov	r2, #4
    89b4:	e5853104 	str	r3, [r5, #260]	; 0x104
    89b8:	e1a06005 	mov	r6, r5
    89bc:	e5851108 	str	r1, [r5, #264]	; 0x108
    89c0:	e3a0101c 	mov	r1, #28
    89c4:	e585210c 	str	r2, [r5, #268]	; 0x10c
    89c8:	e5852110 	str	r2, [r5, #272]	; 0x110
    89cc:	e5850114 	str	r0, [r5, #276]	; 0x114
    89d0:	e5853118 	str	r3, [r5, #280]	; 0x118
    89d4:	e5851100 	str	r1, [r5, #256]	; 0x100
    89d8:	ea000001 	b	89e4 <mailbox_lock_memory+0x50>
    89dc:	e5961104 	ldr	r1, [r6, #260]	; 0x104
    89e0:	eb00047b 	bl	9bd4 <uart_debug_puts>
    89e4:	e30d1200 	movw	r1, #53760	; 0xd200
    89e8:	e3a00008 	mov	r0, #8
    89ec:	e3401001 	movt	r1, #1
    89f0:	e30d4200 	movw	r4, #53760	; 0xd200
    89f4:	e2811103 	add	r1, r1, #-1073741824	; 0xc0000000
    89f8:	e3404001 	movt	r4, #1
    89fc:	e2811c01 	add	r1, r1, #256	; 0x100
    8a00:	ebffff44 	bl	8718 <mailbox_write>
    8a04:	e3a00008 	mov	r0, #8
    8a08:	ebffff21 	bl	8694 <mailbox_read>
    8a0c:	e5953104 	ldr	r3, [r5, #260]	; 0x104
    8a10:	e30b031c 	movw	r0, #45852	; 0xb31c
    8a14:	e3400001 	movt	r0, #1
    8a18:	e3530102 	cmp	r3, #-2147483648	; 0x80000000
    8a1c:	1affffee 	bne	89dc <mailbox_lock_memory+0x48>
    8a20:	e5941114 	ldr	r1, [r4, #276]	; 0x114
    8a24:	e30b0340 	movw	r0, #45888	; 0xb340
    8a28:	e3400001 	movt	r0, #1
    8a2c:	eb000468 	bl	9bd4 <uart_debug_puts>
    8a30:	e5940114 	ldr	r0, [r4, #276]	; 0x114
    8a34:	e8bd8070 	pop	{r4, r5, r6, pc}

00008a38 <mailbox_unlock_memory>:
    8a38:	e92d4070 	push	{r4, r5, r6, lr}
    8a3c:	e30d5200 	movw	r5, #53760	; 0xd200
    8a40:	e3405001 	movt	r5, #1
    8a44:	e3a0100e 	mov	r1, #14
    8a48:	e3a03000 	mov	r3, #0
    8a4c:	e3401003 	movt	r1, #3
    8a50:	e5853100 	str	r3, [r5, #256]	; 0x100
    8a54:	e3a02004 	mov	r2, #4
    8a58:	e5853104 	str	r3, [r5, #260]	; 0x104
    8a5c:	e1a06005 	mov	r6, r5
    8a60:	e5851108 	str	r1, [r5, #264]	; 0x108
    8a64:	e3a0101c 	mov	r1, #28
    8a68:	e585210c 	str	r2, [r5, #268]	; 0x10c
    8a6c:	e5852110 	str	r2, [r5, #272]	; 0x110
    8a70:	e5850114 	str	r0, [r5, #276]	; 0x114
    8a74:	e5853118 	str	r3, [r5, #280]	; 0x118
    8a78:	e5851100 	str	r1, [r5, #256]	; 0x100
    8a7c:	ea000001 	b	8a88 <mailbox_unlock_memory+0x50>
    8a80:	e5961104 	ldr	r1, [r6, #260]	; 0x104
    8a84:	eb000452 	bl	9bd4 <uart_debug_puts>
    8a88:	e30d1200 	movw	r1, #53760	; 0xd200
    8a8c:	e3a00008 	mov	r0, #8
    8a90:	e3401001 	movt	r1, #1
    8a94:	e30d4200 	movw	r4, #53760	; 0xd200
    8a98:	e2811103 	add	r1, r1, #-1073741824	; 0xc0000000
    8a9c:	e3404001 	movt	r4, #1
    8aa0:	e2811c01 	add	r1, r1, #256	; 0x100
    8aa4:	ebffff1b 	bl	8718 <mailbox_write>
    8aa8:	e3a00008 	mov	r0, #8
    8aac:	ebfffef8 	bl	8694 <mailbox_read>
    8ab0:	e5953104 	ldr	r3, [r5, #260]	; 0x104
    8ab4:	e30b02d4 	movw	r0, #45780	; 0xb2d4
    8ab8:	e3400001 	movt	r0, #1
    8abc:	e3530102 	cmp	r3, #-2147483648	; 0x80000000
    8ac0:	1affffee 	bne	8a80 <mailbox_unlock_memory+0x48>
    8ac4:	e5941114 	ldr	r1, [r4, #276]	; 0x114
    8ac8:	e30b035c 	movw	r0, #45916	; 0xb35c
    8acc:	e3400001 	movt	r0, #1
    8ad0:	eb00043f 	bl	9bd4 <uart_debug_puts>
    8ad4:	e5940114 	ldr	r0, [r4, #276]	; 0x114
    8ad8:	e8bd8070 	pop	{r4, r5, r6, pc}

00008adc <mailbox_fb_init>:
    8adc:	e92d4070 	push	{r4, r5, r6, lr}
    8ae0:	e30d5200 	movw	r5, #53760	; 0xd200
    8ae4:	e3405001 	movt	r5, #1
    8ae8:	e3a03000 	mov	r3, #0
    8aec:	e3a02020 	mov	r2, #32
    8af0:	e1a04003 	mov	r4, r3
    8af4:	e5850000 	str	r0, [r5]
    8af8:	e5851004 	str	r1, [r5, #4]
    8afc:	e5951000 	ldr	r1, [r5]
    8b00:	e5851008 	str	r1, [r5, #8]
    8b04:	e5951004 	ldr	r1, [r5, #4]
    8b08:	e585100c 	str	r1, [r5, #12]
    8b0c:	e5853010 	str	r3, [r5, #16]
    8b10:	e5852014 	str	r2, [r5, #20]
    8b14:	e5853018 	str	r3, [r5, #24]
    8b18:	e585301c 	str	r3, [r5, #28]
    8b1c:	e5853020 	str	r3, [r5, #32]
    8b20:	e5853024 	str	r3, [r5, #36]	; 0x24
    8b24:	e5853028 	str	r3, [r5, #40]	; 0x28
    8b28:	ea000007 	b	8b4c <mailbox_fb_init+0x70>
    8b2c:	ebfffeb2 	bl	85fc <on_status_led>
    8b30:	e3a00a01 	mov	r0, #4096	; 0x1000
    8b34:	e2844001 	add	r4, r4, #1
    8b38:	eb000579 	bl	a124 <usleep>
    8b3c:	e30b0374 	movw	r0, #45940	; 0xb374
    8b40:	e1a01004 	mov	r1, r4
    8b44:	e3400001 	movt	r0, #1
    8b48:	eb000421 	bl	9bd4 <uart_debug_puts>
    8b4c:	e30d1200 	movw	r1, #53760	; 0xd200
    8b50:	e3a00001 	mov	r0, #1
    8b54:	e3401001 	movt	r1, #1
    8b58:	e2811103 	add	r1, r1, #-1073741824	; 0xc0000000
    8b5c:	ebfffeed 	bl	8718 <mailbox_write>
    8b60:	e3a00001 	mov	r0, #1
    8b64:	ebfffeca 	bl	8694 <mailbox_read>
    8b68:	e5952020 	ldr	r2, [r5, #32]
    8b6c:	e30d3200 	movw	r3, #53760	; 0xd200
    8b70:	e3403001 	movt	r3, #1
    8b74:	e3520000 	cmp	r2, #0
    8b78:	1a000003 	bne	8b8c <mailbox_fb_init+0xb0>
    8b7c:	e3140001 	tst	r4, #1
    8b80:	1affffe9 	bne	8b2c <mailbox_fb_init+0x50>
    8b84:	ebfffea3 	bl	8618 <off_status_led>
    8b88:	eaffffe8 	b	8b30 <mailbox_fb_init+0x54>
    8b8c:	e5931020 	ldr	r1, [r3, #32]
    8b90:	e3a0c001 	mov	ip, #1
    8b94:	e5932020 	ldr	r2, [r3, #32]
    8b98:	e3a00000 	mov	r0, #0
    8b9c:	e583c500 	str	ip, [r3, #1280]	; 0x500
    8ba0:	e3c22103 	bic	r2, r2, #-1073741824	; 0xc0000000
    8ba4:	e5832020 	str	r2, [r3, #32]
    8ba8:	e5831028 	str	r1, [r3, #40]	; 0x28
    8bac:	e8bd8070 	pop	{r4, r5, r6, pc}

00008bb0 <mailbox_fb_test>:
    8bb0:	e92d4070 	push	{r4, r5, r6, lr}
    8bb4:	e3a01e2d 	mov	r1, #720	; 0x2d0
    8bb8:	e1a04000 	mov	r4, r0
    8bbc:	e3a00c05 	mov	r0, #1280	; 0x500
    8bc0:	ebffffc5 	bl	8adc <mailbox_fb_init>
    8bc4:	e30d3200 	movw	r3, #53760	; 0xd200
    8bc8:	e3403001 	movt	r3, #1
    8bcc:	e5932500 	ldr	r2, [r3, #1280]	; 0x500
    8bd0:	e3520000 	cmp	r2, #0
    8bd4:	0a00001b 	beq	8c48 <mailbox_fb_test+0x98>
    8bd8:	e593e504 	ldr	lr, [r3, #1284]	; 0x504
    8bdc:	e3a00501 	mov	r0, #4194304	; 0x400000
    8be0:	e5906020 	ldr	r6, [r0, #32]
    8be4:	e28ee001 	add	lr, lr, #1
    8be8:	e583e504 	str	lr, [r3, #1284]	; 0x504
    8bec:	e5903004 	ldr	r3, [r0, #4]
    8bf0:	e3530000 	cmp	r3, #0
    8bf4:	13a0c000 	movne	ip, #0
    8bf8:	0a000012 	beq	8c48 <mailbox_fb_test+0x98>
    8bfc:	e5903000 	ldr	r3, [r0]
    8c00:	e3530000 	cmp	r3, #0
    8c04:	0a00000b 	beq	8c38 <mailbox_fb_test+0x88>
    8c08:	e08e500c 	add	r5, lr, ip
    8c0c:	e3a02000 	mov	r2, #0
    8c10:	e5901000 	ldr	r1, [r0]
    8c14:	e08e3002 	add	r3, lr, r2
    8c18:	e0233005 	eor	r3, r3, r5
    8c1c:	e021219c 	mla	r1, ip, r1, r2
    8c20:	e1a03413 	lsl	r3, r3, r4
    8c24:	e2822001 	add	r2, r2, #1
    8c28:	e7863101 	str	r3, [r6, r1, lsl #2]
    8c2c:	e5903000 	ldr	r3, [r0]
    8c30:	e1530002 	cmp	r3, r2
    8c34:	8afffff5 	bhi	8c10 <mailbox_fb_test+0x60>
    8c38:	e5903004 	ldr	r3, [r0, #4]
    8c3c:	e28cc001 	add	ip, ip, #1
    8c40:	e153000c 	cmp	r3, ip
    8c44:	8affffec 	bhi	8bfc <mailbox_fb_test+0x4c>
    8c48:	e3a00000 	mov	r0, #0
    8c4c:	e8bd8070 	pop	{r4, r5, r6, pc}

00008c50 <mailbox_fb_ptr>:
    8c50:	e30d3200 	movw	r3, #53760	; 0xd200
    8c54:	e3403001 	movt	r3, #1
    8c58:	e5930500 	ldr	r0, [r3, #1280]	; 0x500
    8c5c:	e3500000 	cmp	r0, #0
    8c60:	15930020 	ldrne	r0, [r3, #32]
    8c64:	e12fff1e 	bx	lr

00008c68 <mailbox_fb_set_pixel>:
    8c68:	e30d3200 	movw	r3, #53760	; 0xd200
    8c6c:	e3403001 	movt	r3, #1
    8c70:	e593c500 	ldr	ip, [r3, #1280]	; 0x500
    8c74:	e35c0000 	cmp	ip, #0
    8c78:	012fff1e 	bxeq	lr
    8c7c:	e191c002 	orrs	ip, r1, r2
    8c80:	412fff1e 	bxmi	lr
    8c84:	e593c000 	ldr	ip, [r3]
    8c88:	e15c0001 	cmp	ip, r1
    8c8c:	912fff1e 	bxls	lr
    8c90:	e593c004 	ldr	ip, [r3, #4]
    8c94:	e15c0002 	cmp	ip, r2
    8c98:	8593c000 	ldrhi	ip, [r3]
    8c9c:	85933020 	ldrhi	r3, [r3, #32]
    8ca0:	8022129c 	mlahi	r2, ip, r2, r1
    8ca4:	87830102 	strhi	r0, [r3, r2, lsl #2]
    8ca8:	e12fff1e 	bx	lr

00008cac <init_render_chunk_buffer>:
    8cac:	e30d0800 	movw	r0, #55296	; 0xd800
    8cb0:	e3a02502 	mov	r2, #8388608	; 0x800000
    8cb4:	e3400001 	movt	r0, #1
    8cb8:	e3a0105a 	mov	r1, #90	; 0x5a
    8cbc:	ea000525 	b	a158 <memset_t>

00008cc0 <V3DControlSetShaderInfo>:
    8cc0:	e92d4010 	push	{r4, lr}
    8cc4:	e3a01801 	mov	r1, #65536	; 0x10000
    8cc8:	e1a04000 	mov	r4, r0
    8ccc:	eb000589 	bl	a2f8 <V3DSetOffset>
    8cd0:	e1a00004 	mov	r0, r4
    8cd4:	e3a01000 	mov	r1, #0
    8cd8:	eb000627 	bl	a57c <V3DWrite8>
    8cdc:	e1a00004 	mov	r0, r4
    8ce0:	e3a01018 	mov	r1, #24
    8ce4:	eb000624 	bl	a57c <V3DWrite8>
    8ce8:	e1a00004 	mov	r0, r4
    8cec:	e3a01000 	mov	r1, #0
    8cf0:	eb000621 	bl	a57c <V3DWrite8>
    8cf4:	e1a00004 	mov	r0, r4
    8cf8:	e3a01003 	mov	r1, #3
    8cfc:	eb00061e 	bl	a57c <V3DWrite8>
    8d00:	e5941008 	ldr	r1, [r4, #8]
    8d04:	e1a00004 	mov	r0, r4
    8d08:	e2811809 	add	r1, r1, #589824	; 0x90000
    8d0c:	eb0005dc 	bl	a484 <V3DWrite32>
    8d10:	e1a00004 	mov	r0, r4
    8d14:	e3a01000 	mov	r1, #0
    8d18:	eb0005d9 	bl	a484 <V3DWrite32>
    8d1c:	e5941008 	ldr	r1, [r4, #8]
    8d20:	e1a00004 	mov	r0, r4
    8d24:	e281181b 	add	r1, r1, #1769472	; 0x1b0000
    8d28:	eb0005d5 	bl	a484 <V3DWrite32>
    8d2c:	e1a00004 	mov	r0, r4
    8d30:	e3a0180b 	mov	r1, #720896	; 0xb0000
    8d34:	eb00056f 	bl	a2f8 <V3DSetOffset>
    8d38:	e1a00004 	mov	r0, r4
    8d3c:	e3a01000 	mov	r1, #0
    8d40:	eb00060d 	bl	a57c <V3DWrite8>
    8d44:	e1a00004 	mov	r0, r4
    8d48:	e3a01001 	mov	r1, #1
    8d4c:	eb00060a 	bl	a57c <V3DWrite8>
    8d50:	e1a00004 	mov	r0, r4
    8d54:	e3a01002 	mov	r1, #2
    8d58:	e8bd4010 	pop	{r4, lr}
    8d5c:	ea000606 	b	a57c <V3DWrite8>

00008d60 <V3DControlSetFragmentShader>:
    8d60:	e92d4070 	push	{r4, r5, r6, lr}
    8d64:	e3a01809 	mov	r1, #589824	; 0x90000
    8d68:	e1a04000 	mov	r4, r0
    8d6c:	eb000561 	bl	a2f8 <V3DSetOffset>
    8d70:	e3001dbf 	movw	r1, #3519	; 0xdbf
    8d74:	e1a00004 	mov	r0, r4
    8d78:	e349158e 	movt	r1, #38286	; 0x958e
    8d7c:	e3a05a07 	mov	r5, #28672	; 0x7000
    8d80:	e340509e 	movt	r5, #158	; 0x9e
    8d84:	eb0005be 	bl	a484 <V3DWrite32>
    8d88:	e3041823 	movw	r1, #18467	; 0x4823
    8d8c:	e1a00004 	mov	r0, r4
    8d90:	e34d1172 	movt	r1, #53618	; 0xd172
    8d94:	eb0005ba 	bl	a484 <V3DWrite32>
    8d98:	e3071176 	movw	r1, #29046	; 0x7176
    8d9c:	e1a00004 	mov	r0, r4
    8da0:	e348118e 	movt	r1, #33166	; 0x818e
    8da4:	eb0005b6 	bl	a484 <V3DWrite32>
    8da8:	e3041821 	movw	r1, #18465	; 0x4821
    8dac:	e1a00004 	mov	r0, r4
    8db0:	e3441002 	movt	r1, #16386	; 0x4002
    8db4:	eb0005b2 	bl	a484 <V3DWrite32>
    8db8:	e3071376 	movw	r1, #29558	; 0x7376
    8dbc:	e1a00004 	mov	r0, r4
    8dc0:	e348118e 	movt	r1, #33166	; 0x818e
    8dc4:	eb0005ae 	bl	a484 <V3DWrite32>
    8dc8:	e3041862 	movw	r1, #18530	; 0x4862
    8dcc:	e1a00004 	mov	r0, r4
    8dd0:	e3411002 	movt	r1, #4098	; 0x1002
    8dd4:	eb0005aa 	bl	a484 <V3DWrite32>
    8dd8:	e3071540 	movw	r1, #30016	; 0x7540
    8ddc:	e1a00004 	mov	r0, r4
    8de0:	e348119e 	movt	r1, #33182	; 0x819e
    8de4:	eb0005a6 	bl	a484 <V3DWrite32>
    8de8:	e30418a3 	movw	r1, #18595	; 0x48a3
    8dec:	e1a00004 	mov	r0, r4
    8df0:	e3411142 	movt	r1, #4418	; 0x1142
    8df4:	eb0005a2 	bl	a484 <V3DWrite32>
    8df8:	e3071009 	movw	r1, #28681	; 0x7009
    8dfc:	e1a00004 	mov	r0, r4
    8e00:	e348109e 	movt	r1, #32926	; 0x809e
    8e04:	eb00059e 	bl	a484 <V3DWrite32>
    8e08:	e30419e3 	movw	r1, #18915	; 0x49e3
    8e0c:	e1a00004 	mov	r0, r4
    8e10:	e3411150 	movt	r1, #4432	; 0x1150
    8e14:	eb00059a 	bl	a484 <V3DWrite32>
    8e18:	e3071012 	movw	r1, #28690	; 0x7012
    8e1c:	e1a00004 	mov	r0, r4
    8e20:	e348109e 	movt	r1, #32926	; 0x809e
    8e24:	eb000596 	bl	a484 <V3DWrite32>
    8e28:	e30419e3 	movw	r1, #18915	; 0x49e3
    8e2c:	e1a00004 	mov	r0, r4
    8e30:	e3411160 	movt	r1, #4448	; 0x1160
    8e34:	eb000592 	bl	a484 <V3DWrite32>
    8e38:	e30716c0 	movw	r1, #30400	; 0x76c0
    8e3c:	e1a00004 	mov	r0, r4
    8e40:	e341159e 	movt	r1, #5534	; 0x159e
    8e44:	eb00058e 	bl	a484 <V3DWrite32>
    8e48:	e3001ba7 	movw	r1, #2983	; 0xba7
    8e4c:	e1a00004 	mov	r0, r4
    8e50:	e3431002 	movt	r1, #12290	; 0x3002
    8e54:	eb00058a 	bl	a484 <V3DWrite32>
    8e58:	e1a01005 	mov	r1, r5
    8e5c:	e1a00004 	mov	r0, r4
    8e60:	eb000587 	bl	a484 <V3DWrite32>
    8e64:	e30019e7 	movw	r1, #2535	; 0x9e7
    8e68:	e1a00004 	mov	r0, r4
    8e6c:	e3411000 	movt	r1, #4096	; 0x1000
    8e70:	eb000583 	bl	a484 <V3DWrite32>
    8e74:	e1a01005 	mov	r1, r5
    8e78:	e1a00004 	mov	r0, r4
    8e7c:	eb000580 	bl	a484 <V3DWrite32>
    8e80:	e30019e7 	movw	r1, #2535	; 0x9e7
    8e84:	e1a00004 	mov	r0, r4
    8e88:	e3451000 	movt	r1, #20480	; 0x5000
    8e8c:	e8bd4070 	pop	{r4, r5, r6, lr}
    8e90:	ea00057b 	b	a484 <V3DWrite32>

00008e94 <V3DControlListFlush>:
    8e94:	e3a01004 	mov	r1, #4
    8e98:	ea0005b7 	b	a57c <V3DWrite8>

00008e9c <V3DControlListNop>:
    8e9c:	e3a01001 	mov	r1, #1
    8ea0:	ea0005b5 	b	a57c <V3DWrite8>

00008ea4 <V3DControlListHalt>:
    8ea4:	e3a01000 	mov	r1, #0
    8ea8:	ea0005b3 	b	a57c <V3DWrite8>

00008eac <V3DControlListCreateBinning>:
    8eac:	e92d4010 	push	{r4, lr}
    8eb0:	e3a01000 	mov	r1, #0
    8eb4:	e1a04000 	mov	r4, r0
    8eb8:	eb00050e 	bl	a2f8 <V3DSetOffset>
    8ebc:	e1a00004 	mov	r0, r4
    8ec0:	e3a01070 	mov	r1, #112	; 0x70
    8ec4:	eb0005ac 	bl	a57c <V3DWrite8>
    8ec8:	e5941008 	ldr	r1, [r4, #8]
    8ecc:	e1a00004 	mov	r0, r4
    8ed0:	e2811602 	add	r1, r1, #2097152	; 0x200000
    8ed4:	eb00056a 	bl	a484 <V3DWrite32>
    8ed8:	e1a00004 	mov	r0, r4
    8edc:	e3a01a01 	mov	r1, #4096	; 0x1000
    8ee0:	eb000567 	bl	a484 <V3DWrite32>
    8ee4:	e5941008 	ldr	r1, [r4, #8]
    8ee8:	e1a00004 	mov	r0, r4
    8eec:	e2811802 	add	r1, r1, #131072	; 0x20000
    8ef0:	eb000563 	bl	a484 <V3DWrite32>
    8ef4:	e1a00004 	mov	r0, r4
    8ef8:	e3a01014 	mov	r1, #20
    8efc:	eb00059e 	bl	a57c <V3DWrite8>
    8f00:	e1a00004 	mov	r0, r4
    8f04:	e3a0100f 	mov	r1, #15
    8f08:	eb00059b 	bl	a57c <V3DWrite8>
    8f0c:	e1a00004 	mov	r0, r4
    8f10:	e3a01005 	mov	r1, #5
    8f14:	eb000598 	bl	a57c <V3DWrite8>
    8f18:	e1a00004 	mov	r0, r4
    8f1c:	e3a01006 	mov	r1, #6
    8f20:	eb000595 	bl	a57c <V3DWrite8>
    8f24:	e1a00004 	mov	r0, r4
    8f28:	e3a01066 	mov	r1, #102	; 0x66
    8f2c:	eb000592 	bl	a57c <V3DWrite8>
    8f30:	e1a00004 	mov	r0, r4
    8f34:	e3a01000 	mov	r1, #0
    8f38:	eb00057f 	bl	a53c <V3DWrite16>
    8f3c:	e1a00004 	mov	r0, r4
    8f40:	e3a01000 	mov	r1, #0
    8f44:	eb00057c 	bl	a53c <V3DWrite16>
    8f48:	e1a00004 	mov	r0, r4
    8f4c:	e3a01d0a 	mov	r1, #640	; 0x280
    8f50:	eb000579 	bl	a53c <V3DWrite16>
    8f54:	e1a00004 	mov	r0, r4
    8f58:	e3a01e1e 	mov	r1, #480	; 0x1e0
    8f5c:	eb000576 	bl	a53c <V3DWrite16>
    8f60:	e1a00004 	mov	r0, r4
    8f64:	e3a01067 	mov	r1, #103	; 0x67
    8f68:	eb000583 	bl	a57c <V3DWrite8>
    8f6c:	e1a00004 	mov	r0, r4
    8f70:	e3a01000 	mov	r1, #0
    8f74:	eb000570 	bl	a53c <V3DWrite16>
    8f78:	e1a00004 	mov	r0, r4
    8f7c:	e3a01000 	mov	r1, #0
    8f80:	eb00056d 	bl	a53c <V3DWrite16>
    8f84:	e1a00004 	mov	r0, r4
    8f88:	e3a01060 	mov	r1, #96	; 0x60
    8f8c:	eb00057a 	bl	a57c <V3DWrite8>
    8f90:	e1a00004 	mov	r0, r4
    8f94:	e3a01047 	mov	r1, #71	; 0x47
    8f98:	eb000577 	bl	a57c <V3DWrite8>
    8f9c:	e1a00004 	mov	r0, r4
    8fa0:	e3a01002 	mov	r1, #2
    8fa4:	eb000574 	bl	a57c <V3DWrite8>
    8fa8:	e1a00004 	mov	r0, r4
    8fac:	e3a01000 	mov	r1, #0
    8fb0:	eb000571 	bl	a57c <V3DWrite8>
    8fb4:	e1a00004 	mov	r0, r4
    8fb8:	e3a01041 	mov	r1, #65	; 0x41
    8fbc:	eb00056e 	bl	a57c <V3DWrite8>
    8fc0:	e5941008 	ldr	r1, [r4, #8]
    8fc4:	e1a00004 	mov	r0, r4
    8fc8:	e2811801 	add	r1, r1, #65536	; 0x10000
    8fcc:	eb00052c 	bl	a484 <V3DWrite32>
    8fd0:	e1a00004 	mov	r0, r4
    8fd4:	e3a01021 	mov	r1, #33	; 0x21
    8fd8:	eb000567 	bl	a57c <V3DWrite8>
    8fdc:	e1a00004 	mov	r0, r4
    8fe0:	e3a01004 	mov	r1, #4
    8fe4:	eb000564 	bl	a57c <V3DWrite8>
    8fe8:	e5941034 	ldr	r1, [r4, #52]	; 0x34
    8fec:	e1a00004 	mov	r0, r4
    8ff0:	eb000523 	bl	a484 <V3DWrite32>
    8ff4:	e1a00004 	mov	r0, r4
    8ff8:	e3a01000 	mov	r1, #0
    8ffc:	eb000520 	bl	a484 <V3DWrite32>
    9000:	e1a00004 	mov	r0, r4
    9004:	e3a01004 	mov	r1, #4
    9008:	eb00055b 	bl	a57c <V3DWrite8>
    900c:	e1a00004 	mov	r0, r4
    9010:	e3a01001 	mov	r1, #1
    9014:	eb000558 	bl	a57c <V3DWrite8>
    9018:	e1a00004 	mov	r0, r4
    901c:	e3a01000 	mov	r1, #0
    9020:	eb0004b8 	bl	a308 <V3DSaveOffset>
    9024:	e1a00004 	mov	r0, r4
    9028:	ebffff4c 	bl	8d60 <V3DControlSetFragmentShader>
    902c:	e1a00004 	mov	r0, r4
    9030:	e8bd4010 	pop	{r4, lr}
    9034:	eaffff21 	b	8cc0 <V3DControlSetShaderInfo>

00009038 <V3DControlListClearColor>:
    9038:	e92d4070 	push	{r4, r5, r6, lr}
    903c:	e1a04000 	mov	r4, r0
    9040:	e1a06001 	mov	r6, r1
    9044:	e3a01072 	mov	r1, #114	; 0x72
    9048:	e1a05002 	mov	r5, r2
    904c:	eb00054a 	bl	a57c <V3DWrite8>
    9050:	e1a01006 	mov	r1, r6
    9054:	e1a00004 	mov	r0, r4
    9058:	eb000509 	bl	a484 <V3DWrite32>
    905c:	e1a01005 	mov	r1, r5
    9060:	e1a00004 	mov	r0, r4
    9064:	eb000506 	bl	a484 <V3DWrite32>
    9068:	e1a00004 	mov	r0, r4
    906c:	e3a01000 	mov	r1, #0
    9070:	eb000503 	bl	a484 <V3DWrite32>
    9074:	e1a00004 	mov	r0, r4
    9078:	e3a01000 	mov	r1, #0
    907c:	e8bd4070 	pop	{r4, r5, r6, lr}
    9080:	ea00053d 	b	a57c <V3DWrite8>

00009084 <V3DControlListRenderModeConfig>:
    9084:	e92d47f0 	push	{r4, r5, r6, r7, r8, r9, sl, lr}
    9088:	e1a04000 	mov	r4, r0
    908c:	e5dd6020 	ldrb	r6, [sp, #32]
    9090:	e1a09001 	mov	r9, r1
    9094:	e5dd5024 	ldrb	r5, [sp, #36]	; 0x24
    9098:	e3a01071 	mov	r1, #113	; 0x71
    909c:	e1a08002 	mov	r8, r2
    90a0:	e1a07003 	mov	r7, r3
    90a4:	eb000534 	bl	a57c <V3DWrite8>
    90a8:	e1a01009 	mov	r1, r9
    90ac:	e1a00004 	mov	r0, r4
    90b0:	eb0004f3 	bl	a484 <V3DWrite32>
    90b4:	e1a01008 	mov	r1, r8
    90b8:	e1a00004 	mov	r0, r4
    90bc:	eb00051e 	bl	a53c <V3DWrite16>
    90c0:	e1a01007 	mov	r1, r7
    90c4:	e1a00004 	mov	r0, r4
    90c8:	eb00051b 	bl	a53c <V3DWrite16>
    90cc:	e1a01006 	mov	r1, r6
    90d0:	e1a00004 	mov	r0, r4
    90d4:	eb000528 	bl	a57c <V3DWrite8>
    90d8:	e1a01005 	mov	r1, r5
    90dc:	e1a00004 	mov	r0, r4
    90e0:	e8bd47f0 	pop	{r4, r5, r6, r7, r8, r9, sl, lr}
    90e4:	ea000524 	b	a57c <V3DWrite8>

000090e8 <V3DControlListRenderTileCoord>:
    90e8:	e92d4070 	push	{r4, r5, r6, lr}
    90ec:	e1a04000 	mov	r4, r0
    90f0:	e1a06001 	mov	r6, r1
    90f4:	e3a01073 	mov	r1, #115	; 0x73
    90f8:	e1a05002 	mov	r5, r2
    90fc:	eb00051e 	bl	a57c <V3DWrite8>
    9100:	e1a01006 	mov	r1, r6
    9104:	e1a00004 	mov	r0, r4
    9108:	eb00051b 	bl	a57c <V3DWrite8>
    910c:	e1a01005 	mov	r1, r5
    9110:	e1a00004 	mov	r0, r4
    9114:	e8bd4070 	pop	{r4, r5, r6, lr}
    9118:	ea000517 	b	a57c <V3DWrite8>

0000911c <V3DControlListStoreGeneral>:
    911c:	e92d4070 	push	{r4, r5, r6, lr}
    9120:	e1a04000 	mov	r4, r0
    9124:	e1a06001 	mov	r6, r1
    9128:	e3a0101c 	mov	r1, #28
    912c:	e1a05002 	mov	r5, r2
    9130:	eb000511 	bl	a57c <V3DWrite8>
    9134:	e1a01006 	mov	r1, r6
    9138:	e1a00004 	mov	r0, r4
    913c:	eb0004fe 	bl	a53c <V3DWrite16>
    9140:	e1a01005 	mov	r1, r5
    9144:	e1a00004 	mov	r0, r4
    9148:	e8bd4070 	pop	{r4, r5, r6, lr}
    914c:	ea0004cc 	b	a484 <V3DWrite32>

00009150 <V3DControlListBranchToSublist>:
    9150:	e92d4070 	push	{r4, r5, r6, lr}
    9154:	e1a05001 	mov	r5, r1
    9158:	e1a04000 	mov	r4, r0
    915c:	e3a01011 	mov	r1, #17
    9160:	eb000505 	bl	a57c <V3DWrite8>
    9164:	e1a01005 	mov	r1, r5
    9168:	e1a00004 	mov	r0, r4
    916c:	e8bd4070 	pop	{r4, r5, r6, lr}
    9170:	ea0004c3 	b	a484 <V3DWrite32>

00009174 <V3DControlListStoreMsResolvedBufferAndEndFrame>:
    9174:	e3a01019 	mov	r1, #25
    9178:	ea0004ff 	b	a57c <V3DWrite8>

0000917c <V3DControlListStoreMsResolvedBuffer>:
    917c:	e3a01018 	mov	r1, #24
    9180:	ea0004fd 	b	a57c <V3DWrite8>

00009184 <V3DControlListCreateRendering>:
    9184:	e92d4ff0 	push	{r4, r5, r6, r7, r8, r9, sl, fp, lr}
    9188:	e1a06001 	mov	r6, r1
    918c:	e24dd00c 	sub	sp, sp, #12
    9190:	e3a01902 	mov	r1, #32768	; 0x8000
    9194:	e1a05000 	mov	r5, r0
    9198:	eb000456 	bl	a2f8 <V3DSetOffset>
    919c:	e3e020ff 	mvn	r2, #255	; 0xff
    91a0:	e1a00005 	mov	r0, r5
    91a4:	e1a01002 	mov	r1, r2
    91a8:	e3a04000 	mov	r4, #0
    91ac:	e1a0a004 	mov	sl, r4
    91b0:	ebffffa0 	bl	9038 <V3DControlListClearColor>
    91b4:	e1a00005 	mov	r0, r5
    91b8:	e3a01038 	mov	r1, #56	; 0x38
    91bc:	e300912b 	movw	r9, #299	; 0x12b
    91c0:	eb0004ed 	bl	a57c <V3DWrite8>
    91c4:	e1a00005 	mov	r0, r5
    91c8:	e3a01032 	mov	r1, #50	; 0x32
    91cc:	eb0004ea 	bl	a57c <V3DWrite8>
    91d0:	e58d4004 	str	r4, [sp, #4]
    91d4:	e3a03005 	mov	r3, #5
    91d8:	e58d3000 	str	r3, [sp]
    91dc:	e1a01006 	mov	r1, r6
    91e0:	e3a03e1e 	mov	r3, #480	; 0x1e0
    91e4:	e1a00005 	mov	r0, r5
    91e8:	e3a02d0a 	mov	r2, #640	; 0x280
    91ec:	ebffffa4 	bl	9084 <V3DControlListRenderModeConfig>
    91f0:	e1a02004 	mov	r2, r4
    91f4:	e1a01004 	mov	r1, r4
    91f8:	e1a00005 	mov	r0, r5
    91fc:	ebffffb9 	bl	90e8 <V3DControlListRenderTileCoord>
    9200:	e1a02004 	mov	r2, r4
    9204:	e1a01004 	mov	r1, r4
    9208:	e1a00005 	mov	r0, r5
    920c:	ebffffc2 	bl	911c <V3DControlListStoreGeneral>
    9210:	e3a07014 	mov	r7, #20
    9214:	e3a03d0a 	mov	r3, #640	; 0x280
    9218:	e6ef807a 	uxtb	r8, sl
    921c:	e3a0b000 	mov	fp, #0
    9220:	e0070a97 	mul	r7, r7, sl
    9224:	e0060a93 	mul	r6, r3, sl
    9228:	e1a02008 	mov	r2, r8
    922c:	e6ef107b 	uxtb	r1, fp
    9230:	e1a00005 	mov	r0, r5
    9234:	ebffffab 	bl	90e8 <V3DControlListRenderTileCoord>
    9238:	e5954008 	ldr	r4, [r5, #8]
    923c:	e3a01011 	mov	r1, #17
    9240:	e1a00005 	mov	r0, r5
    9244:	e2844602 	add	r4, r4, #2097152	; 0x200000
    9248:	eb0004cb 	bl	a57c <V3DWrite8>
    924c:	e0844006 	add	r4, r4, r6
    9250:	e1a00005 	mov	r0, r5
    9254:	e1a01004 	mov	r1, r4
    9258:	e2866020 	add	r6, r6, #32
    925c:	eb000488 	bl	a484 <V3DWrite32>
    9260:	e08b2007 	add	r2, fp, r7
    9264:	e3a01018 	mov	r1, #24
    9268:	e1520009 	cmp	r2, r9
    926c:	e1a00005 	mov	r0, r5
    9270:	03a01019 	moveq	r1, #25
    9274:	e28bb001 	add	fp, fp, #1
    9278:	eb0004bf 	bl	a57c <V3DWrite8>
    927c:	e35b0014 	cmp	fp, #20
    9280:	1affffe8 	bne	9228 <V3DControlListCreateRendering+0xa4>
    9284:	e28aa001 	add	sl, sl, #1
    9288:	e35a000f 	cmp	sl, #15
    928c:	1affffdf 	bne	9210 <V3DControlListCreateRendering+0x8c>
    9290:	e1a00005 	mov	r0, r5
    9294:	e3a01001 	mov	r1, #1
    9298:	eb0004b7 	bl	a57c <V3DWrite8>
    929c:	e1a00005 	mov	r0, r5
    92a0:	e3a01001 	mov	r1, #1
    92a4:	e28dd00c 	add	sp, sp, #12
    92a8:	e8bd4ff0 	pop	{r4, r5, r6, r7, r8, r9, sl, fp, lr}
    92ac:	ea000415 	b	a308 <V3DSaveOffset>

000092b0 <V3DControlReset>:
    92b0:	e3a035ff 	mov	r3, #1069547520	; 0x3fc00000
    92b4:	e3a02902 	mov	r2, #32768	; 0x8000
    92b8:	e5832100 	str	r2, [r3, #256]	; 0x100
    92bc:	e5832104 	str	r2, [r3, #260]	; 0x104
    92c0:	e12fff1e 	bx	lr

000092c4 <V3DControlPresentBinning>:
    92c4:	e3a035ff 	mov	r3, #1069547520	; 0x3fc00000
    92c8:	e3a01001 	mov	r1, #1
    92cc:	e1a02003 	mov	r2, r3
    92d0:	e5831134 	str	r1, [r3, #308]	; 0x134
    92d4:	e5901008 	ldr	r1, [r0, #8]
    92d8:	e590c018 	ldr	ip, [r0, #24]
    92dc:	e081100c 	add	r1, r1, ip
    92e0:	e5831110 	str	r1, [r3, #272]	; 0x110
    92e4:	e5901008 	ldr	r1, [r0, #8]
    92e8:	e590001c 	ldr	r0, [r0, #28]
    92ec:	e0811000 	add	r1, r1, r0
    92f0:	e5831108 	str	r1, [r3, #264]	; 0x108
    92f4:	e5923134 	ldr	r3, [r2, #308]	; 0x134
    92f8:	e3530000 	cmp	r3, #0
    92fc:	0afffffc 	beq	92f4 <V3DControlPresentBinning+0x30>
    9300:	e12fff1e 	bx	lr

00009304 <V3DControlPresentRendering>:
    9304:	e3a035ff 	mov	r3, #1069547520	; 0x3fc00000
    9308:	e3a01001 	mov	r1, #1
    930c:	e1a02003 	mov	r2, r3
    9310:	e5831138 	str	r1, [r3, #312]	; 0x138
    9314:	e590c020 	ldr	ip, [r0, #32]
    9318:	e5901008 	ldr	r1, [r0, #8]
    931c:	e081100c 	add	r1, r1, ip
    9320:	e5831114 	str	r1, [r3, #276]	; 0x114
    9324:	e5901008 	ldr	r1, [r0, #8]
    9328:	e590c024 	ldr	ip, [r0, #36]	; 0x24
    932c:	e081100c 	add	r1, r1, ip
    9330:	e583110c 	str	r1, [r3, #268]	; 0x10c
    9334:	e5923138 	ldr	r3, [r2, #312]	; 0x138
    9338:	e3530000 	cmp	r3, #0
    933c:	0afffffc 	beq	9334 <V3DControlPresentRendering+0x30>
    9340:	e5903038 	ldr	r3, [r0, #56]	; 0x38
    9344:	e2833001 	add	r3, r3, #1
    9348:	e5803038 	str	r3, [r0, #56]	; 0x38
    934c:	e12fff1e 	bx	lr

00009350 <send_framebuffer>:
    9350:	e3510000 	cmp	r1, #0
    9354:	d12fff1e 	bxle	lr
    9358:	e92d4070 	push	{r4, r5, r6, lr}
    935c:	e1a04000 	mov	r4, r0
    9360:	e0815000 	add	r5, r1, r0
    9364:	e4d40001 	ldrb	r0, [r4], #1
    9368:	eb0001f1 	bl	9b34 <uart_putc>
    936c:	e1540005 	cmp	r4, r5
    9370:	1afffffb 	bne	9364 <send_framebuffer+0x14>
    9374:	e8bd8070 	pop	{r4, r5, r6, pc}

00009378 <V3DAddPreVertex>:
    9378:	e92d43f0 	push	{r4, r5, r6, r7, r8, r9, lr}
    937c:	e2504000 	subs	r4, r0, #0
    9380:	e24dd00c 	sub	sp, sp, #12
    9384:	0a00001b 	beq	93f8 <V3DAddPreVertex+0x80>
    9388:	ee109a10 	vmov	r9, s0
    938c:	e6ff1071 	uxth	r1, r1
    9390:	e1812802 	orr	r2, r1, r2, lsl #16
    9394:	e58d2004 	str	r2, [sp, #4]
    9398:	ee108a90 	vmov	r8, s1
    939c:	e59d1004 	ldr	r1, [sp, #4]
    93a0:	ee125a10 	vmov	r5, s4
    93a4:	ee116a90 	vmov	r6, s3
    93a8:	ee117a10 	vmov	r7, s2
    93ac:	eb000434 	bl	a484 <V3DWrite32>
    93b0:	ee009a10 	vmov	s0, r9
    93b4:	e1a00004 	mov	r0, r4
    93b8:	eb000449 	bl	a4e4 <V3DFloat32>
    93bc:	ee008a10 	vmov	s0, r8
    93c0:	e1a00004 	mov	r0, r4
    93c4:	eb000446 	bl	a4e4 <V3DFloat32>
    93c8:	ee007a10 	vmov	s0, r7
    93cc:	e1a00004 	mov	r0, r4
    93d0:	eb000443 	bl	a4e4 <V3DFloat32>
    93d4:	ee006a10 	vmov	s0, r6
    93d8:	e1a00004 	mov	r0, r4
    93dc:	eb000440 	bl	a4e4 <V3DFloat32>
    93e0:	ee005a10 	vmov	s0, r5
    93e4:	e1a00004 	mov	r0, r4
    93e8:	eb00043d 	bl	a4e4 <V3DFloat32>
    93ec:	e5943034 	ldr	r3, [r4, #52]	; 0x34
    93f0:	e2833001 	add	r3, r3, #1
    93f4:	e5843034 	str	r3, [r4, #52]	; 0x34
    93f8:	e28dd00c 	add	sp, sp, #12
    93fc:	e8bd83f0 	pop	{r4, r5, r6, r7, r8, r9, pc}

00009400 <AddVertex>:
    9400:	e92d4ff0 	push	{r4, r5, r6, r7, r8, r9, sl, fp, lr}
    9404:	e30d3708 	movw	r3, #55048	; 0xd708
    9408:	e24dd01c 	sub	sp, sp, #28
    940c:	e3403001 	movt	r3, #1
    9410:	e1a04000 	mov	r4, r0
    9414:	e30c7024 	movw	r7, #49188	; 0xc024
    9418:	e58d3004 	str	r3, [sp, #4]
    941c:	e3407001 	movt	r7, #1
    9420:	e58d0008 	str	r0, [sp, #8]
    9424:	eb0003ee 	bl	a3e4 <V3DClearOffsetVertex>
    9428:	e1a00004 	mov	r0, r4
    942c:	e3a06007 	mov	r6, #7
    9430:	eb0003f0 	bl	a3f8 <V3DSetOffsetBeginVertex>
    9434:	e59d3004 	ldr	r3, [sp, #4]
    9438:	eeb71a00 	vmov.f32	s2, #112	; 0x3f800000  1.0
    943c:	e5932000 	ldr	r2, [r3]
    9440:	e59d5008 	ldr	r5, [sp, #8]
    9444:	ed9f2afb 	vldr	s4, [pc, #1004]	; 9838 <AddVertex+0x438>
    9448:	e3520b0a 	cmp	r2, #10240	; 0x2800
    944c:	eef00a41 	vmov.f32	s1, s2
    9450:	c3a02000 	movgt	r2, #0
    9454:	c5832000 	strgt	r2, [r3]
    9458:	d6ff2072 	uxthle	r2, r2
    945c:	eeb00a41 	vmov.f32	s0, s2
    9460:	e6bf4072 	sxth	r4, r2
    9464:	eef01a42 	vmov.f32	s3, s4
    9468:	e1a01004 	mov	r1, r4
    946c:	e58d3004 	str	r3, [sp, #4]
    9470:	e3a02000 	mov	r2, #0
    9474:	e1a00005 	mov	r0, r5
    9478:	ebffffbe 	bl	9378 <V3DAddPreVertex>
    947c:	eef71a00 	vmov.f32	s3, #112	; 0x3f800000  1.0
    9480:	e3a03000 	mov	r3, #0
    9484:	ed9f2aeb 	vldr	s4, [pc, #940]	; 9838 <AddVertex+0x438>
    9488:	e3a02c0f 	mov	r2, #3840	; 0xf00
    948c:	e58d3014 	str	r3, [sp, #20]
    9490:	e3a01b0a 	mov	r1, #10240	; 0x2800
    9494:	eef00a61 	vmov.f32	s1, s3
    9498:	e1a00005 	mov	r0, r5
    949c:	eeb00a61 	vmov.f32	s0, s3
    94a0:	eeb01a42 	vmov.f32	s2, s4
    94a4:	ebffffb3 	bl	9378 <V3DAddPreVertex>
    94a8:	eeb72a00 	vmov.f32	s4, #112	; 0x3f800000  1.0
    94ac:	e3a02000 	mov	r2, #0
    94b0:	eddf1ae0 	vldr	s3, [pc, #896]	; 9838 <AddVertex+0x438>
    94b4:	e3a01b0a 	mov	r1, #10240	; 0x2800
    94b8:	e1a00005 	mov	r0, r5
    94bc:	eef00a42 	vmov.f32	s1, s4
    94c0:	eeb00a42 	vmov.f32	s0, s4
    94c4:	eeb01a61 	vmov.f32	s2, s3
    94c8:	ebffffaa 	bl	9378 <V3DAddPreVertex>
    94cc:	eeb71a00 	vmov.f32	s2, #112	; 0x3f800000  1.0
    94d0:	e1a01004 	mov	r1, r4
    94d4:	ed9f2ad7 	vldr	s4, [pc, #860]	; 9838 <AddVertex+0x438>
    94d8:	e3a02000 	mov	r2, #0
    94dc:	e1a00005 	mov	r0, r5
    94e0:	eef00a41 	vmov.f32	s1, s2
    94e4:	eeb00a41 	vmov.f32	s0, s2
    94e8:	eef01a42 	vmov.f32	s3, s4
    94ec:	ebffffa1 	bl	9378 <V3DAddPreVertex>
    94f0:	eeb72a00 	vmov.f32	s4, #112	; 0x3f800000  1.0
    94f4:	e1a01004 	mov	r1, r4
    94f8:	eddf1ace 	vldr	s3, [pc, #824]	; 9838 <AddVertex+0x438>
    94fc:	e3a02c0f 	mov	r2, #3840	; 0xf00
    9500:	e1a00005 	mov	r0, r5
    9504:	eef00a42 	vmov.f32	s1, s4
    9508:	eeb00a42 	vmov.f32	s0, s4
    950c:	eeb01a61 	vmov.f32	s2, s3
    9510:	ebffff98 	bl	9378 <V3DAddPreVertex>
    9514:	eef71a00 	vmov.f32	s3, #112	; 0x3f800000  1.0
    9518:	e3a02c0f 	mov	r2, #3840	; 0xf00
    951c:	ed9f2ac5 	vldr	s4, [pc, #788]	; 9838 <AddVertex+0x438>
    9520:	e3a01b0a 	mov	r1, #10240	; 0x2800
    9524:	e1a00005 	mov	r0, r5
    9528:	eef00a61 	vmov.f32	s1, s3
    952c:	eeb00a61 	vmov.f32	s0, s3
    9530:	eeb01a42 	vmov.f32	s2, s4
    9534:	ebffff8f 	bl	9378 <V3DAddPreVertex>
    9538:	eeb71a00 	vmov.f32	s2, #112	; 0x3f800000  1.0
    953c:	e1a01004 	mov	r1, r4
    9540:	ed9f2abc 	vldr	s4, [pc, #752]	; 9838 <AddVertex+0x438>
    9544:	e3a02c0f 	mov	r2, #3840	; 0xf00
    9548:	e1a00005 	mov	r0, r5
    954c:	eef00a41 	vmov.f32	s1, s2
    9550:	eeb00a41 	vmov.f32	s0, s2
    9554:	eef01a42 	vmov.f32	s3, s4
    9558:	ebffff86 	bl	9378 <V3DAddPreVertex>
    955c:	eef71a00 	vmov.f32	s3, #112	; 0x3f800000  1.0
    9560:	e1a01004 	mov	r1, r4
    9564:	ed9f2ab3 	vldr	s4, [pc, #716]	; 9838 <AddVertex+0x438>
    9568:	e3a02c1e 	mov	r2, #7680	; 0x1e00
    956c:	e1a00005 	mov	r0, r5
    9570:	eef00a61 	vmov.f32	s1, s3
    9574:	eeb00a61 	vmov.f32	s0, s3
    9578:	eeb01a42 	vmov.f32	s2, s4
    957c:	ebffff7d 	bl	9378 <V3DAddPreVertex>
    9580:	eeb72a00 	vmov.f32	s4, #112	; 0x3f800000  1.0
    9584:	e3a02c1e 	mov	r2, #7680	; 0x1e00
    9588:	eddf1aaa 	vldr	s3, [pc, #680]	; 9838 <AddVertex+0x438>
    958c:	e3a01b0a 	mov	r1, #10240	; 0x2800
    9590:	e1a00005 	mov	r0, r5
    9594:	eef00a42 	vmov.f32	s1, s4
    9598:	eeb00a42 	vmov.f32	s0, s4
    959c:	eeb01a61 	vmov.f32	s2, s3
    95a0:	ebffff74 	bl	9378 <V3DAddPreVertex>
    95a4:	eeb71a00 	vmov.f32	s2, #112	; 0x3f800000  1.0
    95a8:	e1a01004 	mov	r1, r4
    95ac:	ed9f2aa1 	vldr	s4, [pc, #644]	; 9838 <AddVertex+0x438>
    95b0:	e3a02c0f 	mov	r2, #3840	; 0xf00
    95b4:	e1a00005 	mov	r0, r5
    95b8:	eef00a41 	vmov.f32	s1, s2
    95bc:	eeb00a41 	vmov.f32	s0, s2
    95c0:	eef01a42 	vmov.f32	s3, s4
    95c4:	ebffff6b 	bl	9378 <V3DAddPreVertex>
    95c8:	eeb72a00 	vmov.f32	s4, #112	; 0x3f800000  1.0
    95cc:	e3a02c1e 	mov	r2, #7680	; 0x1e00
    95d0:	eddf1a98 	vldr	s3, [pc, #608]	; 9838 <AddVertex+0x438>
    95d4:	e3a01b0a 	mov	r1, #10240	; 0x2800
    95d8:	e1a00005 	mov	r0, r5
    95dc:	eef00a42 	vmov.f32	s1, s4
    95e0:	eeb00a42 	vmov.f32	s0, s4
    95e4:	eeb01a61 	vmov.f32	s2, s3
    95e8:	ebffff62 	bl	9378 <V3DAddPreVertex>
    95ec:	eef71a00 	vmov.f32	s3, #112	; 0x3f800000  1.0
    95f0:	e3a02c0f 	mov	r2, #3840	; 0xf00
    95f4:	ed9f2a8f 	vldr	s4, [pc, #572]	; 9838 <AddVertex+0x438>
    95f8:	e3a01b0a 	mov	r1, #10240	; 0x2800
    95fc:	e1a00005 	mov	r0, r5
    9600:	eef00a61 	vmov.f32	s1, s3
    9604:	eeb00a61 	vmov.f32	s0, s3
    9608:	eeb01a42 	vmov.f32	s2, s4
    960c:	ebffff59 	bl	9378 <V3DAddPreVertex>
    9610:	eb0002a8 	bl	a0b8 <init_random>
    9614:	e59d3004 	ldr	r3, [sp, #4]
    9618:	e59d2014 	ldr	r2, [sp, #20]
    961c:	e1a09003 	mov	r9, r3
    9620:	e1a02202 	lsl	r2, r2, #4
    9624:	e58d2010 	str	r2, [sp, #16]
    9628:	e3a02000 	mov	r2, #0
    962c:	e58d2004 	str	r2, [sp, #4]
    9630:	e5998004 	ldr	r8, [r9, #4]
    9634:	e5993004 	ldr	r3, [r9, #4]
    9638:	e5995004 	ldr	r5, [r9, #4]
    963c:	e5994004 	ldr	r4, [r9, #4]
    9640:	e599e004 	ldr	lr, [r9, #4]
    9644:	e5992004 	ldr	r2, [r9, #4]
    9648:	e599c004 	ldr	ip, [r9, #4]
    964c:	eeb71a00 	vmov.f32	s2, #112	; 0x3f800000  1.0
    9650:	e1a01002 	mov	r1, r2
    9654:	e00c0c96 	mul	ip, r6, ip
    9658:	e5992004 	ldr	r2, [r9, #4]
    965c:	e1a0afcc 	asr	sl, ip, #31
    9660:	e0020296 	mul	r2, r6, r2
    9664:	e1a0ac2a 	lsr	sl, sl, #24
    9668:	e08cc00a 	add	ip, ip, sl
    966c:	e2822040 	add	r2, r2, #64	; 0x40
    9670:	ed9f2a70 	vldr	s4, [pc, #448]	; 9838 <AddVertex+0x438>
    9674:	e6efc07c 	uxtb	ip, ip
    9678:	e1a0bfc2 	asr	fp, r2, #31
    967c:	e06ac00c 	rsb	ip, sl, ip
    9680:	e0080896 	mul	r8, r6, r8
    9684:	e1a0bc2b 	lsr	fp, fp, #24
    9688:	e00a0196 	mul	sl, r6, r1
    968c:	e082200b 	add	r2, r2, fp
    9690:	e2888040 	add	r8, r8, #64	; 0x40
    9694:	e1a0c08c 	lsl	ip, ip, #1
    9698:	e6ef2072 	uxtb	r2, r2
    969c:	eef00a41 	vmov.f32	s1, s2
    96a0:	e06b2002 	rsb	r2, fp, r2
    96a4:	e197b0bc 	ldrh	fp, [r7, ip]
    96a8:	e6ef8078 	uxtb	r8, r8
    96ac:	eeb00a41 	vmov.f32	s0, s2
    96b0:	e28ac0aa 	add	ip, sl, #170	; 0xaa
    96b4:	eef01a42 	vmov.f32	s3, s4
    96b8:	e6ef107c 	uxtb	r1, ip
    96bc:	e0030396 	mul	r3, r6, r3
    96c0:	e58d100c 	str	r1, [sp, #12]
    96c4:	e3a0c00f 	mov	ip, #15
    96c8:	e59d1004 	ldr	r1, [sp, #4]
    96cc:	e6ef3073 	uxtb	r3, r3
    96d0:	e1a08088 	lsl	r8, r8, #1
    96d4:	e1a02082 	lsl	r2, r2, #1
    96d8:	e197a0f8 	ldrsh	sl, [r7, r8]
    96dc:	e1a08201 	lsl	r8, r1, #4
    96e0:	e2811028 	add	r1, r1, #40	; 0x28
    96e4:	e19720b2 	ldrh	r2, [r7, r2]
    96e8:	e58d1004 	str	r1, [sp, #4]
    96ec:	e1a03083 	lsl	r3, r3, #1
    96f0:	e59d1010 	ldr	r1, [sp, #16]
    96f4:	e19730f3 	ldrsh	r3, [r7, r3]
    96f8:	e1021c82 	smlabb	r2, r2, ip, r1
    96fc:	e0050596 	mul	r5, r6, r5
    9700:	e0040496 	mul	r4, r6, r4
    9704:	e59d0008 	ldr	r0, [sp, #8]
    9708:	e3a0100f 	mov	r1, #15
    970c:	e10b818b 	smlabb	fp, fp, r1, r8
    9710:	e2855095 	add	r5, r5, #149	; 0x95
    9714:	e6ff8072 	uxth	r8, r2
    9718:	e2844055 	add	r4, r4, #85	; 0x55
    971c:	e6ef5075 	uxtb	r5, r5
    9720:	e1a02203 	lsl	r2, r3, #4
    9724:	e6ef4074 	uxtb	r4, r4
    9728:	e00e0e96 	mul	lr, r6, lr
    972c:	e0823103 	add	r3, r2, r3, lsl #2
    9730:	e6ffb07b 	uxth	fp, fp
    9734:	e59d200c 	ldr	r2, [sp, #12]
    9738:	e28ee0ea 	add	lr, lr, #234	; 0xea
    973c:	e1a0120a 	lsl	r1, sl, #4
    9740:	e6efe07e 	uxtb	lr, lr
    9744:	e1a0c082 	lsl	ip, r2, #1
    9748:	e1a05085 	lsl	r5, r5, #1
    974c:	e1a04084 	lsl	r4, r4, #1
    9750:	e081a10a 	add	sl, r1, sl, lsl #2
    9754:	e19740b4 	ldrh	r4, [r7, r4]
    9758:	e1a0e08e 	lsl	lr, lr, #1
    975c:	e19750b5 	ldrh	r5, [r7, r5]
    9760:	e0882003 	add	r2, r8, r3
    9764:	e08b100a 	add	r1, fp, sl
    9768:	e6bf2072 	sxth	r2, r2
    976c:	e19730bc 	ldrh	r3, [r7, ip]
    9770:	e6bf1071 	sxth	r1, r1
    9774:	e197a0be 	ldrh	sl, [r7, lr]
    9778:	e58d300c 	str	r3, [sp, #12]
    977c:	ebfffefd 	bl	9378 <V3DAddPreVertex>
    9780:	eef71a00 	vmov.f32	s3, #112	; 0x3f800000  1.0
    9784:	e6bf2074 	sxth	r2, r4
    9788:	ed9f2a2a 	vldr	s4, [pc, #168]	; 9838 <AddVertex+0x438>
    978c:	e6bf1075 	sxth	r1, r5
    9790:	e1a0e202 	lsl	lr, r2, #4
    9794:	e6bfa07a 	sxth	sl, sl
    9798:	e1a0c201 	lsl	ip, r1, #4
    979c:	e59d4008 	ldr	r4, [sp, #8]
    97a0:	e08e2102 	add	r2, lr, r2, lsl #2
    97a4:	e08c1101 	add	r1, ip, r1, lsl #2
    97a8:	e1a00004 	mov	r0, r4
    97ac:	e0882002 	add	r2, r8, r2
    97b0:	e08b1001 	add	r1, fp, r1
    97b4:	e6bf2072 	sxth	r2, r2
    97b8:	eef00a61 	vmov.f32	s1, s3
    97bc:	e6bf1071 	sxth	r1, r1
    97c0:	eeb00a61 	vmov.f32	s0, s3
    97c4:	eeb01a42 	vmov.f32	s2, s4
    97c8:	ebfffeea 	bl	9378 <V3DAddPreVertex>
    97cc:	e59d300c 	ldr	r3, [sp, #12]
    97d0:	e1a00004 	mov	r0, r4
    97d4:	eeb72a00 	vmov.f32	s4, #112	; 0x3f800000  1.0
    97d8:	eddf1a16 	vldr	s3, [pc, #88]	; 9838 <AddVertex+0x438>
    97dc:	e6bf3073 	sxth	r3, r3
    97e0:	e1a0120a 	lsl	r1, sl, #4
    97e4:	e1a02203 	lsl	r2, r3, #4
    97e8:	e0823103 	add	r3, r2, r3, lsl #2
    97ec:	e081a10a 	add	sl, r1, sl, lsl #2
    97f0:	e0882003 	add	r2, r8, r3
    97f4:	e08b100a 	add	r1, fp, sl
    97f8:	e6bf2072 	sxth	r2, r2
    97fc:	eef00a42 	vmov.f32	s1, s4
    9800:	e6bf1071 	sxth	r1, r1
    9804:	eeb00a42 	vmov.f32	s0, s4
    9808:	eeb01a61 	vmov.f32	s2, s3
    980c:	ebfffed9 	bl	9378 <V3DAddPreVertex>
    9810:	e59d1004 	ldr	r1, [sp, #4]
    9814:	e3510d0a 	cmp	r1, #640	; 0x280
    9818:	1affff84 	bne	9630 <AddVertex+0x230>
    981c:	e59d2014 	ldr	r2, [sp, #20]
    9820:	e1a03009 	mov	r3, r9
    9824:	e2822028 	add	r2, r2, #40	; 0x28
    9828:	e58d2014 	str	r2, [sp, #20]
    982c:	e3520e19 	cmp	r2, #400	; 0x190
    9830:	1affff78 	bne	9618 <AddVertex+0x218>
    9834:	ea000000 	b	983c <AddVertex+0x43c>
    9838:	00000000 	andeq	r0, r0, r0
    983c:	e59d0008 	ldr	r0, [sp, #8]
    9840:	e28dd01c 	add	sp, sp, #28
    9844:	e8bd4ff0 	pop	{r4, r5, r6, r7, r8, r9, sl, fp, lr}
    9848:	ea0002f0 	b	a410 <V3DSetOffsetEndVertex>

0000984c <L2CacheAndMiscCacheClear>:
    984c:	e3a025ff 	mov	r2, #1069547520	; 0x3fc00000
    9850:	e3003f0f 	movw	r3, #3855	; 0xf0f
    9854:	e7df3813 	bfi	r3, r3, #16, #16
    9858:	e3a01004 	mov	r1, #4
    985c:	e5821020 	str	r1, [r2, #32]
    9860:	e5823024 	str	r3, [r2, #36]	; 0x24
    9864:	f57ff05f 	dmb	sy
    9868:	e12fff1e 	bx	lr

0000986c <Present>:
    986c:	e30c2000 	movw	r2, #49152	; 0xc000
    9870:	e3a035ff 	mov	r3, #1069547520	; 0x3fc00000
    9874:	e3402001 	movt	r2, #1
    9878:	e3a0c001 	mov	ip, #1
    987c:	e1a01003 	mov	r1, r3
    9880:	e5920000 	ldr	r0, [r2]
    9884:	e583c134 	str	ip, [r3, #308]	; 0x134
    9888:	e590c018 	ldr	ip, [r0, #24]
    988c:	e5902008 	ldr	r2, [r0, #8]
    9890:	e082200c 	add	r2, r2, ip
    9894:	e5832110 	str	r2, [r3, #272]	; 0x110
    9898:	e5902008 	ldr	r2, [r0, #8]
    989c:	e590c01c 	ldr	ip, [r0, #28]
    98a0:	e082200c 	add	r2, r2, ip
    98a4:	e5832108 	str	r2, [r3, #264]	; 0x108
    98a8:	e5913134 	ldr	r3, [r1, #308]	; 0x134
    98ac:	e3a025ff 	mov	r2, #1069547520	; 0x3fc00000
    98b0:	e3530000 	cmp	r3, #0
    98b4:	0afffffb 	beq	98a8 <Present+0x3c>
    98b8:	e3a03001 	mov	r3, #1
    98bc:	e1a01002 	mov	r1, r2
    98c0:	e5823138 	str	r3, [r2, #312]	; 0x138
    98c4:	e590c020 	ldr	ip, [r0, #32]
    98c8:	e5903008 	ldr	r3, [r0, #8]
    98cc:	e083300c 	add	r3, r3, ip
    98d0:	e5823114 	str	r3, [r2, #276]	; 0x114
    98d4:	e5903008 	ldr	r3, [r0, #8]
    98d8:	e590c024 	ldr	ip, [r0, #36]	; 0x24
    98dc:	e083300c 	add	r3, r3, ip
    98e0:	e582310c 	str	r3, [r2, #268]	; 0x10c
    98e4:	e5913138 	ldr	r3, [r1, #312]	; 0x138
    98e8:	e3530000 	cmp	r3, #0
    98ec:	0afffffc 	beq	98e4 <Present+0x78>
    98f0:	e5903038 	ldr	r3, [r0, #56]	; 0x38
    98f4:	e2833001 	add	r3, r3, #1
    98f8:	e5803038 	str	r3, [r0, #56]	; 0x38
    98fc:	e12fff1e 	bx	lr

00009900 <debug_output>:
    9900:	e92d4010 	push	{r4, lr}
    9904:	e3a045ff 	mov	r4, #1069547520	; 0x3fc00000
    9908:	e30b0390 	movw	r0, #45968	; 0xb390
    990c:	e5941f20 	ldr	r1, [r4, #3872]	; 0xf20
    9910:	e3400001 	movt	r0, #1
    9914:	eb0000ae 	bl	9bd4 <uart_debug_puts>
    9918:	e5941410 	ldr	r1, [r4, #1040]	; 0x410
    991c:	e30b03a4 	movw	r0, #45988	; 0xb3a4
    9920:	e3400001 	movt	r0, #1
    9924:	eb0000aa 	bl	9bd4 <uart_debug_puts>
    9928:	e594143c 	ldr	r1, [r4, #1084]	; 0x43c
    992c:	e30b03b8 	movw	r0, #46008	; 0xb3b8
    9930:	e3400001 	movt	r0, #1
    9934:	eb0000a6 	bl	9bd4 <uart_debug_puts>
    9938:	e5941500 	ldr	r1, [r4, #1280]	; 0x500
    993c:	e30b03cc 	movw	r0, #46028	; 0xb3cc
    9940:	e3400001 	movt	r0, #1
    9944:	eb0000a2 	bl	9bd4 <uart_debug_puts>
    9948:	e5941f00 	ldr	r1, [r4, #3840]	; 0xf00
    994c:	e30b03e0 	movw	r0, #46048	; 0xb3e0
    9950:	e3400001 	movt	r0, #1
    9954:	eb00009e 	bl	9bd4 <uart_debug_puts>
    9958:	e5941f04 	ldr	r1, [r4, #3844]	; 0xf04
    995c:	e30b03f4 	movw	r0, #46068	; 0xb3f4
    9960:	e3400001 	movt	r0, #1
    9964:	eb00009a 	bl	9bd4 <uart_debug_puts>
    9968:	e5941f10 	ldr	r1, [r4, #3856]	; 0xf10
    996c:	e30b0408 	movw	r0, #46088	; 0xb408
    9970:	e3400001 	movt	r0, #1
    9974:	eb000096 	bl	9bd4 <uart_debug_puts>
    9978:	e5941310 	ldr	r1, [r4, #784]	; 0x310
    997c:	e30b041c 	movw	r0, #46108	; 0xb41c
    9980:	e3400001 	movt	r0, #1
    9984:	e8bd4010 	pop	{r4, lr}
    9988:	ea000091 	b	9bd4 <uart_debug_puts>

0000998c <DmaBlit>:
    998c:	e92d4070 	push	{r4, r5, r6, lr}
    9990:	e1a05000 	mov	r5, r0
    9994:	e3020710 	movw	r0, #10000	; 0x2710
    9998:	e1a04002 	mov	r4, r2
    999c:	e1a06001 	mov	r6, r1
    99a0:	eb0001df 	bl	a124 <usleep>
    99a4:	e3a00a07 	mov	r0, #28672	; 0x7000
    99a8:	e30d3800 	movw	r3, #55296	; 0xd800
    99ac:	e1a02000 	mov	r2, r0
    99b0:	e3403081 	movt	r3, #129	; 0x81
    99b4:	e3430f00 	movt	r0, #16128	; 0x3f00
    99b8:	e3a0c001 	mov	ip, #1
    99bc:	e582cff0 	str	ip, [r2, #4080]	; 0xff0
    99c0:	e3a0e000 	mov	lr, #0
    99c4:	e3a02e11 	mov	r2, #272	; 0x110
    99c8:	e5832000 	str	r2, [r3]
    99cc:	e5836004 	str	r6, [r3, #4]
    99d0:	e5835008 	str	r5, [r3, #8]
    99d4:	e583400c 	str	r4, [r3, #12]
    99d8:	e583e010 	str	lr, [r3, #16]
    99dc:	e583e014 	str	lr, [r3, #20]
    99e0:	e5803004 	str	r3, [r0, #4]
    99e4:	e580c000 	str	ip, [r0]
    99e8:	e8bd8070 	pop	{r4, r5, r6, pc}

000099ec <testTriangle>:
    99ec:	e92d41f0 	push	{r4, r5, r6, r7, r8, lr}
    99f0:	e30d5708 	movw	r5, #55048	; 0xd708
    99f4:	e30c4000 	movw	r4, #49152	; 0xc000
    99f8:	e1a07000 	mov	r7, r0
    99fc:	e3404001 	movt	r4, #1
    9a00:	e3405001 	movt	r5, #1
    9a04:	e3a06000 	mov	r6, #0
    9a08:	e5856004 	str	r6, [r5, #4]
    9a0c:	ebfffca6 	bl	8cac <init_render_chunk_buffer>
    9a10:	e5971020 	ldr	r1, [r7, #32]
    9a14:	e5940000 	ldr	r0, [r4]
    9a18:	eb000258 	bl	a380 <V3DAlloc>
    9a1c:	e5940000 	ldr	r0, [r4]
    9a20:	eb00027e 	bl	a420 <V3DLock>
    9a24:	e5940000 	ldr	r0, [r4]
    9a28:	ebfffe74 	bl	9400 <AddVertex>
    9a2c:	e30b0430 	movw	r0, #46128	; 0xb430
    9a30:	e1a01006 	mov	r1, r6
    9a34:	e3400001 	movt	r0, #1
    9a38:	eb000065 	bl	9bd4 <uart_debug_puts>
    9a3c:	e5940000 	ldr	r0, [r4]
    9a40:	ebfffd19 	bl	8eac <V3DControlListCreateBinning>
    9a44:	e30b0440 	movw	r0, #46144	; 0xb440
    9a48:	e1a01006 	mov	r1, r6
    9a4c:	e3400001 	movt	r0, #1
    9a50:	eb00005f 	bl	9bd4 <uart_debug_puts>
    9a54:	e5971028 	ldr	r1, [r7, #40]	; 0x28
    9a58:	e5940000 	ldr	r0, [r4]
    9a5c:	ebfffdc8 	bl	9184 <V3DControlListCreateRendering>
    9a60:	e30b0464 	movw	r0, #46180	; 0xb464
    9a64:	e1a01006 	mov	r1, r6
    9a68:	e3400001 	movt	r0, #1
    9a6c:	eb000058 	bl	9bd4 <uart_debug_puts>
    9a70:	eeb07a04 	vmov.f32	s14, #4	; 0x40200000  2.5
    9a74:	e3091b00 	movw	r1, #39680	; 0x9b00
    9a78:	e1a03006 	mov	r3, r6
    9a7c:	e3401094 	movt	r1, #148	; 0x94
    9a80:	e0812103 	add	r2, r1, r3, lsl #2
    9a84:	e2833001 	add	r3, r3, #1
    9a88:	e3530902 	cmp	r3, #32768	; 0x8000
    9a8c:	edd27a00 	vldr	s15, [r2]
    9a90:	ee777aa7 	vadd.f32	s15, s15, s15
    9a94:	ee677a87 	vmul.f32	s15, s15, s14
    9a98:	edc27a00 	vstr	s15, [r2]
    9a9c:	1afffff7 	bne	9a80 <testTriangle+0x94>
    9aa0:	e5940000 	ldr	r0, [r4]
    9aa4:	eb00026a 	bl	a454 <V3DUnlock>
    9aa8:	e5953004 	ldr	r3, [r5, #4]
    9aac:	e5940000 	ldr	r0, [r4]
    9ab0:	e2833001 	add	r3, r3, #1
    9ab4:	e5853004 	str	r3, [r5, #4]
    9ab8:	eb000258 	bl	a420 <V3DLock>
    9abc:	e5940000 	ldr	r0, [r4]
    9ac0:	ebfffe4e 	bl	9400 <AddVertex>
    9ac4:	ebffff68 	bl	986c <Present>
    9ac8:	e5940000 	ldr	r0, [r4]
    9acc:	eb000260 	bl	a454 <V3DUnlock>
    9ad0:	eafffff4 	b	9aa8 <testTriangle+0xbc>

00009ad4 <uart_init>:
    9ad4:	e3a03a01 	mov	r3, #4096	; 0x1000
    9ad8:	e3a02000 	mov	r2, #0
    9adc:	e3433f20 	movt	r3, #16160	; 0x3f20
    9ae0:	e3432f20 	movt	r2, #16160	; 0x3f20
    9ae4:	e3a01000 	mov	r1, #0
    9ae8:	e3a00903 	mov	r0, #49152	; 0xc000
    9aec:	e92d4010 	push	{r4, lr}
    9af0:	e3a0c028 	mov	ip, #40	; 0x28
    9af4:	e5831030 	str	r1, [r3, #48]	; 0x30
    9af8:	e30047ff 	movw	r4, #2047	; 0x7ff
    9afc:	e5821094 	str	r1, [r2, #148]	; 0x94
    9b00:	e3a0e001 	mov	lr, #1
    9b04:	e5820098 	str	r0, [r2, #152]	; 0x98
    9b08:	e3a00070 	mov	r0, #112	; 0x70
    9b0c:	e5821098 	str	r1, [r2, #152]	; 0x98
    9b10:	e30017f2 	movw	r1, #2034	; 0x7f2
    9b14:	e5834044 	str	r4, [r3, #68]	; 0x44
    9b18:	e3002301 	movw	r2, #769	; 0x301
    9b1c:	e583e024 	str	lr, [r3, #36]	; 0x24
    9b20:	e583c028 	str	ip, [r3, #40]	; 0x28
    9b24:	e583002c 	str	r0, [r3, #44]	; 0x2c
    9b28:	e5831038 	str	r1, [r3, #56]	; 0x38
    9b2c:	e5832030 	str	r2, [r3, #48]	; 0x30
    9b30:	e8bd8010 	pop	{r4, pc}

00009b34 <uart_putc>:
    9b34:	e3a01a01 	mov	r1, #4096	; 0x1000
    9b38:	e3431f20 	movt	r1, #16160	; 0x3f20
    9b3c:	e5912018 	ldr	r2, [r1, #24]
    9b40:	e3a03a01 	mov	r3, #4096	; 0x1000
    9b44:	e3433f20 	movt	r3, #16160	; 0x3f20
    9b48:	e3120020 	tst	r2, #32
    9b4c:	1afffffa 	bne	9b3c <uart_putc+0x8>
    9b50:	e5830000 	str	r0, [r3]
    9b54:	e12fff1e 	bx	lr

00009b58 <uart_getc>:
    9b58:	e3a03a01 	mov	r3, #4096	; 0x1000
    9b5c:	e3433f20 	movt	r3, #16160	; 0x3f20
    9b60:	e5930018 	ldr	r0, [r3, #24]
    9b64:	e2100010 	ands	r0, r0, #16
    9b68:	15930000 	ldrne	r0, [r3]
    9b6c:	16ef0070 	uxtbne	r0, r0
    9b70:	e12fff1e 	bx	lr

00009b74 <uart_puts>:
    9b74:	e5d01000 	ldrb	r1, [r0]
    9b78:	e3510000 	cmp	r1, #0
    9b7c:	012fff1e 	bxeq	lr
    9b80:	e3a02a01 	mov	r2, #4096	; 0x1000
    9b84:	e3432f20 	movt	r2, #16160	; 0x3f20
    9b88:	e52de004 	push	{lr}		; (str lr, [sp, #-4]!)
    9b8c:	e1a0c002 	mov	ip, r2
    9b90:	e3a0e00d 	mov	lr, #13
    9b94:	e5923018 	ldr	r3, [r2, #24]
    9b98:	e3130020 	tst	r3, #32
    9b9c:	1afffffc 	bne	9b94 <uart_puts+0x20>
    9ba0:	e58c1000 	str	r1, [ip]
    9ba4:	e5d03000 	ldrb	r3, [r0]
    9ba8:	e353000a 	cmp	r3, #10
    9bac:	0a000003 	beq	9bc0 <uart_puts+0x4c>
    9bb0:	e5f01001 	ldrb	r1, [r0, #1]!
    9bb4:	e3510000 	cmp	r1, #0
    9bb8:	1afffff5 	bne	9b94 <uart_puts+0x20>
    9bbc:	e49df004 	pop	{pc}		; (ldr pc, [sp], #4)
    9bc0:	e5923018 	ldr	r3, [r2, #24]
    9bc4:	e3130020 	tst	r3, #32
    9bc8:	1afffffc 	bne	9bc0 <uart_puts+0x4c>
    9bcc:	e58ce000 	str	lr, [ip]
    9bd0:	eafffff6 	b	9bb0 <uart_puts+0x3c>

00009bd4 <uart_debug_puts>:
    9bd4:	e5d03000 	ldrb	r3, [r0]
    9bd8:	e3530000 	cmp	r3, #0
    9bdc:	012fff1e 	bxeq	lr
    9be0:	e92d41f0 	push	{r4, r5, r6, r7, r8, lr}
    9be4:	e3a04a01 	mov	r4, #4096	; 0x1000
    9be8:	e3434f20 	movt	r4, #16160	; 0x3f20
    9bec:	e1a05000 	mov	r5, r0
    9bf0:	e1a07001 	mov	r7, r1
    9bf4:	e3a06020 	mov	r6, #32
    9bf8:	e1a08004 	mov	r8, r4
    9bfc:	e353000a 	cmp	r3, #10
    9c00:	0a000008 	beq	9c28 <uart_debug_puts+0x54>
    9c04:	e5d52000 	ldrb	r2, [r5]
    9c08:	e5943018 	ldr	r3, [r4, #24]
    9c0c:	e3130020 	tst	r3, #32
    9c10:	1afffffc 	bne	9c08 <uart_debug_puts+0x34>
    9c14:	e5882000 	str	r2, [r8]
    9c18:	e5f53001 	ldrb	r3, [r5, #1]!
    9c1c:	e3530000 	cmp	r3, #0
    9c20:	1afffff5 	bne	9bfc <uart_debug_puts+0x28>
    9c24:	e8bd81f0 	pop	{r4, r5, r6, r7, r8, pc}
    9c28:	e5943018 	ldr	r3, [r4, #24]
    9c2c:	e3130020 	tst	r3, #32
    9c30:	1afffffc 	bne	9c28 <uart_debug_puts+0x54>
    9c34:	e5886000 	str	r6, [r8]
    9c38:	e1a00007 	mov	r0, r7
    9c3c:	eb0000cd 	bl	9f78 <uart_put_dword>
    9c40:	e5943018 	ldr	r3, [r4, #24]
    9c44:	e3130020 	tst	r3, #32
    9c48:	1afffffc 	bne	9c40 <uart_debug_puts+0x6c>
    9c4c:	e3a0300d 	mov	r3, #13
    9c50:	e5883000 	str	r3, [r8]
    9c54:	eaffffea 	b	9c04 <uart_debug_puts+0x30>

00009c58 <uart_dump>:
    9c58:	e92d41f0 	push	{r4, r5, r6, r7, r8, lr}
    9c5c:	e2105003 	ands	r5, r0, #3
    9c60:	18bd81f0 	popne	{r4, r5, r6, r7, r8, pc}
    9c64:	e1b07121 	lsrs	r7, r1, #2
    9c68:	13a04a01 	movne	r4, #4096	; 0x1000
    9c6c:	11a06000 	movne	r6, r0
    9c70:	13434f20 	movtne	r4, #16160	; 0x3f20
    9c74:	11a08004 	movne	r8, r4
    9c78:	0a00000b 	beq	9cac <uart_dump+0x54>
    9c7c:	e3150003 	tst	r5, #3
    9c80:	0a000010 	beq	9cc8 <uart_dump+0x70>
    9c84:	e4960004 	ldr	r0, [r6], #4
    9c88:	eb0000ba 	bl	9f78 <uart_put_dword>
    9c8c:	e5943018 	ldr	r3, [r4, #24]
    9c90:	e3130020 	tst	r3, #32
    9c94:	1afffffc 	bne	9c8c <uart_dump+0x34>
    9c98:	e2855001 	add	r5, r5, #1
    9c9c:	e3a03020 	mov	r3, #32
    9ca0:	e1550007 	cmp	r5, r7
    9ca4:	e5883000 	str	r3, [r8]
    9ca8:	1afffff3 	bne	9c7c <uart_dump+0x24>
    9cac:	e30b0294 	movw	r0, #45716	; 0xb294
    9cb0:	e3400001 	movt	r0, #1
    9cb4:	ebffffae 	bl	9b74 <uart_puts>
    9cb8:	e30b0294 	movw	r0, #45716	; 0xb294
    9cbc:	e3400001 	movt	r0, #1
    9cc0:	e8bd41f0 	pop	{r4, r5, r6, r7, r8, lr}
    9cc4:	eaffffaa 	b	9b74 <uart_puts>
    9cc8:	e30b0294 	movw	r0, #45716	; 0xb294
    9ccc:	e3400001 	movt	r0, #1
    9cd0:	ebffffa7 	bl	9b74 <uart_puts>
    9cd4:	e1a00006 	mov	r0, r6
    9cd8:	eb0000a6 	bl	9f78 <uart_put_dword>
    9cdc:	e30b0488 	movw	r0, #46216	; 0xb488
    9ce0:	e3400001 	movt	r0, #1
    9ce4:	ebffffa2 	bl	9b74 <uart_puts>
    9ce8:	eaffffe5 	b	9c84 <uart_dump+0x2c>

00009cec <uart_bytedump>:
    9cec:	e92d41f0 	push	{r4, r5, r6, r7, r8, lr}
    9cf0:	e2518000 	subs	r8, r1, #0
    9cf4:	0a000010 	beq	9d3c <uart_bytedump+0x50>
    9cf8:	e3a04a01 	mov	r4, #4096	; 0x1000
    9cfc:	e1a06000 	mov	r6, r0
    9d00:	e3434f20 	movt	r4, #16160	; 0x3f20
    9d04:	e3a05000 	mov	r5, #0
    9d08:	e1a07004 	mov	r7, r4
    9d0c:	e315000f 	tst	r5, #15
    9d10:	0a000010 	beq	9d58 <uart_bytedump+0x6c>
    9d14:	e4d60001 	ldrb	r0, [r6], #1
    9d18:	eb0000ba 	bl	a008 <uart_char_putc>
    9d1c:	e5943018 	ldr	r3, [r4, #24]
    9d20:	e3130020 	tst	r3, #32
    9d24:	1afffffc 	bne	9d1c <uart_bytedump+0x30>
    9d28:	e2855001 	add	r5, r5, #1
    9d2c:	e3a03020 	mov	r3, #32
    9d30:	e1550008 	cmp	r5, r8
    9d34:	e5873000 	str	r3, [r7]
    9d38:	1afffff3 	bne	9d0c <uart_bytedump+0x20>
    9d3c:	e30b0294 	movw	r0, #45716	; 0xb294
    9d40:	e3400001 	movt	r0, #1
    9d44:	ebffff8a 	bl	9b74 <uart_puts>
    9d48:	e30b0294 	movw	r0, #45716	; 0xb294
    9d4c:	e3400001 	movt	r0, #1
    9d50:	e8bd41f0 	pop	{r4, r5, r6, r7, r8, lr}
    9d54:	eaffff86 	b	9b74 <uart_puts>
    9d58:	e30b0294 	movw	r0, #45716	; 0xb294
    9d5c:	e3400001 	movt	r0, #1
    9d60:	ebffff83 	bl	9b74 <uart_puts>
    9d64:	e1a00006 	mov	r0, r6
    9d68:	eb000082 	bl	9f78 <uart_put_dword>
    9d6c:	e30b0488 	movw	r0, #46216	; 0xb488
    9d70:	e3400001 	movt	r0, #1
    9d74:	ebffff7e 	bl	9b74 <uart_puts>
    9d78:	eaffffe5 	b	9d14 <uart_bytedump+0x28>

00009d7c <draw_char.part.0>:
    9d7c:	e92d4ff8 	push	{r3, r4, r5, r6, r7, r8, r9, sl, fp, lr}
    9d80:	e1a04000 	mov	r4, r0
    9d84:	e1a05002 	mov	r5, r2
    9d88:	e1a06001 	mov	r6, r1
    9d8c:	e30c7004 	movw	r7, #49156	; 0xc004
    9d90:	ebfff9e0 	bl	8518 <get_fontdata16x16>
    9d94:	e1a03fc4 	asr	r3, r4, #31
    9d98:	e3540000 	cmp	r4, #0
    9d9c:	e1a09fc6 	asr	r9, r6, #31
    9da0:	e284c00f 	add	ip, r4, #15
    9da4:	e1a02e23 	lsr	r2, r3, #28
    9da8:	a1a0c004 	movge	ip, r4
    9dac:	e1a0efc5 	asr	lr, r5, #31
    9db0:	e3407001 	movt	r7, #1
    9db4:	e0844002 	add	r4, r4, r2
    9db8:	e1a09d29 	lsr	r9, r9, #26
    9dbc:	e204300f 	and	r3, r4, #15
    9dc0:	e1a0ed2e 	lsr	lr, lr, #26
    9dc4:	e0623003 	rsb	r3, r2, r3
    9dc8:	e0861009 	add	r1, r6, r9
    9dcc:	e085200e 	add	r2, r5, lr
    9dd0:	e201103f 	and	r1, r1, #63	; 0x3f
    9dd4:	e1a0c24c 	asr	ip, ip, #4
    9dd8:	e202203f 	and	r2, r2, #63	; 0x3f
    9ddc:	e0699001 	rsb	r9, r9, r1
    9de0:	e06e5002 	rsb	r5, lr, r2
    9de4:	e083340c 	add	r3, r3, ip, lsl #8
    9de8:	e1a09209 	lsl	r9, r9, #4
    9dec:	e0800203 	add	r0, r0, r3, lsl #4
    9df0:	e2896010 	add	r6, r9, #16
    9df4:	e1a05205 	lsl	r5, r5, #4
    9df8:	e2408001 	sub	r8, r0, #1
    9dfc:	e285a010 	add	sl, r5, #16
    9e00:	e1a0b008 	mov	fp, r8
    9e04:	e1a04009 	mov	r4, r9
    9e08:	e5fb0001 	ldrb	r0, [fp, #1]!
    9e0c:	e1a01004 	mov	r1, r4
    9e10:	e1a02005 	mov	r2, r5
    9e14:	e2844001 	add	r4, r4, #1
    9e18:	e3500000 	cmp	r0, #0
    9e1c:	15970000 	ldrne	r0, [r7]
    9e20:	ebfffb90 	bl	8c68 <mailbox_fb_set_pixel>
    9e24:	e1540006 	cmp	r4, r6
    9e28:	1afffff6 	bne	9e08 <draw_char.part.0+0x8c>
    9e2c:	e2855001 	add	r5, r5, #1
    9e30:	e2888c01 	add	r8, r8, #256	; 0x100
    9e34:	e15a0005 	cmp	sl, r5
    9e38:	1afffff0 	bne	9e00 <draw_char.part.0+0x84>
    9e3c:	e8bd8ff8 	pop	{r3, r4, r5, r6, r7, r8, r9, sl, fp, pc}

00009e40 <set_char_color>:
    9e40:	e30c3004 	movw	r3, #49156	; 0xc004
    9e44:	e3403001 	movt	r3, #1
    9e48:	e5830000 	str	r0, [r3]
    9e4c:	e12fff1e 	bx	lr

00009e50 <reset_char_color>:
    9e50:	e30c3004 	movw	r3, #49156	; 0xc004
    9e54:	e3e02000 	mvn	r2, #0
    9e58:	e3403001 	movt	r3, #1
    9e5c:	e5832000 	str	r2, [r3]
    9e60:	e12fff1e 	bx	lr

00009e64 <draw_char>:
    9e64:	e3500c01 	cmp	r0, #256	; 0x100
    9e68:	812fff1e 	bxhi	lr
    9e6c:	eaffffc2 	b	9d7c <draw_char.part.0>

00009e70 <draw_text>:
    9e70:	e92d4070 	push	{r4, r5, r6, lr}
    9e74:	e1a04000 	mov	r4, r0
    9e78:	e5d00000 	ldrb	r0, [r0]
    9e7c:	e3500000 	cmp	r0, #0
    9e80:	08bd8070 	popeq	{r4, r5, r6, pc}
    9e84:	e1a06002 	mov	r6, r2
    9e88:	e0645001 	rsb	r5, r4, r1
    9e8c:	e0841005 	add	r1, r4, r5
    9e90:	e1a02006 	mov	r2, r6
    9e94:	ebffffb8 	bl	9d7c <draw_char.part.0>
    9e98:	e5f40001 	ldrb	r0, [r4, #1]!
    9e9c:	e3500000 	cmp	r0, #0
    9ea0:	1afffff9 	bne	9e8c <draw_text+0x1c>
    9ea4:	e8bd8070 	pop	{r4, r5, r6, pc}

00009ea8 <draw_dword>:
    9ea8:	e92d41f0 	push	{r4, r5, r6, r7, r8, lr}
    9eac:	e30c4004 	movw	r4, #49156	; 0xc004
    9eb0:	e3404001 	movt	r4, #1
    9eb4:	e1a05000 	mov	r5, r0
    9eb8:	e0843e20 	add	r3, r4, r0, lsr #28
    9ebc:	e1a06001 	mov	r6, r1
    9ec0:	e1a07002 	mov	r7, r2
    9ec4:	e5d30004 	ldrb	r0, [r3, #4]
    9ec8:	ebffffab 	bl	9d7c <draw_char.part.0>
    9ecc:	e7e33c55 	ubfx	r3, r5, #24, #4
    9ed0:	e1a02007 	mov	r2, r7
    9ed4:	e0843003 	add	r3, r4, r3
    9ed8:	e2861001 	add	r1, r6, #1
    9edc:	e5d30004 	ldrb	r0, [r3, #4]
    9ee0:	ebffffa5 	bl	9d7c <draw_char.part.0>
    9ee4:	e7e33a55 	ubfx	r3, r5, #20, #4
    9ee8:	e1a02007 	mov	r2, r7
    9eec:	e0843003 	add	r3, r4, r3
    9ef0:	e2861002 	add	r1, r6, #2
    9ef4:	e5d30004 	ldrb	r0, [r3, #4]
    9ef8:	ebffff9f 	bl	9d7c <draw_char.part.0>
    9efc:	e7e33855 	ubfx	r3, r5, #16, #4
    9f00:	e1a02007 	mov	r2, r7
    9f04:	e0843003 	add	r3, r4, r3
    9f08:	e2861003 	add	r1, r6, #3
    9f0c:	e5d30004 	ldrb	r0, [r3, #4]
    9f10:	ebffff99 	bl	9d7c <draw_char.part.0>
    9f14:	e7e33655 	ubfx	r3, r5, #12, #4
    9f18:	e1a02007 	mov	r2, r7
    9f1c:	e0843003 	add	r3, r4, r3
    9f20:	e2861004 	add	r1, r6, #4
    9f24:	e5d30004 	ldrb	r0, [r3, #4]
    9f28:	ebffff93 	bl	9d7c <draw_char.part.0>
    9f2c:	e7e33455 	ubfx	r3, r5, #8, #4
    9f30:	e1a02007 	mov	r2, r7
    9f34:	e0843003 	add	r3, r4, r3
    9f38:	e2861005 	add	r1, r6, #5
    9f3c:	e5d30004 	ldrb	r0, [r3, #4]
    9f40:	ebffff8d 	bl	9d7c <draw_char.part.0>
    9f44:	e7e33255 	ubfx	r3, r5, #4, #4
    9f48:	e205500f 	and	r5, r5, #15
    9f4c:	e0843003 	add	r3, r4, r3
    9f50:	e1a02007 	mov	r2, r7
    9f54:	e0844005 	add	r4, r4, r5
    9f58:	e2861006 	add	r1, r6, #6
    9f5c:	e5d30004 	ldrb	r0, [r3, #4]
    9f60:	ebffff85 	bl	9d7c <draw_char.part.0>
    9f64:	e5d40004 	ldrb	r0, [r4, #4]
    9f68:	e1a02007 	mov	r2, r7
    9f6c:	e2861007 	add	r1, r6, #7
    9f70:	e8bd41f0 	pop	{r4, r5, r6, r7, r8, lr}
    9f74:	eaffff80 	b	9d7c <draw_char.part.0>

00009f78 <uart_put_dword>:
    9f78:	e92d4070 	push	{r4, r5, r6, lr}
    9f7c:	e30c4004 	movw	r4, #49156	; 0xc004
    9f80:	e3404001 	movt	r4, #1
    9f84:	e1a05000 	mov	r5, r0
    9f88:	e0843e20 	add	r3, r4, r0, lsr #28
    9f8c:	e5d30004 	ldrb	r0, [r3, #4]
    9f90:	ebfffee7 	bl	9b34 <uart_putc>
    9f94:	e7e33c55 	ubfx	r3, r5, #24, #4
    9f98:	e0843003 	add	r3, r4, r3
    9f9c:	e5d30004 	ldrb	r0, [r3, #4]
    9fa0:	ebfffee3 	bl	9b34 <uart_putc>
    9fa4:	e7e33a55 	ubfx	r3, r5, #20, #4
    9fa8:	e0843003 	add	r3, r4, r3
    9fac:	e5d30004 	ldrb	r0, [r3, #4]
    9fb0:	ebfffedf 	bl	9b34 <uart_putc>
    9fb4:	e7e33855 	ubfx	r3, r5, #16, #4
    9fb8:	e0843003 	add	r3, r4, r3
    9fbc:	e5d30004 	ldrb	r0, [r3, #4]
    9fc0:	ebfffedb 	bl	9b34 <uart_putc>
    9fc4:	e7e33655 	ubfx	r3, r5, #12, #4
    9fc8:	e0843003 	add	r3, r4, r3
    9fcc:	e5d30004 	ldrb	r0, [r3, #4]
    9fd0:	ebfffed7 	bl	9b34 <uart_putc>
    9fd4:	e7e33455 	ubfx	r3, r5, #8, #4
    9fd8:	e0843003 	add	r3, r4, r3
    9fdc:	e5d30004 	ldrb	r0, [r3, #4]
    9fe0:	ebfffed3 	bl	9b34 <uart_putc>
    9fe4:	e7e33255 	ubfx	r3, r5, #4, #4
    9fe8:	e205500f 	and	r5, r5, #15
    9fec:	e0843003 	add	r3, r4, r3
    9ff0:	e0844005 	add	r4, r4, r5
    9ff4:	e5d30004 	ldrb	r0, [r3, #4]
    9ff8:	ebfffecd 	bl	9b34 <uart_putc>
    9ffc:	e5d40004 	ldrb	r0, [r4, #4]
    a000:	e8bd4070 	pop	{r4, r5, r6, lr}
    a004:	eafffeca 	b	9b34 <uart_putc>

0000a008 <uart_char_putc>:
    a008:	e92d4070 	push	{r4, r5, r6, lr}
    a00c:	e30c4004 	movw	r4, #49156	; 0xc004
    a010:	e1a05000 	mov	r5, r0
    a014:	e3404001 	movt	r4, #1
    a018:	e0843220 	add	r3, r4, r0, lsr #4
    a01c:	e205500f 	and	r5, r5, #15
    a020:	e0844005 	add	r4, r4, r5
    a024:	e5d30004 	ldrb	r0, [r3, #4]
    a028:	ebfffec1 	bl	9b34 <uart_putc>
    a02c:	e5d40004 	ldrb	r0, [r4, #4]
    a030:	e8bd4070 	pop	{r4, r5, r6, lr}
    a034:	eafffebe 	b	9b34 <uart_putc>

0000a038 <draw_dump_data>:
    a038:	e92d47f0 	push	{r4, r5, r6, r7, r8, r9, sl, lr}
    a03c:	e30c7004 	movw	r7, #49156	; 0xc004
    a040:	e2408001 	sub	r8, r0, #1
    a044:	e3407001 	movt	r7, #1
    a048:	e3a06000 	mov	r6, #0
    a04c:	e3a04000 	mov	r4, #0
    a050:	e1a05008 	mov	r5, r8
    a054:	e1a09004 	mov	r9, r4
    a058:	e5f53001 	ldrb	r3, [r5, #1]!
    a05c:	e3190003 	tst	r9, #3
    a060:	02844001 	addeq	r4, r4, #1
    a064:	e1a02006 	mov	r2, r6
    a068:	e0873223 	add	r3, r7, r3, lsr #4
    a06c:	e1a01004 	mov	r1, r4
    a070:	e2899001 	add	r9, r9, #1
    a074:	e5d30004 	ldrb	r0, [r3, #4]
    a078:	ebffff3f 	bl	9d7c <draw_char.part.0>
    a07c:	e5d53000 	ldrb	r3, [r5]
    a080:	e2841001 	add	r1, r4, #1
    a084:	e1a02006 	mov	r2, r6
    a088:	e2844002 	add	r4, r4, #2
    a08c:	e203300f 	and	r3, r3, #15
    a090:	e0873003 	add	r3, r7, r3
    a094:	e5d30004 	ldrb	r0, [r3, #4]
    a098:	ebffff37 	bl	9d7c <draw_char.part.0>
    a09c:	e3590010 	cmp	r9, #16
    a0a0:	1affffec 	bne	a058 <draw_dump_data+0x20>
    a0a4:	e2866001 	add	r6, r6, #1
    a0a8:	e2888010 	add	r8, r8, #16
    a0ac:	e356001c 	cmp	r6, #28
    a0b0:	1affffe5 	bne	a04c <draw_dump_data+0x14>
    a0b4:	e8bd87f0 	pop	{r4, r5, r6, r7, r8, r9, sl, pc}

0000a0b8 <init_random>:
    a0b8:	e30c3004 	movw	r3, #49156	; 0xc004
    a0bc:	e3a01001 	mov	r1, #1
    a0c0:	e3403001 	movt	r3, #1
    a0c4:	e30624cb 	movw	r2, #25803	; 0x64cb
    a0c8:	e3402078 	movt	r2, #120	; 0x78
    a0cc:	e5831014 	str	r1, [r3, #20]
    a0d0:	e3051ba0 	movw	r1, #23456	; 0x5ba0
    a0d4:	e5831018 	str	r1, [r3, #24]
    a0d8:	e583201c 	str	r2, [r3, #28]
    a0dc:	e12fff1e 	bx	lr

0000a0e0 <random>:
    a0e0:	e30c3004 	movw	r3, #49156	; 0xc004
    a0e4:	e3403001 	movt	r3, #1
    a0e8:	e2830014 	add	r0, r3, #20
    a0ec:	e8900007 	ldm	r0, {r0, r1, r2}
    a0f0:	e0810000 	add	r0, r1, r0
    a0f4:	e0811002 	add	r1, r1, r2
    a0f8:	e0802002 	add	r2, r0, r2
    a0fc:	e5830014 	str	r0, [r3, #20]
    a100:	e5831018 	str	r1, [r3, #24]
    a104:	e583201c 	str	r2, [r3, #28]
    a108:	e1a00820 	lsr	r0, r0, #16
    a10c:	e12fff1e 	bx	lr

0000a110 <memtest>:
    a110:	e24dd008 	sub	sp, sp, #8
    a114:	e3a03000 	mov	r3, #0
    a118:	e58d3004 	str	r3, [sp, #4]
    a11c:	e5933000 	ldr	r3, [r3]
    a120:	e7f000f0 	udf	#0

0000a124 <usleep>:
    a124:	e24dd008 	sub	sp, sp, #8
    a128:	e58d0004 	str	r0, [sp, #4]
    a12c:	e59d3004 	ldr	r3, [sp, #4]
    a130:	e3530000 	cmp	r3, #0
    a134:	da000005 	ble	a150 <usleep+0x2c>
    a138:	e59d3004 	ldr	r3, [sp, #4]
    a13c:	e2433001 	sub	r3, r3, #1
    a140:	e58d3004 	str	r3, [sp, #4]
    a144:	e59d3004 	ldr	r3, [sp, #4]
    a148:	e3530000 	cmp	r3, #0
    a14c:	cafffff9 	bgt	a138 <usleep+0x14>
    a150:	e28dd008 	add	sp, sp, #8
    a154:	e12fff1e 	bx	lr

0000a158 <memset_t>:
    a158:	e3120003 	tst	r2, #3
    a15c:	0a000004 	beq	a174 <memset_t+0x1c>
    a160:	e0802002 	add	r2, r0, r2
    a164:	e4c01001 	strb	r1, [r0], #1
    a168:	e1520000 	cmp	r2, r0
    a16c:	1afffffc 	bne	a164 <memset_t+0xc>
    a170:	e12fff1e 	bx	lr
    a174:	e1a03801 	lsl	r3, r1, #16
    a178:	e1833401 	orr	r3, r3, r1, lsl #8
    a17c:	e1b02122 	lsrs	r2, r2, #2
    a180:	e1833001 	orr	r3, r3, r1
    a184:	e1831c01 	orr	r1, r3, r1, lsl #24
    a188:	012fff1e 	bxeq	lr
    a18c:	e0802102 	add	r2, r0, r2, lsl #2
    a190:	e4801004 	str	r1, [r0], #4
    a194:	e1520000 	cmp	r2, r0
    a198:	1afffffc 	bne	a190 <memset_t+0x38>
    a19c:	e12fff1e 	bx	lr

0000a1a0 <get_systime>:
    a1a0:	e3a03a03 	mov	r3, #12288	; 0x3000
    a1a4:	e3433f00 	movt	r3, #16128	; 0x3f00
    a1a8:	e92d0030 	push	{r4, r5}
    a1ac:	e24dd008 	sub	sp, sp, #8
    a1b0:	e5932008 	ldr	r2, [r3, #8]
    a1b4:	e58d2000 	str	r2, [sp]
    a1b8:	e5932004 	ldr	r2, [r3, #4]
    a1bc:	e58d2004 	str	r2, [sp, #4]
    a1c0:	e5931008 	ldr	r1, [r3, #8]
    a1c4:	e59d2000 	ldr	r2, [sp]
    a1c8:	e1510002 	cmp	r1, r2
    a1cc:	15932008 	ldrne	r2, [r3, #8]
    a1d0:	158d2000 	strne	r2, [sp]
    a1d4:	e3a02000 	mov	r2, #0
    a1d8:	15933004 	ldrne	r3, [r3, #4]
    a1dc:	158d3004 	strne	r3, [sp, #4]
    a1e0:	e59d1000 	ldr	r1, [sp]
    a1e4:	e59d0004 	ldr	r0, [sp, #4]
    a1e8:	e0924000 	adds	r4, r2, r0
    a1ec:	e2a15000 	adc	r5, r1, #0
    a1f0:	e1a00004 	mov	r0, r4
    a1f4:	e1a01005 	mov	r1, r5
    a1f8:	e28dd008 	add	sp, sp, #8
    a1fc:	e8bd0030 	pop	{r4, r5}
    a200:	e12fff1e 	bx	lr

0000a204 <get_systime32>:
    a204:	e3a03a03 	mov	r3, #12288	; 0x3000
    a208:	e3433f00 	movt	r3, #16128	; 0x3f00
    a20c:	e5930004 	ldr	r0, [r3, #4]
    a210:	e12fff1e 	bx	lr

0000a214 <msleep>:
    a214:	e3a03a03 	mov	r3, #12288	; 0x3000
    a218:	e3433f00 	movt	r3, #16128	; 0x3f00
    a21c:	e92d00f0 	push	{r4, r5, r6, r7}
    a220:	e24dd010 	sub	sp, sp, #16
    a224:	e5932008 	ldr	r2, [r3, #8]
    a228:	e3a06000 	mov	r6, #0
    a22c:	e58d2000 	str	r2, [sp]
    a230:	e5932004 	ldr	r2, [r3, #4]
    a234:	e58d2004 	str	r2, [sp, #4]
    a238:	e5931008 	ldr	r1, [r3, #8]
    a23c:	e59d2000 	ldr	r2, [sp]
    a240:	e1510002 	cmp	r1, r2
    a244:	15932008 	ldrne	r2, [r3, #8]
    a248:	158d2000 	strne	r2, [sp]
    a24c:	e3a02ffa 	mov	r2, #1000	; 0x3e8
    a250:	15933004 	ldrne	r3, [r3, #4]
    a254:	e0000092 	mul	r0, r2, r0
    a258:	158d3004 	strne	r3, [sp, #4]
    a25c:	e3a03a03 	mov	r3, #12288	; 0x3000
    a260:	e59dc000 	ldr	ip, [sp]
    a264:	e3433f00 	movt	r3, #16128	; 0x3f00
    a268:	e59d1004 	ldr	r1, [sp, #4]
    a26c:	e0966001 	adds	r6, r6, r1
    a270:	e2ac7000 	adc	r7, ip, #0
    a274:	e0966000 	adds	r6, r6, r0
    a278:	e2a77000 	adc	r7, r7, #0
    a27c:	e5932008 	ldr	r2, [r3, #8]
    a280:	e3a04000 	mov	r4, #0
    a284:	e58d2008 	str	r2, [sp, #8]
    a288:	e5932004 	ldr	r2, [r3, #4]
    a28c:	e58d200c 	str	r2, [sp, #12]
    a290:	e5931008 	ldr	r1, [r3, #8]
    a294:	e59d2008 	ldr	r2, [sp, #8]
    a298:	e1510002 	cmp	r1, r2
    a29c:	15932008 	ldrne	r2, [r3, #8]
    a2a0:	158d2008 	strne	r2, [sp, #8]
    a2a4:	15932004 	ldrne	r2, [r3, #4]
    a2a8:	158d200c 	strne	r2, [sp, #12]
    a2ac:	e59d1008 	ldr	r1, [sp, #8]
    a2b0:	e59d200c 	ldr	r2, [sp, #12]
    a2b4:	e0940002 	adds	r0, r4, r2
    a2b8:	e2a11000 	adc	r1, r1, #0
    a2bc:	e1570001 	cmp	r7, r1
    a2c0:	01560000 	cmpeq	r6, r0
    a2c4:	8affffec 	bhi	a27c <msleep+0x68>
    a2c8:	e28dd010 	add	sp, sp, #16
    a2cc:	e8bd00f0 	pop	{r4, r5, r6, r7}
    a2d0:	e12fff1e 	bx	lr

0000a2d4 <msleep32>:
    a2d4:	e3a02a03 	mov	r2, #12288	; 0x3000
    a2d8:	e3a03ffa 	mov	r3, #1000	; 0x3e8
    a2dc:	e3432f00 	movt	r2, #16128	; 0x3f00
    a2e0:	e5921004 	ldr	r1, [r2, #4]
    a2e4:	e0201093 	mla	r0, r3, r0, r1
    a2e8:	e5923004 	ldr	r3, [r2, #4]
    a2ec:	e1530000 	cmp	r3, r0
    a2f0:	3afffffc 	bcc	a2e8 <msleep32+0x14>
    a2f4:	e12fff1e 	bx	lr

0000a2f8 <V3DSetOffset>:
    a2f8:	e3500000 	cmp	r0, #0
    a2fc:	1580100c 	strne	r1, [r0, #12]
    a300:	15801010 	strne	r1, [r0, #16]
    a304:	e12fff1e 	bx	lr

0000a308 <V3DSaveOffset>:
    a308:	e3500000 	cmp	r0, #0
    a30c:	012fff1e 	bxeq	lr
    a310:	e3510000 	cmp	r1, #0
    a314:	1a000005 	bne	a330 <V3DSaveOffset+0x28>
    a318:	e590300c 	ldr	r3, [r0, #12]
    a31c:	e5902010 	ldr	r2, [r0, #16]
    a320:	e2433001 	sub	r3, r3, #1
    a324:	e5802018 	str	r2, [r0, #24]
    a328:	e580301c 	str	r3, [r0, #28]
    a32c:	e12fff1e 	bx	lr
    a330:	e3510001 	cmp	r1, #1
    a334:	0590300c 	ldreq	r3, [r0, #12]
    a338:	05902010 	ldreq	r2, [r0, #16]
    a33c:	02433001 	subeq	r3, r3, #1
    a340:	05802020 	streq	r2, [r0, #32]
    a344:	05803024 	streq	r3, [r0, #36]	; 0x24
    a348:	e12fff1e 	bx	lr

0000a34c <V3DFree>:
    a34c:	e3500000 	cmp	r0, #0
    a350:	012fff1e 	bxeq	lr
    a354:	e92d4010 	push	{r4, lr}
    a358:	e1a04000 	mov	r4, r0
    a35c:	e5900000 	ldr	r0, [r0]
    a360:	e3500000 	cmp	r0, #0
    a364:	1a000003 	bne	a378 <V3DFree+0x2c>
    a368:	e3a03000 	mov	r3, #0
    a36c:	e5843000 	str	r3, [r4]
    a370:	e5843004 	str	r3, [r4, #4]
    a374:	e8bd8010 	pop	{r4, pc}
    a378:	ebfff960 	bl	8900 <mailbox_free_memory>
    a37c:	eafffff9 	b	a368 <V3DFree+0x1c>

0000a380 <V3DAlloc>:
    a380:	e3500000 	cmp	r0, #0
    a384:	012fff1e 	bxeq	lr
    a388:	e92d4070 	push	{r4, r5, r6, lr}
    a38c:	e3a0200d 	mov	r2, #13
    a390:	e1a05001 	mov	r5, r1
    a394:	e1a04000 	mov	r4, r0
    a398:	e3a01a01 	mov	r1, #4096	; 0x1000
    a39c:	e3a00502 	mov	r0, #8388608	; 0x800000
    a3a0:	ebfff92b 	bl	8854 <mailbox_allocate_memory>
    a3a4:	e3500000 	cmp	r0, #0
    a3a8:	08bd8070 	popeq	{r4, r5, r6, pc}
    a3ac:	e5840000 	str	r0, [r4]
    a3b0:	e3a03000 	mov	r3, #0
    a3b4:	e5845014 	str	r5, [r4, #20]
    a3b8:	e5843004 	str	r3, [r4, #4]
    a3bc:	e584300c 	str	r3, [r4, #12]
    a3c0:	e5843010 	str	r3, [r4, #16]
    a3c4:	e5843018 	str	r3, [r4, #24]
    a3c8:	e584301c 	str	r3, [r4, #28]
    a3cc:	e5843020 	str	r3, [r4, #32]
    a3d0:	e5843024 	str	r3, [r4, #36]	; 0x24
    a3d4:	e5843030 	str	r3, [r4, #48]	; 0x30
    a3d8:	e5843034 	str	r3, [r4, #52]	; 0x34
    a3dc:	e5843038 	str	r3, [r4, #56]	; 0x38
    a3e0:	e8bd8070 	pop	{r4, r5, r6, pc}

0000a3e4 <V3DClearOffsetVertex>:
    a3e4:	e3500000 	cmp	r0, #0
    a3e8:	13a03000 	movne	r3, #0
    a3ec:	15803030 	strne	r3, [r0, #48]	; 0x30
    a3f0:	15803034 	strne	r3, [r0, #52]	; 0x34
    a3f4:	e12fff1e 	bx	lr

0000a3f8 <V3DSetOffsetBeginVertex>:
    a3f8:	e3500000 	cmp	r0, #0
    a3fc:	15903030 	ldrne	r3, [r0, #48]	; 0x30
    a400:	1283381b 	addne	r3, r3, #1769472	; 0x1b0000
    a404:	1580300c 	strne	r3, [r0, #12]
    a408:	15803010 	strne	r3, [r0, #16]
    a40c:	e12fff1e 	bx	lr

0000a410 <V3DSetOffsetEndVertex>:
    a410:	e3500000 	cmp	r0, #0
    a414:	1590300c 	ldrne	r3, [r0, #12]
    a418:	15803030 	strne	r3, [r0, #48]	; 0x30
    a41c:	e12fff1e 	bx	lr

0000a420 <V3DLock>:
    a420:	e2503000 	subs	r3, r0, #0
    a424:	012fff1e 	bxeq	lr
    a428:	e5930000 	ldr	r0, [r3]
    a42c:	e3500000 	cmp	r0, #0
    a430:	012fff1e 	bxeq	lr
    a434:	e92d4010 	push	{r4, lr}
    a438:	e1a04003 	mov	r4, r3
    a43c:	ebfff954 	bl	8994 <mailbox_lock_memory>
    a440:	e5840008 	str	r0, [r4, #8]
    a444:	ebfff88d 	bl	8680 <VcToArm>
    a448:	e5840004 	str	r0, [r4, #4]
    a44c:	e8bd8010 	pop	{r4, pc}

0000a450 <V3DUpdate>:
    a450:	e12fff1e 	bx	lr

0000a454 <V3DUnlock>:
    a454:	e2503000 	subs	r3, r0, #0
    a458:	012fff1e 	bxeq	lr
    a45c:	e5930000 	ldr	r0, [r3]
    a460:	e3500000 	cmp	r0, #0
    a464:	012fff1e 	bxeq	lr
    a468:	e92d4010 	push	{r4, lr}
    a46c:	e1a04003 	mov	r4, r3
    a470:	ebfff970 	bl	8a38 <mailbox_unlock_memory>
    a474:	e3a03000 	mov	r3, #0
    a478:	e5843008 	str	r3, [r4, #8]
    a47c:	e5843004 	str	r3, [r4, #4]
    a480:	e8bd8010 	pop	{r4, pc}

0000a484 <V3DWrite32>:
    a484:	e590200c 	ldr	r2, [r0, #12]
    a488:	e24dd010 	sub	sp, sp, #16
    a48c:	e5903004 	ldr	r3, [r0, #4]
    a490:	e58d1004 	str	r1, [sp, #4]
    a494:	e0833002 	add	r3, r3, r2
    a498:	e58d300c 	str	r3, [sp, #12]
    a49c:	e59d300c 	ldr	r3, [sp, #12]
    a4a0:	e5dd2004 	ldrb	r2, [sp, #4]
    a4a4:	e6ef2072 	uxtb	r2, r2
    a4a8:	e5c32000 	strb	r2, [r3]
    a4ac:	e5dd2005 	ldrb	r2, [sp, #5]
    a4b0:	e6ef2072 	uxtb	r2, r2
    a4b4:	e5c32001 	strb	r2, [r3, #1]
    a4b8:	e5dd2006 	ldrb	r2, [sp, #6]
    a4bc:	e6ef2072 	uxtb	r2, r2
    a4c0:	e5c32002 	strb	r2, [r3, #2]
    a4c4:	e5dd2007 	ldrb	r2, [sp, #7]
    a4c8:	e6ef2072 	uxtb	r2, r2
    a4cc:	e5c32003 	strb	r2, [r3, #3]
    a4d0:	e590300c 	ldr	r3, [r0, #12]
    a4d4:	e2833004 	add	r3, r3, #4
    a4d8:	e580300c 	str	r3, [r0, #12]
    a4dc:	e28dd010 	add	sp, sp, #16
    a4e0:	e12fff1e 	bx	lr

0000a4e4 <V3DFloat32>:
    a4e4:	e590100c 	ldr	r1, [r0, #12]
    a4e8:	e24dd008 	sub	sp, sp, #8
    a4ec:	e5903004 	ldr	r3, [r0, #4]
    a4f0:	ed8d0a01 	vstr	s0, [sp, #4]
    a4f4:	e5dd2004 	ldrb	r2, [sp, #4]
    a4f8:	e6ef2072 	uxtb	r2, r2
    a4fc:	e7c32001 	strb	r2, [r3, r1]
    a500:	e5dd2005 	ldrb	r2, [sp, #5]
    a504:	e0833001 	add	r3, r3, r1
    a508:	e6ef2072 	uxtb	r2, r2
    a50c:	e5c32001 	strb	r2, [r3, #1]
    a510:	e5dd2006 	ldrb	r2, [sp, #6]
    a514:	e6ef2072 	uxtb	r2, r2
    a518:	e5c32002 	strb	r2, [r3, #2]
    a51c:	e5dd2007 	ldrb	r2, [sp, #7]
    a520:	e6ef2072 	uxtb	r2, r2
    a524:	e5c32003 	strb	r2, [r3, #3]
    a528:	e590300c 	ldr	r3, [r0, #12]
    a52c:	e2833004 	add	r3, r3, #4
    a530:	e580300c 	str	r3, [r0, #12]
    a534:	e28dd008 	add	sp, sp, #8
    a538:	e12fff1e 	bx	lr

0000a53c <V3DWrite16>:
    a53c:	e5903004 	ldr	r3, [r0, #4]
    a540:	e24dd008 	sub	sp, sp, #8
    a544:	e1cd10b6 	strh	r1, [sp, #6]
    a548:	e5dd2006 	ldrb	r2, [sp, #6]
    a54c:	e590100c 	ldr	r1, [r0, #12]
    a550:	e6ef2072 	uxtb	r2, r2
    a554:	e7c32001 	strb	r2, [r3, r1]
    a558:	e5dd2007 	ldrb	r2, [sp, #7]
    a55c:	e0833001 	add	r3, r3, r1
    a560:	e6ef2072 	uxtb	r2, r2
    a564:	e5c32001 	strb	r2, [r3, #1]
    a568:	e590300c 	ldr	r3, [r0, #12]
    a56c:	e2833002 	add	r3, r3, #2
    a570:	e580300c 	str	r3, [r0, #12]
    a574:	e28dd008 	add	sp, sp, #8
    a578:	e12fff1e 	bx	lr

0000a57c <V3DWrite8>:
    a57c:	e590200c 	ldr	r2, [r0, #12]
    a580:	e24dd008 	sub	sp, sp, #8
    a584:	e5cd1007 	strb	r1, [sp, #7]
    a588:	e5dd3007 	ldrb	r3, [sp, #7]
    a58c:	e5901004 	ldr	r1, [r0, #4]
    a590:	e6ef3073 	uxtb	r3, r3
    a594:	e7c13002 	strb	r3, [r1, r2]
    a598:	e590300c 	ldr	r3, [r0, #12]
    a59c:	e2833001 	add	r3, r3, #1
    a5a0:	e580300c 	str	r3, [r0, #12]
    a5a4:	e28dd008 	add	sp, sp, #8
    a5a8:	e12fff1e 	bx	lr

Disassembly of section .text.startup:

0000a5ac <main>:
    a5ac:	e92d4070 	push	{r4, r5, r6, lr}
    a5b0:	ebfffd47 	bl	9ad4 <uart_init>
    a5b4:	e30b01b4 	movw	r0, #45492	; 0xb1b4
    a5b8:	e3400001 	movt	r0, #1
    a5bc:	ebfffd6c 	bl	9b74 <uart_puts>
    a5c0:	e30b01e8 	movw	r0, #45544	; 0xb1e8
    a5c4:	e3400001 	movt	r0, #1
    a5c8:	ebfffd69 	bl	9b74 <uart_puts>
    a5cc:	e30b01b4 	movw	r0, #45492	; 0xb1b4
    a5d0:	e3400001 	movt	r0, #1
    a5d4:	ebfffd66 	bl	9b74 <uart_puts>
    a5d8:	e30b01f8 	movw	r0, #45560	; 0xb1f8
    a5dc:	e3400001 	movt	r0, #1
    a5e0:	ebfffd63 	bl	9b74 <uart_puts>
    a5e4:	e30b01b4 	movw	r0, #45492	; 0xb1b4
    a5e8:	e3400001 	movt	r0, #1
    a5ec:	ebfffd60 	bl	9b74 <uart_puts>
    a5f0:	ebfff862 	bl	8780 <mailbox_qpu_enable>
    a5f4:	e3a025ff 	mov	r2, #1069547520	; 0x3fc00000
    a5f8:	e3033356 	movw	r3, #13142	; 0x3356
    a5fc:	e3403244 	movt	r3, #580	; 0x244
    a600:	e5922000 	ldr	r2, [r2]
    a604:	e1520003 	cmp	r2, r3
    a608:	0a000045 	beq	a724 <main+0x178>
    a60c:	e30b021c 	movw	r0, #45596	; 0xb21c
    a610:	e3400001 	movt	r0, #1
    a614:	ebfffd56 	bl	9b74 <uart_puts>
    a618:	ebfff7f0 	bl	85e0 <halt_led0>
    a61c:	e30b01b4 	movw	r0, #45492	; 0xb1b4
    a620:	e3400001 	movt	r0, #1
    a624:	ebfffd52 	bl	9b74 <uart_puts>
    a628:	e3a01e1e 	mov	r1, #480	; 0x1e0
    a62c:	e3a00d0a 	mov	r0, #640	; 0x280
    a630:	ebfff929 	bl	8adc <mailbox_fb_init>
    a634:	e1a05000 	mov	r5, r0
    a638:	ebfff812 	bl	8688 <mailbox_fb_getaddr>
    a63c:	e5903020 	ldr	r3, [r0, #32]
    a640:	e1a04000 	mov	r4, r0
    a644:	e3530000 	cmp	r3, #0
    a648:	0a000033 	beq	a71c <main+0x170>
    a64c:	e30b0224 	movw	r0, #45604	; 0xb224
    a650:	e3400001 	movt	r0, #1
    a654:	ebfffd46 	bl	9b74 <uart_puts>
    a658:	e5941000 	ldr	r1, [r4]
    a65c:	e30b0238 	movw	r0, #45624	; 0xb238
    a660:	e3400001 	movt	r0, #1
    a664:	ebfffd5a 	bl	9bd4 <uart_debug_puts>
    a668:	e5941004 	ldr	r1, [r4, #4]
    a66c:	e30b0248 	movw	r0, #45640	; 0xb248
    a670:	e3400001 	movt	r0, #1
    a674:	ebfffd56 	bl	9bd4 <uart_debug_puts>
    a678:	e30b0258 	movw	r0, #45656	; 0xb258
    a67c:	e1a01005 	mov	r1, r5
    a680:	e3400001 	movt	r0, #1
    a684:	ebfffd52 	bl	9bd4 <uart_debug_puts>
    a688:	e5941020 	ldr	r1, [r4, #32]
    a68c:	e30b0268 	movw	r0, #45672	; 0xb268
    a690:	e3400001 	movt	r0, #1
    a694:	ebfffd4e 	bl	9bd4 <uart_debug_puts>
    a698:	e5942004 	ldr	r2, [r4, #4]
    a69c:	e594c020 	ldr	ip, [r4, #32]
    a6a0:	e3520001 	cmp	r2, #1
    a6a4:	9a000010 	bls	a6ec <main+0x140>
    a6a8:	e5943000 	ldr	r3, [r4]
    a6ac:	e3a00000 	mov	r0, #0
    a6b0:	e34f0fff 	movt	r0, #65535	; 0xffff
    a6b4:	e3a01001 	mov	r1, #1
    a6b8:	e3530001 	cmp	r3, #1
    a6bc:	83a02001 	movhi	r2, #1
    a6c0:	9a000006 	bls	a6e0 <main+0x134>
    a6c4:	e0232193 	mla	r3, r3, r1, r2
    a6c8:	e2822001 	add	r2, r2, #1
    a6cc:	e78c0103 	str	r0, [ip, r3, lsl #2]
    a6d0:	e5943000 	ldr	r3, [r4]
    a6d4:	e1530002 	cmp	r3, r2
    a6d8:	8afffff9 	bhi	a6c4 <main+0x118>
    a6dc:	e5942004 	ldr	r2, [r4, #4]
    a6e0:	e2811001 	add	r1, r1, #1
    a6e4:	e1520001 	cmp	r2, r1
    a6e8:	8afffff2 	bhi	a6b8 <main+0x10c>
    a6ec:	e3a00801 	mov	r0, #65536	; 0x10000
    a6f0:	ebfffe8b 	bl	a124 <usleep>
    a6f4:	e30b0278 	movw	r0, #45688	; 0xb278
    a6f8:	e3400001 	movt	r0, #1
    a6fc:	ebfffd1c 	bl	9b74 <uart_puts>
    a700:	e30b0288 	movw	r0, #45704	; 0xb288
    a704:	e3400001 	movt	r0, #1
    a708:	ebfffd19 	bl	9b74 <uart_puts>
    a70c:	e1a00004 	mov	r0, r4
    a710:	ebfffcb5 	bl	99ec <testTriangle>
    a714:	e3a00000 	mov	r0, #0
    a718:	e8bd8070 	pop	{r4, r5, r6, pc}
    a71c:	ebfff7af 	bl	85e0 <halt_led0>
    a720:	eaffffc9 	b	a64c <main+0xa0>
    a724:	e30b0204 	movw	r0, #45572	; 0xb204
    a728:	e3400001 	movt	r0, #1
    a72c:	ebfffd10 	bl	9b74 <uart_puts>
    a730:	ebfff7bf 	bl	8634 <mark_status_led>
    a734:	eaffffb8 	b	a61c <main+0x70>

Disassembly of section .rodata:

0000b000 <__rodata_start>:
	...
    d020:	ff000000 			; <UNDEFINED> instruction: 0xff000000
    d024:	ff0000ff 			; <UNDEFINED> instruction: 0xff0000ff
    d028:	000000ff 	strdeq	r0, [r0], -pc	; <UNPREDICTABLE>
	...
    d074:	ffffff00 			; <UNDEFINED> instruction: 0xffffff00
    d078:	000000ff 	strdeq	r0, [r0], -pc	; <UNPREDICTABLE>
	...
    d084:	ffffff00 			; <UNDEFINED> instruction: 0xffffff00
    d088:	000000ff 	strdeq	r0, [r0], -pc	; <UNPREDICTABLE>
	...
    d094:	ffffff00 			; <UNDEFINED> instruction: 0xffffff00
    d098:	000000ff 	strdeq	r0, [r0], -pc	; <UNPREDICTABLE>
	...
    d0fc:	00ffff00 	rscseq	pc, pc, r0, lsl #30
	...
    d120:	ff000000 			; <UNDEFINED> instruction: 0xff000000
    d124:	ff0000ff 			; <UNDEFINED> instruction: 0xff0000ff
    d128:	000000ff 	strdeq	r0, [r0], -pc	; <UNPREDICTABLE>
	...
    d174:	ffffff00 			; <UNDEFINED> instruction: 0xffffff00
    d178:	000000ff 	strdeq	r0, [r0], -pc	; <UNPREDICTABLE>
	...
    d184:	ffffff00 			; <UNDEFINED> instruction: 0xffffff00
    d188:	000000ff 	strdeq	r0, [r0], -pc	; <UNPREDICTABLE>
	...
    d194:	ffffff00 			; <UNDEFINED> instruction: 0xffffff00
    d198:	000000ff 	strdeq	r0, [r0], -pc	; <UNPREDICTABLE>
	...
    d1fc:	00ffff00 	rscseq	pc, pc, r0, lsl #30
	...
    d214:	ffffff00 			; <UNDEFINED> instruction: 0xffffff00
    d218:	000000ff 	strdeq	r0, [r0], -pc	; <UNPREDICTABLE>
    d21c:	00000000 	andeq	r0, r0, r0
    d220:	ff000000 			; <UNDEFINED> instruction: 0xff000000
    d224:	ff0000ff 			; <UNDEFINED> instruction: 0xff0000ff
    d228:	000000ff 	strdeq	r0, [r0], -pc	; <UNPREDICTABLE>
    d22c:	00000000 	andeq	r0, r0, r0
    d230:	ff000000 			; <UNDEFINED> instruction: 0xff000000
    d234:	ff0000ff 			; <UNDEFINED> instruction: 0xff0000ff
    d238:	00ffffff 	ldrshteq	pc, [pc], #255	; <UNPREDICTABLE>
	...
    d244:	ffffff00 			; <UNDEFINED> instruction: 0xffffff00
    d248:	000000ff 	strdeq	r0, [r0], -pc	; <UNPREDICTABLE>
    d24c:	00000000 	andeq	r0, r0, r0
    d250:	00ffff00 	rscseq	pc, pc, r0, lsl #30
    d254:	00000000 	andeq	r0, r0, r0
    d258:	ff000000 			; <UNDEFINED> instruction: 0xff000000
    d25c:	000000ff 	strdeq	r0, [r0], -pc	; <UNPREDICTABLE>
    d260:	ffffff00 			; <UNDEFINED> instruction: 0xffffff00
    d264:	00ffffff 	ldrshteq	pc, [pc], #255	; <UNPREDICTABLE>
	...
    d274:	ffffff00 			; <UNDEFINED> instruction: 0xffffff00
    d278:	000000ff 	strdeq	r0, [r0], -pc	; <UNPREDICTABLE>
    d27c:	00000000 	andeq	r0, r0, r0
    d280:	ff000000 			; <UNDEFINED> instruction: 0xff000000
    d284:	000000ff 	strdeq	r0, [r0], -pc	; <UNPREDICTABLE>
	...
    d298:	00ffff00 	rscseq	pc, pc, r0, lsl #30
    d29c:	00000000 	andeq	r0, r0, r0
    d2a0:	00ffff00 	rscseq	pc, pc, r0, lsl #30
    d2a4:	00000000 	andeq	r0, r0, r0
    d2a8:	ff000000 			; <UNDEFINED> instruction: 0xff000000
    d2ac:	000000ff 	strdeq	r0, [r0], -pc	; <UNPREDICTABLE>
    d2b0:	00000000 	andeq	r0, r0, r0
    d2b4:	ffffff00 			; <UNDEFINED> instruction: 0xffffff00
    d2b8:	000000ff 	strdeq	r0, [r0], -pc	; <UNPREDICTABLE>
	...
    d2f8:	ff000000 			; <UNDEFINED> instruction: 0xff000000
    d2fc:	000000ff 	strdeq	r0, [r0], -pc	; <UNPREDICTABLE>
	...
    d314:	ffffff00 			; <UNDEFINED> instruction: 0xffffff00
    d318:	000000ff 	strdeq	r0, [r0], -pc	; <UNPREDICTABLE>
    d31c:	00000000 	andeq	r0, r0, r0
    d320:	ff000000 			; <UNDEFINED> instruction: 0xff000000
    d324:	ff0000ff 			; <UNDEFINED> instruction: 0xff0000ff
    d328:	000000ff 	strdeq	r0, [r0], -pc	; <UNPREDICTABLE>
    d32c:	00000000 	andeq	r0, r0, r0
    d330:	ff000000 			; <UNDEFINED> instruction: 0xff000000
    d334:	ff0000ff 			; <UNDEFINED> instruction: 0xff0000ff
    d338:	00ffffff 	ldrshteq	pc, [pc], #255	; <UNPREDICTABLE>
	...
    d344:	ffffff00 			; <UNDEFINED> instruction: 0xffffff00
    d348:	000000ff 	strdeq	r0, [r0], -pc	; <UNPREDICTABLE>
    d34c:	00000000 	andeq	r0, r0, r0
    d350:	00ffff00 	rscseq	pc, pc, r0, lsl #30
    d354:	00000000 	andeq	r0, r0, r0
    d358:	ff000000 			; <UNDEFINED> instruction: 0xff000000
    d35c:	000000ff 	strdeq	r0, [r0], -pc	; <UNPREDICTABLE>
    d360:	ffffff00 			; <UNDEFINED> instruction: 0xffffff00
    d364:	00ffffff 	ldrshteq	pc, [pc], #255	; <UNPREDICTABLE>
	...
    d374:	ffffff00 			; <UNDEFINED> instruction: 0xffffff00
    d378:	000000ff 	strdeq	r0, [r0], -pc	; <UNPREDICTABLE>
    d37c:	00000000 	andeq	r0, r0, r0
    d380:	ff000000 			; <UNDEFINED> instruction: 0xff000000
    d384:	000000ff 	strdeq	r0, [r0], -pc	; <UNPREDICTABLE>
	...
    d398:	00ffff00 	rscseq	pc, pc, r0, lsl #30
    d39c:	00000000 	andeq	r0, r0, r0
    d3a0:	00ffff00 	rscseq	pc, pc, r0, lsl #30
    d3a4:	00000000 	andeq	r0, r0, r0
    d3a8:	ff000000 			; <UNDEFINED> instruction: 0xff000000
    d3ac:	000000ff 	strdeq	r0, [r0], -pc	; <UNPREDICTABLE>
    d3b0:	00000000 	andeq	r0, r0, r0
    d3b4:	ffffff00 			; <UNDEFINED> instruction: 0xffffff00
    d3b8:	000000ff 	strdeq	r0, [r0], -pc	; <UNPREDICTABLE>
	...
    d3f8:	ff000000 			; <UNDEFINED> instruction: 0xff000000
    d3fc:	000000ff 	strdeq	r0, [r0], -pc	; <UNPREDICTABLE>
	...
    d414:	ffffff00 			; <UNDEFINED> instruction: 0xffffff00
    d418:	000000ff 	strdeq	r0, [r0], -pc	; <UNPREDICTABLE>
	...
    d42c:	ff000000 			; <UNDEFINED> instruction: 0xff000000
    d430:	ffffffff 			; <UNDEFINED> instruction: 0xffffffff
    d434:	ffffffff 			; <UNDEFINED> instruction: 0xffffffff
    d438:	ffffffff 			; <UNDEFINED> instruction: 0xffffffff
    d43c:	00ffffff 	ldrshteq	pc, [pc], #255	; <UNPREDICTABLE>
    d440:	ffffff00 			; <UNDEFINED> instruction: 0xffffff00
    d444:	ffffffff 			; <UNDEFINED> instruction: 0xffffffff
    d448:	ffffffff 			; <UNDEFINED> instruction: 0xffffffff
    d44c:	ff0000ff 			; <UNDEFINED> instruction: 0xff0000ff
    d450:	ff0000ff 			; <UNDEFINED> instruction: 0xff0000ff
    d454:	000000ff 	strdeq	r0, [r0], -pc	; <UNPREDICTABLE>
    d458:	00ffff00 	rscseq	pc, pc, r0, lsl #30
    d45c:	00000000 	andeq	r0, r0, r0
    d460:	00ffff00 	rscseq	pc, pc, r0, lsl #30
    d464:	ff000000 			; <UNDEFINED> instruction: 0xff000000
    d468:	000000ff 	strdeq	r0, [r0], -pc	; <UNPREDICTABLE>
	...
    d474:	ff000000 			; <UNDEFINED> instruction: 0xff000000
    d478:	000000ff 	strdeq	r0, [r0], -pc	; <UNPREDICTABLE>
    d47c:	00000000 	andeq	r0, r0, r0
    d480:	00ffff00 	rscseq	pc, pc, r0, lsl #30
	...
    d498:	ff000000 			; <UNDEFINED> instruction: 0xff000000
    d49c:	000000ff 	strdeq	r0, [r0], -pc	; <UNPREDICTABLE>
    d4a0:	ff000000 			; <UNDEFINED> instruction: 0xff000000
    d4a4:	000000ff 	strdeq	r0, [r0], -pc	; <UNPREDICTABLE>
    d4a8:	00ffff00 	rscseq	pc, pc, r0, lsl #30
	...
    d4b4:	ffffff00 			; <UNDEFINED> instruction: 0xffffff00
    d4b8:	000000ff 	strdeq	r0, [r0], -pc	; <UNPREDICTABLE>
	...
    d4f8:	00ffff00 	rscseq	pc, pc, r0, lsl #30
	...
    d514:	ffffff00 			; <UNDEFINED> instruction: 0xffffff00
    d518:	000000ff 	strdeq	r0, [r0], -pc	; <UNPREDICTABLE>
	...
    d52c:	ff000000 			; <UNDEFINED> instruction: 0xff000000
    d530:	ffffffff 			; <UNDEFINED> instruction: 0xffffffff
    d534:	ffffffff 			; <UNDEFINED> instruction: 0xffffffff
    d538:	ffffffff 			; <UNDEFINED> instruction: 0xffffffff
    d53c:	00ffffff 	ldrshteq	pc, [pc], #255	; <UNPREDICTABLE>
    d540:	ffffff00 			; <UNDEFINED> instruction: 0xffffff00
    d544:	ffffffff 			; <UNDEFINED> instruction: 0xffffffff
    d548:	ffffffff 			; <UNDEFINED> instruction: 0xffffffff
    d54c:	ff0000ff 			; <UNDEFINED> instruction: 0xff0000ff
    d550:	ff0000ff 			; <UNDEFINED> instruction: 0xff0000ff
    d554:	000000ff 	strdeq	r0, [r0], -pc	; <UNPREDICTABLE>
    d558:	00ffff00 	rscseq	pc, pc, r0, lsl #30
    d55c:	00000000 	andeq	r0, r0, r0
    d560:	00ffff00 	rscseq	pc, pc, r0, lsl #30
    d564:	ff000000 			; <UNDEFINED> instruction: 0xff000000
    d568:	000000ff 	strdeq	r0, [r0], -pc	; <UNPREDICTABLE>
	...
    d574:	ff000000 			; <UNDEFINED> instruction: 0xff000000
    d578:	000000ff 	strdeq	r0, [r0], -pc	; <UNPREDICTABLE>
    d57c:	00000000 	andeq	r0, r0, r0
    d580:	00ffff00 	rscseq	pc, pc, r0, lsl #30
	...
    d598:	ff000000 			; <UNDEFINED> instruction: 0xff000000
    d59c:	000000ff 	strdeq	r0, [r0], -pc	; <UNPREDICTABLE>
    d5a0:	ff000000 			; <UNDEFINED> instruction: 0xff000000
    d5a4:	000000ff 	strdeq	r0, [r0], -pc	; <UNPREDICTABLE>
    d5a8:	00ffff00 	rscseq	pc, pc, r0, lsl #30
	...
    d5b4:	ffffff00 			; <UNDEFINED> instruction: 0xffffff00
    d5b8:	000000ff 	strdeq	r0, [r0], -pc	; <UNPREDICTABLE>
	...
    d5f8:	00ffff00 	rscseq	pc, pc, r0, lsl #30
	...
    d614:	ffffff00 			; <UNDEFINED> instruction: 0xffffff00
    d618:	000000ff 	strdeq	r0, [r0], -pc	; <UNPREDICTABLE>
	...
    d630:	ff000000 			; <UNDEFINED> instruction: 0xff000000
    d634:	ff0000ff 			; <UNDEFINED> instruction: 0xff0000ff
    d638:	00ffffff 	ldrshteq	pc, [pc], #255	; <UNPREDICTABLE>
    d63c:	00000000 	andeq	r0, r0, r0
    d640:	00ffff00 	rscseq	pc, pc, r0, lsl #30
    d644:	ffffff00 			; <UNDEFINED> instruction: 0xffffff00
    d648:	000000ff 	strdeq	r0, [r0], -pc	; <UNPREDICTABLE>
    d64c:	00000000 	andeq	r0, r0, r0
    d650:	00ffff00 	rscseq	pc, pc, r0, lsl #30
    d654:	ff000000 			; <UNDEFINED> instruction: 0xff000000
    d658:	000000ff 	strdeq	r0, [r0], -pc	; <UNPREDICTABLE>
    d65c:	00000000 	andeq	r0, r0, r0
    d660:	ffffff00 			; <UNDEFINED> instruction: 0xffffff00
    d664:	ffffffff 			; <UNDEFINED> instruction: 0xffffffff
    d668:	000000ff 	strdeq	r0, [r0], -pc	; <UNPREDICTABLE>
	...
    d680:	00ffff00 	rscseq	pc, pc, r0, lsl #30
	...
    d698:	ff000000 			; <UNDEFINED> instruction: 0xff000000
    d69c:	000000ff 	strdeq	r0, [r0], -pc	; <UNPREDICTABLE>
    d6a0:	ffffff00 			; <UNDEFINED> instruction: 0xffffff00
    d6a4:	ffffffff 			; <UNDEFINED> instruction: 0xffffffff
    d6a8:	ffffffff 			; <UNDEFINED> instruction: 0xffffffff
    d6ac:	000000ff 	strdeq	r0, [r0], -pc	; <UNPREDICTABLE>
    d6b0:	ffffff00 			; <UNDEFINED> instruction: 0xffffff00
    d6b4:	ffffffff 			; <UNDEFINED> instruction: 0xffffffff
    d6b8:	ffffffff 			; <UNDEFINED> instruction: 0xffffffff
    d6bc:	000000ff 	strdeq	r0, [r0], -pc	; <UNPREDICTABLE>
	...
    d6f4:	ff000000 			; <UNDEFINED> instruction: 0xff000000
    d6f8:	000000ff 	strdeq	r0, [r0], -pc	; <UNPREDICTABLE>
	...
    d714:	ffffff00 			; <UNDEFINED> instruction: 0xffffff00
    d718:	000000ff 	strdeq	r0, [r0], -pc	; <UNPREDICTABLE>
	...
    d730:	ff000000 			; <UNDEFINED> instruction: 0xff000000
    d734:	ff0000ff 			; <UNDEFINED> instruction: 0xff0000ff
    d738:	00ffffff 	ldrshteq	pc, [pc], #255	; <UNPREDICTABLE>
    d73c:	00000000 	andeq	r0, r0, r0
    d740:	00ffff00 	rscseq	pc, pc, r0, lsl #30
    d744:	ffffff00 			; <UNDEFINED> instruction: 0xffffff00
    d748:	000000ff 	strdeq	r0, [r0], -pc	; <UNPREDICTABLE>
    d74c:	00000000 	andeq	r0, r0, r0
    d750:	00ffff00 	rscseq	pc, pc, r0, lsl #30
    d754:	ff000000 			; <UNDEFINED> instruction: 0xff000000
    d758:	000000ff 	strdeq	r0, [r0], -pc	; <UNPREDICTABLE>
    d75c:	00000000 	andeq	r0, r0, r0
    d760:	ffffff00 			; <UNDEFINED> instruction: 0xffffff00
    d764:	ffffffff 			; <UNDEFINED> instruction: 0xffffffff
    d768:	000000ff 	strdeq	r0, [r0], -pc	; <UNPREDICTABLE>
	...
    d780:	00ffff00 	rscseq	pc, pc, r0, lsl #30
	...
    d798:	ff000000 			; <UNDEFINED> instruction: 0xff000000
    d79c:	000000ff 	strdeq	r0, [r0], -pc	; <UNPREDICTABLE>
    d7a0:	ffffff00 			; <UNDEFINED> instruction: 0xffffff00
    d7a4:	ffffffff 			; <UNDEFINED> instruction: 0xffffffff
    d7a8:	ffffffff 			; <UNDEFINED> instruction: 0xffffffff
    d7ac:	000000ff 	strdeq	r0, [r0], -pc	; <UNPREDICTABLE>
    d7b0:	ffffff00 			; <UNDEFINED> instruction: 0xffffff00
    d7b4:	ffffffff 			; <UNDEFINED> instruction: 0xffffffff
    d7b8:	ffffffff 			; <UNDEFINED> instruction: 0xffffffff
    d7bc:	000000ff 	strdeq	r0, [r0], -pc	; <UNPREDICTABLE>
	...
    d7f4:	ff000000 			; <UNDEFINED> instruction: 0xff000000
    d7f8:	000000ff 	strdeq	r0, [r0], -pc	; <UNPREDICTABLE>
	...
    d814:	ffffff00 			; <UNDEFINED> instruction: 0xffffff00
    d818:	000000ff 	strdeq	r0, [r0], -pc	; <UNPREDICTABLE>
	...
    d830:	ff000000 			; <UNDEFINED> instruction: 0xff000000
    d834:	ff0000ff 			; <UNDEFINED> instruction: 0xff0000ff
    d838:	00ffffff 	ldrshteq	pc, [pc], #255	; <UNPREDICTABLE>
    d83c:	00000000 	andeq	r0, r0, r0
    d840:	ffffff00 			; <UNDEFINED> instruction: 0xffffff00
    d844:	ffffffff 			; <UNDEFINED> instruction: 0xffffffff
    d848:	ffffffff 			; <UNDEFINED> instruction: 0xffffffff
    d84c:	000000ff 	strdeq	r0, [r0], -pc	; <UNPREDICTABLE>
    d850:	00000000 	andeq	r0, r0, r0
    d854:	00ffff00 	rscseq	pc, pc, r0, lsl #30
    d858:	ff000000 			; <UNDEFINED> instruction: 0xff000000
    d85c:	000000ff 	strdeq	r0, [r0], -pc	; <UNPREDICTABLE>
    d860:	00000000 	andeq	r0, r0, r0
    d864:	ff000000 			; <UNDEFINED> instruction: 0xff000000
    d868:	ff0000ff 			; <UNDEFINED> instruction: 0xff0000ff
    d86c:	000000ff 	strdeq	r0, [r0], -pc	; <UNPREDICTABLE>
	...
    d880:	00ffff00 	rscseq	pc, pc, r0, lsl #30
	...
    d898:	ff000000 			; <UNDEFINED> instruction: 0xff000000
    d89c:	000000ff 	strdeq	r0, [r0], -pc	; <UNPREDICTABLE>
    d8a0:	ffffff00 			; <UNDEFINED> instruction: 0xffffff00
    d8a4:	ffffffff 			; <UNDEFINED> instruction: 0xffffffff
    d8a8:	ffffffff 			; <UNDEFINED> instruction: 0xffffffff
    d8ac:	000000ff 	strdeq	r0, [r0], -pc	; <UNPREDICTABLE>
    d8b0:	ffffff00 			; <UNDEFINED> instruction: 0xffffff00
    d8b4:	ffffffff 			; <UNDEFINED> instruction: 0xffffffff
    d8b8:	ffffffff 			; <UNDEFINED> instruction: 0xffffffff
    d8bc:	000000ff 	strdeq	r0, [r0], -pc	; <UNPREDICTABLE>
	...
    d8d0:	ffffff00 			; <UNDEFINED> instruction: 0xffffff00
    d8d4:	ffffffff 			; <UNDEFINED> instruction: 0xffffffff
    d8d8:	ffffffff 			; <UNDEFINED> instruction: 0xffffffff
    d8dc:	000000ff 	strdeq	r0, [r0], -pc	; <UNPREDICTABLE>
	...
    d8f4:	00ffff00 	rscseq	pc, pc, r0, lsl #30
	...
    d914:	ffffff00 			; <UNDEFINED> instruction: 0xffffff00
    d918:	000000ff 	strdeq	r0, [r0], -pc	; <UNPREDICTABLE>
	...
    d930:	ff000000 			; <UNDEFINED> instruction: 0xff000000
    d934:	ff0000ff 			; <UNDEFINED> instruction: 0xff0000ff
    d938:	00ffffff 	ldrshteq	pc, [pc], #255	; <UNPREDICTABLE>
    d93c:	00000000 	andeq	r0, r0, r0
    d940:	ffffff00 			; <UNDEFINED> instruction: 0xffffff00
    d944:	ffffffff 			; <UNDEFINED> instruction: 0xffffffff
    d948:	ffffffff 			; <UNDEFINED> instruction: 0xffffffff
    d94c:	000000ff 	strdeq	r0, [r0], -pc	; <UNPREDICTABLE>
    d950:	00000000 	andeq	r0, r0, r0
    d954:	00ffff00 	rscseq	pc, pc, r0, lsl #30
    d958:	ff000000 			; <UNDEFINED> instruction: 0xff000000
    d95c:	000000ff 	strdeq	r0, [r0], -pc	; <UNPREDICTABLE>
    d960:	00000000 	andeq	r0, r0, r0
    d964:	ff000000 			; <UNDEFINED> instruction: 0xff000000
    d968:	ff0000ff 			; <UNDEFINED> instruction: 0xff0000ff
    d96c:	000000ff 	strdeq	r0, [r0], -pc	; <UNPREDICTABLE>
	...
    d980:	00ffff00 	rscseq	pc, pc, r0, lsl #30
	...
    d998:	ff000000 			; <UNDEFINED> instruction: 0xff000000
    d99c:	000000ff 	strdeq	r0, [r0], -pc	; <UNPREDICTABLE>
    d9a0:	ffffff00 			; <UNDEFINED> instruction: 0xffffff00
    d9a4:	ffffffff 			; <UNDEFINED> instruction: 0xffffffff
    d9a8:	ffffffff 			; <UNDEFINED> instruction: 0xffffffff
    d9ac:	000000ff 	strdeq	r0, [r0], -pc	; <UNPREDICTABLE>
    d9b0:	ffffff00 			; <UNDEFINED> instruction: 0xffffff00
    d9b4:	ffffffff 			; <UNDEFINED> instruction: 0xffffffff
    d9b8:	ffffffff 			; <UNDEFINED> instruction: 0xffffffff
    d9bc:	000000ff 	strdeq	r0, [r0], -pc	; <UNPREDICTABLE>
	...
    d9d0:	ffffff00 			; <UNDEFINED> instruction: 0xffffff00
    d9d4:	ffffffff 			; <UNDEFINED> instruction: 0xffffffff
    d9d8:	ffffffff 			; <UNDEFINED> instruction: 0xffffffff
    d9dc:	000000ff 	strdeq	r0, [r0], -pc	; <UNPREDICTABLE>
	...
    d9f4:	00ffff00 	rscseq	pc, pc, r0, lsl #30
	...
    da2c:	ff000000 			; <UNDEFINED> instruction: 0xff000000
    da30:	ffffffff 			; <UNDEFINED> instruction: 0xffffffff
    da34:	ffffffff 			; <UNDEFINED> instruction: 0xffffffff
    da38:	ffffffff 			; <UNDEFINED> instruction: 0xffffffff
    da3c:	00ffffff 	ldrshteq	pc, [pc], #255	; <UNPREDICTABLE>
    da40:	00000000 	andeq	r0, r0, r0
    da44:	ffffff00 			; <UNDEFINED> instruction: 0xffffff00
    da48:	ff0000ff 			; <UNDEFINED> instruction: 0xff0000ff
    da4c:	000000ff 	strdeq	r0, [r0], -pc	; <UNPREDICTABLE>
    da50:	ff000000 			; <UNDEFINED> instruction: 0xff000000
    da54:	000000ff 	strdeq	r0, [r0], -pc	; <UNPREDICTABLE>
    da58:	00ffff00 	rscseq	pc, pc, r0, lsl #30
    da5c:	00ffff00 	rscseq	pc, pc, r0, lsl #30
    da60:	ff000000 			; <UNDEFINED> instruction: 0xff000000
    da64:	00ffffff 	ldrshteq	pc, [pc], #255	; <UNPREDICTABLE>
    da68:	ffffff00 			; <UNDEFINED> instruction: 0xffffff00
    da6c:	00ffffff 	ldrshteq	pc, [pc], #255	; <UNPREDICTABLE>
	...
    da80:	00ffff00 	rscseq	pc, pc, r0, lsl #30
	...
    da98:	ff000000 			; <UNDEFINED> instruction: 0xff000000
    da9c:	000000ff 	strdeq	r0, [r0], -pc	; <UNPREDICTABLE>
    daa0:	ff000000 			; <UNDEFINED> instruction: 0xff000000
    daa4:	000000ff 	strdeq	r0, [r0], -pc	; <UNPREDICTABLE>
    daa8:	00ffff00 	rscseq	pc, pc, r0, lsl #30
	...
    dab4:	ffffff00 			; <UNDEFINED> instruction: 0xffffff00
    dab8:	000000ff 	strdeq	r0, [r0], -pc	; <UNPREDICTABLE>
	...
    dac4:	ffffff00 			; <UNDEFINED> instruction: 0xffffff00
    dac8:	000000ff 	strdeq	r0, [r0], -pc	; <UNPREDICTABLE>
	...
    daf0:	ff000000 			; <UNDEFINED> instruction: 0xff000000
    daf4:	000000ff 	strdeq	r0, [r0], -pc	; <UNPREDICTABLE>
	...
    db2c:	ff000000 			; <UNDEFINED> instruction: 0xff000000
    db30:	ffffffff 			; <UNDEFINED> instruction: 0xffffffff
    db34:	ffffffff 			; <UNDEFINED> instruction: 0xffffffff
    db38:	ffffffff 			; <UNDEFINED> instruction: 0xffffffff
    db3c:	00ffffff 	ldrshteq	pc, [pc], #255	; <UNPREDICTABLE>
    db40:	00000000 	andeq	r0, r0, r0
    db44:	ffffff00 			; <UNDEFINED> instruction: 0xffffff00
    db48:	ff0000ff 			; <UNDEFINED> instruction: 0xff0000ff
    db4c:	000000ff 	strdeq	r0, [r0], -pc	; <UNPREDICTABLE>
    db50:	ff000000 			; <UNDEFINED> instruction: 0xff000000
    db54:	000000ff 	strdeq	r0, [r0], -pc	; <UNPREDICTABLE>
    db58:	00ffff00 	rscseq	pc, pc, r0, lsl #30
    db5c:	00ffff00 	rscseq	pc, pc, r0, lsl #30
    db60:	ff000000 			; <UNDEFINED> instruction: 0xff000000
    db64:	00ffffff 	ldrshteq	pc, [pc], #255	; <UNPREDICTABLE>
    db68:	ffffff00 			; <UNDEFINED> instruction: 0xffffff00
    db6c:	00ffffff 	ldrshteq	pc, [pc], #255	; <UNPREDICTABLE>
	...
    db80:	00ffff00 	rscseq	pc, pc, r0, lsl #30
	...
    db98:	ff000000 			; <UNDEFINED> instruction: 0xff000000
    db9c:	000000ff 	strdeq	r0, [r0], -pc	; <UNPREDICTABLE>
    dba0:	ff000000 			; <UNDEFINED> instruction: 0xff000000
    dba4:	000000ff 	strdeq	r0, [r0], -pc	; <UNPREDICTABLE>
    dba8:	00ffff00 	rscseq	pc, pc, r0, lsl #30
	...
    dbb4:	ffffff00 			; <UNDEFINED> instruction: 0xffffff00
    dbb8:	000000ff 	strdeq	r0, [r0], -pc	; <UNPREDICTABLE>
	...
    dbc4:	ffffff00 			; <UNDEFINED> instruction: 0xffffff00
    dbc8:	000000ff 	strdeq	r0, [r0], -pc	; <UNPREDICTABLE>
	...
    dbf0:	ff000000 			; <UNDEFINED> instruction: 0xff000000
    dbf4:	000000ff 	strdeq	r0, [r0], -pc	; <UNPREDICTABLE>
	...
    dc14:	ffffff00 			; <UNDEFINED> instruction: 0xffffff00
    dc18:	000000ff 	strdeq	r0, [r0], -pc	; <UNPREDICTABLE>
	...
    dc30:	ff000000 			; <UNDEFINED> instruction: 0xff000000
    dc34:	ff0000ff 			; <UNDEFINED> instruction: 0xff0000ff
    dc38:	00ffffff 	ldrshteq	pc, [pc], #255	; <UNPREDICTABLE>
    dc3c:	00000000 	andeq	r0, r0, r0
    dc40:	ffffff00 			; <UNDEFINED> instruction: 0xffffff00
    dc44:	ffffffff 			; <UNDEFINED> instruction: 0xffffffff
    dc48:	ffffffff 			; <UNDEFINED> instruction: 0xffffffff
    dc4c:	000000ff 	strdeq	r0, [r0], -pc	; <UNPREDICTABLE>
    dc50:	00ffff00 	rscseq	pc, pc, r0, lsl #30
    dc54:	00000000 	andeq	r0, r0, r0
    dc58:	ff000000 			; <UNDEFINED> instruction: 0xff000000
    dc5c:	000000ff 	strdeq	r0, [r0], -pc	; <UNPREDICTABLE>
    dc60:	00ffff00 	rscseq	pc, pc, r0, lsl #30
    dc64:	00000000 	andeq	r0, r0, r0
    dc68:	ff000000 			; <UNDEFINED> instruction: 0xff000000
    dc6c:	000000ff 	strdeq	r0, [r0], -pc	; <UNPREDICTABLE>
	...
    dc80:	ff000000 			; <UNDEFINED> instruction: 0xff000000
    dc84:	000000ff 	strdeq	r0, [r0], -pc	; <UNPREDICTABLE>
	...
    dc98:	00ffff00 	rscseq	pc, pc, r0, lsl #30
    dc9c:	00000000 	andeq	r0, r0, r0
    dca0:	00ffff00 	rscseq	pc, pc, r0, lsl #30
    dca4:	00000000 	andeq	r0, r0, r0
    dca8:	ff000000 			; <UNDEFINED> instruction: 0xff000000
    dcac:	000000ff 	strdeq	r0, [r0], -pc	; <UNPREDICTABLE>
    dcb0:	00000000 	andeq	r0, r0, r0
    dcb4:	ffffff00 			; <UNDEFINED> instruction: 0xffffff00
    dcb8:	000000ff 	strdeq	r0, [r0], -pc	; <UNPREDICTABLE>
	...
    dcc4:	ffffff00 			; <UNDEFINED> instruction: 0xffffff00
    dcc8:	000000ff 	strdeq	r0, [r0], -pc	; <UNPREDICTABLE>
	...
    dce4:	ffffff00 			; <UNDEFINED> instruction: 0xffffff00
    dce8:	000000ff 	strdeq	r0, [r0], -pc	; <UNPREDICTABLE>
    dcec:	00000000 	andeq	r0, r0, r0
    dcf0:	00ffff00 	rscseq	pc, pc, r0, lsl #30
	...
    dd14:	ffffff00 			; <UNDEFINED> instruction: 0xffffff00
    dd18:	000000ff 	strdeq	r0, [r0], -pc	; <UNPREDICTABLE>
	...
    dd30:	ff000000 			; <UNDEFINED> instruction: 0xff000000
    dd34:	ff0000ff 			; <UNDEFINED> instruction: 0xff0000ff
    dd38:	00ffffff 	ldrshteq	pc, [pc], #255	; <UNPREDICTABLE>
    dd3c:	00000000 	andeq	r0, r0, r0
    dd40:	ffffff00 			; <UNDEFINED> instruction: 0xffffff00
    dd44:	ffffffff 			; <UNDEFINED> instruction: 0xffffffff
    dd48:	ffffffff 			; <UNDEFINED> instruction: 0xffffffff
    dd4c:	000000ff 	strdeq	r0, [r0], -pc	; <UNPREDICTABLE>
    dd50:	00ffff00 	rscseq	pc, pc, r0, lsl #30
    dd54:	00000000 	andeq	r0, r0, r0
    dd58:	ff000000 			; <UNDEFINED> instruction: 0xff000000
    dd5c:	000000ff 	strdeq	r0, [r0], -pc	; <UNPREDICTABLE>
    dd60:	00ffff00 	rscseq	pc, pc, r0, lsl #30
    dd64:	00000000 	andeq	r0, r0, r0
    dd68:	ff000000 			; <UNDEFINED> instruction: 0xff000000
    dd6c:	000000ff 	strdeq	r0, [r0], -pc	; <UNPREDICTABLE>
	...
    dd80:	ff000000 			; <UNDEFINED> instruction: 0xff000000
    dd84:	000000ff 	strdeq	r0, [r0], -pc	; <UNPREDICTABLE>
	...
    dd98:	00ffff00 	rscseq	pc, pc, r0, lsl #30
    dd9c:	00000000 	andeq	r0, r0, r0
    dda0:	00ffff00 	rscseq	pc, pc, r0, lsl #30
    dda4:	00000000 	andeq	r0, r0, r0
    dda8:	ff000000 			; <UNDEFINED> instruction: 0xff000000
    ddac:	000000ff 	strdeq	r0, [r0], -pc	; <UNPREDICTABLE>
    ddb0:	00000000 	andeq	r0, r0, r0
    ddb4:	ffffff00 			; <UNDEFINED> instruction: 0xffffff00
    ddb8:	000000ff 	strdeq	r0, [r0], -pc	; <UNPREDICTABLE>
	...
    ddc4:	ffffff00 			; <UNDEFINED> instruction: 0xffffff00
    ddc8:	000000ff 	strdeq	r0, [r0], -pc	; <UNPREDICTABLE>
	...
    dde4:	ffffff00 			; <UNDEFINED> instruction: 0xffffff00
    dde8:	000000ff 	strdeq	r0, [r0], -pc	; <UNPREDICTABLE>
    ddec:	00000000 	andeq	r0, r0, r0
    ddf0:	00ffff00 	rscseq	pc, pc, r0, lsl #30
	...
    de14:	ffffff00 			; <UNDEFINED> instruction: 0xffffff00
    de18:	000000ff 	strdeq	r0, [r0], -pc	; <UNPREDICTABLE>
	...
    de44:	ffffff00 			; <UNDEFINED> instruction: 0xffffff00
    de48:	000000ff 	strdeq	r0, [r0], -pc	; <UNPREDICTABLE>
	...
    de60:	ff000000 			; <UNDEFINED> instruction: 0xff000000
    de64:	ffffffff 			; <UNDEFINED> instruction: 0xffffffff
    de68:	00ffffff 	ldrshteq	pc, [pc], #255	; <UNPREDICTABLE>
	...
    de84:	ffffff00 			; <UNDEFINED> instruction: 0xffffff00
    de88:	000000ff 	strdeq	r0, [r0], -pc	; <UNPREDICTABLE>
	...
    de94:	ffffff00 			; <UNDEFINED> instruction: 0xffffff00
    de98:	000000ff 	strdeq	r0, [r0], -pc	; <UNPREDICTABLE>
	...
    dec4:	ff000000 			; <UNDEFINED> instruction: 0xff000000
    dec8:	000000ff 	strdeq	r0, [r0], -pc	; <UNPREDICTABLE>
	...
    dee4:	ffffff00 			; <UNDEFINED> instruction: 0xffffff00
    dee8:	000000ff 	strdeq	r0, [r0], -pc	; <UNPREDICTABLE>
    deec:	ff000000 			; <UNDEFINED> instruction: 0xff000000
    def0:	000000ff 	strdeq	r0, [r0], -pc	; <UNPREDICTABLE>
	...
    df14:	ffffff00 			; <UNDEFINED> instruction: 0xffffff00
    df18:	000000ff 	strdeq	r0, [r0], -pc	; <UNPREDICTABLE>
	...
    df44:	ffffff00 			; <UNDEFINED> instruction: 0xffffff00
    df48:	000000ff 	strdeq	r0, [r0], -pc	; <UNPREDICTABLE>
	...
    df60:	ff000000 			; <UNDEFINED> instruction: 0xff000000
    df64:	ffffffff 			; <UNDEFINED> instruction: 0xffffffff
    df68:	00ffffff 	ldrshteq	pc, [pc], #255	; <UNPREDICTABLE>
	...
    df84:	ffffff00 			; <UNDEFINED> instruction: 0xffffff00
    df88:	000000ff 	strdeq	r0, [r0], -pc	; <UNPREDICTABLE>
	...
    df94:	ffffff00 			; <UNDEFINED> instruction: 0xffffff00
    df98:	000000ff 	strdeq	r0, [r0], -pc	; <UNPREDICTABLE>
	...
    dfc4:	ff000000 			; <UNDEFINED> instruction: 0xff000000
    dfc8:	000000ff 	strdeq	r0, [r0], -pc	; <UNPREDICTABLE>
	...
    dfe4:	ffffff00 			; <UNDEFINED> instruction: 0xffffff00
    dfe8:	000000ff 	strdeq	r0, [r0], -pc	; <UNPREDICTABLE>
    dfec:	ff000000 			; <UNDEFINED> instruction: 0xff000000
    dff0:	000000ff 	strdeq	r0, [r0], -pc	; <UNPREDICTABLE>
	...
    e0c4:	ff000000 			; <UNDEFINED> instruction: 0xff000000
    e0c8:	000000ff 	strdeq	r0, [r0], -pc	; <UNPREDICTABLE>
	...
    e0e4:	00ffff00 	rscseq	pc, pc, r0, lsl #30
	...
    e1c4:	ff000000 			; <UNDEFINED> instruction: 0xff000000
    e1c8:	000000ff 	strdeq	r0, [r0], -pc	; <UNPREDICTABLE>
	...
    e1e4:	00ffff00 	rscseq	pc, pc, r0, lsl #30
	...
    e2c4:	00ffff00 	rscseq	pc, pc, r0, lsl #30
	...
    e2e4:	ff000000 			; <UNDEFINED> instruction: 0xff000000
    e2e8:	000000ff 	strdeq	r0, [r0], -pc	; <UNPREDICTABLE>
    e2ec:	00000000 	andeq	r0, r0, r0
    e2f0:	ff000000 			; <UNDEFINED> instruction: 0xff000000
    e2f4:	ffffffff 			; <UNDEFINED> instruction: 0xffffffff
    e2f8:	00ffffff 	ldrshteq	pc, [pc], #255	; <UNPREDICTABLE>
	...
    e3c4:	00ffff00 	rscseq	pc, pc, r0, lsl #30
	...
    e3e4:	ff000000 			; <UNDEFINED> instruction: 0xff000000
    e3e8:	000000ff 	strdeq	r0, [r0], -pc	; <UNPREDICTABLE>
    e3ec:	00000000 	andeq	r0, r0, r0
    e3f0:	ff000000 			; <UNDEFINED> instruction: 0xff000000
    e3f4:	ffffffff 			; <UNDEFINED> instruction: 0xffffffff
    e3f8:	00ffffff 	ldrshteq	pc, [pc], #255	; <UNPREDICTABLE>
	...
    e404:	ffffff00 			; <UNDEFINED> instruction: 0xffffff00
    e408:	00ffffff 	ldrshteq	pc, [pc], #255	; <UNPREDICTABLE>
	...
    e418:	ff000000 			; <UNDEFINED> instruction: 0xff000000
    e41c:	000000ff 	strdeq	r0, [r0], -pc	; <UNPREDICTABLE>
    e420:	ff000000 			; <UNDEFINED> instruction: 0xff000000
    e424:	ffffffff 			; <UNDEFINED> instruction: 0xffffffff
    e428:	ffffffff 			; <UNDEFINED> instruction: 0xffffffff
    e42c:	000000ff 	strdeq	r0, [r0], -pc	; <UNPREDICTABLE>
    e430:	00000000 	andeq	r0, r0, r0
    e434:	ffffff00 			; <UNDEFINED> instruction: 0xffffff00
    e438:	ffffffff 			; <UNDEFINED> instruction: 0xffffffff
    e43c:	000000ff 	strdeq	r0, [r0], -pc	; <UNPREDICTABLE>
    e440:	00000000 	andeq	r0, r0, r0
    e444:	00ffff00 	rscseq	pc, pc, r0, lsl #30
    e448:	ff000000 			; <UNDEFINED> instruction: 0xff000000
    e44c:	000000ff 	strdeq	r0, [r0], -pc	; <UNPREDICTABLE>
    e450:	00000000 	andeq	r0, r0, r0
    e454:	ffffff00 			; <UNDEFINED> instruction: 0xffffff00
    e458:	ffffffff 			; <UNDEFINED> instruction: 0xffffffff
    e45c:	000000ff 	strdeq	r0, [r0], -pc	; <UNPREDICTABLE>
    e460:	00000000 	andeq	r0, r0, r0
    e464:	ffffff00 			; <UNDEFINED> instruction: 0xffffff00
    e468:	ffffffff 			; <UNDEFINED> instruction: 0xffffffff
    e46c:	000000ff 	strdeq	r0, [r0], -pc	; <UNPREDICTABLE>
    e470:	00000000 	andeq	r0, r0, r0
    e474:	ffffff00 			; <UNDEFINED> instruction: 0xffffff00
    e478:	ffffffff 			; <UNDEFINED> instruction: 0xffffffff
    e47c:	000000ff 	strdeq	r0, [r0], -pc	; <UNPREDICTABLE>
    e480:	00000000 	andeq	r0, r0, r0
    e484:	ffffff00 			; <UNDEFINED> instruction: 0xffffff00
    e488:	ffffffff 			; <UNDEFINED> instruction: 0xffffffff
    e48c:	000000ff 	strdeq	r0, [r0], -pc	; <UNPREDICTABLE>
    e490:	00000000 	andeq	r0, r0, r0
    e494:	ffffff00 			; <UNDEFINED> instruction: 0xffffff00
    e498:	ffffffff 			; <UNDEFINED> instruction: 0xffffffff
    e49c:	000000ff 	strdeq	r0, [r0], -pc	; <UNPREDICTABLE>
    e4a0:	00000000 	andeq	r0, r0, r0
    e4a4:	ffffff00 			; <UNDEFINED> instruction: 0xffffff00
    e4a8:	000000ff 	strdeq	r0, [r0], -pc	; <UNPREDICTABLE>
	...
    e4b4:	ffffff00 			; <UNDEFINED> instruction: 0xffffff00
    e4b8:	000000ff 	strdeq	r0, [r0], -pc	; <UNPREDICTABLE>
    e4bc:	00000000 	andeq	r0, r0, r0
    e4c0:	ff000000 			; <UNDEFINED> instruction: 0xff000000
    e4c4:	000000ff 	strdeq	r0, [r0], -pc	; <UNPREDICTABLE>
	...
    e4d0:	ff000000 			; <UNDEFINED> instruction: 0xff000000
    e4d4:	ffffffff 			; <UNDEFINED> instruction: 0xffffffff
    e4d8:	00ffffff 	ldrshteq	pc, [pc], #255	; <UNPREDICTABLE>
	...
    e4e8:	00ffff00 	rscseq	pc, pc, r0, lsl #30
    e4ec:	00000000 	andeq	r0, r0, r0
    e4f0:	ff000000 			; <UNDEFINED> instruction: 0xff000000
    e4f4:	000000ff 	strdeq	r0, [r0], -pc	; <UNPREDICTABLE>
    e4f8:	00ffff00 	rscseq	pc, pc, r0, lsl #30
	...
    e504:	ffffff00 			; <UNDEFINED> instruction: 0xffffff00
    e508:	00ffffff 	ldrshteq	pc, [pc], #255	; <UNPREDICTABLE>
	...
    e518:	ff000000 			; <UNDEFINED> instruction: 0xff000000
    e51c:	000000ff 	strdeq	r0, [r0], -pc	; <UNPREDICTABLE>
    e520:	ff000000 			; <UNDEFINED> instruction: 0xff000000
    e524:	ffffffff 			; <UNDEFINED> instruction: 0xffffffff
    e528:	ffffffff 			; <UNDEFINED> instruction: 0xffffffff
    e52c:	000000ff 	strdeq	r0, [r0], -pc	; <UNPREDICTABLE>
    e530:	00000000 	andeq	r0, r0, r0
    e534:	ffffff00 			; <UNDEFINED> instruction: 0xffffff00
    e538:	ffffffff 			; <UNDEFINED> instruction: 0xffffffff
    e53c:	000000ff 	strdeq	r0, [r0], -pc	; <UNPREDICTABLE>
    e540:	00000000 	andeq	r0, r0, r0
    e544:	00ffff00 	rscseq	pc, pc, r0, lsl #30
    e548:	ff000000 			; <UNDEFINED> instruction: 0xff000000
    e54c:	000000ff 	strdeq	r0, [r0], -pc	; <UNPREDICTABLE>
    e550:	00000000 	andeq	r0, r0, r0
    e554:	ffffff00 			; <UNDEFINED> instruction: 0xffffff00
    e558:	ffffffff 			; <UNDEFINED> instruction: 0xffffffff
    e55c:	000000ff 	strdeq	r0, [r0], -pc	; <UNPREDICTABLE>
    e560:	00000000 	andeq	r0, r0, r0
    e564:	ffffff00 			; <UNDEFINED> instruction: 0xffffff00
    e568:	ffffffff 			; <UNDEFINED> instruction: 0xffffffff
    e56c:	000000ff 	strdeq	r0, [r0], -pc	; <UNPREDICTABLE>
    e570:	00000000 	andeq	r0, r0, r0
    e574:	ffffff00 			; <UNDEFINED> instruction: 0xffffff00
    e578:	ffffffff 			; <UNDEFINED> instruction: 0xffffffff
    e57c:	000000ff 	strdeq	r0, [r0], -pc	; <UNPREDICTABLE>
    e580:	00000000 	andeq	r0, r0, r0
    e584:	ffffff00 			; <UNDEFINED> instruction: 0xffffff00
    e588:	ffffffff 			; <UNDEFINED> instruction: 0xffffffff
    e58c:	000000ff 	strdeq	r0, [r0], -pc	; <UNPREDICTABLE>
    e590:	00000000 	andeq	r0, r0, r0
    e594:	ffffff00 			; <UNDEFINED> instruction: 0xffffff00
    e598:	ffffffff 			; <UNDEFINED> instruction: 0xffffffff
    e59c:	000000ff 	strdeq	r0, [r0], -pc	; <UNPREDICTABLE>
    e5a0:	00000000 	andeq	r0, r0, r0
    e5a4:	ffffff00 			; <UNDEFINED> instruction: 0xffffff00
    e5a8:	000000ff 	strdeq	r0, [r0], -pc	; <UNPREDICTABLE>
	...
    e5b4:	ffffff00 			; <UNDEFINED> instruction: 0xffffff00
    e5b8:	000000ff 	strdeq	r0, [r0], -pc	; <UNPREDICTABLE>
    e5bc:	00000000 	andeq	r0, r0, r0
    e5c0:	ff000000 			; <UNDEFINED> instruction: 0xff000000
    e5c4:	000000ff 	strdeq	r0, [r0], -pc	; <UNPREDICTABLE>
	...
    e5d0:	ff000000 			; <UNDEFINED> instruction: 0xff000000
    e5d4:	ffffffff 			; <UNDEFINED> instruction: 0xffffffff
    e5d8:	00ffffff 	ldrshteq	pc, [pc], #255	; <UNPREDICTABLE>
	...
    e5e8:	00ffff00 	rscseq	pc, pc, r0, lsl #30
    e5ec:	00000000 	andeq	r0, r0, r0
    e5f0:	ff000000 			; <UNDEFINED> instruction: 0xff000000
    e5f4:	000000ff 	strdeq	r0, [r0], -pc	; <UNPREDICTABLE>
    e5f8:	00ffff00 	rscseq	pc, pc, r0, lsl #30
    e5fc:	00000000 	andeq	r0, r0, r0
    e600:	ff000000 			; <UNDEFINED> instruction: 0xff000000
    e604:	000000ff 	strdeq	r0, [r0], -pc	; <UNPREDICTABLE>
    e608:	ff000000 			; <UNDEFINED> instruction: 0xff000000
    e60c:	000000ff 	strdeq	r0, [r0], -pc	; <UNPREDICTABLE>
	...
    e618:	ff000000 			; <UNDEFINED> instruction: 0xff000000
    e61c:	000000ff 	strdeq	r0, [r0], -pc	; <UNPREDICTABLE>
	...
    e628:	ff000000 			; <UNDEFINED> instruction: 0xff000000
    e62c:	000000ff 	strdeq	r0, [r0], -pc	; <UNPREDICTABLE>
	...
    e638:	ff000000 			; <UNDEFINED> instruction: 0xff000000
    e63c:	000000ff 	strdeq	r0, [r0], -pc	; <UNPREDICTABLE>
    e640:	00000000 	andeq	r0, r0, r0
    e644:	00ffff00 	rscseq	pc, pc, r0, lsl #30
    e648:	ff000000 			; <UNDEFINED> instruction: 0xff000000
    e64c:	000000ff 	strdeq	r0, [r0], -pc	; <UNPREDICTABLE>
    e650:	00000000 	andeq	r0, r0, r0
    e654:	00ffff00 	rscseq	pc, pc, r0, lsl #30
	...
    e664:	00ffff00 	rscseq	pc, pc, r0, lsl #30
	...
    e674:	00ffff00 	rscseq	pc, pc, r0, lsl #30
    e678:	ff000000 			; <UNDEFINED> instruction: 0xff000000
    e67c:	000000ff 	strdeq	r0, [r0], -pc	; <UNPREDICTABLE>
    e680:	00000000 	andeq	r0, r0, r0
    e684:	00ffff00 	rscseq	pc, pc, r0, lsl #30
    e688:	ff000000 			; <UNDEFINED> instruction: 0xff000000
    e68c:	000000ff 	strdeq	r0, [r0], -pc	; <UNPREDICTABLE>
    e690:	00000000 	andeq	r0, r0, r0
    e694:	00ffff00 	rscseq	pc, pc, r0, lsl #30
    e698:	ff000000 			; <UNDEFINED> instruction: 0xff000000
    e69c:	000000ff 	strdeq	r0, [r0], -pc	; <UNPREDICTABLE>
    e6a0:	00000000 	andeq	r0, r0, r0
    e6a4:	ffffff00 			; <UNDEFINED> instruction: 0xffffff00
    e6a8:	000000ff 	strdeq	r0, [r0], -pc	; <UNPREDICTABLE>
	...
    e6b4:	ffffff00 			; <UNDEFINED> instruction: 0xffffff00
    e6b8:	000000ff 	strdeq	r0, [r0], -pc	; <UNPREDICTABLE>
    e6bc:	00000000 	andeq	r0, r0, r0
    e6c0:	00ffff00 	rscseq	pc, pc, r0, lsl #30
	...
    e6e8:	ff000000 			; <UNDEFINED> instruction: 0xff000000
    e6ec:	000000ff 	strdeq	r0, [r0], -pc	; <UNPREDICTABLE>
	...
    e6f8:	00ffff00 	rscseq	pc, pc, r0, lsl #30
    e6fc:	00000000 	andeq	r0, r0, r0
    e700:	ff000000 			; <UNDEFINED> instruction: 0xff000000
    e704:	000000ff 	strdeq	r0, [r0], -pc	; <UNPREDICTABLE>
    e708:	ff000000 			; <UNDEFINED> instruction: 0xff000000
    e70c:	000000ff 	strdeq	r0, [r0], -pc	; <UNPREDICTABLE>
	...
    e718:	ff000000 			; <UNDEFINED> instruction: 0xff000000
    e71c:	000000ff 	strdeq	r0, [r0], -pc	; <UNPREDICTABLE>
	...
    e728:	ff000000 			; <UNDEFINED> instruction: 0xff000000
    e72c:	000000ff 	strdeq	r0, [r0], -pc	; <UNPREDICTABLE>
	...
    e738:	ff000000 			; <UNDEFINED> instruction: 0xff000000
    e73c:	000000ff 	strdeq	r0, [r0], -pc	; <UNPREDICTABLE>
    e740:	00000000 	andeq	r0, r0, r0
    e744:	00ffff00 	rscseq	pc, pc, r0, lsl #30
    e748:	ff000000 			; <UNDEFINED> instruction: 0xff000000
    e74c:	000000ff 	strdeq	r0, [r0], -pc	; <UNPREDICTABLE>
    e750:	00000000 	andeq	r0, r0, r0
    e754:	00ffff00 	rscseq	pc, pc, r0, lsl #30
	...
    e764:	00ffff00 	rscseq	pc, pc, r0, lsl #30
	...
    e774:	00ffff00 	rscseq	pc, pc, r0, lsl #30
    e778:	ff000000 			; <UNDEFINED> instruction: 0xff000000
    e77c:	000000ff 	strdeq	r0, [r0], -pc	; <UNPREDICTABLE>
    e780:	00000000 	andeq	r0, r0, r0
    e784:	00ffff00 	rscseq	pc, pc, r0, lsl #30
    e788:	ff000000 			; <UNDEFINED> instruction: 0xff000000
    e78c:	000000ff 	strdeq	r0, [r0], -pc	; <UNPREDICTABLE>
    e790:	00000000 	andeq	r0, r0, r0
    e794:	00ffff00 	rscseq	pc, pc, r0, lsl #30
    e798:	ff000000 			; <UNDEFINED> instruction: 0xff000000
    e79c:	000000ff 	strdeq	r0, [r0], -pc	; <UNPREDICTABLE>
    e7a0:	00000000 	andeq	r0, r0, r0
    e7a4:	ffffff00 			; <UNDEFINED> instruction: 0xffffff00
    e7a8:	000000ff 	strdeq	r0, [r0], -pc	; <UNPREDICTABLE>
	...
    e7b4:	ffffff00 			; <UNDEFINED> instruction: 0xffffff00
    e7b8:	000000ff 	strdeq	r0, [r0], -pc	; <UNPREDICTABLE>
    e7bc:	00000000 	andeq	r0, r0, r0
    e7c0:	00ffff00 	rscseq	pc, pc, r0, lsl #30
	...
    e7e8:	ff000000 			; <UNDEFINED> instruction: 0xff000000
    e7ec:	000000ff 	strdeq	r0, [r0], -pc	; <UNPREDICTABLE>
	...
    e7f8:	00ffff00 	rscseq	pc, pc, r0, lsl #30
    e7fc:	00000000 	andeq	r0, r0, r0
    e800:	ff000000 			; <UNDEFINED> instruction: 0xff000000
    e804:	000000ff 	strdeq	r0, [r0], -pc	; <UNPREDICTABLE>
    e808:	ff000000 			; <UNDEFINED> instruction: 0xff000000
    e80c:	000000ff 	strdeq	r0, [r0], -pc	; <UNPREDICTABLE>
	...
    e818:	ff000000 			; <UNDEFINED> instruction: 0xff000000
    e81c:	000000ff 	strdeq	r0, [r0], -pc	; <UNPREDICTABLE>
    e820:	ff000000 			; <UNDEFINED> instruction: 0xff000000
    e824:	ffffffff 			; <UNDEFINED> instruction: 0xffffffff
    e828:	ffffffff 			; <UNDEFINED> instruction: 0xffffffff
    e82c:	000000ff 	strdeq	r0, [r0], -pc	; <UNPREDICTABLE>
    e830:	00000000 	andeq	r0, r0, r0
    e834:	ffffff00 			; <UNDEFINED> instruction: 0xffffff00
    e838:	ffffffff 			; <UNDEFINED> instruction: 0xffffffff
    e83c:	000000ff 	strdeq	r0, [r0], -pc	; <UNPREDICTABLE>
    e840:	00000000 	andeq	r0, r0, r0
    e844:	ffffff00 			; <UNDEFINED> instruction: 0xffffff00
    e848:	ffffffff 			; <UNDEFINED> instruction: 0xffffffff
    e84c:	000000ff 	strdeq	r0, [r0], -pc	; <UNPREDICTABLE>
    e850:	00000000 	andeq	r0, r0, r0
    e854:	ffffff00 			; <UNDEFINED> instruction: 0xffffff00
    e858:	ffffffff 			; <UNDEFINED> instruction: 0xffffffff
    e85c:	000000ff 	strdeq	r0, [r0], -pc	; <UNPREDICTABLE>
    e860:	00000000 	andeq	r0, r0, r0
    e864:	ffffff00 			; <UNDEFINED> instruction: 0xffffff00
    e868:	ffffffff 			; <UNDEFINED> instruction: 0xffffffff
    e86c:	000000ff 	strdeq	r0, [r0], -pc	; <UNPREDICTABLE>
	...
    e878:	ff000000 			; <UNDEFINED> instruction: 0xff000000
    e87c:	000000ff 	strdeq	r0, [r0], -pc	; <UNPREDICTABLE>
    e880:	00000000 	andeq	r0, r0, r0
    e884:	ffffff00 			; <UNDEFINED> instruction: 0xffffff00
    e888:	ffffffff 			; <UNDEFINED> instruction: 0xffffffff
    e88c:	000000ff 	strdeq	r0, [r0], -pc	; <UNPREDICTABLE>
    e890:	00000000 	andeq	r0, r0, r0
    e894:	ffffff00 			; <UNDEFINED> instruction: 0xffffff00
    e898:	ffffffff 			; <UNDEFINED> instruction: 0xffffffff
    e89c:	000000ff 	strdeq	r0, [r0], -pc	; <UNPREDICTABLE>
	...
    e8c0:	00ffff00 	rscseq	pc, pc, r0, lsl #30
	...
    e8e8:	ff000000 			; <UNDEFINED> instruction: 0xff000000
    e8ec:	000000ff 	strdeq	r0, [r0], -pc	; <UNPREDICTABLE>
    e8f0:	00000000 	andeq	r0, r0, r0
    e8f4:	ffffff00 			; <UNDEFINED> instruction: 0xffffff00
    e8f8:	00ffffff 	ldrshteq	pc, [pc], #255	; <UNPREDICTABLE>
    e8fc:	00000000 	andeq	r0, r0, r0
    e900:	ff000000 			; <UNDEFINED> instruction: 0xff000000
    e904:	000000ff 	strdeq	r0, [r0], -pc	; <UNPREDICTABLE>
    e908:	ff000000 			; <UNDEFINED> instruction: 0xff000000
    e90c:	000000ff 	strdeq	r0, [r0], -pc	; <UNPREDICTABLE>
	...
    e918:	ff000000 			; <UNDEFINED> instruction: 0xff000000
    e91c:	000000ff 	strdeq	r0, [r0], -pc	; <UNPREDICTABLE>
    e920:	ff000000 			; <UNDEFINED> instruction: 0xff000000
    e924:	ffffffff 			; <UNDEFINED> instruction: 0xffffffff
    e928:	ffffffff 			; <UNDEFINED> instruction: 0xffffffff
    e92c:	000000ff 	strdeq	r0, [r0], -pc	; <UNPREDICTABLE>
    e930:	00000000 	andeq	r0, r0, r0
    e934:	ffffff00 			; <UNDEFINED> instruction: 0xffffff00
    e938:	ffffffff 			; <UNDEFINED> instruction: 0xffffffff
    e93c:	000000ff 	strdeq	r0, [r0], -pc	; <UNPREDICTABLE>
    e940:	00000000 	andeq	r0, r0, r0
    e944:	ffffff00 			; <UNDEFINED> instruction: 0xffffff00
    e948:	ffffffff 			; <UNDEFINED> instruction: 0xffffffff
    e94c:	000000ff 	strdeq	r0, [r0], -pc	; <UNPREDICTABLE>
    e950:	00000000 	andeq	r0, r0, r0
    e954:	ffffff00 			; <UNDEFINED> instruction: 0xffffff00
    e958:	ffffffff 			; <UNDEFINED> instruction: 0xffffffff
    e95c:	000000ff 	strdeq	r0, [r0], -pc	; <UNPREDICTABLE>
    e960:	00000000 	andeq	r0, r0, r0
    e964:	ffffff00 			; <UNDEFINED> instruction: 0xffffff00
    e968:	ffffffff 			; <UNDEFINED> instruction: 0xffffffff
    e96c:	000000ff 	strdeq	r0, [r0], -pc	; <UNPREDICTABLE>
	...
    e978:	ff000000 			; <UNDEFINED> instruction: 0xff000000
    e97c:	000000ff 	strdeq	r0, [r0], -pc	; <UNPREDICTABLE>
    e980:	00000000 	andeq	r0, r0, r0
    e984:	ffffff00 			; <UNDEFINED> instruction: 0xffffff00
    e988:	ffffffff 			; <UNDEFINED> instruction: 0xffffffff
    e98c:	000000ff 	strdeq	r0, [r0], -pc	; <UNPREDICTABLE>
    e990:	00000000 	andeq	r0, r0, r0
    e994:	ffffff00 			; <UNDEFINED> instruction: 0xffffff00
    e998:	ffffffff 			; <UNDEFINED> instruction: 0xffffffff
    e99c:	000000ff 	strdeq	r0, [r0], -pc	; <UNPREDICTABLE>
	...
    e9c0:	00ffff00 	rscseq	pc, pc, r0, lsl #30
	...
    e9e8:	ff000000 			; <UNDEFINED> instruction: 0xff000000
    e9ec:	000000ff 	strdeq	r0, [r0], -pc	; <UNPREDICTABLE>
    e9f0:	00000000 	andeq	r0, r0, r0
    e9f4:	ffffff00 			; <UNDEFINED> instruction: 0xffffff00
    e9f8:	00ffffff 	ldrshteq	pc, [pc], #255	; <UNPREDICTABLE>
    e9fc:	00000000 	andeq	r0, r0, r0
    ea00:	ff000000 			; <UNDEFINED> instruction: 0xff000000
    ea04:	000000ff 	strdeq	r0, [r0], -pc	; <UNPREDICTABLE>
    ea08:	ff000000 			; <UNDEFINED> instruction: 0xff000000
    ea0c:	000000ff 	strdeq	r0, [r0], -pc	; <UNPREDICTABLE>
	...
    ea18:	ff000000 			; <UNDEFINED> instruction: 0xff000000
    ea1c:	000000ff 	strdeq	r0, [r0], -pc	; <UNPREDICTABLE>
    ea20:	ff000000 			; <UNDEFINED> instruction: 0xff000000
    ea24:	000000ff 	strdeq	r0, [r0], -pc	; <UNPREDICTABLE>
	...
    ea38:	ff000000 			; <UNDEFINED> instruction: 0xff000000
    ea3c:	000000ff 	strdeq	r0, [r0], -pc	; <UNPREDICTABLE>
	...
    ea48:	ff000000 			; <UNDEFINED> instruction: 0xff000000
    ea4c:	000000ff 	strdeq	r0, [r0], -pc	; <UNPREDICTABLE>
	...
    ea58:	ff000000 			; <UNDEFINED> instruction: 0xff000000
    ea5c:	000000ff 	strdeq	r0, [r0], -pc	; <UNPREDICTABLE>
    ea60:	00000000 	andeq	r0, r0, r0
    ea64:	00ffff00 	rscseq	pc, pc, r0, lsl #30
    ea68:	ff000000 			; <UNDEFINED> instruction: 0xff000000
    ea6c:	000000ff 	strdeq	r0, [r0], -pc	; <UNPREDICTABLE>
	...
    ea78:	ff000000 			; <UNDEFINED> instruction: 0xff000000
    ea7c:	000000ff 	strdeq	r0, [r0], -pc	; <UNPREDICTABLE>
    ea80:	00000000 	andeq	r0, r0, r0
    ea84:	00ffff00 	rscseq	pc, pc, r0, lsl #30
    ea88:	ff000000 			; <UNDEFINED> instruction: 0xff000000
    ea8c:	000000ff 	strdeq	r0, [r0], -pc	; <UNPREDICTABLE>
	...
    ea98:	ff000000 			; <UNDEFINED> instruction: 0xff000000
    ea9c:	000000ff 	strdeq	r0, [r0], -pc	; <UNPREDICTABLE>
    eaa0:	00000000 	andeq	r0, r0, r0
    eaa4:	ffffff00 			; <UNDEFINED> instruction: 0xffffff00
    eaa8:	000000ff 	strdeq	r0, [r0], -pc	; <UNPREDICTABLE>
	...
    eab4:	ffffff00 			; <UNDEFINED> instruction: 0xffffff00
    eab8:	000000ff 	strdeq	r0, [r0], -pc	; <UNPREDICTABLE>
    eabc:	00000000 	andeq	r0, r0, r0
    eac0:	ff000000 			; <UNDEFINED> instruction: 0xff000000
    eac4:	000000ff 	strdeq	r0, [r0], -pc	; <UNPREDICTABLE>
	...
    ead0:	ff000000 			; <UNDEFINED> instruction: 0xff000000
    ead4:	ffffffff 			; <UNDEFINED> instruction: 0xffffffff
    ead8:	00ffffff 	ldrshteq	pc, [pc], #255	; <UNPREDICTABLE>
	...
    eae8:	00ffff00 	rscseq	pc, pc, r0, lsl #30
	...
    eaf4:	ffffff00 			; <UNDEFINED> instruction: 0xffffff00
    eaf8:	000000ff 	strdeq	r0, [r0], -pc	; <UNPREDICTABLE>
    eafc:	00000000 	andeq	r0, r0, r0
    eb00:	ff000000 			; <UNDEFINED> instruction: 0xff000000
    eb04:	000000ff 	strdeq	r0, [r0], -pc	; <UNPREDICTABLE>
    eb08:	ff000000 			; <UNDEFINED> instruction: 0xff000000
    eb0c:	000000ff 	strdeq	r0, [r0], -pc	; <UNPREDICTABLE>
	...
    eb18:	ff000000 			; <UNDEFINED> instruction: 0xff000000
    eb1c:	000000ff 	strdeq	r0, [r0], -pc	; <UNPREDICTABLE>
    eb20:	ff000000 			; <UNDEFINED> instruction: 0xff000000
    eb24:	000000ff 	strdeq	r0, [r0], -pc	; <UNPREDICTABLE>
	...
    eb38:	ff000000 			; <UNDEFINED> instruction: 0xff000000
    eb3c:	000000ff 	strdeq	r0, [r0], -pc	; <UNPREDICTABLE>
	...
    eb48:	ff000000 			; <UNDEFINED> instruction: 0xff000000
    eb4c:	000000ff 	strdeq	r0, [r0], -pc	; <UNPREDICTABLE>
	...
    eb58:	ff000000 			; <UNDEFINED> instruction: 0xff000000
    eb5c:	000000ff 	strdeq	r0, [r0], -pc	; <UNPREDICTABLE>
    eb60:	00000000 	andeq	r0, r0, r0
    eb64:	00ffff00 	rscseq	pc, pc, r0, lsl #30
    eb68:	ff000000 			; <UNDEFINED> instruction: 0xff000000
    eb6c:	000000ff 	strdeq	r0, [r0], -pc	; <UNPREDICTABLE>
	...
    eb78:	ff000000 			; <UNDEFINED> instruction: 0xff000000
    eb7c:	000000ff 	strdeq	r0, [r0], -pc	; <UNPREDICTABLE>
    eb80:	00000000 	andeq	r0, r0, r0
    eb84:	00ffff00 	rscseq	pc, pc, r0, lsl #30
    eb88:	ff000000 			; <UNDEFINED> instruction: 0xff000000
    eb8c:	000000ff 	strdeq	r0, [r0], -pc	; <UNPREDICTABLE>
	...
    eb98:	ff000000 			; <UNDEFINED> instruction: 0xff000000
    eb9c:	000000ff 	strdeq	r0, [r0], -pc	; <UNPREDICTABLE>
    eba0:	00000000 	andeq	r0, r0, r0
    eba4:	ffffff00 			; <UNDEFINED> instruction: 0xffffff00
    eba8:	000000ff 	strdeq	r0, [r0], -pc	; <UNPREDICTABLE>
	...
    ebb4:	ffffff00 			; <UNDEFINED> instruction: 0xffffff00
    ebb8:	000000ff 	strdeq	r0, [r0], -pc	; <UNPREDICTABLE>
    ebbc:	00000000 	andeq	r0, r0, r0
    ebc0:	ff000000 			; <UNDEFINED> instruction: 0xff000000
    ebc4:	000000ff 	strdeq	r0, [r0], -pc	; <UNPREDICTABLE>
	...
    ebd0:	ff000000 			; <UNDEFINED> instruction: 0xff000000
    ebd4:	ffffffff 			; <UNDEFINED> instruction: 0xffffffff
    ebd8:	00ffffff 	ldrshteq	pc, [pc], #255	; <UNPREDICTABLE>
	...
    ebe8:	00ffff00 	rscseq	pc, pc, r0, lsl #30
	...
    ebf4:	ffffff00 			; <UNDEFINED> instruction: 0xffffff00
    ebf8:	000000ff 	strdeq	r0, [r0], -pc	; <UNPREDICTABLE>
	...
    ec04:	ffffff00 			; <UNDEFINED> instruction: 0xffffff00
    ec08:	00ffffff 	ldrshteq	pc, [pc], #255	; <UNPREDICTABLE>
	...
    ec18:	ff000000 			; <UNDEFINED> instruction: 0xff000000
    ec1c:	000000ff 	strdeq	r0, [r0], -pc	; <UNPREDICTABLE>
    ec20:	ff000000 			; <UNDEFINED> instruction: 0xff000000
    ec24:	ffffffff 			; <UNDEFINED> instruction: 0xffffffff
    ec28:	ffffffff 			; <UNDEFINED> instruction: 0xffffffff
    ec2c:	000000ff 	strdeq	r0, [r0], -pc	; <UNPREDICTABLE>
    ec30:	00000000 	andeq	r0, r0, r0
    ec34:	ffffff00 			; <UNDEFINED> instruction: 0xffffff00
    ec38:	ffffffff 			; <UNDEFINED> instruction: 0xffffffff
    ec3c:	000000ff 	strdeq	r0, [r0], -pc	; <UNPREDICTABLE>
	...
    ec48:	ff000000 			; <UNDEFINED> instruction: 0xff000000
    ec4c:	000000ff 	strdeq	r0, [r0], -pc	; <UNPREDICTABLE>
    ec50:	00000000 	andeq	r0, r0, r0
    ec54:	ffffff00 			; <UNDEFINED> instruction: 0xffffff00
    ec58:	ffffffff 			; <UNDEFINED> instruction: 0xffffffff
    ec5c:	000000ff 	strdeq	r0, [r0], -pc	; <UNPREDICTABLE>
    ec60:	00000000 	andeq	r0, r0, r0
    ec64:	ffffff00 			; <UNDEFINED> instruction: 0xffffff00
    ec68:	ffffffff 			; <UNDEFINED> instruction: 0xffffffff
    ec6c:	000000ff 	strdeq	r0, [r0], -pc	; <UNPREDICTABLE>
	...
    ec78:	ff000000 			; <UNDEFINED> instruction: 0xff000000
    ec7c:	000000ff 	strdeq	r0, [r0], -pc	; <UNPREDICTABLE>
    ec80:	00000000 	andeq	r0, r0, r0
    ec84:	ffffff00 			; <UNDEFINED> instruction: 0xffffff00
    ec88:	ffffffff 			; <UNDEFINED> instruction: 0xffffffff
    ec8c:	000000ff 	strdeq	r0, [r0], -pc	; <UNPREDICTABLE>
	...
    ec98:	ff000000 			; <UNDEFINED> instruction: 0xff000000
    ec9c:	000000ff 	strdeq	r0, [r0], -pc	; <UNPREDICTABLE>
    eca0:	00000000 	andeq	r0, r0, r0
    eca4:	ffffff00 			; <UNDEFINED> instruction: 0xffffff00
    eca8:	000000ff 	strdeq	r0, [r0], -pc	; <UNPREDICTABLE>
	...
    ecb4:	ffffff00 			; <UNDEFINED> instruction: 0xffffff00
    ecb8:	000000ff 	strdeq	r0, [r0], -pc	; <UNPREDICTABLE>
	...
    ecc4:	00ffff00 	rscseq	pc, pc, r0, lsl #30
	...
    ece4:	ff000000 			; <UNDEFINED> instruction: 0xff000000
    ece8:	000000ff 	strdeq	r0, [r0], -pc	; <UNPREDICTABLE>
	...
    ed04:	ffffff00 			; <UNDEFINED> instruction: 0xffffff00
    ed08:	00ffffff 	ldrshteq	pc, [pc], #255	; <UNPREDICTABLE>
	...
    ed18:	ff000000 			; <UNDEFINED> instruction: 0xff000000
    ed1c:	000000ff 	strdeq	r0, [r0], -pc	; <UNPREDICTABLE>
    ed20:	ff000000 			; <UNDEFINED> instruction: 0xff000000
    ed24:	ffffffff 			; <UNDEFINED> instruction: 0xffffffff
    ed28:	ffffffff 			; <UNDEFINED> instruction: 0xffffffff
    ed2c:	000000ff 	strdeq	r0, [r0], -pc	; <UNPREDICTABLE>
    ed30:	00000000 	andeq	r0, r0, r0
    ed34:	ffffff00 			; <UNDEFINED> instruction: 0xffffff00
    ed38:	ffffffff 			; <UNDEFINED> instruction: 0xffffffff
    ed3c:	000000ff 	strdeq	r0, [r0], -pc	; <UNPREDICTABLE>
	...
    ed48:	ff000000 			; <UNDEFINED> instruction: 0xff000000
    ed4c:	000000ff 	strdeq	r0, [r0], -pc	; <UNPREDICTABLE>
    ed50:	00000000 	andeq	r0, r0, r0
    ed54:	ffffff00 			; <UNDEFINED> instruction: 0xffffff00
    ed58:	ffffffff 			; <UNDEFINED> instruction: 0xffffffff
    ed5c:	000000ff 	strdeq	r0, [r0], -pc	; <UNPREDICTABLE>
    ed60:	00000000 	andeq	r0, r0, r0
    ed64:	ffffff00 			; <UNDEFINED> instruction: 0xffffff00
    ed68:	ffffffff 			; <UNDEFINED> instruction: 0xffffffff
    ed6c:	000000ff 	strdeq	r0, [r0], -pc	; <UNPREDICTABLE>
	...
    ed78:	ff000000 			; <UNDEFINED> instruction: 0xff000000
    ed7c:	000000ff 	strdeq	r0, [r0], -pc	; <UNPREDICTABLE>
    ed80:	00000000 	andeq	r0, r0, r0
    ed84:	ffffff00 			; <UNDEFINED> instruction: 0xffffff00
    ed88:	ffffffff 			; <UNDEFINED> instruction: 0xffffffff
    ed8c:	000000ff 	strdeq	r0, [r0], -pc	; <UNPREDICTABLE>
	...
    ed98:	ff000000 			; <UNDEFINED> instruction: 0xff000000
    ed9c:	000000ff 	strdeq	r0, [r0], -pc	; <UNPREDICTABLE>
    eda0:	00000000 	andeq	r0, r0, r0
    eda4:	ffffff00 			; <UNDEFINED> instruction: 0xffffff00
    eda8:	000000ff 	strdeq	r0, [r0], -pc	; <UNPREDICTABLE>
	...
    edb4:	ffffff00 			; <UNDEFINED> instruction: 0xffffff00
    edb8:	000000ff 	strdeq	r0, [r0], -pc	; <UNPREDICTABLE>
	...
    edc4:	00ffff00 	rscseq	pc, pc, r0, lsl #30
	...
    ede4:	ff000000 			; <UNDEFINED> instruction: 0xff000000
    ede8:	000000ff 	strdeq	r0, [r0], -pc	; <UNPREDICTABLE>
	...
    eeb4:	ff000000 			; <UNDEFINED> instruction: 0xff000000
    eeb8:	000000ff 	strdeq	r0, [r0], -pc	; <UNPREDICTABLE>
	...
    eec4:	ff000000 			; <UNDEFINED> instruction: 0xff000000
    eec8:	000000ff 	strdeq	r0, [r0], -pc	; <UNPREDICTABLE>
	...
    eee4:	00ffff00 	rscseq	pc, pc, r0, lsl #30
	...
    eef4:	ffffff00 			; <UNDEFINED> instruction: 0xffffff00
    eef8:	000000ff 	strdeq	r0, [r0], -pc	; <UNPREDICTABLE>
	...
    efb4:	ff000000 			; <UNDEFINED> instruction: 0xff000000
    efb8:	000000ff 	strdeq	r0, [r0], -pc	; <UNPREDICTABLE>
	...
    efc4:	ff000000 			; <UNDEFINED> instruction: 0xff000000
    efc8:	000000ff 	strdeq	r0, [r0], -pc	; <UNPREDICTABLE>
	...
    efe4:	00ffff00 	rscseq	pc, pc, r0, lsl #30
	...
    eff4:	ffffff00 			; <UNDEFINED> instruction: 0xffffff00
    eff8:	000000ff 	strdeq	r0, [r0], -pc	; <UNPREDICTABLE>
	...
    f210:	ff000000 			; <UNDEFINED> instruction: 0xff000000
    f214:	ffffffff 			; <UNDEFINED> instruction: 0xffffffff
    f218:	ffffffff 			; <UNDEFINED> instruction: 0xffffffff
    f21c:	000000ff 	strdeq	r0, [r0], -pc	; <UNPREDICTABLE>
    f220:	ff000000 			; <UNDEFINED> instruction: 0xff000000
    f224:	ffffffff 			; <UNDEFINED> instruction: 0xffffffff
    f228:	00ffffff 	ldrshteq	pc, [pc], #255	; <UNPREDICTABLE>
	...
    f234:	ffffff00 			; <UNDEFINED> instruction: 0xffffff00
    f238:	00ffffff 	ldrshteq	pc, [pc], #255	; <UNPREDICTABLE>
    f23c:	00000000 	andeq	r0, r0, r0
    f240:	ff000000 			; <UNDEFINED> instruction: 0xff000000
    f244:	ffffffff 			; <UNDEFINED> instruction: 0xffffffff
    f248:	00ffffff 	ldrshteq	pc, [pc], #255	; <UNPREDICTABLE>
    f24c:	00000000 	andeq	r0, r0, r0
    f250:	ff000000 			; <UNDEFINED> instruction: 0xff000000
    f254:	ffffffff 			; <UNDEFINED> instruction: 0xffffffff
    f258:	ffffffff 			; <UNDEFINED> instruction: 0xffffffff
    f25c:	000000ff 	strdeq	r0, [r0], -pc	; <UNPREDICTABLE>
    f260:	ff000000 			; <UNDEFINED> instruction: 0xff000000
    f264:	ffffffff 			; <UNDEFINED> instruction: 0xffffffff
    f268:	ffffffff 			; <UNDEFINED> instruction: 0xffffffff
    f26c:	000000ff 	strdeq	r0, [r0], -pc	; <UNPREDICTABLE>
    f270:	ff000000 			; <UNDEFINED> instruction: 0xff000000
    f274:	ffffffff 			; <UNDEFINED> instruction: 0xffffffff
    f278:	ffffffff 			; <UNDEFINED> instruction: 0xffffffff
    f27c:	000000ff 	strdeq	r0, [r0], -pc	; <UNPREDICTABLE>
    f280:	ff000000 			; <UNDEFINED> instruction: 0xff000000
    f284:	000000ff 	strdeq	r0, [r0], -pc	; <UNPREDICTABLE>
    f288:	ff000000 			; <UNDEFINED> instruction: 0xff000000
    f28c:	000000ff 	strdeq	r0, [r0], -pc	; <UNPREDICTABLE>
    f290:	ff000000 			; <UNDEFINED> instruction: 0xff000000
    f294:	ffffffff 			; <UNDEFINED> instruction: 0xffffffff
    f298:	00ffffff 	ldrshteq	pc, [pc], #255	; <UNPREDICTABLE>
    f29c:	00000000 	andeq	r0, r0, r0
    f2a0:	ff000000 			; <UNDEFINED> instruction: 0xff000000
    f2a4:	ffffffff 			; <UNDEFINED> instruction: 0xffffffff
    f2a8:	ffffffff 			; <UNDEFINED> instruction: 0xffffffff
    f2ac:	000000ff 	strdeq	r0, [r0], -pc	; <UNPREDICTABLE>
    f2b0:	ff000000 			; <UNDEFINED> instruction: 0xff000000
    f2b4:	000000ff 	strdeq	r0, [r0], -pc	; <UNPREDICTABLE>
    f2b8:	ff000000 			; <UNDEFINED> instruction: 0xff000000
    f2bc:	000000ff 	strdeq	r0, [r0], -pc	; <UNPREDICTABLE>
    f2c0:	ff000000 			; <UNDEFINED> instruction: 0xff000000
    f2c4:	000000ff 	strdeq	r0, [r0], -pc	; <UNPREDICTABLE>
	...
    f2d0:	ff000000 			; <UNDEFINED> instruction: 0xff000000
    f2d4:	000000ff 	strdeq	r0, [r0], -pc	; <UNPREDICTABLE>
    f2d8:	ff000000 			; <UNDEFINED> instruction: 0xff000000
    f2dc:	000000ff 	strdeq	r0, [r0], -pc	; <UNPREDICTABLE>
    f2e0:	ff000000 			; <UNDEFINED> instruction: 0xff000000
    f2e4:	000000ff 	strdeq	r0, [r0], -pc	; <UNPREDICTABLE>
    f2e8:	ff000000 			; <UNDEFINED> instruction: 0xff000000
    f2ec:	000000ff 	strdeq	r0, [r0], -pc	; <UNPREDICTABLE>
    f2f0:	00000000 	andeq	r0, r0, r0
    f2f4:	ffffff00 			; <UNDEFINED> instruction: 0xffffff00
    f2f8:	00ffffff 	ldrshteq	pc, [pc], #255	; <UNPREDICTABLE>
	...
    f310:	ff000000 			; <UNDEFINED> instruction: 0xff000000
    f314:	ffffffff 			; <UNDEFINED> instruction: 0xffffffff
    f318:	ffffffff 			; <UNDEFINED> instruction: 0xffffffff
    f31c:	000000ff 	strdeq	r0, [r0], -pc	; <UNPREDICTABLE>
    f320:	ff000000 			; <UNDEFINED> instruction: 0xff000000
    f324:	ffffffff 			; <UNDEFINED> instruction: 0xffffffff
    f328:	00ffffff 	ldrshteq	pc, [pc], #255	; <UNPREDICTABLE>
	...
    f334:	ffffff00 			; <UNDEFINED> instruction: 0xffffff00
    f338:	00ffffff 	ldrshteq	pc, [pc], #255	; <UNPREDICTABLE>
    f33c:	00000000 	andeq	r0, r0, r0
    f340:	ff000000 			; <UNDEFINED> instruction: 0xff000000
    f344:	ffffffff 			; <UNDEFINED> instruction: 0xffffffff
    f348:	00ffffff 	ldrshteq	pc, [pc], #255	; <UNPREDICTABLE>
    f34c:	00000000 	andeq	r0, r0, r0
    f350:	ff000000 			; <UNDEFINED> instruction: 0xff000000
    f354:	ffffffff 			; <UNDEFINED> instruction: 0xffffffff
    f358:	ffffffff 			; <UNDEFINED> instruction: 0xffffffff
    f35c:	000000ff 	strdeq	r0, [r0], -pc	; <UNPREDICTABLE>
    f360:	ff000000 			; <UNDEFINED> instruction: 0xff000000
    f364:	ffffffff 			; <UNDEFINED> instruction: 0xffffffff
    f368:	ffffffff 			; <UNDEFINED> instruction: 0xffffffff
    f36c:	000000ff 	strdeq	r0, [r0], -pc	; <UNPREDICTABLE>
    f370:	ff000000 			; <UNDEFINED> instruction: 0xff000000
    f374:	ffffffff 			; <UNDEFINED> instruction: 0xffffffff
    f378:	ffffffff 			; <UNDEFINED> instruction: 0xffffffff
    f37c:	000000ff 	strdeq	r0, [r0], -pc	; <UNPREDICTABLE>
    f380:	ff000000 			; <UNDEFINED> instruction: 0xff000000
    f384:	000000ff 	strdeq	r0, [r0], -pc	; <UNPREDICTABLE>
    f388:	ff000000 			; <UNDEFINED> instruction: 0xff000000
    f38c:	000000ff 	strdeq	r0, [r0], -pc	; <UNPREDICTABLE>
    f390:	ff000000 			; <UNDEFINED> instruction: 0xff000000
    f394:	ffffffff 			; <UNDEFINED> instruction: 0xffffffff
    f398:	00ffffff 	ldrshteq	pc, [pc], #255	; <UNPREDICTABLE>
    f39c:	00000000 	andeq	r0, r0, r0
    f3a0:	ff000000 			; <UNDEFINED> instruction: 0xff000000
    f3a4:	ffffffff 			; <UNDEFINED> instruction: 0xffffffff
    f3a8:	ffffffff 			; <UNDEFINED> instruction: 0xffffffff
    f3ac:	000000ff 	strdeq	r0, [r0], -pc	; <UNPREDICTABLE>
    f3b0:	ff000000 			; <UNDEFINED> instruction: 0xff000000
    f3b4:	000000ff 	strdeq	r0, [r0], -pc	; <UNPREDICTABLE>
    f3b8:	ff000000 			; <UNDEFINED> instruction: 0xff000000
    f3bc:	000000ff 	strdeq	r0, [r0], -pc	; <UNPREDICTABLE>
    f3c0:	ff000000 			; <UNDEFINED> instruction: 0xff000000
    f3c4:	000000ff 	strdeq	r0, [r0], -pc	; <UNPREDICTABLE>
	...
    f3d0:	ff000000 			; <UNDEFINED> instruction: 0xff000000
    f3d4:	000000ff 	strdeq	r0, [r0], -pc	; <UNPREDICTABLE>
    f3d8:	ff000000 			; <UNDEFINED> instruction: 0xff000000
    f3dc:	000000ff 	strdeq	r0, [r0], -pc	; <UNPREDICTABLE>
    f3e0:	ff000000 			; <UNDEFINED> instruction: 0xff000000
    f3e4:	000000ff 	strdeq	r0, [r0], -pc	; <UNPREDICTABLE>
    f3e8:	ff000000 			; <UNDEFINED> instruction: 0xff000000
    f3ec:	000000ff 	strdeq	r0, [r0], -pc	; <UNPREDICTABLE>
    f3f0:	00000000 	andeq	r0, r0, r0
    f3f4:	ffffff00 			; <UNDEFINED> instruction: 0xffffff00
    f3f8:	00ffffff 	ldrshteq	pc, [pc], #255	; <UNPREDICTABLE>
    f3fc:	00000000 	andeq	r0, r0, r0
    f400:	ffffff00 			; <UNDEFINED> instruction: 0xffffff00
    f404:	ffffffff 			; <UNDEFINED> instruction: 0xffffffff
    f408:	ffffffff 			; <UNDEFINED> instruction: 0xffffffff
    f40c:	000000ff 	strdeq	r0, [r0], -pc	; <UNPREDICTABLE>
    f410:	ff000000 			; <UNDEFINED> instruction: 0xff000000
    f414:	000000ff 	strdeq	r0, [r0], -pc	; <UNPREDICTABLE>
    f418:	ff000000 			; <UNDEFINED> instruction: 0xff000000
    f41c:	000000ff 	strdeq	r0, [r0], -pc	; <UNPREDICTABLE>
    f420:	ff000000 			; <UNDEFINED> instruction: 0xff000000
    f424:	000000ff 	strdeq	r0, [r0], -pc	; <UNPREDICTABLE>
    f428:	ff000000 			; <UNDEFINED> instruction: 0xff000000
    f42c:	000000ff 	strdeq	r0, [r0], -pc	; <UNPREDICTABLE>
    f430:	ff000000 			; <UNDEFINED> instruction: 0xff000000
    f434:	000000ff 	strdeq	r0, [r0], -pc	; <UNPREDICTABLE>
    f438:	ff000000 			; <UNDEFINED> instruction: 0xff000000
    f43c:	000000ff 	strdeq	r0, [r0], -pc	; <UNPREDICTABLE>
    f440:	ff000000 			; <UNDEFINED> instruction: 0xff000000
    f444:	000000ff 	strdeq	r0, [r0], -pc	; <UNPREDICTABLE>
    f448:	ff000000 			; <UNDEFINED> instruction: 0xff000000
    f44c:	000000ff 	strdeq	r0, [r0], -pc	; <UNPREDICTABLE>
    f450:	ff000000 			; <UNDEFINED> instruction: 0xff000000
    f454:	000000ff 	strdeq	r0, [r0], -pc	; <UNPREDICTABLE>
	...
    f460:	ff000000 			; <UNDEFINED> instruction: 0xff000000
    f464:	000000ff 	strdeq	r0, [r0], -pc	; <UNPREDICTABLE>
	...
    f470:	ff000000 			; <UNDEFINED> instruction: 0xff000000
    f474:	000000ff 	strdeq	r0, [r0], -pc	; <UNPREDICTABLE>
	...
    f480:	ff000000 			; <UNDEFINED> instruction: 0xff000000
    f484:	000000ff 	strdeq	r0, [r0], -pc	; <UNPREDICTABLE>
    f488:	ff000000 			; <UNDEFINED> instruction: 0xff000000
    f48c:	000000ff 	strdeq	r0, [r0], -pc	; <UNPREDICTABLE>
    f490:	00000000 	andeq	r0, r0, r0
    f494:	ff000000 			; <UNDEFINED> instruction: 0xff000000
    f498:	000000ff 	strdeq	r0, [r0], -pc	; <UNPREDICTABLE>
	...
    f4a8:	00ffff00 	rscseq	pc, pc, r0, lsl #30
    f4ac:	00000000 	andeq	r0, r0, r0
    f4b0:	ff000000 			; <UNDEFINED> instruction: 0xff000000
    f4b4:	000000ff 	strdeq	r0, [r0], -pc	; <UNPREDICTABLE>
    f4b8:	00ffff00 	rscseq	pc, pc, r0, lsl #30
    f4bc:	00000000 	andeq	r0, r0, r0
    f4c0:	ff000000 			; <UNDEFINED> instruction: 0xff000000
    f4c4:	000000ff 	strdeq	r0, [r0], -pc	; <UNPREDICTABLE>
	...
    f4d0:	ff000000 			; <UNDEFINED> instruction: 0xff000000
    f4d4:	00ffffff 	ldrshteq	pc, [pc], #255	; <UNPREDICTABLE>
    f4d8:	ffffff00 			; <UNDEFINED> instruction: 0xffffff00
    f4dc:	000000ff 	strdeq	r0, [r0], -pc	; <UNPREDICTABLE>
    f4e0:	ff000000 			; <UNDEFINED> instruction: 0xff000000
    f4e4:	00ffffff 	ldrshteq	pc, [pc], #255	; <UNPREDICTABLE>
    f4e8:	ff000000 			; <UNDEFINED> instruction: 0xff000000
    f4ec:	000000ff 	strdeq	r0, [r0], -pc	; <UNPREDICTABLE>
    f4f0:	ff000000 			; <UNDEFINED> instruction: 0xff000000
    f4f4:	000000ff 	strdeq	r0, [r0], -pc	; <UNPREDICTABLE>
    f4f8:	ff000000 			; <UNDEFINED> instruction: 0xff000000
    f4fc:	000000ff 	strdeq	r0, [r0], -pc	; <UNPREDICTABLE>
    f500:	ffffff00 			; <UNDEFINED> instruction: 0xffffff00
    f504:	ffffffff 			; <UNDEFINED> instruction: 0xffffffff
    f508:	ffffffff 			; <UNDEFINED> instruction: 0xffffffff
    f50c:	000000ff 	strdeq	r0, [r0], -pc	; <UNPREDICTABLE>
    f510:	ff000000 			; <UNDEFINED> instruction: 0xff000000
    f514:	000000ff 	strdeq	r0, [r0], -pc	; <UNPREDICTABLE>
    f518:	ff000000 			; <UNDEFINED> instruction: 0xff000000
    f51c:	000000ff 	strdeq	r0, [r0], -pc	; <UNPREDICTABLE>
    f520:	ff000000 			; <UNDEFINED> instruction: 0xff000000
    f524:	000000ff 	strdeq	r0, [r0], -pc	; <UNPREDICTABLE>
    f528:	ff000000 			; <UNDEFINED> instruction: 0xff000000
    f52c:	000000ff 	strdeq	r0, [r0], -pc	; <UNPREDICTABLE>
    f530:	ff000000 			; <UNDEFINED> instruction: 0xff000000
    f534:	000000ff 	strdeq	r0, [r0], -pc	; <UNPREDICTABLE>
    f538:	ff000000 			; <UNDEFINED> instruction: 0xff000000
    f53c:	000000ff 	strdeq	r0, [r0], -pc	; <UNPREDICTABLE>
    f540:	ff000000 			; <UNDEFINED> instruction: 0xff000000
    f544:	000000ff 	strdeq	r0, [r0], -pc	; <UNPREDICTABLE>
    f548:	ff000000 			; <UNDEFINED> instruction: 0xff000000
    f54c:	000000ff 	strdeq	r0, [r0], -pc	; <UNPREDICTABLE>
    f550:	ff000000 			; <UNDEFINED> instruction: 0xff000000
    f554:	000000ff 	strdeq	r0, [r0], -pc	; <UNPREDICTABLE>
	...
    f560:	ff000000 			; <UNDEFINED> instruction: 0xff000000
    f564:	000000ff 	strdeq	r0, [r0], -pc	; <UNPREDICTABLE>
	...
    f570:	ff000000 			; <UNDEFINED> instruction: 0xff000000
    f574:	000000ff 	strdeq	r0, [r0], -pc	; <UNPREDICTABLE>
	...
    f580:	ff000000 			; <UNDEFINED> instruction: 0xff000000
    f584:	000000ff 	strdeq	r0, [r0], -pc	; <UNPREDICTABLE>
    f588:	ff000000 			; <UNDEFINED> instruction: 0xff000000
    f58c:	000000ff 	strdeq	r0, [r0], -pc	; <UNPREDICTABLE>
    f590:	00000000 	andeq	r0, r0, r0
    f594:	ff000000 			; <UNDEFINED> instruction: 0xff000000
    f598:	000000ff 	strdeq	r0, [r0], -pc	; <UNPREDICTABLE>
	...
    f5a8:	00ffff00 	rscseq	pc, pc, r0, lsl #30
    f5ac:	00000000 	andeq	r0, r0, r0
    f5b0:	ff000000 			; <UNDEFINED> instruction: 0xff000000
    f5b4:	000000ff 	strdeq	r0, [r0], -pc	; <UNPREDICTABLE>
    f5b8:	00ffff00 	rscseq	pc, pc, r0, lsl #30
    f5bc:	00000000 	andeq	r0, r0, r0
    f5c0:	ff000000 			; <UNDEFINED> instruction: 0xff000000
    f5c4:	000000ff 	strdeq	r0, [r0], -pc	; <UNPREDICTABLE>
	...
    f5d0:	ff000000 			; <UNDEFINED> instruction: 0xff000000
    f5d4:	00ffffff 	ldrshteq	pc, [pc], #255	; <UNPREDICTABLE>
    f5d8:	ffffff00 			; <UNDEFINED> instruction: 0xffffff00
    f5dc:	000000ff 	strdeq	r0, [r0], -pc	; <UNPREDICTABLE>
    f5e0:	ff000000 			; <UNDEFINED> instruction: 0xff000000
    f5e4:	00ffffff 	ldrshteq	pc, [pc], #255	; <UNPREDICTABLE>
    f5e8:	ff000000 			; <UNDEFINED> instruction: 0xff000000
    f5ec:	000000ff 	strdeq	r0, [r0], -pc	; <UNPREDICTABLE>
    f5f0:	ff000000 			; <UNDEFINED> instruction: 0xff000000
    f5f4:	000000ff 	strdeq	r0, [r0], -pc	; <UNPREDICTABLE>
    f5f8:	ff000000 			; <UNDEFINED> instruction: 0xff000000
    f5fc:	000000ff 	strdeq	r0, [r0], -pc	; <UNPREDICTABLE>
    f600:	00ffff00 	rscseq	pc, pc, r0, lsl #30
    f604:	00000000 	andeq	r0, r0, r0
    f608:	ff000000 			; <UNDEFINED> instruction: 0xff000000
    f60c:	000000ff 	strdeq	r0, [r0], -pc	; <UNPREDICTABLE>
    f610:	ff000000 			; <UNDEFINED> instruction: 0xff000000
    f614:	000000ff 	strdeq	r0, [r0], -pc	; <UNPREDICTABLE>
    f618:	ff000000 			; <UNDEFINED> instruction: 0xff000000
    f61c:	000000ff 	strdeq	r0, [r0], -pc	; <UNPREDICTABLE>
    f620:	ff000000 			; <UNDEFINED> instruction: 0xff000000
    f624:	000000ff 	strdeq	r0, [r0], -pc	; <UNPREDICTABLE>
    f628:	ff000000 			; <UNDEFINED> instruction: 0xff000000
    f62c:	000000ff 	strdeq	r0, [r0], -pc	; <UNPREDICTABLE>
    f630:	ff000000 			; <UNDEFINED> instruction: 0xff000000
    f634:	000000ff 	strdeq	r0, [r0], -pc	; <UNPREDICTABLE>
	...
    f640:	ff000000 			; <UNDEFINED> instruction: 0xff000000
    f644:	000000ff 	strdeq	r0, [r0], -pc	; <UNPREDICTABLE>
    f648:	ff000000 			; <UNDEFINED> instruction: 0xff000000
    f64c:	000000ff 	strdeq	r0, [r0], -pc	; <UNPREDICTABLE>
    f650:	ff000000 			; <UNDEFINED> instruction: 0xff000000
    f654:	000000ff 	strdeq	r0, [r0], -pc	; <UNPREDICTABLE>
	...
    f660:	ff000000 			; <UNDEFINED> instruction: 0xff000000
    f664:	000000ff 	strdeq	r0, [r0], -pc	; <UNPREDICTABLE>
	...
    f670:	ff000000 			; <UNDEFINED> instruction: 0xff000000
    f674:	000000ff 	strdeq	r0, [r0], -pc	; <UNPREDICTABLE>
	...
    f680:	ff000000 			; <UNDEFINED> instruction: 0xff000000
    f684:	000000ff 	strdeq	r0, [r0], -pc	; <UNPREDICTABLE>
    f688:	ff000000 			; <UNDEFINED> instruction: 0xff000000
    f68c:	000000ff 	strdeq	r0, [r0], -pc	; <UNPREDICTABLE>
    f690:	00000000 	andeq	r0, r0, r0
    f694:	ff000000 			; <UNDEFINED> instruction: 0xff000000
    f698:	000000ff 	strdeq	r0, [r0], -pc	; <UNPREDICTABLE>
	...
    f6a8:	00ffff00 	rscseq	pc, pc, r0, lsl #30
    f6ac:	00000000 	andeq	r0, r0, r0
    f6b0:	ff000000 			; <UNDEFINED> instruction: 0xff000000
    f6b4:	000000ff 	strdeq	r0, [r0], -pc	; <UNPREDICTABLE>
    f6b8:	00ffff00 	rscseq	pc, pc, r0, lsl #30
    f6bc:	00000000 	andeq	r0, r0, r0
    f6c0:	ff000000 			; <UNDEFINED> instruction: 0xff000000
    f6c4:	000000ff 	strdeq	r0, [r0], -pc	; <UNPREDICTABLE>
	...
    f6d0:	ff000000 			; <UNDEFINED> instruction: 0xff000000
    f6d4:	ff0000ff 			; <UNDEFINED> instruction: 0xff0000ff
    f6d8:	ff0000ff 			; <UNDEFINED> instruction: 0xff0000ff
    f6dc:	000000ff 	strdeq	r0, [r0], -pc	; <UNPREDICTABLE>
    f6e0:	ff000000 			; <UNDEFINED> instruction: 0xff000000
    f6e4:	00ffffff 	ldrshteq	pc, [pc], #255	; <UNPREDICTABLE>
    f6e8:	ff000000 			; <UNDEFINED> instruction: 0xff000000
    f6ec:	000000ff 	strdeq	r0, [r0], -pc	; <UNPREDICTABLE>
    f6f0:	ff000000 			; <UNDEFINED> instruction: 0xff000000
    f6f4:	000000ff 	strdeq	r0, [r0], -pc	; <UNPREDICTABLE>
    f6f8:	ff000000 			; <UNDEFINED> instruction: 0xff000000
    f6fc:	000000ff 	strdeq	r0, [r0], -pc	; <UNPREDICTABLE>
    f700:	00ffff00 	rscseq	pc, pc, r0, lsl #30
    f704:	00000000 	andeq	r0, r0, r0
    f708:	ff000000 			; <UNDEFINED> instruction: 0xff000000
    f70c:	000000ff 	strdeq	r0, [r0], -pc	; <UNPREDICTABLE>
    f710:	ff000000 			; <UNDEFINED> instruction: 0xff000000
    f714:	000000ff 	strdeq	r0, [r0], -pc	; <UNPREDICTABLE>
    f718:	ff000000 			; <UNDEFINED> instruction: 0xff000000
    f71c:	000000ff 	strdeq	r0, [r0], -pc	; <UNPREDICTABLE>
    f720:	ff000000 			; <UNDEFINED> instruction: 0xff000000
    f724:	000000ff 	strdeq	r0, [r0], -pc	; <UNPREDICTABLE>
    f728:	ff000000 			; <UNDEFINED> instruction: 0xff000000
    f72c:	000000ff 	strdeq	r0, [r0], -pc	; <UNPREDICTABLE>
    f730:	ff000000 			; <UNDEFINED> instruction: 0xff000000
    f734:	000000ff 	strdeq	r0, [r0], -pc	; <UNPREDICTABLE>
	...
    f740:	ff000000 			; <UNDEFINED> instruction: 0xff000000
    f744:	000000ff 	strdeq	r0, [r0], -pc	; <UNPREDICTABLE>
    f748:	ff000000 			; <UNDEFINED> instruction: 0xff000000
    f74c:	000000ff 	strdeq	r0, [r0], -pc	; <UNPREDICTABLE>
    f750:	ff000000 			; <UNDEFINED> instruction: 0xff000000
    f754:	000000ff 	strdeq	r0, [r0], -pc	; <UNPREDICTABLE>
	...
    f760:	ff000000 			; <UNDEFINED> instruction: 0xff000000
    f764:	000000ff 	strdeq	r0, [r0], -pc	; <UNPREDICTABLE>
	...
    f770:	ff000000 			; <UNDEFINED> instruction: 0xff000000
    f774:	000000ff 	strdeq	r0, [r0], -pc	; <UNPREDICTABLE>
	...
    f780:	ff000000 			; <UNDEFINED> instruction: 0xff000000
    f784:	000000ff 	strdeq	r0, [r0], -pc	; <UNPREDICTABLE>
    f788:	ff000000 			; <UNDEFINED> instruction: 0xff000000
    f78c:	000000ff 	strdeq	r0, [r0], -pc	; <UNPREDICTABLE>
    f790:	00000000 	andeq	r0, r0, r0
    f794:	ff000000 			; <UNDEFINED> instruction: 0xff000000
    f798:	000000ff 	strdeq	r0, [r0], -pc	; <UNPREDICTABLE>
	...
    f7a8:	00ffff00 	rscseq	pc, pc, r0, lsl #30
    f7ac:	00000000 	andeq	r0, r0, r0
    f7b0:	ff000000 			; <UNDEFINED> instruction: 0xff000000
    f7b4:	000000ff 	strdeq	r0, [r0], -pc	; <UNPREDICTABLE>
    f7b8:	00ffff00 	rscseq	pc, pc, r0, lsl #30
    f7bc:	00000000 	andeq	r0, r0, r0
    f7c0:	ff000000 			; <UNDEFINED> instruction: 0xff000000
    f7c4:	000000ff 	strdeq	r0, [r0], -pc	; <UNPREDICTABLE>
	...
    f7d0:	ff000000 			; <UNDEFINED> instruction: 0xff000000
    f7d4:	ff0000ff 			; <UNDEFINED> instruction: 0xff0000ff
    f7d8:	ff0000ff 			; <UNDEFINED> instruction: 0xff0000ff
    f7dc:	000000ff 	strdeq	r0, [r0], -pc	; <UNPREDICTABLE>
    f7e0:	ff000000 			; <UNDEFINED> instruction: 0xff000000
    f7e4:	00ffffff 	ldrshteq	pc, [pc], #255	; <UNPREDICTABLE>
    f7e8:	ff000000 			; <UNDEFINED> instruction: 0xff000000
    f7ec:	000000ff 	strdeq	r0, [r0], -pc	; <UNPREDICTABLE>
    f7f0:	ff000000 			; <UNDEFINED> instruction: 0xff000000
    f7f4:	000000ff 	strdeq	r0, [r0], -pc	; <UNPREDICTABLE>
    f7f8:	ff000000 			; <UNDEFINED> instruction: 0xff000000
    f7fc:	000000ff 	strdeq	r0, [r0], -pc	; <UNPREDICTABLE>
	...
    f808:	ff000000 			; <UNDEFINED> instruction: 0xff000000
    f80c:	000000ff 	strdeq	r0, [r0], -pc	; <UNPREDICTABLE>
    f810:	ff000000 			; <UNDEFINED> instruction: 0xff000000
    f814:	ffffffff 			; <UNDEFINED> instruction: 0xffffffff
    f818:	ffffffff 			; <UNDEFINED> instruction: 0xffffffff
    f81c:	000000ff 	strdeq	r0, [r0], -pc	; <UNPREDICTABLE>
    f820:	ff000000 			; <UNDEFINED> instruction: 0xff000000
    f824:	ffffffff 			; <UNDEFINED> instruction: 0xffffffff
    f828:	00ffffff 	ldrshteq	pc, [pc], #255	; <UNPREDICTABLE>
    f82c:	00000000 	andeq	r0, r0, r0
    f830:	ff000000 			; <UNDEFINED> instruction: 0xff000000
    f834:	000000ff 	strdeq	r0, [r0], -pc	; <UNPREDICTABLE>
	...
    f840:	ff000000 			; <UNDEFINED> instruction: 0xff000000
    f844:	000000ff 	strdeq	r0, [r0], -pc	; <UNPREDICTABLE>
    f848:	ff000000 			; <UNDEFINED> instruction: 0xff000000
    f84c:	000000ff 	strdeq	r0, [r0], -pc	; <UNPREDICTABLE>
    f850:	ff000000 			; <UNDEFINED> instruction: 0xff000000
    f854:	ffffffff 			; <UNDEFINED> instruction: 0xffffffff
    f858:	00ffffff 	ldrshteq	pc, [pc], #255	; <UNPREDICTABLE>
    f85c:	00000000 	andeq	r0, r0, r0
    f860:	ff000000 			; <UNDEFINED> instruction: 0xff000000
    f864:	ffffffff 			; <UNDEFINED> instruction: 0xffffffff
    f868:	00ffffff 	ldrshteq	pc, [pc], #255	; <UNPREDICTABLE>
    f86c:	00000000 	andeq	r0, r0, r0
    f870:	ff000000 			; <UNDEFINED> instruction: 0xff000000
    f874:	000000ff 	strdeq	r0, [r0], -pc	; <UNPREDICTABLE>
    f878:	ffffff00 			; <UNDEFINED> instruction: 0xffffff00
    f87c:	000000ff 	strdeq	r0, [r0], -pc	; <UNPREDICTABLE>
    f880:	ff000000 			; <UNDEFINED> instruction: 0xff000000
    f884:	ffffffff 			; <UNDEFINED> instruction: 0xffffffff
    f888:	ffffffff 			; <UNDEFINED> instruction: 0xffffffff
    f88c:	000000ff 	strdeq	r0, [r0], -pc	; <UNPREDICTABLE>
    f890:	00000000 	andeq	r0, r0, r0
    f894:	ff000000 			; <UNDEFINED> instruction: 0xff000000
    f898:	000000ff 	strdeq	r0, [r0], -pc	; <UNPREDICTABLE>
	...
    f8a8:	00ffff00 	rscseq	pc, pc, r0, lsl #30
    f8ac:	00000000 	andeq	r0, r0, r0
    f8b0:	ff000000 			; <UNDEFINED> instruction: 0xff000000
    f8b4:	ffffffff 			; <UNDEFINED> instruction: 0xffffffff
    f8b8:	000000ff 	strdeq	r0, [r0], -pc	; <UNPREDICTABLE>
    f8bc:	00000000 	andeq	r0, r0, r0
    f8c0:	ff000000 			; <UNDEFINED> instruction: 0xff000000
    f8c4:	000000ff 	strdeq	r0, [r0], -pc	; <UNPREDICTABLE>
	...
    f8d0:	ff000000 			; <UNDEFINED> instruction: 0xff000000
    f8d4:	ff0000ff 			; <UNDEFINED> instruction: 0xff0000ff
    f8d8:	ff0000ff 			; <UNDEFINED> instruction: 0xff0000ff
    f8dc:	000000ff 	strdeq	r0, [r0], -pc	; <UNPREDICTABLE>
    f8e0:	ff000000 			; <UNDEFINED> instruction: 0xff000000
    f8e4:	ff0000ff 			; <UNDEFINED> instruction: 0xff0000ff
    f8e8:	ff0000ff 			; <UNDEFINED> instruction: 0xff0000ff
    f8ec:	000000ff 	strdeq	r0, [r0], -pc	; <UNPREDICTABLE>
    f8f0:	ff000000 			; <UNDEFINED> instruction: 0xff000000
    f8f4:	000000ff 	strdeq	r0, [r0], -pc	; <UNPREDICTABLE>
    f8f8:	ff000000 			; <UNDEFINED> instruction: 0xff000000
    f8fc:	000000ff 	strdeq	r0, [r0], -pc	; <UNPREDICTABLE>
	...
    f908:	ff000000 			; <UNDEFINED> instruction: 0xff000000
    f90c:	000000ff 	strdeq	r0, [r0], -pc	; <UNPREDICTABLE>
    f910:	ff000000 			; <UNDEFINED> instruction: 0xff000000
    f914:	ffffffff 			; <UNDEFINED> instruction: 0xffffffff
    f918:	ffffffff 			; <UNDEFINED> instruction: 0xffffffff
    f91c:	000000ff 	strdeq	r0, [r0], -pc	; <UNPREDICTABLE>
    f920:	ff000000 			; <UNDEFINED> instruction: 0xff000000
    f924:	ffffffff 			; <UNDEFINED> instruction: 0xffffffff
    f928:	00ffffff 	ldrshteq	pc, [pc], #255	; <UNPREDICTABLE>
    f92c:	00000000 	andeq	r0, r0, r0
    f930:	ff000000 			; <UNDEFINED> instruction: 0xff000000
    f934:	000000ff 	strdeq	r0, [r0], -pc	; <UNPREDICTABLE>
	...
    f940:	ff000000 			; <UNDEFINED> instruction: 0xff000000
    f944:	000000ff 	strdeq	r0, [r0], -pc	; <UNPREDICTABLE>
    f948:	ff000000 			; <UNDEFINED> instruction: 0xff000000
    f94c:	000000ff 	strdeq	r0, [r0], -pc	; <UNPREDICTABLE>
    f950:	ff000000 			; <UNDEFINED> instruction: 0xff000000
    f954:	ffffffff 			; <UNDEFINED> instruction: 0xffffffff
    f958:	00ffffff 	ldrshteq	pc, [pc], #255	; <UNPREDICTABLE>
    f95c:	00000000 	andeq	r0, r0, r0
    f960:	ff000000 			; <UNDEFINED> instruction: 0xff000000
    f964:	ffffffff 			; <UNDEFINED> instruction: 0xffffffff
    f968:	00ffffff 	ldrshteq	pc, [pc], #255	; <UNPREDICTABLE>
    f96c:	00000000 	andeq	r0, r0, r0
    f970:	ff000000 			; <UNDEFINED> instruction: 0xff000000
    f974:	000000ff 	strdeq	r0, [r0], -pc	; <UNPREDICTABLE>
    f978:	ffffff00 			; <UNDEFINED> instruction: 0xffffff00
    f97c:	000000ff 	strdeq	r0, [r0], -pc	; <UNPREDICTABLE>
    f980:	ff000000 			; <UNDEFINED> instruction: 0xff000000
    f984:	ffffffff 			; <UNDEFINED> instruction: 0xffffffff
    f988:	ffffffff 			; <UNDEFINED> instruction: 0xffffffff
    f98c:	000000ff 	strdeq	r0, [r0], -pc	; <UNPREDICTABLE>
    f990:	00000000 	andeq	r0, r0, r0
    f994:	ff000000 			; <UNDEFINED> instruction: 0xff000000
    f998:	000000ff 	strdeq	r0, [r0], -pc	; <UNPREDICTABLE>
	...
    f9a8:	00ffff00 	rscseq	pc, pc, r0, lsl #30
    f9ac:	00000000 	andeq	r0, r0, r0
    f9b0:	ff000000 			; <UNDEFINED> instruction: 0xff000000
    f9b4:	ffffffff 			; <UNDEFINED> instruction: 0xffffffff
    f9b8:	000000ff 	strdeq	r0, [r0], -pc	; <UNPREDICTABLE>
    f9bc:	00000000 	andeq	r0, r0, r0
    f9c0:	ff000000 			; <UNDEFINED> instruction: 0xff000000
    f9c4:	000000ff 	strdeq	r0, [r0], -pc	; <UNPREDICTABLE>
	...
    f9d0:	ff000000 			; <UNDEFINED> instruction: 0xff000000
    f9d4:	ff0000ff 			; <UNDEFINED> instruction: 0xff0000ff
    f9d8:	ff0000ff 			; <UNDEFINED> instruction: 0xff0000ff
    f9dc:	000000ff 	strdeq	r0, [r0], -pc	; <UNPREDICTABLE>
    f9e0:	ff000000 			; <UNDEFINED> instruction: 0xff000000
    f9e4:	ff0000ff 			; <UNDEFINED> instruction: 0xff0000ff
    f9e8:	ff0000ff 			; <UNDEFINED> instruction: 0xff0000ff
    f9ec:	000000ff 	strdeq	r0, [r0], -pc	; <UNPREDICTABLE>
    f9f0:	ff000000 			; <UNDEFINED> instruction: 0xff000000
    f9f4:	000000ff 	strdeq	r0, [r0], -pc	; <UNPREDICTABLE>
    f9f8:	ff000000 			; <UNDEFINED> instruction: 0xff000000
    f9fc:	000000ff 	strdeq	r0, [r0], -pc	; <UNPREDICTABLE>
    fa00:	ff000000 			; <UNDEFINED> instruction: 0xff000000
    fa04:	ffffffff 			; <UNDEFINED> instruction: 0xffffffff
    fa08:	ff0000ff 			; <UNDEFINED> instruction: 0xff0000ff
    fa0c:	000000ff 	strdeq	r0, [r0], -pc	; <UNPREDICTABLE>
    fa10:	ff000000 			; <UNDEFINED> instruction: 0xff000000
    fa14:	000000ff 	strdeq	r0, [r0], -pc	; <UNPREDICTABLE>
    fa18:	ff000000 			; <UNDEFINED> instruction: 0xff000000
    fa1c:	000000ff 	strdeq	r0, [r0], -pc	; <UNPREDICTABLE>
    fa20:	ff000000 			; <UNDEFINED> instruction: 0xff000000
    fa24:	000000ff 	strdeq	r0, [r0], -pc	; <UNPREDICTABLE>
    fa28:	ff000000 			; <UNDEFINED> instruction: 0xff000000
    fa2c:	000000ff 	strdeq	r0, [r0], -pc	; <UNPREDICTABLE>
    fa30:	ff000000 			; <UNDEFINED> instruction: 0xff000000
    fa34:	000000ff 	strdeq	r0, [r0], -pc	; <UNPREDICTABLE>
	...
    fa40:	ff000000 			; <UNDEFINED> instruction: 0xff000000
    fa44:	000000ff 	strdeq	r0, [r0], -pc	; <UNPREDICTABLE>
    fa48:	ff000000 			; <UNDEFINED> instruction: 0xff000000
    fa4c:	000000ff 	strdeq	r0, [r0], -pc	; <UNPREDICTABLE>
    fa50:	ff000000 			; <UNDEFINED> instruction: 0xff000000
    fa54:	000000ff 	strdeq	r0, [r0], -pc	; <UNPREDICTABLE>
	...
    fa60:	ff000000 			; <UNDEFINED> instruction: 0xff000000
    fa64:	000000ff 	strdeq	r0, [r0], -pc	; <UNPREDICTABLE>
	...
    fa70:	ff000000 			; <UNDEFINED> instruction: 0xff000000
    fa74:	000000ff 	strdeq	r0, [r0], -pc	; <UNPREDICTABLE>
    fa78:	ff000000 			; <UNDEFINED> instruction: 0xff000000
    fa7c:	000000ff 	strdeq	r0, [r0], -pc	; <UNPREDICTABLE>
    fa80:	ff000000 			; <UNDEFINED> instruction: 0xff000000
    fa84:	000000ff 	strdeq	r0, [r0], -pc	; <UNPREDICTABLE>
    fa88:	ff000000 			; <UNDEFINED> instruction: 0xff000000
    fa8c:	000000ff 	strdeq	r0, [r0], -pc	; <UNPREDICTABLE>
    fa90:	00000000 	andeq	r0, r0, r0
    fa94:	ff000000 			; <UNDEFINED> instruction: 0xff000000
    fa98:	000000ff 	strdeq	r0, [r0], -pc	; <UNPREDICTABLE>
    fa9c:	00000000 	andeq	r0, r0, r0
    faa0:	ff000000 			; <UNDEFINED> instruction: 0xff000000
    faa4:	000000ff 	strdeq	r0, [r0], -pc	; <UNPREDICTABLE>
    faa8:	00ffff00 	rscseq	pc, pc, r0, lsl #30
    faac:	00000000 	andeq	r0, r0, r0
    fab0:	ff000000 			; <UNDEFINED> instruction: 0xff000000
    fab4:	000000ff 	strdeq	r0, [r0], -pc	; <UNPREDICTABLE>
    fab8:	00ffff00 	rscseq	pc, pc, r0, lsl #30
    fabc:	00000000 	andeq	r0, r0, r0
    fac0:	ff000000 			; <UNDEFINED> instruction: 0xff000000
    fac4:	000000ff 	strdeq	r0, [r0], -pc	; <UNPREDICTABLE>
	...
    fad0:	ff000000 			; <UNDEFINED> instruction: 0xff000000
    fad4:	ff0000ff 			; <UNDEFINED> instruction: 0xff0000ff
    fad8:	ff0000ff 			; <UNDEFINED> instruction: 0xff0000ff
    fadc:	000000ff 	strdeq	r0, [r0], -pc	; <UNPREDICTABLE>
    fae0:	ff000000 			; <UNDEFINED> instruction: 0xff000000
    fae4:	000000ff 	strdeq	r0, [r0], -pc	; <UNPREDICTABLE>
    fae8:	ffffff00 			; <UNDEFINED> instruction: 0xffffff00
    faec:	000000ff 	strdeq	r0, [r0], -pc	; <UNPREDICTABLE>
    faf0:	ff000000 			; <UNDEFINED> instruction: 0xff000000
    faf4:	000000ff 	strdeq	r0, [r0], -pc	; <UNPREDICTABLE>
    faf8:	ff000000 			; <UNDEFINED> instruction: 0xff000000
    fafc:	000000ff 	strdeq	r0, [r0], -pc	; <UNPREDICTABLE>
    fb00:	ff000000 			; <UNDEFINED> instruction: 0xff000000
    fb04:	ffffffff 			; <UNDEFINED> instruction: 0xffffffff
    fb08:	ff0000ff 			; <UNDEFINED> instruction: 0xff0000ff
    fb0c:	000000ff 	strdeq	r0, [r0], -pc	; <UNPREDICTABLE>
    fb10:	ff000000 			; <UNDEFINED> instruction: 0xff000000
    fb14:	000000ff 	strdeq	r0, [r0], -pc	; <UNPREDICTABLE>
    fb18:	ff000000 			; <UNDEFINED> instruction: 0xff000000
    fb1c:	000000ff 	strdeq	r0, [r0], -pc	; <UNPREDICTABLE>
    fb20:	ff000000 			; <UNDEFINED> instruction: 0xff000000
    fb24:	000000ff 	strdeq	r0, [r0], -pc	; <UNPREDICTABLE>
    fb28:	ff000000 			; <UNDEFINED> instruction: 0xff000000
    fb2c:	000000ff 	strdeq	r0, [r0], -pc	; <UNPREDICTABLE>
    fb30:	ff000000 			; <UNDEFINED> instruction: 0xff000000
    fb34:	000000ff 	strdeq	r0, [r0], -pc	; <UNPREDICTABLE>
	...
    fb40:	ff000000 			; <UNDEFINED> instruction: 0xff000000
    fb44:	000000ff 	strdeq	r0, [r0], -pc	; <UNPREDICTABLE>
    fb48:	ff000000 			; <UNDEFINED> instruction: 0xff000000
    fb4c:	000000ff 	strdeq	r0, [r0], -pc	; <UNPREDICTABLE>
    fb50:	ff000000 			; <UNDEFINED> instruction: 0xff000000
    fb54:	000000ff 	strdeq	r0, [r0], -pc	; <UNPREDICTABLE>
	...
    fb60:	ff000000 			; <UNDEFINED> instruction: 0xff000000
    fb64:	000000ff 	strdeq	r0, [r0], -pc	; <UNPREDICTABLE>
	...
    fb70:	ff000000 			; <UNDEFINED> instruction: 0xff000000
    fb74:	000000ff 	strdeq	r0, [r0], -pc	; <UNPREDICTABLE>
    fb78:	ff000000 			; <UNDEFINED> instruction: 0xff000000
    fb7c:	000000ff 	strdeq	r0, [r0], -pc	; <UNPREDICTABLE>
    fb80:	ff000000 			; <UNDEFINED> instruction: 0xff000000
    fb84:	000000ff 	strdeq	r0, [r0], -pc	; <UNPREDICTABLE>
    fb88:	ff000000 			; <UNDEFINED> instruction: 0xff000000
    fb8c:	000000ff 	strdeq	r0, [r0], -pc	; <UNPREDICTABLE>
    fb90:	00000000 	andeq	r0, r0, r0
    fb94:	ff000000 			; <UNDEFINED> instruction: 0xff000000
    fb98:	000000ff 	strdeq	r0, [r0], -pc	; <UNPREDICTABLE>
    fb9c:	00000000 	andeq	r0, r0, r0
    fba0:	ff000000 			; <UNDEFINED> instruction: 0xff000000
    fba4:	000000ff 	strdeq	r0, [r0], -pc	; <UNPREDICTABLE>
    fba8:	00ffff00 	rscseq	pc, pc, r0, lsl #30
    fbac:	00000000 	andeq	r0, r0, r0
    fbb0:	ff000000 			; <UNDEFINED> instruction: 0xff000000
    fbb4:	000000ff 	strdeq	r0, [r0], -pc	; <UNPREDICTABLE>
    fbb8:	00ffff00 	rscseq	pc, pc, r0, lsl #30
    fbbc:	00000000 	andeq	r0, r0, r0
    fbc0:	ff000000 			; <UNDEFINED> instruction: 0xff000000
    fbc4:	000000ff 	strdeq	r0, [r0], -pc	; <UNPREDICTABLE>
	...
    fbd0:	ff000000 			; <UNDEFINED> instruction: 0xff000000
    fbd4:	ff0000ff 			; <UNDEFINED> instruction: 0xff0000ff
    fbd8:	ff0000ff 			; <UNDEFINED> instruction: 0xff0000ff
    fbdc:	000000ff 	strdeq	r0, [r0], -pc	; <UNPREDICTABLE>
    fbe0:	ff000000 			; <UNDEFINED> instruction: 0xff000000
    fbe4:	000000ff 	strdeq	r0, [r0], -pc	; <UNPREDICTABLE>
    fbe8:	ffffff00 			; <UNDEFINED> instruction: 0xffffff00
    fbec:	000000ff 	strdeq	r0, [r0], -pc	; <UNPREDICTABLE>
    fbf0:	ff000000 			; <UNDEFINED> instruction: 0xff000000
    fbf4:	000000ff 	strdeq	r0, [r0], -pc	; <UNPREDICTABLE>
    fbf8:	ff000000 			; <UNDEFINED> instruction: 0xff000000
    fbfc:	000000ff 	strdeq	r0, [r0], -pc	; <UNPREDICTABLE>
    fc00:	ff000000 			; <UNDEFINED> instruction: 0xff000000
    fc04:	ff0000ff 			; <UNDEFINED> instruction: 0xff0000ff
    fc08:	ff0000ff 			; <UNDEFINED> instruction: 0xff0000ff
    fc0c:	000000ff 	strdeq	r0, [r0], -pc	; <UNPREDICTABLE>
    fc10:	ff000000 			; <UNDEFINED> instruction: 0xff000000
    fc14:	000000ff 	strdeq	r0, [r0], -pc	; <UNPREDICTABLE>
    fc18:	ff000000 			; <UNDEFINED> instruction: 0xff000000
    fc1c:	000000ff 	strdeq	r0, [r0], -pc	; <UNPREDICTABLE>
    fc20:	ff000000 			; <UNDEFINED> instruction: 0xff000000
    fc24:	000000ff 	strdeq	r0, [r0], -pc	; <UNPREDICTABLE>
    fc28:	ff000000 			; <UNDEFINED> instruction: 0xff000000
    fc2c:	000000ff 	strdeq	r0, [r0], -pc	; <UNPREDICTABLE>
    fc30:	ff000000 			; <UNDEFINED> instruction: 0xff000000
    fc34:	000000ff 	strdeq	r0, [r0], -pc	; <UNPREDICTABLE>
    fc38:	ff000000 			; <UNDEFINED> instruction: 0xff000000
    fc3c:	000000ff 	strdeq	r0, [r0], -pc	; <UNPREDICTABLE>
    fc40:	ff000000 			; <UNDEFINED> instruction: 0xff000000
    fc44:	000000ff 	strdeq	r0, [r0], -pc	; <UNPREDICTABLE>
    fc48:	ff000000 			; <UNDEFINED> instruction: 0xff000000
    fc4c:	000000ff 	strdeq	r0, [r0], -pc	; <UNPREDICTABLE>
    fc50:	ff000000 			; <UNDEFINED> instruction: 0xff000000
    fc54:	000000ff 	strdeq	r0, [r0], -pc	; <UNPREDICTABLE>
	...
    fc60:	ff000000 			; <UNDEFINED> instruction: 0xff000000
    fc64:	000000ff 	strdeq	r0, [r0], -pc	; <UNPREDICTABLE>
	...
    fc70:	ff000000 			; <UNDEFINED> instruction: 0xff000000
    fc74:	000000ff 	strdeq	r0, [r0], -pc	; <UNPREDICTABLE>
    fc78:	ff000000 			; <UNDEFINED> instruction: 0xff000000
    fc7c:	000000ff 	strdeq	r0, [r0], -pc	; <UNPREDICTABLE>
    fc80:	ff000000 			; <UNDEFINED> instruction: 0xff000000
    fc84:	000000ff 	strdeq	r0, [r0], -pc	; <UNPREDICTABLE>
    fc88:	ff000000 			; <UNDEFINED> instruction: 0xff000000
    fc8c:	000000ff 	strdeq	r0, [r0], -pc	; <UNPREDICTABLE>
    fc90:	00000000 	andeq	r0, r0, r0
    fc94:	ff000000 			; <UNDEFINED> instruction: 0xff000000
    fc98:	000000ff 	strdeq	r0, [r0], -pc	; <UNPREDICTABLE>
    fc9c:	00000000 	andeq	r0, r0, r0
    fca0:	ff000000 			; <UNDEFINED> instruction: 0xff000000
    fca4:	000000ff 	strdeq	r0, [r0], -pc	; <UNPREDICTABLE>
    fca8:	00ffff00 	rscseq	pc, pc, r0, lsl #30
    fcac:	00000000 	andeq	r0, r0, r0
    fcb0:	ff000000 			; <UNDEFINED> instruction: 0xff000000
    fcb4:	000000ff 	strdeq	r0, [r0], -pc	; <UNPREDICTABLE>
    fcb8:	00ffff00 	rscseq	pc, pc, r0, lsl #30
    fcbc:	00000000 	andeq	r0, r0, r0
    fcc0:	ff000000 			; <UNDEFINED> instruction: 0xff000000
    fcc4:	000000ff 	strdeq	r0, [r0], -pc	; <UNPREDICTABLE>
	...
    fcd0:	ff000000 			; <UNDEFINED> instruction: 0xff000000
    fcd4:	ff0000ff 			; <UNDEFINED> instruction: 0xff0000ff
    fcd8:	ff0000ff 			; <UNDEFINED> instruction: 0xff0000ff
    fcdc:	000000ff 	strdeq	r0, [r0], -pc	; <UNPREDICTABLE>
    fce0:	ff000000 			; <UNDEFINED> instruction: 0xff000000
    fce4:	000000ff 	strdeq	r0, [r0], -pc	; <UNPREDICTABLE>
    fce8:	ffffff00 			; <UNDEFINED> instruction: 0xffffff00
    fcec:	000000ff 	strdeq	r0, [r0], -pc	; <UNPREDICTABLE>
    fcf0:	ff000000 			; <UNDEFINED> instruction: 0xff000000
    fcf4:	000000ff 	strdeq	r0, [r0], -pc	; <UNPREDICTABLE>
    fcf8:	ff000000 			; <UNDEFINED> instruction: 0xff000000
    fcfc:	000000ff 	strdeq	r0, [r0], -pc	; <UNPREDICTABLE>
    fd00:	ff000000 			; <UNDEFINED> instruction: 0xff000000
    fd04:	ff0000ff 			; <UNDEFINED> instruction: 0xff0000ff
    fd08:	ff0000ff 			; <UNDEFINED> instruction: 0xff0000ff
    fd0c:	000000ff 	strdeq	r0, [r0], -pc	; <UNPREDICTABLE>
    fd10:	ff000000 			; <UNDEFINED> instruction: 0xff000000
    fd14:	000000ff 	strdeq	r0, [r0], -pc	; <UNPREDICTABLE>
    fd18:	ff000000 			; <UNDEFINED> instruction: 0xff000000
    fd1c:	000000ff 	strdeq	r0, [r0], -pc	; <UNPREDICTABLE>
    fd20:	ff000000 			; <UNDEFINED> instruction: 0xff000000
    fd24:	000000ff 	strdeq	r0, [r0], -pc	; <UNPREDICTABLE>
    fd28:	ff000000 			; <UNDEFINED> instruction: 0xff000000
    fd2c:	000000ff 	strdeq	r0, [r0], -pc	; <UNPREDICTABLE>
    fd30:	ff000000 			; <UNDEFINED> instruction: 0xff000000
    fd34:	000000ff 	strdeq	r0, [r0], -pc	; <UNPREDICTABLE>
    fd38:	ff000000 			; <UNDEFINED> instruction: 0xff000000
    fd3c:	000000ff 	strdeq	r0, [r0], -pc	; <UNPREDICTABLE>
    fd40:	ff000000 			; <UNDEFINED> instruction: 0xff000000
    fd44:	000000ff 	strdeq	r0, [r0], -pc	; <UNPREDICTABLE>
    fd48:	ff000000 			; <UNDEFINED> instruction: 0xff000000
    fd4c:	000000ff 	strdeq	r0, [r0], -pc	; <UNPREDICTABLE>
    fd50:	ff000000 			; <UNDEFINED> instruction: 0xff000000
    fd54:	000000ff 	strdeq	r0, [r0], -pc	; <UNPREDICTABLE>
	...
    fd60:	ff000000 			; <UNDEFINED> instruction: 0xff000000
    fd64:	000000ff 	strdeq	r0, [r0], -pc	; <UNPREDICTABLE>
	...
    fd70:	ff000000 			; <UNDEFINED> instruction: 0xff000000
    fd74:	000000ff 	strdeq	r0, [r0], -pc	; <UNPREDICTABLE>
    fd78:	ff000000 			; <UNDEFINED> instruction: 0xff000000
    fd7c:	000000ff 	strdeq	r0, [r0], -pc	; <UNPREDICTABLE>
    fd80:	ff000000 			; <UNDEFINED> instruction: 0xff000000
    fd84:	000000ff 	strdeq	r0, [r0], -pc	; <UNPREDICTABLE>
    fd88:	ff000000 			; <UNDEFINED> instruction: 0xff000000
    fd8c:	000000ff 	strdeq	r0, [r0], -pc	; <UNPREDICTABLE>
    fd90:	00000000 	andeq	r0, r0, r0
    fd94:	ff000000 			; <UNDEFINED> instruction: 0xff000000
    fd98:	000000ff 	strdeq	r0, [r0], -pc	; <UNPREDICTABLE>
    fd9c:	00000000 	andeq	r0, r0, r0
    fda0:	ff000000 			; <UNDEFINED> instruction: 0xff000000
    fda4:	000000ff 	strdeq	r0, [r0], -pc	; <UNPREDICTABLE>
    fda8:	00ffff00 	rscseq	pc, pc, r0, lsl #30
    fdac:	00000000 	andeq	r0, r0, r0
    fdb0:	ff000000 			; <UNDEFINED> instruction: 0xff000000
    fdb4:	000000ff 	strdeq	r0, [r0], -pc	; <UNPREDICTABLE>
    fdb8:	00ffff00 	rscseq	pc, pc, r0, lsl #30
    fdbc:	00000000 	andeq	r0, r0, r0
    fdc0:	ff000000 			; <UNDEFINED> instruction: 0xff000000
    fdc4:	000000ff 	strdeq	r0, [r0], -pc	; <UNPREDICTABLE>
	...
    fdd0:	ff000000 			; <UNDEFINED> instruction: 0xff000000
    fdd4:	ff0000ff 			; <UNDEFINED> instruction: 0xff0000ff
    fdd8:	ff0000ff 			; <UNDEFINED> instruction: 0xff0000ff
    fddc:	000000ff 	strdeq	r0, [r0], -pc	; <UNPREDICTABLE>
    fde0:	ff000000 			; <UNDEFINED> instruction: 0xff000000
    fde4:	000000ff 	strdeq	r0, [r0], -pc	; <UNPREDICTABLE>
    fde8:	ffffff00 			; <UNDEFINED> instruction: 0xffffff00
    fdec:	000000ff 	strdeq	r0, [r0], -pc	; <UNPREDICTABLE>
    fdf0:	ff000000 			; <UNDEFINED> instruction: 0xff000000
    fdf4:	000000ff 	strdeq	r0, [r0], -pc	; <UNPREDICTABLE>
    fdf8:	ff000000 			; <UNDEFINED> instruction: 0xff000000
    fdfc:	000000ff 	strdeq	r0, [r0], -pc	; <UNPREDICTABLE>
    fe00:	ff000000 			; <UNDEFINED> instruction: 0xff000000
    fe04:	ffffffff 			; <UNDEFINED> instruction: 0xffffffff
    fe08:	ffffffff 			; <UNDEFINED> instruction: 0xffffffff
    fe0c:	000000ff 	strdeq	r0, [r0], -pc	; <UNPREDICTABLE>
    fe10:	ff000000 			; <UNDEFINED> instruction: 0xff000000
    fe14:	000000ff 	strdeq	r0, [r0], -pc	; <UNPREDICTABLE>
    fe18:	ff000000 			; <UNDEFINED> instruction: 0xff000000
    fe1c:	000000ff 	strdeq	r0, [r0], -pc	; <UNPREDICTABLE>
    fe20:	ff000000 			; <UNDEFINED> instruction: 0xff000000
    fe24:	ffffffff 			; <UNDEFINED> instruction: 0xffffffff
    fe28:	00ffffff 	ldrshteq	pc, [pc], #255	; <UNPREDICTABLE>
	...
    fe34:	ffffff00 			; <UNDEFINED> instruction: 0xffffff00
    fe38:	00ffffff 	ldrshteq	pc, [pc], #255	; <UNPREDICTABLE>
    fe3c:	00000000 	andeq	r0, r0, r0
    fe40:	ff000000 			; <UNDEFINED> instruction: 0xff000000
    fe44:	ffffffff 			; <UNDEFINED> instruction: 0xffffffff
    fe48:	00ffffff 	ldrshteq	pc, [pc], #255	; <UNPREDICTABLE>
    fe4c:	00000000 	andeq	r0, r0, r0
    fe50:	ff000000 			; <UNDEFINED> instruction: 0xff000000
    fe54:	ffffffff 			; <UNDEFINED> instruction: 0xffffffff
    fe58:	ffffffff 			; <UNDEFINED> instruction: 0xffffffff
    fe5c:	000000ff 	strdeq	r0, [r0], -pc	; <UNPREDICTABLE>
    fe60:	ff000000 			; <UNDEFINED> instruction: 0xff000000
    fe64:	000000ff 	strdeq	r0, [r0], -pc	; <UNPREDICTABLE>
	...
    fe70:	ff000000 			; <UNDEFINED> instruction: 0xff000000
    fe74:	ffffffff 			; <UNDEFINED> instruction: 0xffffffff
    fe78:	ffffffff 			; <UNDEFINED> instruction: 0xffffffff
    fe7c:	000000ff 	strdeq	r0, [r0], -pc	; <UNPREDICTABLE>
    fe80:	ff000000 			; <UNDEFINED> instruction: 0xff000000
    fe84:	000000ff 	strdeq	r0, [r0], -pc	; <UNPREDICTABLE>
    fe88:	ff000000 			; <UNDEFINED> instruction: 0xff000000
    fe8c:	000000ff 	strdeq	r0, [r0], -pc	; <UNPREDICTABLE>
    fe90:	ff000000 			; <UNDEFINED> instruction: 0xff000000
    fe94:	ffffffff 			; <UNDEFINED> instruction: 0xffffffff
    fe98:	00ffffff 	ldrshteq	pc, [pc], #255	; <UNPREDICTABLE>
    fe9c:	00000000 	andeq	r0, r0, r0
    fea0:	ff000000 			; <UNDEFINED> instruction: 0xff000000
    fea4:	ffffffff 			; <UNDEFINED> instruction: 0xffffffff
    fea8:	00ffffff 	ldrshteq	pc, [pc], #255	; <UNPREDICTABLE>
    feac:	00000000 	andeq	r0, r0, r0
    feb0:	ff000000 			; <UNDEFINED> instruction: 0xff000000
    feb4:	000000ff 	strdeq	r0, [r0], -pc	; <UNPREDICTABLE>
    feb8:	ff000000 			; <UNDEFINED> instruction: 0xff000000
    febc:	000000ff 	strdeq	r0, [r0], -pc	; <UNPREDICTABLE>
    fec0:	ff000000 			; <UNDEFINED> instruction: 0xff000000
    fec4:	ffffffff 			; <UNDEFINED> instruction: 0xffffffff
    fec8:	ffffffff 			; <UNDEFINED> instruction: 0xffffffff
    fecc:	000000ff 	strdeq	r0, [r0], -pc	; <UNPREDICTABLE>
    fed0:	ff000000 			; <UNDEFINED> instruction: 0xff000000
    fed4:	ff0000ff 			; <UNDEFINED> instruction: 0xff0000ff
    fed8:	ff0000ff 			; <UNDEFINED> instruction: 0xff0000ff
    fedc:	000000ff 	strdeq	r0, [r0], -pc	; <UNPREDICTABLE>
    fee0:	ff000000 			; <UNDEFINED> instruction: 0xff000000
    fee4:	000000ff 	strdeq	r0, [r0], -pc	; <UNPREDICTABLE>
    fee8:	ff000000 			; <UNDEFINED> instruction: 0xff000000
    feec:	000000ff 	strdeq	r0, [r0], -pc	; <UNPREDICTABLE>
    fef0:	00000000 	andeq	r0, r0, r0
    fef4:	ffffff00 			; <UNDEFINED> instruction: 0xffffff00
    fef8:	00ffffff 	ldrshteq	pc, [pc], #255	; <UNPREDICTABLE>
    fefc:	00000000 	andeq	r0, r0, r0
    ff00:	ff000000 			; <UNDEFINED> instruction: 0xff000000
    ff04:	ffffffff 			; <UNDEFINED> instruction: 0xffffffff
    ff08:	ffffffff 			; <UNDEFINED> instruction: 0xffffffff
    ff0c:	000000ff 	strdeq	r0, [r0], -pc	; <UNPREDICTABLE>
    ff10:	ff000000 			; <UNDEFINED> instruction: 0xff000000
    ff14:	000000ff 	strdeq	r0, [r0], -pc	; <UNPREDICTABLE>
    ff18:	ff000000 			; <UNDEFINED> instruction: 0xff000000
    ff1c:	000000ff 	strdeq	r0, [r0], -pc	; <UNPREDICTABLE>
    ff20:	ff000000 			; <UNDEFINED> instruction: 0xff000000
    ff24:	ffffffff 			; <UNDEFINED> instruction: 0xffffffff
    ff28:	00ffffff 	ldrshteq	pc, [pc], #255	; <UNPREDICTABLE>
	...
    ff34:	ffffff00 			; <UNDEFINED> instruction: 0xffffff00
    ff38:	00ffffff 	ldrshteq	pc, [pc], #255	; <UNPREDICTABLE>
    ff3c:	00000000 	andeq	r0, r0, r0
    ff40:	ff000000 			; <UNDEFINED> instruction: 0xff000000
    ff44:	ffffffff 			; <UNDEFINED> instruction: 0xffffffff
    ff48:	00ffffff 	ldrshteq	pc, [pc], #255	; <UNPREDICTABLE>
    ff4c:	00000000 	andeq	r0, r0, r0
    ff50:	ff000000 			; <UNDEFINED> instruction: 0xff000000
    ff54:	ffffffff 			; <UNDEFINED> instruction: 0xffffffff
    ff58:	ffffffff 			; <UNDEFINED> instruction: 0xffffffff
    ff5c:	000000ff 	strdeq	r0, [r0], -pc	; <UNPREDICTABLE>
    ff60:	ff000000 			; <UNDEFINED> instruction: 0xff000000
    ff64:	000000ff 	strdeq	r0, [r0], -pc	; <UNPREDICTABLE>
	...
    ff70:	ff000000 			; <UNDEFINED> instruction: 0xff000000
    ff74:	ffffffff 			; <UNDEFINED> instruction: 0xffffffff
    ff78:	ffffffff 			; <UNDEFINED> instruction: 0xffffffff
    ff7c:	000000ff 	strdeq	r0, [r0], -pc	; <UNPREDICTABLE>
    ff80:	ff000000 			; <UNDEFINED> instruction: 0xff000000
    ff84:	000000ff 	strdeq	r0, [r0], -pc	; <UNPREDICTABLE>
    ff88:	ff000000 			; <UNDEFINED> instruction: 0xff000000
    ff8c:	000000ff 	strdeq	r0, [r0], -pc	; <UNPREDICTABLE>
    ff90:	ff000000 			; <UNDEFINED> instruction: 0xff000000
    ff94:	ffffffff 			; <UNDEFINED> instruction: 0xffffffff
    ff98:	00ffffff 	ldrshteq	pc, [pc], #255	; <UNPREDICTABLE>
    ff9c:	00000000 	andeq	r0, r0, r0
    ffa0:	ff000000 			; <UNDEFINED> instruction: 0xff000000
    ffa4:	ffffffff 			; <UNDEFINED> instruction: 0xffffffff
    ffa8:	00ffffff 	ldrshteq	pc, [pc], #255	; <UNPREDICTABLE>
    ffac:	00000000 	andeq	r0, r0, r0
    ffb0:	ff000000 			; <UNDEFINED> instruction: 0xff000000
    ffb4:	000000ff 	strdeq	r0, [r0], -pc	; <UNPREDICTABLE>
    ffb8:	ff000000 			; <UNDEFINED> instruction: 0xff000000
    ffbc:	000000ff 	strdeq	r0, [r0], -pc	; <UNPREDICTABLE>
    ffc0:	ff000000 			; <UNDEFINED> instruction: 0xff000000
    ffc4:	ffffffff 			; <UNDEFINED> instruction: 0xffffffff
    ffc8:	ffffffff 			; <UNDEFINED> instruction: 0xffffffff
    ffcc:	000000ff 	strdeq	r0, [r0], -pc	; <UNPREDICTABLE>
    ffd0:	ff000000 			; <UNDEFINED> instruction: 0xff000000
    ffd4:	ff0000ff 			; <UNDEFINED> instruction: 0xff0000ff
    ffd8:	ff0000ff 			; <UNDEFINED> instruction: 0xff0000ff
    ffdc:	000000ff 	strdeq	r0, [r0], -pc	; <UNPREDICTABLE>
    ffe0:	ff000000 			; <UNDEFINED> instruction: 0xff000000
    ffe4:	000000ff 	strdeq	r0, [r0], -pc	; <UNPREDICTABLE>
    ffe8:	ff000000 			; <UNDEFINED> instruction: 0xff000000
    ffec:	000000ff 	strdeq	r0, [r0], -pc	; <UNPREDICTABLE>
    fff0:	00000000 	andeq	r0, r0, r0
    fff4:	ffffff00 			; <UNDEFINED> instruction: 0xffffff00
    fff8:	00ffffff 	ldrshteq	pc, [pc], #255	; <UNPREDICTABLE>
	...
   100b0:	ff000000 			; <UNDEFINED> instruction: 0xff000000
   100b4:	ffffffff 			; <UNDEFINED> instruction: 0xffffffff
   100b8:	00ffffff 	ldrshteq	pc, [pc], #255	; <UNPREDICTABLE>
   100bc:	00000000 	andeq	r0, r0, r0
   100c0:	ff000000 			; <UNDEFINED> instruction: 0xff000000
   100c4:	000000ff 	strdeq	r0, [r0], -pc	; <UNPREDICTABLE>
   100c8:	ff000000 			; <UNDEFINED> instruction: 0xff000000
   100cc:	000000ff 	strdeq	r0, [r0], -pc	; <UNPREDICTABLE>
   100d0:	00000000 	andeq	r0, r0, r0
   100d4:	ffffff00 			; <UNDEFINED> instruction: 0xffffff00
   100d8:	ffffffff 			; <UNDEFINED> instruction: 0xffffffff
   100dc:	000000ff 	strdeq	r0, [r0], -pc	; <UNPREDICTABLE>
   100e0:	00000000 	andeq	r0, r0, r0
   100e4:	ff000000 			; <UNDEFINED> instruction: 0xff000000
   100e8:	000000ff 	strdeq	r0, [r0], -pc	; <UNPREDICTABLE>
	...
   101b0:	ff000000 			; <UNDEFINED> instruction: 0xff000000
   101b4:	ffffffff 			; <UNDEFINED> instruction: 0xffffffff
   101b8:	00ffffff 	ldrshteq	pc, [pc], #255	; <UNPREDICTABLE>
   101bc:	00000000 	andeq	r0, r0, r0
   101c0:	ff000000 			; <UNDEFINED> instruction: 0xff000000
   101c4:	000000ff 	strdeq	r0, [r0], -pc	; <UNPREDICTABLE>
   101c8:	ff000000 			; <UNDEFINED> instruction: 0xff000000
   101cc:	000000ff 	strdeq	r0, [r0], -pc	; <UNPREDICTABLE>
   101d0:	00000000 	andeq	r0, r0, r0
   101d4:	ffffff00 			; <UNDEFINED> instruction: 0xffffff00
   101d8:	ffffffff 			; <UNDEFINED> instruction: 0xffffffff
   101dc:	000000ff 	strdeq	r0, [r0], -pc	; <UNPREDICTABLE>
   101e0:	00000000 	andeq	r0, r0, r0
   101e4:	ff000000 			; <UNDEFINED> instruction: 0xff000000
   101e8:	000000ff 	strdeq	r0, [r0], -pc	; <UNPREDICTABLE>
	...
   10200:	ff000000 			; <UNDEFINED> instruction: 0xff000000
   10204:	ffffffff 			; <UNDEFINED> instruction: 0xffffffff
   10208:	00ffffff 	ldrshteq	pc, [pc], #255	; <UNPREDICTABLE>
	...
   10214:	ffffff00 			; <UNDEFINED> instruction: 0xffffff00
   10218:	00ffffff 	ldrshteq	pc, [pc], #255	; <UNPREDICTABLE>
   1021c:	00000000 	andeq	r0, r0, r0
   10220:	ff000000 			; <UNDEFINED> instruction: 0xff000000
   10224:	ffffffff 			; <UNDEFINED> instruction: 0xffffffff
   10228:	00ffffff 	ldrshteq	pc, [pc], #255	; <UNPREDICTABLE>
	...
   10234:	ffffff00 			; <UNDEFINED> instruction: 0xffffff00
   10238:	ffffffff 			; <UNDEFINED> instruction: 0xffffffff
   1023c:	000000ff 	strdeq	r0, [r0], -pc	; <UNPREDICTABLE>
   10240:	ff000000 			; <UNDEFINED> instruction: 0xff000000
   10244:	ffffffff 			; <UNDEFINED> instruction: 0xffffffff
   10248:	ffffffff 			; <UNDEFINED> instruction: 0xffffffff
   1024c:	000000ff 	strdeq	r0, [r0], -pc	; <UNPREDICTABLE>
   10250:	ff000000 			; <UNDEFINED> instruction: 0xff000000
   10254:	000000ff 	strdeq	r0, [r0], -pc	; <UNPREDICTABLE>
   10258:	ff000000 			; <UNDEFINED> instruction: 0xff000000
   1025c:	000000ff 	strdeq	r0, [r0], -pc	; <UNPREDICTABLE>
   10260:	ff000000 			; <UNDEFINED> instruction: 0xff000000
   10264:	000000ff 	strdeq	r0, [r0], -pc	; <UNPREDICTABLE>
   10268:	ff000000 			; <UNDEFINED> instruction: 0xff000000
   1026c:	000000ff 	strdeq	r0, [r0], -pc	; <UNPREDICTABLE>
   10270:	ff000000 			; <UNDEFINED> instruction: 0xff000000
   10274:	000000ff 	strdeq	r0, [r0], -pc	; <UNPREDICTABLE>
   10278:	ff000000 			; <UNDEFINED> instruction: 0xff000000
   1027c:	000000ff 	strdeq	r0, [r0], -pc	; <UNPREDICTABLE>
   10280:	ff000000 			; <UNDEFINED> instruction: 0xff000000
   10284:	000000ff 	strdeq	r0, [r0], -pc	; <UNPREDICTABLE>
   10288:	ff000000 			; <UNDEFINED> instruction: 0xff000000
   1028c:	000000ff 	strdeq	r0, [r0], -pc	; <UNPREDICTABLE>
   10290:	ff000000 			; <UNDEFINED> instruction: 0xff000000
   10294:	000000ff 	strdeq	r0, [r0], -pc	; <UNPREDICTABLE>
   10298:	ff000000 			; <UNDEFINED> instruction: 0xff000000
   1029c:	000000ff 	strdeq	r0, [r0], -pc	; <UNPREDICTABLE>
   102a0:	ff000000 			; <UNDEFINED> instruction: 0xff000000
   102a4:	ffffffff 			; <UNDEFINED> instruction: 0xffffffff
   102a8:	ffffffff 			; <UNDEFINED> instruction: 0xffffffff
   102ac:	000000ff 	strdeq	r0, [r0], -pc	; <UNPREDICTABLE>
   102b0:	ff000000 			; <UNDEFINED> instruction: 0xff000000
   102b4:	000000ff 	strdeq	r0, [r0], -pc	; <UNPREDICTABLE>
	...
   102c4:	00ffff00 	rscseq	pc, pc, r0, lsl #30
   102c8:	00ffff00 	rscseq	pc, pc, r0, lsl #30
	...
   102d8:	ff000000 			; <UNDEFINED> instruction: 0xff000000
   102dc:	000000ff 	strdeq	r0, [r0], -pc	; <UNPREDICTABLE>
   102e0:	00000000 	andeq	r0, r0, r0
   102e4:	00ffff00 	rscseq	pc, pc, r0, lsl #30
   102e8:	00ffff00 	rscseq	pc, pc, r0, lsl #30
	...
   10300:	ff000000 			; <UNDEFINED> instruction: 0xff000000
   10304:	ffffffff 			; <UNDEFINED> instruction: 0xffffffff
   10308:	00ffffff 	ldrshteq	pc, [pc], #255	; <UNPREDICTABLE>
	...
   10314:	ffffff00 			; <UNDEFINED> instruction: 0xffffff00
   10318:	00ffffff 	ldrshteq	pc, [pc], #255	; <UNPREDICTABLE>
   1031c:	00000000 	andeq	r0, r0, r0
   10320:	ff000000 			; <UNDEFINED> instruction: 0xff000000
   10324:	ffffffff 			; <UNDEFINED> instruction: 0xffffffff
   10328:	00ffffff 	ldrshteq	pc, [pc], #255	; <UNPREDICTABLE>
	...
   10334:	ffffff00 			; <UNDEFINED> instruction: 0xffffff00
   10338:	ffffffff 			; <UNDEFINED> instruction: 0xffffffff
   1033c:	000000ff 	strdeq	r0, [r0], -pc	; <UNPREDICTABLE>
   10340:	ff000000 			; <UNDEFINED> instruction: 0xff000000
   10344:	ffffffff 			; <UNDEFINED> instruction: 0xffffffff
   10348:	ffffffff 			; <UNDEFINED> instruction: 0xffffffff
   1034c:	000000ff 	strdeq	r0, [r0], -pc	; <UNPREDICTABLE>
   10350:	ff000000 			; <UNDEFINED> instruction: 0xff000000
   10354:	000000ff 	strdeq	r0, [r0], -pc	; <UNPREDICTABLE>
   10358:	ff000000 			; <UNDEFINED> instruction: 0xff000000
   1035c:	000000ff 	strdeq	r0, [r0], -pc	; <UNPREDICTABLE>
   10360:	ff000000 			; <UNDEFINED> instruction: 0xff000000
   10364:	000000ff 	strdeq	r0, [r0], -pc	; <UNPREDICTABLE>
   10368:	ff000000 			; <UNDEFINED> instruction: 0xff000000
   1036c:	000000ff 	strdeq	r0, [r0], -pc	; <UNPREDICTABLE>
   10370:	ff000000 			; <UNDEFINED> instruction: 0xff000000
   10374:	000000ff 	strdeq	r0, [r0], -pc	; <UNPREDICTABLE>
   10378:	ff000000 			; <UNDEFINED> instruction: 0xff000000
   1037c:	000000ff 	strdeq	r0, [r0], -pc	; <UNPREDICTABLE>
   10380:	ff000000 			; <UNDEFINED> instruction: 0xff000000
   10384:	000000ff 	strdeq	r0, [r0], -pc	; <UNPREDICTABLE>
   10388:	ff000000 			; <UNDEFINED> instruction: 0xff000000
   1038c:	000000ff 	strdeq	r0, [r0], -pc	; <UNPREDICTABLE>
   10390:	ff000000 			; <UNDEFINED> instruction: 0xff000000
   10394:	000000ff 	strdeq	r0, [r0], -pc	; <UNPREDICTABLE>
   10398:	ff000000 			; <UNDEFINED> instruction: 0xff000000
   1039c:	000000ff 	strdeq	r0, [r0], -pc	; <UNPREDICTABLE>
   103a0:	ff000000 			; <UNDEFINED> instruction: 0xff000000
   103a4:	ffffffff 			; <UNDEFINED> instruction: 0xffffffff
   103a8:	ffffffff 			; <UNDEFINED> instruction: 0xffffffff
   103ac:	000000ff 	strdeq	r0, [r0], -pc	; <UNPREDICTABLE>
   103b0:	ff000000 			; <UNDEFINED> instruction: 0xff000000
   103b4:	000000ff 	strdeq	r0, [r0], -pc	; <UNPREDICTABLE>
	...
   103c4:	00ffff00 	rscseq	pc, pc, r0, lsl #30
   103c8:	00ffff00 	rscseq	pc, pc, r0, lsl #30
	...
   103d8:	ff000000 			; <UNDEFINED> instruction: 0xff000000
   103dc:	000000ff 	strdeq	r0, [r0], -pc	; <UNPREDICTABLE>
   103e0:	00000000 	andeq	r0, r0, r0
   103e4:	00ffff00 	rscseq	pc, pc, r0, lsl #30
   103e8:	00ffff00 	rscseq	pc, pc, r0, lsl #30
	...
   10400:	ff000000 			; <UNDEFINED> instruction: 0xff000000
   10404:	000000ff 	strdeq	r0, [r0], -pc	; <UNPREDICTABLE>
   10408:	ff000000 			; <UNDEFINED> instruction: 0xff000000
   1040c:	000000ff 	strdeq	r0, [r0], -pc	; <UNPREDICTABLE>
   10410:	ff000000 			; <UNDEFINED> instruction: 0xff000000
   10414:	000000ff 	strdeq	r0, [r0], -pc	; <UNPREDICTABLE>
   10418:	ff000000 			; <UNDEFINED> instruction: 0xff000000
   1041c:	000000ff 	strdeq	r0, [r0], -pc	; <UNPREDICTABLE>
   10420:	ff000000 			; <UNDEFINED> instruction: 0xff000000
   10424:	000000ff 	strdeq	r0, [r0], -pc	; <UNPREDICTABLE>
   10428:	ff000000 			; <UNDEFINED> instruction: 0xff000000
   1042c:	000000ff 	strdeq	r0, [r0], -pc	; <UNPREDICTABLE>
   10430:	ff000000 			; <UNDEFINED> instruction: 0xff000000
   10434:	000000ff 	strdeq	r0, [r0], -pc	; <UNPREDICTABLE>
	...
   10444:	ff000000 			; <UNDEFINED> instruction: 0xff000000
   10448:	000000ff 	strdeq	r0, [r0], -pc	; <UNPREDICTABLE>
   1044c:	00000000 	andeq	r0, r0, r0
   10450:	ff000000 			; <UNDEFINED> instruction: 0xff000000
   10454:	000000ff 	strdeq	r0, [r0], -pc	; <UNPREDICTABLE>
   10458:	ff000000 			; <UNDEFINED> instruction: 0xff000000
   1045c:	000000ff 	strdeq	r0, [r0], -pc	; <UNPREDICTABLE>
   10460:	ff000000 			; <UNDEFINED> instruction: 0xff000000
   10464:	000000ff 	strdeq	r0, [r0], -pc	; <UNPREDICTABLE>
   10468:	ff000000 			; <UNDEFINED> instruction: 0xff000000
   1046c:	000000ff 	strdeq	r0, [r0], -pc	; <UNPREDICTABLE>
   10470:	ff000000 			; <UNDEFINED> instruction: 0xff000000
   10474:	000000ff 	strdeq	r0, [r0], -pc	; <UNPREDICTABLE>
   10478:	ff000000 			; <UNDEFINED> instruction: 0xff000000
   1047c:	000000ff 	strdeq	r0, [r0], -pc	; <UNPREDICTABLE>
   10480:	ff000000 			; <UNDEFINED> instruction: 0xff000000
   10484:	000000ff 	strdeq	r0, [r0], -pc	; <UNPREDICTABLE>
   10488:	ff000000 			; <UNDEFINED> instruction: 0xff000000
   1048c:	000000ff 	strdeq	r0, [r0], -pc	; <UNPREDICTABLE>
   10490:	ff000000 			; <UNDEFINED> instruction: 0xff000000
   10494:	000000ff 	strdeq	r0, [r0], -pc	; <UNPREDICTABLE>
   10498:	ff000000 			; <UNDEFINED> instruction: 0xff000000
   1049c:	000000ff 	strdeq	r0, [r0], -pc	; <UNPREDICTABLE>
	...
   104a8:	ff000000 			; <UNDEFINED> instruction: 0xff000000
   104ac:	000000ff 	strdeq	r0, [r0], -pc	; <UNPREDICTABLE>
   104b0:	ff000000 			; <UNDEFINED> instruction: 0xff000000
   104b4:	000000ff 	strdeq	r0, [r0], -pc	; <UNPREDICTABLE>
	...
   104c0:	ff000000 			; <UNDEFINED> instruction: 0xff000000
   104c4:	ffffffff 			; <UNDEFINED> instruction: 0xffffffff
   104c8:	ffffffff 			; <UNDEFINED> instruction: 0xffffffff
   104cc:	000000ff 	strdeq	r0, [r0], -pc	; <UNPREDICTABLE>
	...
   104d8:	ff000000 			; <UNDEFINED> instruction: 0xff000000
   104dc:	000000ff 	strdeq	r0, [r0], -pc	; <UNPREDICTABLE>
   104e0:	ff000000 			; <UNDEFINED> instruction: 0xff000000
   104e4:	000000ff 	strdeq	r0, [r0], -pc	; <UNPREDICTABLE>
   104e8:	ff000000 			; <UNDEFINED> instruction: 0xff000000
   104ec:	000000ff 	strdeq	r0, [r0], -pc	; <UNPREDICTABLE>
	...
   10500:	ff000000 			; <UNDEFINED> instruction: 0xff000000
   10504:	000000ff 	strdeq	r0, [r0], -pc	; <UNPREDICTABLE>
   10508:	ff000000 			; <UNDEFINED> instruction: 0xff000000
   1050c:	000000ff 	strdeq	r0, [r0], -pc	; <UNPREDICTABLE>
   10510:	ff000000 			; <UNDEFINED> instruction: 0xff000000
   10514:	000000ff 	strdeq	r0, [r0], -pc	; <UNPREDICTABLE>
   10518:	ff000000 			; <UNDEFINED> instruction: 0xff000000
   1051c:	000000ff 	strdeq	r0, [r0], -pc	; <UNPREDICTABLE>
   10520:	ff000000 			; <UNDEFINED> instruction: 0xff000000
   10524:	000000ff 	strdeq	r0, [r0], -pc	; <UNPREDICTABLE>
   10528:	ff000000 			; <UNDEFINED> instruction: 0xff000000
   1052c:	000000ff 	strdeq	r0, [r0], -pc	; <UNPREDICTABLE>
   10530:	ff000000 			; <UNDEFINED> instruction: 0xff000000
   10534:	000000ff 	strdeq	r0, [r0], -pc	; <UNPREDICTABLE>
	...
   10544:	ff000000 			; <UNDEFINED> instruction: 0xff000000
   10548:	000000ff 	strdeq	r0, [r0], -pc	; <UNPREDICTABLE>
   1054c:	00000000 	andeq	r0, r0, r0
   10550:	ff000000 			; <UNDEFINED> instruction: 0xff000000
   10554:	000000ff 	strdeq	r0, [r0], -pc	; <UNPREDICTABLE>
   10558:	ff000000 			; <UNDEFINED> instruction: 0xff000000
   1055c:	000000ff 	strdeq	r0, [r0], -pc	; <UNPREDICTABLE>
   10560:	ff000000 			; <UNDEFINED> instruction: 0xff000000
   10564:	000000ff 	strdeq	r0, [r0], -pc	; <UNPREDICTABLE>
   10568:	ff000000 			; <UNDEFINED> instruction: 0xff000000
   1056c:	000000ff 	strdeq	r0, [r0], -pc	; <UNPREDICTABLE>
   10570:	ff000000 			; <UNDEFINED> instruction: 0xff000000
   10574:	000000ff 	strdeq	r0, [r0], -pc	; <UNPREDICTABLE>
   10578:	ff000000 			; <UNDEFINED> instruction: 0xff000000
   1057c:	000000ff 	strdeq	r0, [r0], -pc	; <UNPREDICTABLE>
   10580:	ff000000 			; <UNDEFINED> instruction: 0xff000000
   10584:	000000ff 	strdeq	r0, [r0], -pc	; <UNPREDICTABLE>
   10588:	ff000000 			; <UNDEFINED> instruction: 0xff000000
   1058c:	000000ff 	strdeq	r0, [r0], -pc	; <UNPREDICTABLE>
   10590:	ff000000 			; <UNDEFINED> instruction: 0xff000000
   10594:	000000ff 	strdeq	r0, [r0], -pc	; <UNPREDICTABLE>
   10598:	ff000000 			; <UNDEFINED> instruction: 0xff000000
   1059c:	000000ff 	strdeq	r0, [r0], -pc	; <UNPREDICTABLE>
	...
   105a8:	ff000000 			; <UNDEFINED> instruction: 0xff000000
   105ac:	000000ff 	strdeq	r0, [r0], -pc	; <UNPREDICTABLE>
   105b0:	ff000000 			; <UNDEFINED> instruction: 0xff000000
   105b4:	000000ff 	strdeq	r0, [r0], -pc	; <UNPREDICTABLE>
	...
   105c0:	ff000000 			; <UNDEFINED> instruction: 0xff000000
   105c4:	ffffffff 			; <UNDEFINED> instruction: 0xffffffff
   105c8:	ffffffff 			; <UNDEFINED> instruction: 0xffffffff
   105cc:	000000ff 	strdeq	r0, [r0], -pc	; <UNPREDICTABLE>
	...
   105d8:	ff000000 			; <UNDEFINED> instruction: 0xff000000
   105dc:	000000ff 	strdeq	r0, [r0], -pc	; <UNPREDICTABLE>
   105e0:	ff000000 			; <UNDEFINED> instruction: 0xff000000
   105e4:	000000ff 	strdeq	r0, [r0], -pc	; <UNPREDICTABLE>
   105e8:	ff000000 			; <UNDEFINED> instruction: 0xff000000
   105ec:	000000ff 	strdeq	r0, [r0], -pc	; <UNPREDICTABLE>
	...
   10600:	ff000000 			; <UNDEFINED> instruction: 0xff000000
   10604:	000000ff 	strdeq	r0, [r0], -pc	; <UNPREDICTABLE>
   10608:	ff000000 			; <UNDEFINED> instruction: 0xff000000
   1060c:	000000ff 	strdeq	r0, [r0], -pc	; <UNPREDICTABLE>
   10610:	ff000000 			; <UNDEFINED> instruction: 0xff000000
   10614:	000000ff 	strdeq	r0, [r0], -pc	; <UNPREDICTABLE>
   10618:	ff000000 			; <UNDEFINED> instruction: 0xff000000
   1061c:	000000ff 	strdeq	r0, [r0], -pc	; <UNPREDICTABLE>
   10620:	ff000000 			; <UNDEFINED> instruction: 0xff000000
   10624:	000000ff 	strdeq	r0, [r0], -pc	; <UNPREDICTABLE>
   10628:	ff000000 			; <UNDEFINED> instruction: 0xff000000
   1062c:	000000ff 	strdeq	r0, [r0], -pc	; <UNPREDICTABLE>
   10630:	ff000000 			; <UNDEFINED> instruction: 0xff000000
   10634:	000000ff 	strdeq	r0, [r0], -pc	; <UNPREDICTABLE>
	...
   10644:	ff000000 			; <UNDEFINED> instruction: 0xff000000
   10648:	000000ff 	strdeq	r0, [r0], -pc	; <UNPREDICTABLE>
   1064c:	00000000 	andeq	r0, r0, r0
   10650:	ff000000 			; <UNDEFINED> instruction: 0xff000000
   10654:	000000ff 	strdeq	r0, [r0], -pc	; <UNPREDICTABLE>
   10658:	ff000000 			; <UNDEFINED> instruction: 0xff000000
   1065c:	000000ff 	strdeq	r0, [r0], -pc	; <UNPREDICTABLE>
   10660:	ff000000 			; <UNDEFINED> instruction: 0xff000000
   10664:	000000ff 	strdeq	r0, [r0], -pc	; <UNPREDICTABLE>
   10668:	ff000000 			; <UNDEFINED> instruction: 0xff000000
   1066c:	000000ff 	strdeq	r0, [r0], -pc	; <UNPREDICTABLE>
   10670:	ff000000 			; <UNDEFINED> instruction: 0xff000000
   10674:	ff0000ff 			; <UNDEFINED> instruction: 0xff0000ff
   10678:	ff0000ff 			; <UNDEFINED> instruction: 0xff0000ff
   1067c:	000000ff 	strdeq	r0, [r0], -pc	; <UNPREDICTABLE>
   10680:	00000000 	andeq	r0, r0, r0
   10684:	00ffff00 	rscseq	pc, pc, r0, lsl #30
   10688:	00ffff00 	rscseq	pc, pc, r0, lsl #30
   1068c:	00000000 	andeq	r0, r0, r0
   10690:	ff000000 			; <UNDEFINED> instruction: 0xff000000
   10694:	000000ff 	strdeq	r0, [r0], -pc	; <UNPREDICTABLE>
   10698:	ff000000 			; <UNDEFINED> instruction: 0xff000000
   1069c:	000000ff 	strdeq	r0, [r0], -pc	; <UNPREDICTABLE>
	...
   106a8:	00ffff00 	rscseq	pc, pc, r0, lsl #30
   106ac:	00000000 	andeq	r0, r0, r0
   106b0:	ff000000 			; <UNDEFINED> instruction: 0xff000000
   106b4:	000000ff 	strdeq	r0, [r0], -pc	; <UNPREDICTABLE>
	...
   106c4:	ff000000 			; <UNDEFINED> instruction: 0xff000000
   106c8:	000000ff 	strdeq	r0, [r0], -pc	; <UNPREDICTABLE>
	...
   106d8:	ff000000 			; <UNDEFINED> instruction: 0xff000000
   106dc:	000000ff 	strdeq	r0, [r0], -pc	; <UNPREDICTABLE>
	...
   10700:	ff000000 			; <UNDEFINED> instruction: 0xff000000
   10704:	000000ff 	strdeq	r0, [r0], -pc	; <UNPREDICTABLE>
   10708:	ff000000 			; <UNDEFINED> instruction: 0xff000000
   1070c:	000000ff 	strdeq	r0, [r0], -pc	; <UNPREDICTABLE>
   10710:	ff000000 			; <UNDEFINED> instruction: 0xff000000
   10714:	000000ff 	strdeq	r0, [r0], -pc	; <UNPREDICTABLE>
   10718:	ff000000 			; <UNDEFINED> instruction: 0xff000000
   1071c:	000000ff 	strdeq	r0, [r0], -pc	; <UNPREDICTABLE>
   10720:	ff000000 			; <UNDEFINED> instruction: 0xff000000
   10724:	000000ff 	strdeq	r0, [r0], -pc	; <UNPREDICTABLE>
   10728:	ff000000 			; <UNDEFINED> instruction: 0xff000000
   1072c:	000000ff 	strdeq	r0, [r0], -pc	; <UNPREDICTABLE>
   10730:	ff000000 			; <UNDEFINED> instruction: 0xff000000
   10734:	000000ff 	strdeq	r0, [r0], -pc	; <UNPREDICTABLE>
	...
   10744:	ff000000 			; <UNDEFINED> instruction: 0xff000000
   10748:	000000ff 	strdeq	r0, [r0], -pc	; <UNPREDICTABLE>
   1074c:	00000000 	andeq	r0, r0, r0
   10750:	ff000000 			; <UNDEFINED> instruction: 0xff000000
   10754:	000000ff 	strdeq	r0, [r0], -pc	; <UNPREDICTABLE>
   10758:	ff000000 			; <UNDEFINED> instruction: 0xff000000
   1075c:	000000ff 	strdeq	r0, [r0], -pc	; <UNPREDICTABLE>
   10760:	ff000000 			; <UNDEFINED> instruction: 0xff000000
   10764:	000000ff 	strdeq	r0, [r0], -pc	; <UNPREDICTABLE>
   10768:	ff000000 			; <UNDEFINED> instruction: 0xff000000
   1076c:	000000ff 	strdeq	r0, [r0], -pc	; <UNPREDICTABLE>
   10770:	ff000000 			; <UNDEFINED> instruction: 0xff000000
   10774:	ff0000ff 			; <UNDEFINED> instruction: 0xff0000ff
   10778:	ff0000ff 			; <UNDEFINED> instruction: 0xff0000ff
   1077c:	000000ff 	strdeq	r0, [r0], -pc	; <UNPREDICTABLE>
   10780:	00000000 	andeq	r0, r0, r0
   10784:	00ffff00 	rscseq	pc, pc, r0, lsl #30
   10788:	00ffff00 	rscseq	pc, pc, r0, lsl #30
   1078c:	00000000 	andeq	r0, r0, r0
   10790:	ff000000 			; <UNDEFINED> instruction: 0xff000000
   10794:	000000ff 	strdeq	r0, [r0], -pc	; <UNPREDICTABLE>
   10798:	ff000000 			; <UNDEFINED> instruction: 0xff000000
   1079c:	000000ff 	strdeq	r0, [r0], -pc	; <UNPREDICTABLE>
	...
   107a8:	00ffff00 	rscseq	pc, pc, r0, lsl #30
   107ac:	00000000 	andeq	r0, r0, r0
   107b0:	ff000000 			; <UNDEFINED> instruction: 0xff000000
   107b4:	000000ff 	strdeq	r0, [r0], -pc	; <UNPREDICTABLE>
	...
   107c4:	ff000000 			; <UNDEFINED> instruction: 0xff000000
   107c8:	000000ff 	strdeq	r0, [r0], -pc	; <UNPREDICTABLE>
	...
   107d8:	ff000000 			; <UNDEFINED> instruction: 0xff000000
   107dc:	000000ff 	strdeq	r0, [r0], -pc	; <UNPREDICTABLE>
	...
   10800:	ff000000 			; <UNDEFINED> instruction: 0xff000000
   10804:	ffffffff 			; <UNDEFINED> instruction: 0xffffffff
   10808:	00ffffff 	ldrshteq	pc, [pc], #255	; <UNPREDICTABLE>
   1080c:	00000000 	andeq	r0, r0, r0
   10810:	ff000000 			; <UNDEFINED> instruction: 0xff000000
   10814:	000000ff 	strdeq	r0, [r0], -pc	; <UNPREDICTABLE>
   10818:	ff000000 			; <UNDEFINED> instruction: 0xff000000
   1081c:	000000ff 	strdeq	r0, [r0], -pc	; <UNPREDICTABLE>
   10820:	ff000000 			; <UNDEFINED> instruction: 0xff000000
   10824:	ffffffff 			; <UNDEFINED> instruction: 0xffffffff
   10828:	00ffffff 	ldrshteq	pc, [pc], #255	; <UNPREDICTABLE>
	...
   10834:	ffffff00 			; <UNDEFINED> instruction: 0xffffff00
   10838:	00ffffff 	ldrshteq	pc, [pc], #255	; <UNPREDICTABLE>
	...
   10844:	ff000000 			; <UNDEFINED> instruction: 0xff000000
   10848:	000000ff 	strdeq	r0, [r0], -pc	; <UNPREDICTABLE>
   1084c:	00000000 	andeq	r0, r0, r0
   10850:	ff000000 			; <UNDEFINED> instruction: 0xff000000
   10854:	000000ff 	strdeq	r0, [r0], -pc	; <UNPREDICTABLE>
   10858:	ff000000 			; <UNDEFINED> instruction: 0xff000000
   1085c:	000000ff 	strdeq	r0, [r0], -pc	; <UNPREDICTABLE>
   10860:	ff000000 			; <UNDEFINED> instruction: 0xff000000
   10864:	000000ff 	strdeq	r0, [r0], -pc	; <UNPREDICTABLE>
   10868:	ff000000 			; <UNDEFINED> instruction: 0xff000000
   1086c:	000000ff 	strdeq	r0, [r0], -pc	; <UNPREDICTABLE>
   10870:	ff000000 			; <UNDEFINED> instruction: 0xff000000
   10874:	ff0000ff 			; <UNDEFINED> instruction: 0xff0000ff
   10878:	ff0000ff 			; <UNDEFINED> instruction: 0xff0000ff
   1087c:	000000ff 	strdeq	r0, [r0], -pc	; <UNPREDICTABLE>
   10880:	00000000 	andeq	r0, r0, r0
   10884:	ff000000 			; <UNDEFINED> instruction: 0xff000000
   10888:	000000ff 	strdeq	r0, [r0], -pc	; <UNPREDICTABLE>
	...
   10894:	00ffff00 	rscseq	pc, pc, r0, lsl #30
   10898:	00ffff00 	rscseq	pc, pc, r0, lsl #30
	...
   108a4:	ff000000 			; <UNDEFINED> instruction: 0xff000000
   108a8:	000000ff 	strdeq	r0, [r0], -pc	; <UNPREDICTABLE>
   108ac:	00000000 	andeq	r0, r0, r0
   108b0:	ff000000 			; <UNDEFINED> instruction: 0xff000000
   108b4:	000000ff 	strdeq	r0, [r0], -pc	; <UNPREDICTABLE>
	...
   108c0:	ff000000 			; <UNDEFINED> instruction: 0xff000000
   108c4:	ffffffff 			; <UNDEFINED> instruction: 0xffffffff
   108c8:	ffffffff 			; <UNDEFINED> instruction: 0xffffffff
   108cc:	000000ff 	strdeq	r0, [r0], -pc	; <UNPREDICTABLE>
	...
   108d8:	ff000000 			; <UNDEFINED> instruction: 0xff000000
   108dc:	000000ff 	strdeq	r0, [r0], -pc	; <UNPREDICTABLE>
	...
   10900:	ff000000 			; <UNDEFINED> instruction: 0xff000000
   10904:	ffffffff 			; <UNDEFINED> instruction: 0xffffffff
   10908:	00ffffff 	ldrshteq	pc, [pc], #255	; <UNPREDICTABLE>
   1090c:	00000000 	andeq	r0, r0, r0
   10910:	ff000000 			; <UNDEFINED> instruction: 0xff000000
   10914:	000000ff 	strdeq	r0, [r0], -pc	; <UNPREDICTABLE>
   10918:	ff000000 			; <UNDEFINED> instruction: 0xff000000
   1091c:	000000ff 	strdeq	r0, [r0], -pc	; <UNPREDICTABLE>
   10920:	ff000000 			; <UNDEFINED> instruction: 0xff000000
   10924:	ffffffff 			; <UNDEFINED> instruction: 0xffffffff
   10928:	00ffffff 	ldrshteq	pc, [pc], #255	; <UNPREDICTABLE>
	...
   10934:	ffffff00 			; <UNDEFINED> instruction: 0xffffff00
   10938:	00ffffff 	ldrshteq	pc, [pc], #255	; <UNPREDICTABLE>
	...
   10944:	ff000000 			; <UNDEFINED> instruction: 0xff000000
   10948:	000000ff 	strdeq	r0, [r0], -pc	; <UNPREDICTABLE>
   1094c:	00000000 	andeq	r0, r0, r0
   10950:	ff000000 			; <UNDEFINED> instruction: 0xff000000
   10954:	000000ff 	strdeq	r0, [r0], -pc	; <UNPREDICTABLE>
   10958:	ff000000 			; <UNDEFINED> instruction: 0xff000000
   1095c:	000000ff 	strdeq	r0, [r0], -pc	; <UNPREDICTABLE>
   10960:	ff000000 			; <UNDEFINED> instruction: 0xff000000
   10964:	000000ff 	strdeq	r0, [r0], -pc	; <UNPREDICTABLE>
   10968:	ff000000 			; <UNDEFINED> instruction: 0xff000000
   1096c:	000000ff 	strdeq	r0, [r0], -pc	; <UNPREDICTABLE>
   10970:	ff000000 			; <UNDEFINED> instruction: 0xff000000
   10974:	ff0000ff 			; <UNDEFINED> instruction: 0xff0000ff
   10978:	ff0000ff 			; <UNDEFINED> instruction: 0xff0000ff
   1097c:	000000ff 	strdeq	r0, [r0], -pc	; <UNPREDICTABLE>
   10980:	00000000 	andeq	r0, r0, r0
   10984:	ff000000 			; <UNDEFINED> instruction: 0xff000000
   10988:	000000ff 	strdeq	r0, [r0], -pc	; <UNPREDICTABLE>
	...
   10994:	00ffff00 	rscseq	pc, pc, r0, lsl #30
   10998:	00ffff00 	rscseq	pc, pc, r0, lsl #30
	...
   109a4:	ff000000 			; <UNDEFINED> instruction: 0xff000000
   109a8:	000000ff 	strdeq	r0, [r0], -pc	; <UNPREDICTABLE>
   109ac:	00000000 	andeq	r0, r0, r0
   109b0:	ff000000 			; <UNDEFINED> instruction: 0xff000000
   109b4:	000000ff 	strdeq	r0, [r0], -pc	; <UNPREDICTABLE>
	...
   109c0:	ff000000 			; <UNDEFINED> instruction: 0xff000000
   109c4:	ffffffff 			; <UNDEFINED> instruction: 0xffffffff
   109c8:	ffffffff 			; <UNDEFINED> instruction: 0xffffffff
   109cc:	000000ff 	strdeq	r0, [r0], -pc	; <UNPREDICTABLE>
	...
   109d8:	ff000000 			; <UNDEFINED> instruction: 0xff000000
   109dc:	000000ff 	strdeq	r0, [r0], -pc	; <UNPREDICTABLE>
	...
   10a00:	ff000000 			; <UNDEFINED> instruction: 0xff000000
   10a04:	000000ff 	strdeq	r0, [r0], -pc	; <UNPREDICTABLE>
	...
   10a10:	ff000000 			; <UNDEFINED> instruction: 0xff000000
   10a14:	ff0000ff 			; <UNDEFINED> instruction: 0xff0000ff
   10a18:	ff0000ff 			; <UNDEFINED> instruction: 0xff0000ff
   10a1c:	000000ff 	strdeq	r0, [r0], -pc	; <UNPREDICTABLE>
   10a20:	ff000000 			; <UNDEFINED> instruction: 0xff000000
   10a24:	000000ff 	strdeq	r0, [r0], -pc	; <UNPREDICTABLE>
   10a28:	ff000000 			; <UNDEFINED> instruction: 0xff000000
   10a2c:	000000ff 	strdeq	r0, [r0], -pc	; <UNPREDICTABLE>
	...
   10a38:	ff000000 			; <UNDEFINED> instruction: 0xff000000
   10a3c:	000000ff 	strdeq	r0, [r0], -pc	; <UNPREDICTABLE>
   10a40:	00000000 	andeq	r0, r0, r0
   10a44:	ff000000 			; <UNDEFINED> instruction: 0xff000000
   10a48:	000000ff 	strdeq	r0, [r0], -pc	; <UNPREDICTABLE>
   10a4c:	00000000 	andeq	r0, r0, r0
   10a50:	ff000000 			; <UNDEFINED> instruction: 0xff000000
   10a54:	000000ff 	strdeq	r0, [r0], -pc	; <UNPREDICTABLE>
   10a58:	ff000000 			; <UNDEFINED> instruction: 0xff000000
   10a5c:	000000ff 	strdeq	r0, [r0], -pc	; <UNPREDICTABLE>
   10a60:	ff000000 			; <UNDEFINED> instruction: 0xff000000
   10a64:	00ffffff 	ldrshteq	pc, [pc], #255	; <UNPREDICTABLE>
   10a68:	ffffff00 			; <UNDEFINED> instruction: 0xffffff00
   10a6c:	000000ff 	strdeq	r0, [r0], -pc	; <UNPREDICTABLE>
   10a70:	ff000000 			; <UNDEFINED> instruction: 0xff000000
   10a74:	ff0000ff 			; <UNDEFINED> instruction: 0xff0000ff
   10a78:	ff0000ff 			; <UNDEFINED> instruction: 0xff0000ff
   10a7c:	000000ff 	strdeq	r0, [r0], -pc	; <UNPREDICTABLE>
   10a80:	00000000 	andeq	r0, r0, r0
   10a84:	00ffff00 	rscseq	pc, pc, r0, lsl #30
   10a88:	00ffff00 	rscseq	pc, pc, r0, lsl #30
	...
   10a94:	ff000000 			; <UNDEFINED> instruction: 0xff000000
   10a98:	000000ff 	strdeq	r0, [r0], -pc	; <UNPREDICTABLE>
	...
   10aa4:	00ffff00 	rscseq	pc, pc, r0, lsl #30
	...
   10ab0:	ff000000 			; <UNDEFINED> instruction: 0xff000000
   10ab4:	000000ff 	strdeq	r0, [r0], -pc	; <UNPREDICTABLE>
	...
   10ac4:	ff000000 			; <UNDEFINED> instruction: 0xff000000
   10ac8:	000000ff 	strdeq	r0, [r0], -pc	; <UNPREDICTABLE>
	...
   10ad8:	ff000000 			; <UNDEFINED> instruction: 0xff000000
   10adc:	000000ff 	strdeq	r0, [r0], -pc	; <UNPREDICTABLE>
	...
   10b00:	ff000000 			; <UNDEFINED> instruction: 0xff000000
   10b04:	000000ff 	strdeq	r0, [r0], -pc	; <UNPREDICTABLE>
	...
   10b10:	ff000000 			; <UNDEFINED> instruction: 0xff000000
   10b14:	ff0000ff 			; <UNDEFINED> instruction: 0xff0000ff
   10b18:	ff0000ff 			; <UNDEFINED> instruction: 0xff0000ff
   10b1c:	000000ff 	strdeq	r0, [r0], -pc	; <UNPREDICTABLE>
   10b20:	ff000000 			; <UNDEFINED> instruction: 0xff000000
   10b24:	000000ff 	strdeq	r0, [r0], -pc	; <UNPREDICTABLE>
   10b28:	ff000000 			; <UNDEFINED> instruction: 0xff000000
   10b2c:	000000ff 	strdeq	r0, [r0], -pc	; <UNPREDICTABLE>
	...
   10b38:	ff000000 			; <UNDEFINED> instruction: 0xff000000
   10b3c:	000000ff 	strdeq	r0, [r0], -pc	; <UNPREDICTABLE>
   10b40:	00000000 	andeq	r0, r0, r0
   10b44:	ff000000 			; <UNDEFINED> instruction: 0xff000000
   10b48:	000000ff 	strdeq	r0, [r0], -pc	; <UNPREDICTABLE>
   10b4c:	00000000 	andeq	r0, r0, r0
   10b50:	ff000000 			; <UNDEFINED> instruction: 0xff000000
   10b54:	000000ff 	strdeq	r0, [r0], -pc	; <UNPREDICTABLE>
   10b58:	ff000000 			; <UNDEFINED> instruction: 0xff000000
   10b5c:	000000ff 	strdeq	r0, [r0], -pc	; <UNPREDICTABLE>
   10b60:	ff000000 			; <UNDEFINED> instruction: 0xff000000
   10b64:	00ffffff 	ldrshteq	pc, [pc], #255	; <UNPREDICTABLE>
   10b68:	ffffff00 			; <UNDEFINED> instruction: 0xffffff00
   10b6c:	000000ff 	strdeq	r0, [r0], -pc	; <UNPREDICTABLE>
   10b70:	ff000000 			; <UNDEFINED> instruction: 0xff000000
   10b74:	ff0000ff 			; <UNDEFINED> instruction: 0xff0000ff
   10b78:	ff0000ff 			; <UNDEFINED> instruction: 0xff0000ff
   10b7c:	000000ff 	strdeq	r0, [r0], -pc	; <UNPREDICTABLE>
   10b80:	00000000 	andeq	r0, r0, r0
   10b84:	00ffff00 	rscseq	pc, pc, r0, lsl #30
   10b88:	00ffff00 	rscseq	pc, pc, r0, lsl #30
	...
   10b94:	ff000000 			; <UNDEFINED> instruction: 0xff000000
   10b98:	000000ff 	strdeq	r0, [r0], -pc	; <UNPREDICTABLE>
	...
   10ba4:	00ffff00 	rscseq	pc, pc, r0, lsl #30
	...
   10bb0:	ff000000 			; <UNDEFINED> instruction: 0xff000000
   10bb4:	000000ff 	strdeq	r0, [r0], -pc	; <UNPREDICTABLE>
	...
   10bc4:	ff000000 			; <UNDEFINED> instruction: 0xff000000
   10bc8:	000000ff 	strdeq	r0, [r0], -pc	; <UNPREDICTABLE>
	...
   10bd8:	ff000000 			; <UNDEFINED> instruction: 0xff000000
   10bdc:	000000ff 	strdeq	r0, [r0], -pc	; <UNPREDICTABLE>
	...
   10c00:	ff000000 			; <UNDEFINED> instruction: 0xff000000
   10c04:	000000ff 	strdeq	r0, [r0], -pc	; <UNPREDICTABLE>
	...
   10c10:	ff000000 			; <UNDEFINED> instruction: 0xff000000
   10c14:	000000ff 	strdeq	r0, [r0], -pc	; <UNPREDICTABLE>
   10c18:	ffffff00 			; <UNDEFINED> instruction: 0xffffff00
   10c1c:	000000ff 	strdeq	r0, [r0], -pc	; <UNPREDICTABLE>
   10c20:	ff000000 			; <UNDEFINED> instruction: 0xff000000
   10c24:	000000ff 	strdeq	r0, [r0], -pc	; <UNPREDICTABLE>
   10c28:	ff000000 			; <UNDEFINED> instruction: 0xff000000
   10c2c:	000000ff 	strdeq	r0, [r0], -pc	; <UNPREDICTABLE>
	...
   10c38:	ff000000 			; <UNDEFINED> instruction: 0xff000000
   10c3c:	000000ff 	strdeq	r0, [r0], -pc	; <UNPREDICTABLE>
   10c40:	00000000 	andeq	r0, r0, r0
   10c44:	ff000000 			; <UNDEFINED> instruction: 0xff000000
   10c48:	000000ff 	strdeq	r0, [r0], -pc	; <UNPREDICTABLE>
   10c4c:	00000000 	andeq	r0, r0, r0
   10c50:	ff000000 			; <UNDEFINED> instruction: 0xff000000
   10c54:	000000ff 	strdeq	r0, [r0], -pc	; <UNPREDICTABLE>
   10c58:	ff000000 			; <UNDEFINED> instruction: 0xff000000
   10c5c:	000000ff 	strdeq	r0, [r0], -pc	; <UNPREDICTABLE>
   10c60:	00000000 	andeq	r0, r0, r0
   10c64:	ffffff00 			; <UNDEFINED> instruction: 0xffffff00
   10c68:	00ffffff 	ldrshteq	pc, [pc], #255	; <UNPREDICTABLE>
   10c6c:	00000000 	andeq	r0, r0, r0
   10c70:	ff000000 			; <UNDEFINED> instruction: 0xff000000
   10c74:	ff0000ff 			; <UNDEFINED> instruction: 0xff0000ff
   10c78:	ff0000ff 			; <UNDEFINED> instruction: 0xff0000ff
   10c7c:	000000ff 	strdeq	r0, [r0], -pc	; <UNPREDICTABLE>
   10c80:	ff000000 			; <UNDEFINED> instruction: 0xff000000
   10c84:	000000ff 	strdeq	r0, [r0], -pc	; <UNPREDICTABLE>
   10c88:	ff000000 			; <UNDEFINED> instruction: 0xff000000
   10c8c:	000000ff 	strdeq	r0, [r0], -pc	; <UNPREDICTABLE>
   10c90:	00000000 	andeq	r0, r0, r0
   10c94:	ff000000 			; <UNDEFINED> instruction: 0xff000000
   10c98:	000000ff 	strdeq	r0, [r0], -pc	; <UNPREDICTABLE>
   10c9c:	00000000 	andeq	r0, r0, r0
   10ca0:	ff000000 			; <UNDEFINED> instruction: 0xff000000
   10ca4:	000000ff 	strdeq	r0, [r0], -pc	; <UNPREDICTABLE>
	...
   10cb0:	ff000000 			; <UNDEFINED> instruction: 0xff000000
   10cb4:	000000ff 	strdeq	r0, [r0], -pc	; <UNPREDICTABLE>
	...
   10cc4:	ff000000 			; <UNDEFINED> instruction: 0xff000000
   10cc8:	000000ff 	strdeq	r0, [r0], -pc	; <UNPREDICTABLE>
	...
   10cd8:	ff000000 			; <UNDEFINED> instruction: 0xff000000
   10cdc:	000000ff 	strdeq	r0, [r0], -pc	; <UNPREDICTABLE>
	...
   10d00:	ff000000 			; <UNDEFINED> instruction: 0xff000000
   10d04:	000000ff 	strdeq	r0, [r0], -pc	; <UNPREDICTABLE>
	...
   10d10:	ff000000 			; <UNDEFINED> instruction: 0xff000000
   10d14:	000000ff 	strdeq	r0, [r0], -pc	; <UNPREDICTABLE>
   10d18:	ffffff00 			; <UNDEFINED> instruction: 0xffffff00
   10d1c:	000000ff 	strdeq	r0, [r0], -pc	; <UNPREDICTABLE>
   10d20:	ff000000 			; <UNDEFINED> instruction: 0xff000000
   10d24:	000000ff 	strdeq	r0, [r0], -pc	; <UNPREDICTABLE>
   10d28:	ff000000 			; <UNDEFINED> instruction: 0xff000000
   10d2c:	000000ff 	strdeq	r0, [r0], -pc	; <UNPREDICTABLE>
	...
   10d38:	ff000000 			; <UNDEFINED> instruction: 0xff000000
   10d3c:	000000ff 	strdeq	r0, [r0], -pc	; <UNPREDICTABLE>
   10d40:	00000000 	andeq	r0, r0, r0
   10d44:	ff000000 			; <UNDEFINED> instruction: 0xff000000
   10d48:	000000ff 	strdeq	r0, [r0], -pc	; <UNPREDICTABLE>
   10d4c:	00000000 	andeq	r0, r0, r0
   10d50:	ff000000 			; <UNDEFINED> instruction: 0xff000000
   10d54:	000000ff 	strdeq	r0, [r0], -pc	; <UNPREDICTABLE>
   10d58:	ff000000 			; <UNDEFINED> instruction: 0xff000000
   10d5c:	000000ff 	strdeq	r0, [r0], -pc	; <UNPREDICTABLE>
   10d60:	00000000 	andeq	r0, r0, r0
   10d64:	ffffff00 			; <UNDEFINED> instruction: 0xffffff00
   10d68:	00ffffff 	ldrshteq	pc, [pc], #255	; <UNPREDICTABLE>
   10d6c:	00000000 	andeq	r0, r0, r0
   10d70:	ff000000 			; <UNDEFINED> instruction: 0xff000000
   10d74:	ff0000ff 			; <UNDEFINED> instruction: 0xff0000ff
   10d78:	ff0000ff 			; <UNDEFINED> instruction: 0xff0000ff
   10d7c:	000000ff 	strdeq	r0, [r0], -pc	; <UNPREDICTABLE>
   10d80:	ff000000 			; <UNDEFINED> instruction: 0xff000000
   10d84:	000000ff 	strdeq	r0, [r0], -pc	; <UNPREDICTABLE>
   10d88:	ff000000 			; <UNDEFINED> instruction: 0xff000000
   10d8c:	000000ff 	strdeq	r0, [r0], -pc	; <UNPREDICTABLE>
   10d90:	00000000 	andeq	r0, r0, r0
   10d94:	ff000000 			; <UNDEFINED> instruction: 0xff000000
   10d98:	000000ff 	strdeq	r0, [r0], -pc	; <UNPREDICTABLE>
   10d9c:	00000000 	andeq	r0, r0, r0
   10da0:	ff000000 			; <UNDEFINED> instruction: 0xff000000
   10da4:	000000ff 	strdeq	r0, [r0], -pc	; <UNPREDICTABLE>
	...
   10db0:	ff000000 			; <UNDEFINED> instruction: 0xff000000
   10db4:	000000ff 	strdeq	r0, [r0], -pc	; <UNPREDICTABLE>
	...
   10dc4:	ff000000 			; <UNDEFINED> instruction: 0xff000000
   10dc8:	000000ff 	strdeq	r0, [r0], -pc	; <UNPREDICTABLE>
	...
   10dd8:	ff000000 			; <UNDEFINED> instruction: 0xff000000
   10ddc:	000000ff 	strdeq	r0, [r0], -pc	; <UNPREDICTABLE>
	...
   10e00:	ff000000 			; <UNDEFINED> instruction: 0xff000000
   10e04:	000000ff 	strdeq	r0, [r0], -pc	; <UNPREDICTABLE>
	...
   10e14:	ffffff00 			; <UNDEFINED> instruction: 0xffffff00
   10e18:	00ffffff 	ldrshteq	pc, [pc], #255	; <UNPREDICTABLE>
   10e1c:	00000000 	andeq	r0, r0, r0
   10e20:	ff000000 			; <UNDEFINED> instruction: 0xff000000
   10e24:	000000ff 	strdeq	r0, [r0], -pc	; <UNPREDICTABLE>
   10e28:	ff000000 			; <UNDEFINED> instruction: 0xff000000
   10e2c:	000000ff 	strdeq	r0, [r0], -pc	; <UNPREDICTABLE>
   10e30:	ff000000 			; <UNDEFINED> instruction: 0xff000000
   10e34:	ffffffff 			; <UNDEFINED> instruction: 0xffffffff
   10e38:	00ffffff 	ldrshteq	pc, [pc], #255	; <UNPREDICTABLE>
	...
   10e44:	ff000000 			; <UNDEFINED> instruction: 0xff000000
   10e48:	000000ff 	strdeq	r0, [r0], -pc	; <UNPREDICTABLE>
	...
   10e54:	ffffff00 			; <UNDEFINED> instruction: 0xffffff00
   10e58:	00ffffff 	ldrshteq	pc, [pc], #255	; <UNPREDICTABLE>
	...
   10e64:	ff000000 			; <UNDEFINED> instruction: 0xff000000
   10e68:	000000ff 	strdeq	r0, [r0], -pc	; <UNPREDICTABLE>
	...
   10e74:	00ffff00 	rscseq	pc, pc, r0, lsl #30
   10e78:	00ffff00 	rscseq	pc, pc, r0, lsl #30
   10e7c:	00000000 	andeq	r0, r0, r0
   10e80:	ff000000 			; <UNDEFINED> instruction: 0xff000000
   10e84:	000000ff 	strdeq	r0, [r0], -pc	; <UNPREDICTABLE>
   10e88:	ff000000 			; <UNDEFINED> instruction: 0xff000000
   10e8c:	000000ff 	strdeq	r0, [r0], -pc	; <UNPREDICTABLE>
   10e90:	00000000 	andeq	r0, r0, r0
   10e94:	ff000000 			; <UNDEFINED> instruction: 0xff000000
   10e98:	000000ff 	strdeq	r0, [r0], -pc	; <UNPREDICTABLE>
   10e9c:	00000000 	andeq	r0, r0, r0
   10ea0:	ff000000 			; <UNDEFINED> instruction: 0xff000000
   10ea4:	ffffffff 			; <UNDEFINED> instruction: 0xffffffff
   10ea8:	ffffffff 			; <UNDEFINED> instruction: 0xffffffff
   10eac:	000000ff 	strdeq	r0, [r0], -pc	; <UNPREDICTABLE>
   10eb0:	ff000000 			; <UNDEFINED> instruction: 0xff000000
   10eb4:	ffffffff 			; <UNDEFINED> instruction: 0xffffffff
   10eb8:	00ffffff 	ldrshteq	pc, [pc], #255	; <UNPREDICTABLE>
	...
   10ec4:	ff000000 			; <UNDEFINED> instruction: 0xff000000
   10ec8:	000000ff 	strdeq	r0, [r0], -pc	; <UNPREDICTABLE>
	...
   10ed4:	ffffff00 			; <UNDEFINED> instruction: 0xffffff00
   10ed8:	ffffffff 			; <UNDEFINED> instruction: 0xffffffff
   10edc:	000000ff 	strdeq	r0, [r0], -pc	; <UNPREDICTABLE>
	...
   10ef0:	ff000000 			; <UNDEFINED> instruction: 0xff000000
   10ef4:	ffffffff 			; <UNDEFINED> instruction: 0xffffffff
   10ef8:	ffffffff 			; <UNDEFINED> instruction: 0xffffffff
   10efc:	000000ff 	strdeq	r0, [r0], -pc	; <UNPREDICTABLE>
   10f00:	ff000000 			; <UNDEFINED> instruction: 0xff000000
   10f04:	000000ff 	strdeq	r0, [r0], -pc	; <UNPREDICTABLE>
	...
   10f14:	ffffff00 			; <UNDEFINED> instruction: 0xffffff00
   10f18:	00ffffff 	ldrshteq	pc, [pc], #255	; <UNPREDICTABLE>
   10f1c:	00000000 	andeq	r0, r0, r0
   10f20:	ff000000 			; <UNDEFINED> instruction: 0xff000000
   10f24:	000000ff 	strdeq	r0, [r0], -pc	; <UNPREDICTABLE>
   10f28:	ff000000 			; <UNDEFINED> instruction: 0xff000000
   10f2c:	000000ff 	strdeq	r0, [r0], -pc	; <UNPREDICTABLE>
   10f30:	ff000000 			; <UNDEFINED> instruction: 0xff000000
   10f34:	ffffffff 			; <UNDEFINED> instruction: 0xffffffff
   10f38:	00ffffff 	ldrshteq	pc, [pc], #255	; <UNPREDICTABLE>
	...
   10f44:	ff000000 			; <UNDEFINED> instruction: 0xff000000
   10f48:	000000ff 	strdeq	r0, [r0], -pc	; <UNPREDICTABLE>
	...
   10f54:	ffffff00 			; <UNDEFINED> instruction: 0xffffff00
   10f58:	00ffffff 	ldrshteq	pc, [pc], #255	; <UNPREDICTABLE>
	...
   10f64:	ff000000 			; <UNDEFINED> instruction: 0xff000000
   10f68:	000000ff 	strdeq	r0, [r0], -pc	; <UNPREDICTABLE>
	...
   10f74:	00ffff00 	rscseq	pc, pc, r0, lsl #30
   10f78:	00ffff00 	rscseq	pc, pc, r0, lsl #30
   10f7c:	00000000 	andeq	r0, r0, r0
   10f80:	ff000000 			; <UNDEFINED> instruction: 0xff000000
   10f84:	000000ff 	strdeq	r0, [r0], -pc	; <UNPREDICTABLE>
   10f88:	ff000000 			; <UNDEFINED> instruction: 0xff000000
   10f8c:	000000ff 	strdeq	r0, [r0], -pc	; <UNPREDICTABLE>
   10f90:	00000000 	andeq	r0, r0, r0
   10f94:	ff000000 			; <UNDEFINED> instruction: 0xff000000
   10f98:	000000ff 	strdeq	r0, [r0], -pc	; <UNPREDICTABLE>
   10f9c:	00000000 	andeq	r0, r0, r0
   10fa0:	ff000000 			; <UNDEFINED> instruction: 0xff000000
   10fa4:	ffffffff 			; <UNDEFINED> instruction: 0xffffffff
   10fa8:	ffffffff 			; <UNDEFINED> instruction: 0xffffffff
   10fac:	000000ff 	strdeq	r0, [r0], -pc	; <UNPREDICTABLE>
   10fb0:	ff000000 			; <UNDEFINED> instruction: 0xff000000
   10fb4:	ffffffff 			; <UNDEFINED> instruction: 0xffffffff
   10fb8:	00ffffff 	ldrshteq	pc, [pc], #255	; <UNPREDICTABLE>
	...
   10fc4:	ff000000 			; <UNDEFINED> instruction: 0xff000000
   10fc8:	000000ff 	strdeq	r0, [r0], -pc	; <UNPREDICTABLE>
	...
   10fd4:	ffffff00 			; <UNDEFINED> instruction: 0xffffff00
   10fd8:	ffffffff 			; <UNDEFINED> instruction: 0xffffffff
   10fdc:	000000ff 	strdeq	r0, [r0], -pc	; <UNPREDICTABLE>
	...
   10ff0:	ff000000 			; <UNDEFINED> instruction: 0xff000000
   10ff4:	ffffffff 			; <UNDEFINED> instruction: 0xffffffff
   10ff8:	ffffffff 			; <UNDEFINED> instruction: 0xffffffff
   10ffc:	000000ff 	strdeq	r0, [r0], -pc	; <UNPREDICTABLE>
	...
   11410:	ff000000 			; <UNDEFINED> instruction: 0xff000000
   11414:	ffffffff 			; <UNDEFINED> instruction: 0xffffffff
   11418:	00ffffff 	ldrshteq	pc, [pc], #255	; <UNPREDICTABLE>
   1141c:	00000000 	andeq	r0, r0, r0
   11420:	ff000000 			; <UNDEFINED> instruction: 0xff000000
   11424:	000000ff 	strdeq	r0, [r0], -pc	; <UNPREDICTABLE>
	...
   11434:	ffffff00 			; <UNDEFINED> instruction: 0xffffff00
   11438:	00ffffff 	ldrshteq	pc, [pc], #255	; <UNPREDICTABLE>
	...
   11448:	ff000000 			; <UNDEFINED> instruction: 0xff000000
   1144c:	000000ff 	strdeq	r0, [r0], -pc	; <UNPREDICTABLE>
   11450:	00000000 	andeq	r0, r0, r0
   11454:	ffffff00 			; <UNDEFINED> instruction: 0xffffff00
   11458:	00ffffff 	ldrshteq	pc, [pc], #255	; <UNPREDICTABLE>
	...
   11464:	ff000000 			; <UNDEFINED> instruction: 0xff000000
   11468:	ffffffff 			; <UNDEFINED> instruction: 0xffffffff
   1146c:	000000ff 	strdeq	r0, [r0], -pc	; <UNPREDICTABLE>
   11470:	00000000 	andeq	r0, r0, r0
   11474:	ffffff00 			; <UNDEFINED> instruction: 0xffffff00
   11478:	ffffffff 			; <UNDEFINED> instruction: 0xffffffff
   1147c:	000000ff 	strdeq	r0, [r0], -pc	; <UNPREDICTABLE>
   11480:	ff000000 			; <UNDEFINED> instruction: 0xff000000
   11484:	000000ff 	strdeq	r0, [r0], -pc	; <UNPREDICTABLE>
	...
   11494:	ff000000 			; <UNDEFINED> instruction: 0xff000000
   11498:	000000ff 	strdeq	r0, [r0], -pc	; <UNPREDICTABLE>
	...
   114a4:	ff000000 			; <UNDEFINED> instruction: 0xff000000
   114a8:	000000ff 	strdeq	r0, [r0], -pc	; <UNPREDICTABLE>
   114ac:	00000000 	andeq	r0, r0, r0
   114b0:	ff000000 			; <UNDEFINED> instruction: 0xff000000
   114b4:	000000ff 	strdeq	r0, [r0], -pc	; <UNPREDICTABLE>
   114b8:	ff000000 			; <UNDEFINED> instruction: 0xff000000
   114bc:	000000ff 	strdeq	r0, [r0], -pc	; <UNPREDICTABLE>
   114c0:	00000000 	andeq	r0, r0, r0
   114c4:	ff000000 			; <UNDEFINED> instruction: 0xff000000
   114c8:	000000ff 	strdeq	r0, [r0], -pc	; <UNPREDICTABLE>
	...
   11510:	ff000000 			; <UNDEFINED> instruction: 0xff000000
   11514:	ffffffff 			; <UNDEFINED> instruction: 0xffffffff
   11518:	00ffffff 	ldrshteq	pc, [pc], #255	; <UNPREDICTABLE>
   1151c:	00000000 	andeq	r0, r0, r0
   11520:	ff000000 			; <UNDEFINED> instruction: 0xff000000
   11524:	000000ff 	strdeq	r0, [r0], -pc	; <UNPREDICTABLE>
	...
   11534:	ffffff00 			; <UNDEFINED> instruction: 0xffffff00
   11538:	00ffffff 	ldrshteq	pc, [pc], #255	; <UNPREDICTABLE>
	...
   11548:	ff000000 			; <UNDEFINED> instruction: 0xff000000
   1154c:	000000ff 	strdeq	r0, [r0], -pc	; <UNPREDICTABLE>
   11550:	00000000 	andeq	r0, r0, r0
   11554:	ffffff00 			; <UNDEFINED> instruction: 0xffffff00
   11558:	00ffffff 	ldrshteq	pc, [pc], #255	; <UNPREDICTABLE>
	...
   11564:	ff000000 			; <UNDEFINED> instruction: 0xff000000
   11568:	ffffffff 			; <UNDEFINED> instruction: 0xffffffff
   1156c:	000000ff 	strdeq	r0, [r0], -pc	; <UNPREDICTABLE>
   11570:	00000000 	andeq	r0, r0, r0
   11574:	ffffff00 			; <UNDEFINED> instruction: 0xffffff00
   11578:	ffffffff 			; <UNDEFINED> instruction: 0xffffffff
   1157c:	000000ff 	strdeq	r0, [r0], -pc	; <UNPREDICTABLE>
   11580:	ff000000 			; <UNDEFINED> instruction: 0xff000000
   11584:	000000ff 	strdeq	r0, [r0], -pc	; <UNPREDICTABLE>
	...
   11594:	ff000000 			; <UNDEFINED> instruction: 0xff000000
   11598:	000000ff 	strdeq	r0, [r0], -pc	; <UNPREDICTABLE>
	...
   115a4:	ff000000 			; <UNDEFINED> instruction: 0xff000000
   115a8:	000000ff 	strdeq	r0, [r0], -pc	; <UNPREDICTABLE>
   115ac:	00000000 	andeq	r0, r0, r0
   115b0:	ff000000 			; <UNDEFINED> instruction: 0xff000000
   115b4:	000000ff 	strdeq	r0, [r0], -pc	; <UNPREDICTABLE>
   115b8:	ff000000 			; <UNDEFINED> instruction: 0xff000000
   115bc:	000000ff 	strdeq	r0, [r0], -pc	; <UNPREDICTABLE>
   115c0:	00000000 	andeq	r0, r0, r0
   115c4:	ff000000 			; <UNDEFINED> instruction: 0xff000000
   115c8:	000000ff 	strdeq	r0, [r0], -pc	; <UNPREDICTABLE>
	...
   11618:	ff000000 			; <UNDEFINED> instruction: 0xff000000
   1161c:	000000ff 	strdeq	r0, [r0], -pc	; <UNPREDICTABLE>
   11620:	ff000000 			; <UNDEFINED> instruction: 0xff000000
   11624:	000000ff 	strdeq	r0, [r0], -pc	; <UNPREDICTABLE>
	...
   11630:	ff000000 			; <UNDEFINED> instruction: 0xff000000
   11634:	000000ff 	strdeq	r0, [r0], -pc	; <UNPREDICTABLE>
   11638:	ff000000 			; <UNDEFINED> instruction: 0xff000000
   1163c:	000000ff 	strdeq	r0, [r0], -pc	; <UNPREDICTABLE>
	...
   11648:	ff000000 			; <UNDEFINED> instruction: 0xff000000
   1164c:	000000ff 	strdeq	r0, [r0], -pc	; <UNPREDICTABLE>
   11650:	ff000000 			; <UNDEFINED> instruction: 0xff000000
   11654:	000000ff 	strdeq	r0, [r0], -pc	; <UNPREDICTABLE>
   11658:	ff000000 			; <UNDEFINED> instruction: 0xff000000
   1165c:	000000ff 	strdeq	r0, [r0], -pc	; <UNPREDICTABLE>
   11660:	00000000 	andeq	r0, r0, r0
   11664:	ff000000 			; <UNDEFINED> instruction: 0xff000000
   11668:	000000ff 	strdeq	r0, [r0], -pc	; <UNPREDICTABLE>
   1166c:	00000000 	andeq	r0, r0, r0
   11670:	ff000000 			; <UNDEFINED> instruction: 0xff000000
   11674:	000000ff 	strdeq	r0, [r0], -pc	; <UNPREDICTABLE>
   11678:	ff000000 			; <UNDEFINED> instruction: 0xff000000
   1167c:	000000ff 	strdeq	r0, [r0], -pc	; <UNPREDICTABLE>
   11680:	ff000000 			; <UNDEFINED> instruction: 0xff000000
   11684:	000000ff 	strdeq	r0, [r0], -pc	; <UNPREDICTABLE>
	...
   116b0:	ff000000 			; <UNDEFINED> instruction: 0xff000000
   116b4:	000000ff 	strdeq	r0, [r0], -pc	; <UNPREDICTABLE>
   116b8:	00ffff00 	rscseq	pc, pc, r0, lsl #30
	...
   116c4:	ff000000 			; <UNDEFINED> instruction: 0xff000000
   116c8:	000000ff 	strdeq	r0, [r0], -pc	; <UNPREDICTABLE>
   116cc:	00000000 	andeq	r0, r0, r0
   116d0:	ff000000 			; <UNDEFINED> instruction: 0xff000000
   116d4:	ffffffff 			; <UNDEFINED> instruction: 0xffffffff
   116d8:	ffffffff 			; <UNDEFINED> instruction: 0xffffffff
   116dc:	000000ff 	strdeq	r0, [r0], -pc	; <UNPREDICTABLE>
   116e0:	ff000000 			; <UNDEFINED> instruction: 0xff000000
   116e4:	ffffffff 			; <UNDEFINED> instruction: 0xffffffff
   116e8:	ffffffff 			; <UNDEFINED> instruction: 0xffffffff
   116ec:	000000ff 	strdeq	r0, [r0], -pc	; <UNPREDICTABLE>
   116f0:	00000000 	andeq	r0, r0, r0
   116f4:	ffffff00 			; <UNDEFINED> instruction: 0xffffff00
   116f8:	00ffffff 	ldrshteq	pc, [pc], #255	; <UNPREDICTABLE>
	...
   11718:	ff000000 			; <UNDEFINED> instruction: 0xff000000
   1171c:	000000ff 	strdeq	r0, [r0], -pc	; <UNPREDICTABLE>
   11720:	ff000000 			; <UNDEFINED> instruction: 0xff000000
   11724:	000000ff 	strdeq	r0, [r0], -pc	; <UNPREDICTABLE>
	...
   11730:	ff000000 			; <UNDEFINED> instruction: 0xff000000
   11734:	000000ff 	strdeq	r0, [r0], -pc	; <UNPREDICTABLE>
   11738:	ff000000 			; <UNDEFINED> instruction: 0xff000000
   1173c:	000000ff 	strdeq	r0, [r0], -pc	; <UNPREDICTABLE>
	...
   11748:	ff000000 			; <UNDEFINED> instruction: 0xff000000
   1174c:	000000ff 	strdeq	r0, [r0], -pc	; <UNPREDICTABLE>
   11750:	ff000000 			; <UNDEFINED> instruction: 0xff000000
   11754:	000000ff 	strdeq	r0, [r0], -pc	; <UNPREDICTABLE>
   11758:	ff000000 			; <UNDEFINED> instruction: 0xff000000
   1175c:	000000ff 	strdeq	r0, [r0], -pc	; <UNPREDICTABLE>
   11760:	00000000 	andeq	r0, r0, r0
   11764:	ff000000 			; <UNDEFINED> instruction: 0xff000000
   11768:	000000ff 	strdeq	r0, [r0], -pc	; <UNPREDICTABLE>
   1176c:	00000000 	andeq	r0, r0, r0
   11770:	ff000000 			; <UNDEFINED> instruction: 0xff000000
   11774:	000000ff 	strdeq	r0, [r0], -pc	; <UNPREDICTABLE>
   11778:	ff000000 			; <UNDEFINED> instruction: 0xff000000
   1177c:	000000ff 	strdeq	r0, [r0], -pc	; <UNPREDICTABLE>
   11780:	ff000000 			; <UNDEFINED> instruction: 0xff000000
   11784:	000000ff 	strdeq	r0, [r0], -pc	; <UNPREDICTABLE>
	...
   117b0:	ff000000 			; <UNDEFINED> instruction: 0xff000000
   117b4:	000000ff 	strdeq	r0, [r0], -pc	; <UNPREDICTABLE>
   117b8:	00ffff00 	rscseq	pc, pc, r0, lsl #30
	...
   117c4:	ff000000 			; <UNDEFINED> instruction: 0xff000000
   117c8:	000000ff 	strdeq	r0, [r0], -pc	; <UNPREDICTABLE>
   117cc:	00000000 	andeq	r0, r0, r0
   117d0:	ff000000 			; <UNDEFINED> instruction: 0xff000000
   117d4:	ffffffff 			; <UNDEFINED> instruction: 0xffffffff
   117d8:	ffffffff 			; <UNDEFINED> instruction: 0xffffffff
   117dc:	000000ff 	strdeq	r0, [r0], -pc	; <UNPREDICTABLE>
   117e0:	ff000000 			; <UNDEFINED> instruction: 0xff000000
   117e4:	ffffffff 			; <UNDEFINED> instruction: 0xffffffff
   117e8:	ffffffff 			; <UNDEFINED> instruction: 0xffffffff
   117ec:	000000ff 	strdeq	r0, [r0], -pc	; <UNPREDICTABLE>
   117f0:	00000000 	andeq	r0, r0, r0
   117f4:	ffffff00 			; <UNDEFINED> instruction: 0xffffff00
   117f8:	00ffffff 	ldrshteq	pc, [pc], #255	; <UNPREDICTABLE>
	...
   11810:	ff000000 			; <UNDEFINED> instruction: 0xff000000
   11814:	ffffffff 			; <UNDEFINED> instruction: 0xffffffff
   11818:	ffffffff 			; <UNDEFINED> instruction: 0xffffffff
   1181c:	000000ff 	strdeq	r0, [r0], -pc	; <UNPREDICTABLE>
   11820:	ff000000 			; <UNDEFINED> instruction: 0xff000000
   11824:	ffffffff 			; <UNDEFINED> instruction: 0xffffffff
   11828:	ffffffff 			; <UNDEFINED> instruction: 0xffffffff
   1182c:	000000ff 	strdeq	r0, [r0], -pc	; <UNPREDICTABLE>
   11830:	ff000000 			; <UNDEFINED> instruction: 0xff000000
   11834:	000000ff 	strdeq	r0, [r0], -pc	; <UNPREDICTABLE>
	...
   11840:	ff000000 			; <UNDEFINED> instruction: 0xff000000
   11844:	ffffffff 			; <UNDEFINED> instruction: 0xffffffff
   11848:	ffffffff 			; <UNDEFINED> instruction: 0xffffffff
   1184c:	000000ff 	strdeq	r0, [r0], -pc	; <UNPREDICTABLE>
   11850:	ff000000 			; <UNDEFINED> instruction: 0xff000000
   11854:	ffffffff 			; <UNDEFINED> instruction: 0xffffffff
   11858:	ffffffff 			; <UNDEFINED> instruction: 0xffffffff
   1185c:	000000ff 	strdeq	r0, [r0], -pc	; <UNPREDICTABLE>
   11860:	ff000000 			; <UNDEFINED> instruction: 0xff000000
   11864:	ffffffff 			; <UNDEFINED> instruction: 0xffffffff
   11868:	00ffffff 	ldrshteq	pc, [pc], #255	; <UNPREDICTABLE>
	...
   11874:	ffffff00 			; <UNDEFINED> instruction: 0xffffff00
   11878:	ffffffff 			; <UNDEFINED> instruction: 0xffffffff
   1187c:	000000ff 	strdeq	r0, [r0], -pc	; <UNPREDICTABLE>
   11880:	ff000000 			; <UNDEFINED> instruction: 0xff000000
   11884:	ffffffff 			; <UNDEFINED> instruction: 0xffffffff
   11888:	ffffffff 			; <UNDEFINED> instruction: 0xffffffff
   1188c:	000000ff 	strdeq	r0, [r0], -pc	; <UNPREDICTABLE>
   11890:	00000000 	andeq	r0, r0, r0
   11894:	ff000000 			; <UNDEFINED> instruction: 0xff000000
   11898:	000000ff 	strdeq	r0, [r0], -pc	; <UNPREDICTABLE>
	...
   118a4:	ff000000 			; <UNDEFINED> instruction: 0xff000000
   118a8:	000000ff 	strdeq	r0, [r0], -pc	; <UNPREDICTABLE>
   118ac:	00000000 	andeq	r0, r0, r0
   118b0:	ff000000 			; <UNDEFINED> instruction: 0xff000000
   118b4:	ffffffff 			; <UNDEFINED> instruction: 0xffffffff
   118b8:	000000ff 	strdeq	r0, [r0], -pc	; <UNPREDICTABLE>
	...
   118c4:	ff000000 			; <UNDEFINED> instruction: 0xff000000
   118c8:	000000ff 	strdeq	r0, [r0], -pc	; <UNPREDICTABLE>
   118cc:	00000000 	andeq	r0, r0, r0
   118d0:	ff000000 			; <UNDEFINED> instruction: 0xff000000
   118d4:	ff0000ff 			; <UNDEFINED> instruction: 0xff0000ff
   118d8:	ff0000ff 			; <UNDEFINED> instruction: 0xff0000ff
   118dc:	000000ff 	strdeq	r0, [r0], -pc	; <UNPREDICTABLE>
   118e0:	ff000000 			; <UNDEFINED> instruction: 0xff000000
   118e4:	000000ff 	strdeq	r0, [r0], -pc	; <UNPREDICTABLE>
   118e8:	ff000000 			; <UNDEFINED> instruction: 0xff000000
   118ec:	000000ff 	strdeq	r0, [r0], -pc	; <UNPREDICTABLE>
   118f0:	ff000000 			; <UNDEFINED> instruction: 0xff000000
   118f4:	000000ff 	strdeq	r0, [r0], -pc	; <UNPREDICTABLE>
   118f8:	ff000000 			; <UNDEFINED> instruction: 0xff000000
   118fc:	000000ff 	strdeq	r0, [r0], -pc	; <UNPREDICTABLE>
	...
   11910:	ff000000 			; <UNDEFINED> instruction: 0xff000000
   11914:	ffffffff 			; <UNDEFINED> instruction: 0xffffffff
   11918:	ffffffff 			; <UNDEFINED> instruction: 0xffffffff
   1191c:	000000ff 	strdeq	r0, [r0], -pc	; <UNPREDICTABLE>
   11920:	ff000000 			; <UNDEFINED> instruction: 0xff000000
   11924:	ffffffff 			; <UNDEFINED> instruction: 0xffffffff
   11928:	ffffffff 			; <UNDEFINED> instruction: 0xffffffff
   1192c:	000000ff 	strdeq	r0, [r0], -pc	; <UNPREDICTABLE>
   11930:	ff000000 			; <UNDEFINED> instruction: 0xff000000
   11934:	000000ff 	strdeq	r0, [r0], -pc	; <UNPREDICTABLE>
	...
   11940:	ff000000 			; <UNDEFINED> instruction: 0xff000000
   11944:	ffffffff 			; <UNDEFINED> instruction: 0xffffffff
   11948:	ffffffff 			; <UNDEFINED> instruction: 0xffffffff
   1194c:	000000ff 	strdeq	r0, [r0], -pc	; <UNPREDICTABLE>
   11950:	ff000000 			; <UNDEFINED> instruction: 0xff000000
   11954:	ffffffff 			; <UNDEFINED> instruction: 0xffffffff
   11958:	ffffffff 			; <UNDEFINED> instruction: 0xffffffff
   1195c:	000000ff 	strdeq	r0, [r0], -pc	; <UNPREDICTABLE>
   11960:	ff000000 			; <UNDEFINED> instruction: 0xff000000
   11964:	ffffffff 			; <UNDEFINED> instruction: 0xffffffff
   11968:	00ffffff 	ldrshteq	pc, [pc], #255	; <UNPREDICTABLE>
	...
   11974:	ffffff00 			; <UNDEFINED> instruction: 0xffffff00
   11978:	ffffffff 			; <UNDEFINED> instruction: 0xffffffff
   1197c:	000000ff 	strdeq	r0, [r0], -pc	; <UNPREDICTABLE>
   11980:	ff000000 			; <UNDEFINED> instruction: 0xff000000
   11984:	ffffffff 			; <UNDEFINED> instruction: 0xffffffff
   11988:	ffffffff 			; <UNDEFINED> instruction: 0xffffffff
   1198c:	000000ff 	strdeq	r0, [r0], -pc	; <UNPREDICTABLE>
   11990:	00000000 	andeq	r0, r0, r0
   11994:	ff000000 			; <UNDEFINED> instruction: 0xff000000
   11998:	000000ff 	strdeq	r0, [r0], -pc	; <UNPREDICTABLE>
	...
   119a4:	ff000000 			; <UNDEFINED> instruction: 0xff000000
   119a8:	000000ff 	strdeq	r0, [r0], -pc	; <UNPREDICTABLE>
   119ac:	00000000 	andeq	r0, r0, r0
   119b0:	ff000000 			; <UNDEFINED> instruction: 0xff000000
   119b4:	ffffffff 			; <UNDEFINED> instruction: 0xffffffff
   119b8:	000000ff 	strdeq	r0, [r0], -pc	; <UNPREDICTABLE>
	...
   119c4:	ff000000 			; <UNDEFINED> instruction: 0xff000000
   119c8:	000000ff 	strdeq	r0, [r0], -pc	; <UNPREDICTABLE>
   119cc:	00000000 	andeq	r0, r0, r0
   119d0:	ff000000 			; <UNDEFINED> instruction: 0xff000000
   119d4:	ff0000ff 			; <UNDEFINED> instruction: 0xff0000ff
   119d8:	ff0000ff 			; <UNDEFINED> instruction: 0xff0000ff
   119dc:	000000ff 	strdeq	r0, [r0], -pc	; <UNPREDICTABLE>
   119e0:	ff000000 			; <UNDEFINED> instruction: 0xff000000
   119e4:	000000ff 	strdeq	r0, [r0], -pc	; <UNPREDICTABLE>
   119e8:	ff000000 			; <UNDEFINED> instruction: 0xff000000
   119ec:	000000ff 	strdeq	r0, [r0], -pc	; <UNPREDICTABLE>
   119f0:	ff000000 			; <UNDEFINED> instruction: 0xff000000
   119f4:	000000ff 	strdeq	r0, [r0], -pc	; <UNPREDICTABLE>
   119f8:	ff000000 			; <UNDEFINED> instruction: 0xff000000
   119fc:	000000ff 	strdeq	r0, [r0], -pc	; <UNPREDICTABLE>
	...
   11a10:	ff000000 			; <UNDEFINED> instruction: 0xff000000
   11a14:	000000ff 	strdeq	r0, [r0], -pc	; <UNPREDICTABLE>
   11a18:	ff000000 			; <UNDEFINED> instruction: 0xff000000
   11a1c:	000000ff 	strdeq	r0, [r0], -pc	; <UNPREDICTABLE>
   11a20:	ff000000 			; <UNDEFINED> instruction: 0xff000000
   11a24:	000000ff 	strdeq	r0, [r0], -pc	; <UNPREDICTABLE>
   11a28:	ff000000 			; <UNDEFINED> instruction: 0xff000000
   11a2c:	000000ff 	strdeq	r0, [r0], -pc	; <UNPREDICTABLE>
   11a30:	ff000000 			; <UNDEFINED> instruction: 0xff000000
   11a34:	000000ff 	strdeq	r0, [r0], -pc	; <UNPREDICTABLE>
	...
   11a40:	ff000000 			; <UNDEFINED> instruction: 0xff000000
   11a44:	000000ff 	strdeq	r0, [r0], -pc	; <UNPREDICTABLE>
   11a48:	ff000000 			; <UNDEFINED> instruction: 0xff000000
   11a4c:	000000ff 	strdeq	r0, [r0], -pc	; <UNPREDICTABLE>
   11a50:	ff000000 			; <UNDEFINED> instruction: 0xff000000
   11a54:	000000ff 	strdeq	r0, [r0], -pc	; <UNPREDICTABLE>
	...
   11a64:	ff000000 			; <UNDEFINED> instruction: 0xff000000
   11a68:	000000ff 	strdeq	r0, [r0], -pc	; <UNPREDICTABLE>
	...
   11a78:	ff000000 			; <UNDEFINED> instruction: 0xff000000
   11a7c:	000000ff 	strdeq	r0, [r0], -pc	; <UNPREDICTABLE>
   11a80:	ff000000 			; <UNDEFINED> instruction: 0xff000000
   11a84:	000000ff 	strdeq	r0, [r0], -pc	; <UNPREDICTABLE>
   11a88:	ff000000 			; <UNDEFINED> instruction: 0xff000000
   11a8c:	000000ff 	strdeq	r0, [r0], -pc	; <UNPREDICTABLE>
   11a90:	00000000 	andeq	r0, r0, r0
   11a94:	ff000000 			; <UNDEFINED> instruction: 0xff000000
   11a98:	000000ff 	strdeq	r0, [r0], -pc	; <UNPREDICTABLE>
	...
   11aa4:	ff000000 			; <UNDEFINED> instruction: 0xff000000
   11aa8:	000000ff 	strdeq	r0, [r0], -pc	; <UNPREDICTABLE>
   11aac:	00000000 	andeq	r0, r0, r0
   11ab0:	ff000000 			; <UNDEFINED> instruction: 0xff000000
   11ab4:	ff0000ff 			; <UNDEFINED> instruction: 0xff0000ff
   11ab8:	00ffffff 	ldrshteq	pc, [pc], #255	; <UNPREDICTABLE>
	...
   11ac4:	ff000000 			; <UNDEFINED> instruction: 0xff000000
   11ac8:	000000ff 	strdeq	r0, [r0], -pc	; <UNPREDICTABLE>
   11acc:	00000000 	andeq	r0, r0, r0
   11ad0:	ff000000 			; <UNDEFINED> instruction: 0xff000000
   11ad4:	ff0000ff 			; <UNDEFINED> instruction: 0xff0000ff
   11ad8:	ff0000ff 			; <UNDEFINED> instruction: 0xff0000ff
   11adc:	000000ff 	strdeq	r0, [r0], -pc	; <UNPREDICTABLE>
   11ae0:	ff000000 			; <UNDEFINED> instruction: 0xff000000
   11ae4:	000000ff 	strdeq	r0, [r0], -pc	; <UNPREDICTABLE>
   11ae8:	ff000000 			; <UNDEFINED> instruction: 0xff000000
   11aec:	000000ff 	strdeq	r0, [r0], -pc	; <UNPREDICTABLE>
   11af0:	ff000000 			; <UNDEFINED> instruction: 0xff000000
   11af4:	000000ff 	strdeq	r0, [r0], -pc	; <UNPREDICTABLE>
   11af8:	ff000000 			; <UNDEFINED> instruction: 0xff000000
   11afc:	000000ff 	strdeq	r0, [r0], -pc	; <UNPREDICTABLE>
	...
   11b10:	ff000000 			; <UNDEFINED> instruction: 0xff000000
   11b14:	000000ff 	strdeq	r0, [r0], -pc	; <UNPREDICTABLE>
   11b18:	ff000000 			; <UNDEFINED> instruction: 0xff000000
   11b1c:	000000ff 	strdeq	r0, [r0], -pc	; <UNPREDICTABLE>
   11b20:	ff000000 			; <UNDEFINED> instruction: 0xff000000
   11b24:	000000ff 	strdeq	r0, [r0], -pc	; <UNPREDICTABLE>
   11b28:	ff000000 			; <UNDEFINED> instruction: 0xff000000
   11b2c:	000000ff 	strdeq	r0, [r0], -pc	; <UNPREDICTABLE>
   11b30:	ff000000 			; <UNDEFINED> instruction: 0xff000000
   11b34:	000000ff 	strdeq	r0, [r0], -pc	; <UNPREDICTABLE>
	...
   11b40:	ff000000 			; <UNDEFINED> instruction: 0xff000000
   11b44:	000000ff 	strdeq	r0, [r0], -pc	; <UNPREDICTABLE>
   11b48:	ff000000 			; <UNDEFINED> instruction: 0xff000000
   11b4c:	000000ff 	strdeq	r0, [r0], -pc	; <UNPREDICTABLE>
   11b50:	ff000000 			; <UNDEFINED> instruction: 0xff000000
   11b54:	000000ff 	strdeq	r0, [r0], -pc	; <UNPREDICTABLE>
	...
   11b64:	ff000000 			; <UNDEFINED> instruction: 0xff000000
   11b68:	000000ff 	strdeq	r0, [r0], -pc	; <UNPREDICTABLE>
	...
   11b78:	ff000000 			; <UNDEFINED> instruction: 0xff000000
   11b7c:	000000ff 	strdeq	r0, [r0], -pc	; <UNPREDICTABLE>
   11b80:	ff000000 			; <UNDEFINED> instruction: 0xff000000
   11b84:	000000ff 	strdeq	r0, [r0], -pc	; <UNPREDICTABLE>
   11b88:	ff000000 			; <UNDEFINED> instruction: 0xff000000
   11b8c:	000000ff 	strdeq	r0, [r0], -pc	; <UNPREDICTABLE>
   11b90:	00000000 	andeq	r0, r0, r0
   11b94:	ff000000 			; <UNDEFINED> instruction: 0xff000000
   11b98:	000000ff 	strdeq	r0, [r0], -pc	; <UNPREDICTABLE>
	...
   11ba4:	ff000000 			; <UNDEFINED> instruction: 0xff000000
   11ba8:	000000ff 	strdeq	r0, [r0], -pc	; <UNPREDICTABLE>
   11bac:	00000000 	andeq	r0, r0, r0
   11bb0:	ff000000 			; <UNDEFINED> instruction: 0xff000000
   11bb4:	ff0000ff 			; <UNDEFINED> instruction: 0xff0000ff
   11bb8:	00ffffff 	ldrshteq	pc, [pc], #255	; <UNPREDICTABLE>
	...
   11bc4:	ff000000 			; <UNDEFINED> instruction: 0xff000000
   11bc8:	000000ff 	strdeq	r0, [r0], -pc	; <UNPREDICTABLE>
   11bcc:	00000000 	andeq	r0, r0, r0
   11bd0:	ff000000 			; <UNDEFINED> instruction: 0xff000000
   11bd4:	ff0000ff 			; <UNDEFINED> instruction: 0xff0000ff
   11bd8:	ff0000ff 			; <UNDEFINED> instruction: 0xff0000ff
   11bdc:	000000ff 	strdeq	r0, [r0], -pc	; <UNPREDICTABLE>
   11be0:	ff000000 			; <UNDEFINED> instruction: 0xff000000
   11be4:	000000ff 	strdeq	r0, [r0], -pc	; <UNPREDICTABLE>
   11be8:	ff000000 			; <UNDEFINED> instruction: 0xff000000
   11bec:	000000ff 	strdeq	r0, [r0], -pc	; <UNPREDICTABLE>
   11bf0:	ff000000 			; <UNDEFINED> instruction: 0xff000000
   11bf4:	000000ff 	strdeq	r0, [r0], -pc	; <UNPREDICTABLE>
   11bf8:	ff000000 			; <UNDEFINED> instruction: 0xff000000
   11bfc:	000000ff 	strdeq	r0, [r0], -pc	; <UNPREDICTABLE>
	...
   11c10:	ff000000 			; <UNDEFINED> instruction: 0xff000000
   11c14:	000000ff 	strdeq	r0, [r0], -pc	; <UNPREDICTABLE>
   11c18:	ff000000 			; <UNDEFINED> instruction: 0xff000000
   11c1c:	000000ff 	strdeq	r0, [r0], -pc	; <UNPREDICTABLE>
   11c20:	ff000000 			; <UNDEFINED> instruction: 0xff000000
   11c24:	000000ff 	strdeq	r0, [r0], -pc	; <UNPREDICTABLE>
   11c28:	ff000000 			; <UNDEFINED> instruction: 0xff000000
   11c2c:	000000ff 	strdeq	r0, [r0], -pc	; <UNPREDICTABLE>
   11c30:	ff000000 			; <UNDEFINED> instruction: 0xff000000
   11c34:	000000ff 	strdeq	r0, [r0], -pc	; <UNPREDICTABLE>
   11c38:	ff000000 			; <UNDEFINED> instruction: 0xff000000
   11c3c:	000000ff 	strdeq	r0, [r0], -pc	; <UNPREDICTABLE>
   11c40:	ff000000 			; <UNDEFINED> instruction: 0xff000000
   11c44:	000000ff 	strdeq	r0, [r0], -pc	; <UNPREDICTABLE>
   11c48:	ff000000 			; <UNDEFINED> instruction: 0xff000000
   11c4c:	000000ff 	strdeq	r0, [r0], -pc	; <UNPREDICTABLE>
   11c50:	ff000000 			; <UNDEFINED> instruction: 0xff000000
   11c54:	000000ff 	strdeq	r0, [r0], -pc	; <UNPREDICTABLE>
   11c58:	ff000000 			; <UNDEFINED> instruction: 0xff000000
   11c5c:	000000ff 	strdeq	r0, [r0], -pc	; <UNPREDICTABLE>
   11c60:	00000000 	andeq	r0, r0, r0
   11c64:	ff000000 			; <UNDEFINED> instruction: 0xff000000
   11c68:	000000ff 	strdeq	r0, [r0], -pc	; <UNPREDICTABLE>
   11c6c:	00000000 	andeq	r0, r0, r0
   11c70:	ff000000 			; <UNDEFINED> instruction: 0xff000000
   11c74:	000000ff 	strdeq	r0, [r0], -pc	; <UNPREDICTABLE>
   11c78:	ff000000 			; <UNDEFINED> instruction: 0xff000000
   11c7c:	000000ff 	strdeq	r0, [r0], -pc	; <UNPREDICTABLE>
   11c80:	ff000000 			; <UNDEFINED> instruction: 0xff000000
   11c84:	000000ff 	strdeq	r0, [r0], -pc	; <UNPREDICTABLE>
   11c88:	ff000000 			; <UNDEFINED> instruction: 0xff000000
   11c8c:	000000ff 	strdeq	r0, [r0], -pc	; <UNPREDICTABLE>
   11c90:	00000000 	andeq	r0, r0, r0
   11c94:	ff000000 			; <UNDEFINED> instruction: 0xff000000
   11c98:	000000ff 	strdeq	r0, [r0], -pc	; <UNPREDICTABLE>
   11c9c:	00000000 	andeq	r0, r0, r0
   11ca0:	ff000000 			; <UNDEFINED> instruction: 0xff000000
   11ca4:	ff0000ff 			; <UNDEFINED> instruction: 0xff0000ff
   11ca8:	000000ff 	strdeq	r0, [r0], -pc	; <UNPREDICTABLE>
   11cac:	00000000 	andeq	r0, r0, r0
   11cb0:	ff000000 			; <UNDEFINED> instruction: 0xff000000
   11cb4:	000000ff 	strdeq	r0, [r0], -pc	; <UNPREDICTABLE>
   11cb8:	00ffff00 	rscseq	pc, pc, r0, lsl #30
	...
   11cc4:	ff000000 			; <UNDEFINED> instruction: 0xff000000
   11cc8:	000000ff 	strdeq	r0, [r0], -pc	; <UNPREDICTABLE>
   11ccc:	00000000 	andeq	r0, r0, r0
   11cd0:	ff000000 			; <UNDEFINED> instruction: 0xff000000
   11cd4:	ff0000ff 			; <UNDEFINED> instruction: 0xff0000ff
   11cd8:	ff0000ff 			; <UNDEFINED> instruction: 0xff0000ff
   11cdc:	000000ff 	strdeq	r0, [r0], -pc	; <UNPREDICTABLE>
   11ce0:	ff000000 			; <UNDEFINED> instruction: 0xff000000
   11ce4:	000000ff 	strdeq	r0, [r0], -pc	; <UNPREDICTABLE>
   11ce8:	ff000000 			; <UNDEFINED> instruction: 0xff000000
   11cec:	000000ff 	strdeq	r0, [r0], -pc	; <UNPREDICTABLE>
   11cf0:	ff000000 			; <UNDEFINED> instruction: 0xff000000
   11cf4:	000000ff 	strdeq	r0, [r0], -pc	; <UNPREDICTABLE>
   11cf8:	ff000000 			; <UNDEFINED> instruction: 0xff000000
   11cfc:	000000ff 	strdeq	r0, [r0], -pc	; <UNPREDICTABLE>
	...
   11d10:	ff000000 			; <UNDEFINED> instruction: 0xff000000
   11d14:	000000ff 	strdeq	r0, [r0], -pc	; <UNPREDICTABLE>
   11d18:	ff000000 			; <UNDEFINED> instruction: 0xff000000
   11d1c:	000000ff 	strdeq	r0, [r0], -pc	; <UNPREDICTABLE>
   11d20:	ff000000 			; <UNDEFINED> instruction: 0xff000000
   11d24:	000000ff 	strdeq	r0, [r0], -pc	; <UNPREDICTABLE>
   11d28:	ff000000 			; <UNDEFINED> instruction: 0xff000000
   11d2c:	000000ff 	strdeq	r0, [r0], -pc	; <UNPREDICTABLE>
   11d30:	ff000000 			; <UNDEFINED> instruction: 0xff000000
   11d34:	000000ff 	strdeq	r0, [r0], -pc	; <UNPREDICTABLE>
   11d38:	ff000000 			; <UNDEFINED> instruction: 0xff000000
   11d3c:	000000ff 	strdeq	r0, [r0], -pc	; <UNPREDICTABLE>
   11d40:	ff000000 			; <UNDEFINED> instruction: 0xff000000
   11d44:	000000ff 	strdeq	r0, [r0], -pc	; <UNPREDICTABLE>
   11d48:	ff000000 			; <UNDEFINED> instruction: 0xff000000
   11d4c:	000000ff 	strdeq	r0, [r0], -pc	; <UNPREDICTABLE>
   11d50:	ff000000 			; <UNDEFINED> instruction: 0xff000000
   11d54:	000000ff 	strdeq	r0, [r0], -pc	; <UNPREDICTABLE>
   11d58:	ff000000 			; <UNDEFINED> instruction: 0xff000000
   11d5c:	000000ff 	strdeq	r0, [r0], -pc	; <UNPREDICTABLE>
   11d60:	00000000 	andeq	r0, r0, r0
   11d64:	ff000000 			; <UNDEFINED> instruction: 0xff000000
   11d68:	000000ff 	strdeq	r0, [r0], -pc	; <UNPREDICTABLE>
   11d6c:	00000000 	andeq	r0, r0, r0
   11d70:	ff000000 			; <UNDEFINED> instruction: 0xff000000
   11d74:	000000ff 	strdeq	r0, [r0], -pc	; <UNPREDICTABLE>
   11d78:	ff000000 			; <UNDEFINED> instruction: 0xff000000
   11d7c:	000000ff 	strdeq	r0, [r0], -pc	; <UNPREDICTABLE>
   11d80:	ff000000 			; <UNDEFINED> instruction: 0xff000000
   11d84:	000000ff 	strdeq	r0, [r0], -pc	; <UNPREDICTABLE>
   11d88:	ff000000 			; <UNDEFINED> instruction: 0xff000000
   11d8c:	000000ff 	strdeq	r0, [r0], -pc	; <UNPREDICTABLE>
   11d90:	00000000 	andeq	r0, r0, r0
   11d94:	ff000000 			; <UNDEFINED> instruction: 0xff000000
   11d98:	000000ff 	strdeq	r0, [r0], -pc	; <UNPREDICTABLE>
   11d9c:	00000000 	andeq	r0, r0, r0
   11da0:	ff000000 			; <UNDEFINED> instruction: 0xff000000
   11da4:	ff0000ff 			; <UNDEFINED> instruction: 0xff0000ff
   11da8:	000000ff 	strdeq	r0, [r0], -pc	; <UNPREDICTABLE>
   11dac:	00000000 	andeq	r0, r0, r0
   11db0:	ff000000 			; <UNDEFINED> instruction: 0xff000000
   11db4:	000000ff 	strdeq	r0, [r0], -pc	; <UNPREDICTABLE>
   11db8:	00ffff00 	rscseq	pc, pc, r0, lsl #30
	...
   11dc4:	ff000000 			; <UNDEFINED> instruction: 0xff000000
   11dc8:	000000ff 	strdeq	r0, [r0], -pc	; <UNPREDICTABLE>
   11dcc:	00000000 	andeq	r0, r0, r0
   11dd0:	ff000000 			; <UNDEFINED> instruction: 0xff000000
   11dd4:	ff0000ff 			; <UNDEFINED> instruction: 0xff0000ff
   11dd8:	ff0000ff 			; <UNDEFINED> instruction: 0xff0000ff
   11ddc:	000000ff 	strdeq	r0, [r0], -pc	; <UNPREDICTABLE>
   11de0:	ff000000 			; <UNDEFINED> instruction: 0xff000000
   11de4:	000000ff 	strdeq	r0, [r0], -pc	; <UNPREDICTABLE>
   11de8:	ff000000 			; <UNDEFINED> instruction: 0xff000000
   11dec:	000000ff 	strdeq	r0, [r0], -pc	; <UNPREDICTABLE>
   11df0:	ff000000 			; <UNDEFINED> instruction: 0xff000000
   11df4:	000000ff 	strdeq	r0, [r0], -pc	; <UNPREDICTABLE>
   11df8:	ff000000 			; <UNDEFINED> instruction: 0xff000000
   11dfc:	000000ff 	strdeq	r0, [r0], -pc	; <UNPREDICTABLE>
	...
   11e10:	ff000000 			; <UNDEFINED> instruction: 0xff000000
   11e14:	ffffffff 			; <UNDEFINED> instruction: 0xffffffff
   11e18:	ffffffff 			; <UNDEFINED> instruction: 0xffffffff
   11e1c:	000000ff 	strdeq	r0, [r0], -pc	; <UNPREDICTABLE>
   11e20:	ff000000 			; <UNDEFINED> instruction: 0xff000000
   11e24:	ffffffff 			; <UNDEFINED> instruction: 0xffffffff
   11e28:	ffffffff 			; <UNDEFINED> instruction: 0xffffffff
   11e2c:	000000ff 	strdeq	r0, [r0], -pc	; <UNPREDICTABLE>
   11e30:	00000000 	andeq	r0, r0, r0
   11e34:	ffffff00 			; <UNDEFINED> instruction: 0xffffff00
   11e38:	00ffffff 	ldrshteq	pc, [pc], #255	; <UNPREDICTABLE>
   11e3c:	00000000 	andeq	r0, r0, r0
   11e40:	ff000000 			; <UNDEFINED> instruction: 0xff000000
   11e44:	ffffffff 			; <UNDEFINED> instruction: 0xffffffff
   11e48:	ffffffff 			; <UNDEFINED> instruction: 0xffffffff
   11e4c:	000000ff 	strdeq	r0, [r0], -pc	; <UNPREDICTABLE>
   11e50:	00000000 	andeq	r0, r0, r0
   11e54:	ffffff00 			; <UNDEFINED> instruction: 0xffffff00
   11e58:	00ffffff 	ldrshteq	pc, [pc], #255	; <UNPREDICTABLE>
	...
   11e64:	ff000000 			; <UNDEFINED> instruction: 0xff000000
   11e68:	000000ff 	strdeq	r0, [r0], -pc	; <UNPREDICTABLE>
   11e6c:	00000000 	andeq	r0, r0, r0
   11e70:	ff000000 			; <UNDEFINED> instruction: 0xff000000
   11e74:	ffffffff 			; <UNDEFINED> instruction: 0xffffffff
   11e78:	00ffffff 	ldrshteq	pc, [pc], #255	; <UNPREDICTABLE>
   11e7c:	00000000 	andeq	r0, r0, r0
   11e80:	ff000000 			; <UNDEFINED> instruction: 0xff000000
   11e84:	000000ff 	strdeq	r0, [r0], -pc	; <UNPREDICTABLE>
   11e88:	ff000000 			; <UNDEFINED> instruction: 0xff000000
   11e8c:	000000ff 	strdeq	r0, [r0], -pc	; <UNPREDICTABLE>
   11e90:	00000000 	andeq	r0, r0, r0
   11e94:	ff000000 			; <UNDEFINED> instruction: 0xff000000
   11e98:	000000ff 	strdeq	r0, [r0], -pc	; <UNPREDICTABLE>
   11e9c:	00000000 	andeq	r0, r0, r0
   11ea0:	ff000000 			; <UNDEFINED> instruction: 0xff000000
   11ea4:	ffffffff 			; <UNDEFINED> instruction: 0xffffffff
   11ea8:	000000ff 	strdeq	r0, [r0], -pc	; <UNPREDICTABLE>
   11eac:	00000000 	andeq	r0, r0, r0
   11eb0:	ff000000 			; <UNDEFINED> instruction: 0xff000000
   11eb4:	000000ff 	strdeq	r0, [r0], -pc	; <UNPREDICTABLE>
   11eb8:	ff000000 			; <UNDEFINED> instruction: 0xff000000
   11ebc:	000000ff 	strdeq	r0, [r0], -pc	; <UNPREDICTABLE>
   11ec0:	00000000 	andeq	r0, r0, r0
   11ec4:	ff000000 			; <UNDEFINED> instruction: 0xff000000
   11ec8:	000000ff 	strdeq	r0, [r0], -pc	; <UNPREDICTABLE>
   11ecc:	00000000 	andeq	r0, r0, r0
   11ed0:	ff000000 			; <UNDEFINED> instruction: 0xff000000
   11ed4:	ff0000ff 			; <UNDEFINED> instruction: 0xff0000ff
   11ed8:	ff0000ff 			; <UNDEFINED> instruction: 0xff0000ff
   11edc:	000000ff 	strdeq	r0, [r0], -pc	; <UNPREDICTABLE>
   11ee0:	ff000000 			; <UNDEFINED> instruction: 0xff000000
   11ee4:	000000ff 	strdeq	r0, [r0], -pc	; <UNPREDICTABLE>
   11ee8:	ff000000 			; <UNDEFINED> instruction: 0xff000000
   11eec:	000000ff 	strdeq	r0, [r0], -pc	; <UNPREDICTABLE>
   11ef0:	00000000 	andeq	r0, r0, r0
   11ef4:	ffffff00 			; <UNDEFINED> instruction: 0xffffff00
   11ef8:	00ffffff 	ldrshteq	pc, [pc], #255	; <UNPREDICTABLE>
	...
   11f10:	ff000000 			; <UNDEFINED> instruction: 0xff000000
   11f14:	ffffffff 			; <UNDEFINED> instruction: 0xffffffff
   11f18:	ffffffff 			; <UNDEFINED> instruction: 0xffffffff
   11f1c:	000000ff 	strdeq	r0, [r0], -pc	; <UNPREDICTABLE>
   11f20:	ff000000 			; <UNDEFINED> instruction: 0xff000000
   11f24:	ffffffff 			; <UNDEFINED> instruction: 0xffffffff
   11f28:	ffffffff 			; <UNDEFINED> instruction: 0xffffffff
   11f2c:	000000ff 	strdeq	r0, [r0], -pc	; <UNPREDICTABLE>
   11f30:	00000000 	andeq	r0, r0, r0
   11f34:	ffffff00 			; <UNDEFINED> instruction: 0xffffff00
   11f38:	00ffffff 	ldrshteq	pc, [pc], #255	; <UNPREDICTABLE>
   11f3c:	00000000 	andeq	r0, r0, r0
   11f40:	ff000000 			; <UNDEFINED> instruction: 0xff000000
   11f44:	ffffffff 			; <UNDEFINED> instruction: 0xffffffff
   11f48:	ffffffff 			; <UNDEFINED> instruction: 0xffffffff
   11f4c:	000000ff 	strdeq	r0, [r0], -pc	; <UNPREDICTABLE>
   11f50:	00000000 	andeq	r0, r0, r0
   11f54:	ffffff00 			; <UNDEFINED> instruction: 0xffffff00
   11f58:	00ffffff 	ldrshteq	pc, [pc], #255	; <UNPREDICTABLE>
	...
   11f64:	ff000000 			; <UNDEFINED> instruction: 0xff000000
   11f68:	000000ff 	strdeq	r0, [r0], -pc	; <UNPREDICTABLE>
   11f6c:	00000000 	andeq	r0, r0, r0
   11f70:	ff000000 			; <UNDEFINED> instruction: 0xff000000
   11f74:	ffffffff 			; <UNDEFINED> instruction: 0xffffffff
   11f78:	00ffffff 	ldrshteq	pc, [pc], #255	; <UNPREDICTABLE>
   11f7c:	00000000 	andeq	r0, r0, r0
   11f80:	ff000000 			; <UNDEFINED> instruction: 0xff000000
   11f84:	000000ff 	strdeq	r0, [r0], -pc	; <UNPREDICTABLE>
   11f88:	ff000000 			; <UNDEFINED> instruction: 0xff000000
   11f8c:	000000ff 	strdeq	r0, [r0], -pc	; <UNPREDICTABLE>
   11f90:	00000000 	andeq	r0, r0, r0
   11f94:	ff000000 			; <UNDEFINED> instruction: 0xff000000
   11f98:	000000ff 	strdeq	r0, [r0], -pc	; <UNPREDICTABLE>
   11f9c:	00000000 	andeq	r0, r0, r0
   11fa0:	ff000000 			; <UNDEFINED> instruction: 0xff000000
   11fa4:	ffffffff 			; <UNDEFINED> instruction: 0xffffffff
   11fa8:	000000ff 	strdeq	r0, [r0], -pc	; <UNPREDICTABLE>
   11fac:	00000000 	andeq	r0, r0, r0
   11fb0:	ff000000 			; <UNDEFINED> instruction: 0xff000000
   11fb4:	000000ff 	strdeq	r0, [r0], -pc	; <UNPREDICTABLE>
   11fb8:	ff000000 			; <UNDEFINED> instruction: 0xff000000
   11fbc:	000000ff 	strdeq	r0, [r0], -pc	; <UNPREDICTABLE>
   11fc0:	00000000 	andeq	r0, r0, r0
   11fc4:	ff000000 			; <UNDEFINED> instruction: 0xff000000
   11fc8:	000000ff 	strdeq	r0, [r0], -pc	; <UNPREDICTABLE>
   11fcc:	00000000 	andeq	r0, r0, r0
   11fd0:	ff000000 			; <UNDEFINED> instruction: 0xff000000
   11fd4:	ff0000ff 			; <UNDEFINED> instruction: 0xff0000ff
   11fd8:	ff0000ff 			; <UNDEFINED> instruction: 0xff0000ff
   11fdc:	000000ff 	strdeq	r0, [r0], -pc	; <UNPREDICTABLE>
   11fe0:	ff000000 			; <UNDEFINED> instruction: 0xff000000
   11fe4:	000000ff 	strdeq	r0, [r0], -pc	; <UNPREDICTABLE>
   11fe8:	ff000000 			; <UNDEFINED> instruction: 0xff000000
   11fec:	000000ff 	strdeq	r0, [r0], -pc	; <UNPREDICTABLE>
   11ff0:	00000000 	andeq	r0, r0, r0
   11ff4:	ffffff00 			; <UNDEFINED> instruction: 0xffffff00
   11ff8:	00ffffff 	ldrshteq	pc, [pc], #255	; <UNPREDICTABLE>
	...
   120b4:	ff000000 			; <UNDEFINED> instruction: 0xff000000
   120b8:	00ffffff 	ldrshteq	pc, [pc], #255	; <UNPREDICTABLE>
	...
   120c4:	ff000000 			; <UNDEFINED> instruction: 0xff000000
   120c8:	000000ff 	strdeq	r0, [r0], -pc	; <UNPREDICTABLE>
	...
   120d4:	ffffff00 			; <UNDEFINED> instruction: 0xffffff00
   120d8:	000000ff 	strdeq	r0, [r0], -pc	; <UNPREDICTABLE>
   120dc:	00000000 	andeq	r0, r0, r0
   120e0:	ff000000 			; <UNDEFINED> instruction: 0xff000000
   120e4:	00ffffff 	ldrshteq	pc, [pc], #255	; <UNPREDICTABLE>
   120e8:	ff000000 			; <UNDEFINED> instruction: 0xff000000
   120ec:	000000ff 	strdeq	r0, [r0], -pc	; <UNPREDICTABLE>
	...
   121b4:	ff000000 			; <UNDEFINED> instruction: 0xff000000
   121b8:	00ffffff 	ldrshteq	pc, [pc], #255	; <UNPREDICTABLE>
	...
   121c4:	ff000000 			; <UNDEFINED> instruction: 0xff000000
   121c8:	000000ff 	strdeq	r0, [r0], -pc	; <UNPREDICTABLE>
	...
   121d4:	ffffff00 			; <UNDEFINED> instruction: 0xffffff00
   121d8:	000000ff 	strdeq	r0, [r0], -pc	; <UNPREDICTABLE>
   121dc:	00000000 	andeq	r0, r0, r0
   121e0:	ff000000 			; <UNDEFINED> instruction: 0xff000000
   121e4:	00ffffff 	ldrshteq	pc, [pc], #255	; <UNPREDICTABLE>
   121e8:	ff000000 			; <UNDEFINED> instruction: 0xff000000
   121ec:	000000ff 	strdeq	r0, [r0], -pc	; <UNPREDICTABLE>
	...
   122b4:	00ffff00 	rscseq	pc, pc, r0, lsl #30
	...
   122c4:	ff000000 			; <UNDEFINED> instruction: 0xff000000
   122c8:	000000ff 	strdeq	r0, [r0], -pc	; <UNPREDICTABLE>
	...
   122d8:	00ffff00 	rscseq	pc, pc, r0, lsl #30
   122dc:	00000000 	andeq	r0, r0, r0
   122e0:	00ffff00 	rscseq	pc, pc, r0, lsl #30
   122e4:	ff000000 			; <UNDEFINED> instruction: 0xff000000
   122e8:	00ffffff 	ldrshteq	pc, [pc], #255	; <UNPREDICTABLE>
	...
   123b4:	00ffff00 	rscseq	pc, pc, r0, lsl #30
	...
   123c4:	ff000000 			; <UNDEFINED> instruction: 0xff000000
   123c8:	000000ff 	strdeq	r0, [r0], -pc	; <UNPREDICTABLE>
	...
   123d8:	00ffff00 	rscseq	pc, pc, r0, lsl #30
   123dc:	00000000 	andeq	r0, r0, r0
   123e0:	00ffff00 	rscseq	pc, pc, r0, lsl #30
   123e4:	ff000000 			; <UNDEFINED> instruction: 0xff000000
   123e8:	00ffffff 	ldrshteq	pc, [pc], #255	; <UNPREDICTABLE>
	...
   12400:	ff000000 			; <UNDEFINED> instruction: 0xff000000
   12404:	ff0000ff 			; <UNDEFINED> instruction: 0xff0000ff
   12408:	00ffffff 	ldrshteq	pc, [pc], #255	; <UNPREDICTABLE>
	...
   12414:	ffffff00 			; <UNDEFINED> instruction: 0xffffff00
   12418:	ff0000ff 			; <UNDEFINED> instruction: 0xff0000ff
   1241c:	000000ff 	strdeq	r0, [r0], -pc	; <UNPREDICTABLE>
   12420:	ff000000 			; <UNDEFINED> instruction: 0xff000000
   12424:	ff0000ff 			; <UNDEFINED> instruction: 0xff0000ff
   12428:	00ffffff 	ldrshteq	pc, [pc], #255	; <UNPREDICTABLE>
	...
   12434:	ffffff00 			; <UNDEFINED> instruction: 0xffffff00
   12438:	00ffffff 	ldrshteq	pc, [pc], #255	; <UNPREDICTABLE>
	...
   12444:	ff000000 			; <UNDEFINED> instruction: 0xff000000
   12448:	000000ff 	strdeq	r0, [r0], -pc	; <UNPREDICTABLE>
	...
   124b4:	00ffff00 	rscseq	pc, pc, r0, lsl #30
	...
   124c4:	ff000000 			; <UNDEFINED> instruction: 0xff000000
   124c8:	000000ff 	strdeq	r0, [r0], -pc	; <UNPREDICTABLE>
	...
   124d8:	00ffff00 	rscseq	pc, pc, r0, lsl #30
	...
   12500:	ff000000 			; <UNDEFINED> instruction: 0xff000000
   12504:	ff0000ff 			; <UNDEFINED> instruction: 0xff0000ff
   12508:	00ffffff 	ldrshteq	pc, [pc], #255	; <UNPREDICTABLE>
	...
   12514:	ffffff00 			; <UNDEFINED> instruction: 0xffffff00
   12518:	ff0000ff 			; <UNDEFINED> instruction: 0xff0000ff
   1251c:	000000ff 	strdeq	r0, [r0], -pc	; <UNPREDICTABLE>
   12520:	ff000000 			; <UNDEFINED> instruction: 0xff000000
   12524:	ff0000ff 			; <UNDEFINED> instruction: 0xff0000ff
   12528:	00ffffff 	ldrshteq	pc, [pc], #255	; <UNPREDICTABLE>
	...
   12534:	ffffff00 			; <UNDEFINED> instruction: 0xffffff00
   12538:	00ffffff 	ldrshteq	pc, [pc], #255	; <UNPREDICTABLE>
	...
   12544:	ff000000 			; <UNDEFINED> instruction: 0xff000000
   12548:	000000ff 	strdeq	r0, [r0], -pc	; <UNPREDICTABLE>
	...
   125b4:	00ffff00 	rscseq	pc, pc, r0, lsl #30
	...
   125c4:	ff000000 			; <UNDEFINED> instruction: 0xff000000
   125c8:	000000ff 	strdeq	r0, [r0], -pc	; <UNPREDICTABLE>
	...
   125d8:	00ffff00 	rscseq	pc, pc, r0, lsl #30
	...
   12600:	ff000000 			; <UNDEFINED> instruction: 0xff000000
   12604:	00ffffff 	ldrshteq	pc, [pc], #255	; <UNPREDICTABLE>
   12608:	ff000000 			; <UNDEFINED> instruction: 0xff000000
   1260c:	000000ff 	strdeq	r0, [r0], -pc	; <UNPREDICTABLE>
   12610:	ff000000 			; <UNDEFINED> instruction: 0xff000000
   12614:	000000ff 	strdeq	r0, [r0], -pc	; <UNPREDICTABLE>
   12618:	ffffff00 			; <UNDEFINED> instruction: 0xffffff00
   1261c:	000000ff 	strdeq	r0, [r0], -pc	; <UNPREDICTABLE>
   12620:	ff000000 			; <UNDEFINED> instruction: 0xff000000
   12624:	00ffffff 	ldrshteq	pc, [pc], #255	; <UNPREDICTABLE>
   12628:	ff000000 			; <UNDEFINED> instruction: 0xff000000
   1262c:	000000ff 	strdeq	r0, [r0], -pc	; <UNPREDICTABLE>
   12630:	ff000000 			; <UNDEFINED> instruction: 0xff000000
   12634:	000000ff 	strdeq	r0, [r0], -pc	; <UNPREDICTABLE>
   12638:	ff000000 			; <UNDEFINED> instruction: 0xff000000
   1263c:	000000ff 	strdeq	r0, [r0], -pc	; <UNPREDICTABLE>
   12640:	ff000000 			; <UNDEFINED> instruction: 0xff000000
   12644:	ffffffff 			; <UNDEFINED> instruction: 0xffffffff
   12648:	ffffffff 			; <UNDEFINED> instruction: 0xffffffff
   1264c:	000000ff 	strdeq	r0, [r0], -pc	; <UNPREDICTABLE>
   12650:	ff000000 			; <UNDEFINED> instruction: 0xff000000
   12654:	000000ff 	strdeq	r0, [r0], -pc	; <UNPREDICTABLE>
   12658:	ff000000 			; <UNDEFINED> instruction: 0xff000000
   1265c:	000000ff 	strdeq	r0, [r0], -pc	; <UNPREDICTABLE>
   12660:	ff000000 			; <UNDEFINED> instruction: 0xff000000
   12664:	000000ff 	strdeq	r0, [r0], -pc	; <UNPREDICTABLE>
   12668:	ff000000 			; <UNDEFINED> instruction: 0xff000000
   1266c:	000000ff 	strdeq	r0, [r0], -pc	; <UNPREDICTABLE>
   12670:	ff000000 			; <UNDEFINED> instruction: 0xff000000
   12674:	ff0000ff 			; <UNDEFINED> instruction: 0xff0000ff
   12678:	ff0000ff 			; <UNDEFINED> instruction: 0xff0000ff
   1267c:	000000ff 	strdeq	r0, [r0], -pc	; <UNPREDICTABLE>
   12680:	ff000000 			; <UNDEFINED> instruction: 0xff000000
   12684:	000000ff 	strdeq	r0, [r0], -pc	; <UNPREDICTABLE>
   12688:	ff000000 			; <UNDEFINED> instruction: 0xff000000
   1268c:	000000ff 	strdeq	r0, [r0], -pc	; <UNPREDICTABLE>
   12690:	ff000000 			; <UNDEFINED> instruction: 0xff000000
   12694:	000000ff 	strdeq	r0, [r0], -pc	; <UNPREDICTABLE>
   12698:	ff000000 			; <UNDEFINED> instruction: 0xff000000
   1269c:	000000ff 	strdeq	r0, [r0], -pc	; <UNPREDICTABLE>
   126a0:	ff000000 			; <UNDEFINED> instruction: 0xff000000
   126a4:	ffffffff 			; <UNDEFINED> instruction: 0xffffffff
   126a8:	ffffffff 			; <UNDEFINED> instruction: 0xffffffff
   126ac:	000000ff 	strdeq	r0, [r0], -pc	; <UNPREDICTABLE>
   126b0:	ff000000 			; <UNDEFINED> instruction: 0xff000000
   126b4:	000000ff 	strdeq	r0, [r0], -pc	; <UNPREDICTABLE>
	...
   126d8:	ff000000 			; <UNDEFINED> instruction: 0xff000000
   126dc:	000000ff 	strdeq	r0, [r0], -pc	; <UNPREDICTABLE>
	...
   12700:	ff000000 			; <UNDEFINED> instruction: 0xff000000
   12704:	00ffffff 	ldrshteq	pc, [pc], #255	; <UNPREDICTABLE>
   12708:	ff000000 			; <UNDEFINED> instruction: 0xff000000
   1270c:	000000ff 	strdeq	r0, [r0], -pc	; <UNPREDICTABLE>
   12710:	ff000000 			; <UNDEFINED> instruction: 0xff000000
   12714:	000000ff 	strdeq	r0, [r0], -pc	; <UNPREDICTABLE>
   12718:	ffffff00 			; <UNDEFINED> instruction: 0xffffff00
   1271c:	000000ff 	strdeq	r0, [r0], -pc	; <UNPREDICTABLE>
   12720:	ff000000 			; <UNDEFINED> instruction: 0xff000000
   12724:	00ffffff 	ldrshteq	pc, [pc], #255	; <UNPREDICTABLE>
   12728:	ff000000 			; <UNDEFINED> instruction: 0xff000000
   1272c:	000000ff 	strdeq	r0, [r0], -pc	; <UNPREDICTABLE>
   12730:	ff000000 			; <UNDEFINED> instruction: 0xff000000
   12734:	000000ff 	strdeq	r0, [r0], -pc	; <UNPREDICTABLE>
   12738:	ff000000 			; <UNDEFINED> instruction: 0xff000000
   1273c:	000000ff 	strdeq	r0, [r0], -pc	; <UNPREDICTABLE>
   12740:	ff000000 			; <UNDEFINED> instruction: 0xff000000
   12744:	ffffffff 			; <UNDEFINED> instruction: 0xffffffff
   12748:	ffffffff 			; <UNDEFINED> instruction: 0xffffffff
   1274c:	000000ff 	strdeq	r0, [r0], -pc	; <UNPREDICTABLE>
   12750:	ff000000 			; <UNDEFINED> instruction: 0xff000000
   12754:	000000ff 	strdeq	r0, [r0], -pc	; <UNPREDICTABLE>
   12758:	ff000000 			; <UNDEFINED> instruction: 0xff000000
   1275c:	000000ff 	strdeq	r0, [r0], -pc	; <UNPREDICTABLE>
   12760:	ff000000 			; <UNDEFINED> instruction: 0xff000000
   12764:	000000ff 	strdeq	r0, [r0], -pc	; <UNPREDICTABLE>
   12768:	ff000000 			; <UNDEFINED> instruction: 0xff000000
   1276c:	000000ff 	strdeq	r0, [r0], -pc	; <UNPREDICTABLE>
   12770:	ff000000 			; <UNDEFINED> instruction: 0xff000000
   12774:	ff0000ff 			; <UNDEFINED> instruction: 0xff0000ff
   12778:	ff0000ff 			; <UNDEFINED> instruction: 0xff0000ff
   1277c:	000000ff 	strdeq	r0, [r0], -pc	; <UNPREDICTABLE>
   12780:	ff000000 			; <UNDEFINED> instruction: 0xff000000
   12784:	000000ff 	strdeq	r0, [r0], -pc	; <UNPREDICTABLE>
   12788:	ff000000 			; <UNDEFINED> instruction: 0xff000000
   1278c:	000000ff 	strdeq	r0, [r0], -pc	; <UNPREDICTABLE>
   12790:	ff000000 			; <UNDEFINED> instruction: 0xff000000
   12794:	000000ff 	strdeq	r0, [r0], -pc	; <UNPREDICTABLE>
   12798:	ff000000 			; <UNDEFINED> instruction: 0xff000000
   1279c:	000000ff 	strdeq	r0, [r0], -pc	; <UNPREDICTABLE>
   127a0:	ff000000 			; <UNDEFINED> instruction: 0xff000000
   127a4:	ffffffff 			; <UNDEFINED> instruction: 0xffffffff
   127a8:	ffffffff 			; <UNDEFINED> instruction: 0xffffffff
   127ac:	000000ff 	strdeq	r0, [r0], -pc	; <UNPREDICTABLE>
   127b0:	ff000000 			; <UNDEFINED> instruction: 0xff000000
   127b4:	000000ff 	strdeq	r0, [r0], -pc	; <UNPREDICTABLE>
	...
   127d8:	ff000000 			; <UNDEFINED> instruction: 0xff000000
   127dc:	000000ff 	strdeq	r0, [r0], -pc	; <UNPREDICTABLE>
	...
   12800:	ff000000 			; <UNDEFINED> instruction: 0xff000000
   12804:	00ffffff 	ldrshteq	pc, [pc], #255	; <UNPREDICTABLE>
   12808:	ff000000 			; <UNDEFINED> instruction: 0xff000000
   1280c:	000000ff 	strdeq	r0, [r0], -pc	; <UNPREDICTABLE>
   12810:	ff000000 			; <UNDEFINED> instruction: 0xff000000
   12814:	000000ff 	strdeq	r0, [r0], -pc	; <UNPREDICTABLE>
   12818:	ffffff00 			; <UNDEFINED> instruction: 0xffffff00
   1281c:	000000ff 	strdeq	r0, [r0], -pc	; <UNPREDICTABLE>
   12820:	ff000000 			; <UNDEFINED> instruction: 0xff000000
   12824:	000000ff 	strdeq	r0, [r0], -pc	; <UNPREDICTABLE>
	...
   12830:	ff000000 			; <UNDEFINED> instruction: 0xff000000
   12834:	ffffffff 			; <UNDEFINED> instruction: 0xffffffff
   12838:	000000ff 	strdeq	r0, [r0], -pc	; <UNPREDICTABLE>
	...
   12844:	ff000000 			; <UNDEFINED> instruction: 0xff000000
   12848:	000000ff 	strdeq	r0, [r0], -pc	; <UNPREDICTABLE>
   1284c:	00000000 	andeq	r0, r0, r0
   12850:	ff000000 			; <UNDEFINED> instruction: 0xff000000
   12854:	000000ff 	strdeq	r0, [r0], -pc	; <UNPREDICTABLE>
   12858:	ff000000 			; <UNDEFINED> instruction: 0xff000000
   1285c:	000000ff 	strdeq	r0, [r0], -pc	; <UNPREDICTABLE>
   12860:	ff000000 			; <UNDEFINED> instruction: 0xff000000
   12864:	000000ff 	strdeq	r0, [r0], -pc	; <UNPREDICTABLE>
   12868:	ff000000 			; <UNDEFINED> instruction: 0xff000000
   1286c:	000000ff 	strdeq	r0, [r0], -pc	; <UNPREDICTABLE>
   12870:	ff000000 			; <UNDEFINED> instruction: 0xff000000
   12874:	ff0000ff 			; <UNDEFINED> instruction: 0xff0000ff
   12878:	ff0000ff 			; <UNDEFINED> instruction: 0xff0000ff
   1287c:	000000ff 	strdeq	r0, [r0], -pc	; <UNPREDICTABLE>
   12880:	00000000 	andeq	r0, r0, r0
   12884:	00ffff00 	rscseq	pc, pc, r0, lsl #30
   12888:	00ffff00 	rscseq	pc, pc, r0, lsl #30
	...
   12894:	00ffff00 	rscseq	pc, pc, r0, lsl #30
   12898:	00ffff00 	rscseq	pc, pc, r0, lsl #30
	...
   128a8:	00ffff00 	rscseq	pc, pc, r0, lsl #30
	...
   128b4:	00ffff00 	rscseq	pc, pc, r0, lsl #30
	...
   128c4:	ff000000 			; <UNDEFINED> instruction: 0xff000000
   128c8:	000000ff 	strdeq	r0, [r0], -pc	; <UNPREDICTABLE>
	...
   128d8:	00ffff00 	rscseq	pc, pc, r0, lsl #30
	...
   12900:	ff000000 			; <UNDEFINED> instruction: 0xff000000
   12904:	00ffffff 	ldrshteq	pc, [pc], #255	; <UNPREDICTABLE>
   12908:	ff000000 			; <UNDEFINED> instruction: 0xff000000
   1290c:	000000ff 	strdeq	r0, [r0], -pc	; <UNPREDICTABLE>
   12910:	ff000000 			; <UNDEFINED> instruction: 0xff000000
   12914:	000000ff 	strdeq	r0, [r0], -pc	; <UNPREDICTABLE>
   12918:	ffffff00 			; <UNDEFINED> instruction: 0xffffff00
   1291c:	000000ff 	strdeq	r0, [r0], -pc	; <UNPREDICTABLE>
   12920:	ff000000 			; <UNDEFINED> instruction: 0xff000000
   12924:	000000ff 	strdeq	r0, [r0], -pc	; <UNPREDICTABLE>
	...
   12930:	ff000000 			; <UNDEFINED> instruction: 0xff000000
   12934:	ffffffff 			; <UNDEFINED> instruction: 0xffffffff
   12938:	000000ff 	strdeq	r0, [r0], -pc	; <UNPREDICTABLE>
	...
   12944:	ff000000 			; <UNDEFINED> instruction: 0xff000000
   12948:	000000ff 	strdeq	r0, [r0], -pc	; <UNPREDICTABLE>
   1294c:	00000000 	andeq	r0, r0, r0
   12950:	ff000000 			; <UNDEFINED> instruction: 0xff000000
   12954:	000000ff 	strdeq	r0, [r0], -pc	; <UNPREDICTABLE>
   12958:	ff000000 			; <UNDEFINED> instruction: 0xff000000
   1295c:	000000ff 	strdeq	r0, [r0], -pc	; <UNPREDICTABLE>
   12960:	ff000000 			; <UNDEFINED> instruction: 0xff000000
   12964:	000000ff 	strdeq	r0, [r0], -pc	; <UNPREDICTABLE>
   12968:	ff000000 			; <UNDEFINED> instruction: 0xff000000
   1296c:	000000ff 	strdeq	r0, [r0], -pc	; <UNPREDICTABLE>
   12970:	ff000000 			; <UNDEFINED> instruction: 0xff000000
   12974:	ff0000ff 			; <UNDEFINED> instruction: 0xff0000ff
   12978:	ff0000ff 			; <UNDEFINED> instruction: 0xff0000ff
   1297c:	000000ff 	strdeq	r0, [r0], -pc	; <UNPREDICTABLE>
   12980:	00000000 	andeq	r0, r0, r0
   12984:	00ffff00 	rscseq	pc, pc, r0, lsl #30
   12988:	00ffff00 	rscseq	pc, pc, r0, lsl #30
	...
   12994:	00ffff00 	rscseq	pc, pc, r0, lsl #30
   12998:	00ffff00 	rscseq	pc, pc, r0, lsl #30
	...
   129a8:	00ffff00 	rscseq	pc, pc, r0, lsl #30
	...
   129b4:	00ffff00 	rscseq	pc, pc, r0, lsl #30
	...
   129c4:	ff000000 			; <UNDEFINED> instruction: 0xff000000
   129c8:	000000ff 	strdeq	r0, [r0], -pc	; <UNPREDICTABLE>
	...
   129d8:	00ffff00 	rscseq	pc, pc, r0, lsl #30
	...
   12a00:	ff000000 			; <UNDEFINED> instruction: 0xff000000
   12a04:	ff0000ff 			; <UNDEFINED> instruction: 0xff0000ff
   12a08:	00ffffff 	ldrshteq	pc, [pc], #255	; <UNPREDICTABLE>
	...
   12a14:	ffffff00 			; <UNDEFINED> instruction: 0xffffff00
   12a18:	ff0000ff 			; <UNDEFINED> instruction: 0xff0000ff
   12a1c:	000000ff 	strdeq	r0, [r0], -pc	; <UNPREDICTABLE>
   12a20:	ff000000 			; <UNDEFINED> instruction: 0xff000000
   12a24:	000000ff 	strdeq	r0, [r0], -pc	; <UNPREDICTABLE>
	...
   12a34:	ff000000 			; <UNDEFINED> instruction: 0xff000000
   12a38:	ffffffff 			; <UNDEFINED> instruction: 0xffffffff
   12a3c:	000000ff 	strdeq	r0, [r0], -pc	; <UNPREDICTABLE>
   12a40:	00000000 	andeq	r0, r0, r0
   12a44:	ff000000 			; <UNDEFINED> instruction: 0xff000000
   12a48:	000000ff 	strdeq	r0, [r0], -pc	; <UNPREDICTABLE>
   12a4c:	00000000 	andeq	r0, r0, r0
   12a50:	ff000000 			; <UNDEFINED> instruction: 0xff000000
   12a54:	000000ff 	strdeq	r0, [r0], -pc	; <UNPREDICTABLE>
   12a58:	ff000000 			; <UNDEFINED> instruction: 0xff000000
   12a5c:	000000ff 	strdeq	r0, [r0], -pc	; <UNPREDICTABLE>
   12a60:	ff000000 			; <UNDEFINED> instruction: 0xff000000
   12a64:	000000ff 	strdeq	r0, [r0], -pc	; <UNPREDICTABLE>
   12a68:	ff000000 			; <UNDEFINED> instruction: 0xff000000
   12a6c:	000000ff 	strdeq	r0, [r0], -pc	; <UNPREDICTABLE>
   12a70:	ff000000 			; <UNDEFINED> instruction: 0xff000000
   12a74:	ff0000ff 			; <UNDEFINED> instruction: 0xff0000ff
   12a78:	ff0000ff 			; <UNDEFINED> instruction: 0xff0000ff
   12a7c:	000000ff 	strdeq	r0, [r0], -pc	; <UNPREDICTABLE>
   12a80:	00000000 	andeq	r0, r0, r0
   12a84:	ff000000 			; <UNDEFINED> instruction: 0xff000000
   12a88:	000000ff 	strdeq	r0, [r0], -pc	; <UNPREDICTABLE>
	...
   12a94:	ff000000 			; <UNDEFINED> instruction: 0xff000000
   12a98:	000000ff 	strdeq	r0, [r0], -pc	; <UNPREDICTABLE>
	...
   12aa4:	ff000000 			; <UNDEFINED> instruction: 0xff000000
   12aa8:	000000ff 	strdeq	r0, [r0], -pc	; <UNPREDICTABLE>
	...
   12ab4:	00ffff00 	rscseq	pc, pc, r0, lsl #30
	...
   12ac4:	ff000000 			; <UNDEFINED> instruction: 0xff000000
   12ac8:	000000ff 	strdeq	r0, [r0], -pc	; <UNPREDICTABLE>
	...
   12ad8:	00ffff00 	rscseq	pc, pc, r0, lsl #30
	...
   12b00:	ff000000 			; <UNDEFINED> instruction: 0xff000000
   12b04:	ff0000ff 			; <UNDEFINED> instruction: 0xff0000ff
   12b08:	00ffffff 	ldrshteq	pc, [pc], #255	; <UNPREDICTABLE>
	...
   12b14:	ffffff00 			; <UNDEFINED> instruction: 0xffffff00
   12b18:	ff0000ff 			; <UNDEFINED> instruction: 0xff0000ff
   12b1c:	000000ff 	strdeq	r0, [r0], -pc	; <UNPREDICTABLE>
   12b20:	ff000000 			; <UNDEFINED> instruction: 0xff000000
   12b24:	000000ff 	strdeq	r0, [r0], -pc	; <UNPREDICTABLE>
	...
   12b34:	ff000000 			; <UNDEFINED> instruction: 0xff000000
   12b38:	ffffffff 			; <UNDEFINED> instruction: 0xffffffff
   12b3c:	000000ff 	strdeq	r0, [r0], -pc	; <UNPREDICTABLE>
   12b40:	00000000 	andeq	r0, r0, r0
   12b44:	ff000000 			; <UNDEFINED> instruction: 0xff000000
   12b48:	000000ff 	strdeq	r0, [r0], -pc	; <UNPREDICTABLE>
   12b4c:	00000000 	andeq	r0, r0, r0
   12b50:	ff000000 			; <UNDEFINED> instruction: 0xff000000
   12b54:	000000ff 	strdeq	r0, [r0], -pc	; <UNPREDICTABLE>
   12b58:	ff000000 			; <UNDEFINED> instruction: 0xff000000
   12b5c:	000000ff 	strdeq	r0, [r0], -pc	; <UNPREDICTABLE>
   12b60:	ff000000 			; <UNDEFINED> instruction: 0xff000000
   12b64:	000000ff 	strdeq	r0, [r0], -pc	; <UNPREDICTABLE>
   12b68:	ff000000 			; <UNDEFINED> instruction: 0xff000000
   12b6c:	000000ff 	strdeq	r0, [r0], -pc	; <UNPREDICTABLE>
   12b70:	ff000000 			; <UNDEFINED> instruction: 0xff000000
   12b74:	ff0000ff 			; <UNDEFINED> instruction: 0xff0000ff
   12b78:	ff0000ff 			; <UNDEFINED> instruction: 0xff0000ff
   12b7c:	000000ff 	strdeq	r0, [r0], -pc	; <UNPREDICTABLE>
   12b80:	00000000 	andeq	r0, r0, r0
   12b84:	ff000000 			; <UNDEFINED> instruction: 0xff000000
   12b88:	000000ff 	strdeq	r0, [r0], -pc	; <UNPREDICTABLE>
	...
   12b94:	ff000000 			; <UNDEFINED> instruction: 0xff000000
   12b98:	000000ff 	strdeq	r0, [r0], -pc	; <UNPREDICTABLE>
	...
   12ba4:	ff000000 			; <UNDEFINED> instruction: 0xff000000
   12ba8:	000000ff 	strdeq	r0, [r0], -pc	; <UNPREDICTABLE>
	...
   12bb4:	00ffff00 	rscseq	pc, pc, r0, lsl #30
	...
   12bc4:	ff000000 			; <UNDEFINED> instruction: 0xff000000
   12bc8:	000000ff 	strdeq	r0, [r0], -pc	; <UNPREDICTABLE>
	...
   12bd8:	00ffff00 	rscseq	pc, pc, r0, lsl #30
	...
   12c00:	ff000000 			; <UNDEFINED> instruction: 0xff000000
   12c04:	000000ff 	strdeq	r0, [r0], -pc	; <UNPREDICTABLE>
	...
   12c18:	ff000000 			; <UNDEFINED> instruction: 0xff000000
   12c1c:	000000ff 	strdeq	r0, [r0], -pc	; <UNPREDICTABLE>
   12c20:	ff000000 			; <UNDEFINED> instruction: 0xff000000
   12c24:	000000ff 	strdeq	r0, [r0], -pc	; <UNPREDICTABLE>
	...
   12c30:	ff000000 			; <UNDEFINED> instruction: 0xff000000
   12c34:	000000ff 	strdeq	r0, [r0], -pc	; <UNPREDICTABLE>
   12c38:	ff000000 			; <UNDEFINED> instruction: 0xff000000
   12c3c:	000000ff 	strdeq	r0, [r0], -pc	; <UNPREDICTABLE>
   12c40:	00000000 	andeq	r0, r0, r0
   12c44:	ff000000 			; <UNDEFINED> instruction: 0xff000000
   12c48:	000000ff 	strdeq	r0, [r0], -pc	; <UNPREDICTABLE>
   12c4c:	00000000 	andeq	r0, r0, r0
   12c50:	ff000000 			; <UNDEFINED> instruction: 0xff000000
   12c54:	000000ff 	strdeq	r0, [r0], -pc	; <UNPREDICTABLE>
   12c58:	ffffff00 			; <UNDEFINED> instruction: 0xffffff00
   12c5c:	000000ff 	strdeq	r0, [r0], -pc	; <UNPREDICTABLE>
   12c60:	00000000 	andeq	r0, r0, r0
   12c64:	00ffff00 	rscseq	pc, pc, r0, lsl #30
   12c68:	00ffff00 	rscseq	pc, pc, r0, lsl #30
	...
   12c74:	00ffff00 	rscseq	pc, pc, r0, lsl #30
   12c78:	00ffff00 	rscseq	pc, pc, r0, lsl #30
	...
   12c84:	00ffff00 	rscseq	pc, pc, r0, lsl #30
   12c88:	00ffff00 	rscseq	pc, pc, r0, lsl #30
	...
   12c94:	ff000000 			; <UNDEFINED> instruction: 0xff000000
   12c98:	000000ff 	strdeq	r0, [r0], -pc	; <UNPREDICTABLE>
	...
   12ca4:	00ffff00 	rscseq	pc, pc, r0, lsl #30
	...
   12cb4:	00ffff00 	rscseq	pc, pc, r0, lsl #30
	...
   12cc4:	ff000000 			; <UNDEFINED> instruction: 0xff000000
   12cc8:	000000ff 	strdeq	r0, [r0], -pc	; <UNPREDICTABLE>
	...
   12cd8:	00ffff00 	rscseq	pc, pc, r0, lsl #30
	...
   12d00:	ff000000 			; <UNDEFINED> instruction: 0xff000000
   12d04:	000000ff 	strdeq	r0, [r0], -pc	; <UNPREDICTABLE>
	...
   12d18:	ff000000 			; <UNDEFINED> instruction: 0xff000000
   12d1c:	000000ff 	strdeq	r0, [r0], -pc	; <UNPREDICTABLE>
   12d20:	ff000000 			; <UNDEFINED> instruction: 0xff000000
   12d24:	000000ff 	strdeq	r0, [r0], -pc	; <UNPREDICTABLE>
	...
   12d30:	ff000000 			; <UNDEFINED> instruction: 0xff000000
   12d34:	000000ff 	strdeq	r0, [r0], -pc	; <UNPREDICTABLE>
   12d38:	ff000000 			; <UNDEFINED> instruction: 0xff000000
   12d3c:	000000ff 	strdeq	r0, [r0], -pc	; <UNPREDICTABLE>
   12d40:	00000000 	andeq	r0, r0, r0
   12d44:	ff000000 			; <UNDEFINED> instruction: 0xff000000
   12d48:	000000ff 	strdeq	r0, [r0], -pc	; <UNPREDICTABLE>
   12d4c:	00000000 	andeq	r0, r0, r0
   12d50:	ff000000 			; <UNDEFINED> instruction: 0xff000000
   12d54:	000000ff 	strdeq	r0, [r0], -pc	; <UNPREDICTABLE>
   12d58:	ffffff00 			; <UNDEFINED> instruction: 0xffffff00
   12d5c:	000000ff 	strdeq	r0, [r0], -pc	; <UNPREDICTABLE>
   12d60:	00000000 	andeq	r0, r0, r0
   12d64:	00ffff00 	rscseq	pc, pc, r0, lsl #30
   12d68:	00ffff00 	rscseq	pc, pc, r0, lsl #30
	...
   12d74:	00ffff00 	rscseq	pc, pc, r0, lsl #30
   12d78:	00ffff00 	rscseq	pc, pc, r0, lsl #30
	...
   12d84:	00ffff00 	rscseq	pc, pc, r0, lsl #30
   12d88:	00ffff00 	rscseq	pc, pc, r0, lsl #30
	...
   12d94:	ff000000 			; <UNDEFINED> instruction: 0xff000000
   12d98:	000000ff 	strdeq	r0, [r0], -pc	; <UNPREDICTABLE>
	...
   12da4:	00ffff00 	rscseq	pc, pc, r0, lsl #30
	...
   12db4:	00ffff00 	rscseq	pc, pc, r0, lsl #30
	...
   12dc4:	ff000000 			; <UNDEFINED> instruction: 0xff000000
   12dc8:	000000ff 	strdeq	r0, [r0], -pc	; <UNPREDICTABLE>
	...
   12dd8:	00ffff00 	rscseq	pc, pc, r0, lsl #30
	...
   12e00:	ff000000 			; <UNDEFINED> instruction: 0xff000000
   12e04:	000000ff 	strdeq	r0, [r0], -pc	; <UNPREDICTABLE>
	...
   12e18:	ff000000 			; <UNDEFINED> instruction: 0xff000000
   12e1c:	000000ff 	strdeq	r0, [r0], -pc	; <UNPREDICTABLE>
   12e20:	ff000000 			; <UNDEFINED> instruction: 0xff000000
   12e24:	000000ff 	strdeq	r0, [r0], -pc	; <UNPREDICTABLE>
	...
   12e34:	ffffff00 			; <UNDEFINED> instruction: 0xffffff00
   12e38:	00ffffff 	ldrshteq	pc, [pc], #255	; <UNPREDICTABLE>
	...
   12e44:	ff000000 			; <UNDEFINED> instruction: 0xff000000
   12e48:	ffffffff 			; <UNDEFINED> instruction: 0xffffffff
   12e4c:	000000ff 	strdeq	r0, [r0], -pc	; <UNPREDICTABLE>
   12e50:	00000000 	andeq	r0, r0, r0
   12e54:	ffffff00 			; <UNDEFINED> instruction: 0xffffff00
   12e58:	ff0000ff 			; <UNDEFINED> instruction: 0xff0000ff
   12e5c:	000000ff 	strdeq	r0, [r0], -pc	; <UNPREDICTABLE>
   12e60:	00000000 	andeq	r0, r0, r0
   12e64:	ff000000 			; <UNDEFINED> instruction: 0xff000000
   12e68:	000000ff 	strdeq	r0, [r0], -pc	; <UNPREDICTABLE>
	...
   12e74:	00ffff00 	rscseq	pc, pc, r0, lsl #30
   12e78:	00ffff00 	rscseq	pc, pc, r0, lsl #30
   12e7c:	00000000 	andeq	r0, r0, r0
   12e80:	ff000000 			; <UNDEFINED> instruction: 0xff000000
   12e84:	000000ff 	strdeq	r0, [r0], -pc	; <UNPREDICTABLE>
   12e88:	ff000000 			; <UNDEFINED> instruction: 0xff000000
   12e8c:	000000ff 	strdeq	r0, [r0], -pc	; <UNPREDICTABLE>
   12e90:	00000000 	andeq	r0, r0, r0
   12e94:	ff000000 			; <UNDEFINED> instruction: 0xff000000
   12e98:	000000ff 	strdeq	r0, [r0], -pc	; <UNPREDICTABLE>
   12e9c:	00000000 	andeq	r0, r0, r0
   12ea0:	ff000000 			; <UNDEFINED> instruction: 0xff000000
   12ea4:	ffffffff 			; <UNDEFINED> instruction: 0xffffffff
   12ea8:	ffffffff 			; <UNDEFINED> instruction: 0xffffffff
   12eac:	000000ff 	strdeq	r0, [r0], -pc	; <UNPREDICTABLE>
   12eb0:	00000000 	andeq	r0, r0, r0
   12eb4:	ff000000 			; <UNDEFINED> instruction: 0xff000000
   12eb8:	00ffffff 	ldrshteq	pc, [pc], #255	; <UNPREDICTABLE>
	...
   12ec4:	ff000000 			; <UNDEFINED> instruction: 0xff000000
   12ec8:	000000ff 	strdeq	r0, [r0], -pc	; <UNPREDICTABLE>
	...
   12ed4:	ffffff00 			; <UNDEFINED> instruction: 0xffffff00
   12ed8:	000000ff 	strdeq	r0, [r0], -pc	; <UNPREDICTABLE>
	...
   12f00:	ff000000 			; <UNDEFINED> instruction: 0xff000000
   12f04:	000000ff 	strdeq	r0, [r0], -pc	; <UNPREDICTABLE>
	...
   12f18:	ff000000 			; <UNDEFINED> instruction: 0xff000000
   12f1c:	000000ff 	strdeq	r0, [r0], -pc	; <UNPREDICTABLE>
   12f20:	ff000000 			; <UNDEFINED> instruction: 0xff000000
   12f24:	000000ff 	strdeq	r0, [r0], -pc	; <UNPREDICTABLE>
	...
   12f34:	ffffff00 			; <UNDEFINED> instruction: 0xffffff00
   12f38:	00ffffff 	ldrshteq	pc, [pc], #255	; <UNPREDICTABLE>
	...
   12f44:	ff000000 			; <UNDEFINED> instruction: 0xff000000
   12f48:	ffffffff 			; <UNDEFINED> instruction: 0xffffffff
   12f4c:	000000ff 	strdeq	r0, [r0], -pc	; <UNPREDICTABLE>
   12f50:	00000000 	andeq	r0, r0, r0
   12f54:	ffffff00 			; <UNDEFINED> instruction: 0xffffff00
   12f58:	ff0000ff 			; <UNDEFINED> instruction: 0xff0000ff
   12f5c:	000000ff 	strdeq	r0, [r0], -pc	; <UNPREDICTABLE>
   12f60:	00000000 	andeq	r0, r0, r0
   12f64:	ff000000 			; <UNDEFINED> instruction: 0xff000000
   12f68:	000000ff 	strdeq	r0, [r0], -pc	; <UNPREDICTABLE>
	...
   12f74:	00ffff00 	rscseq	pc, pc, r0, lsl #30
   12f78:	00ffff00 	rscseq	pc, pc, r0, lsl #30
   12f7c:	00000000 	andeq	r0, r0, r0
   12f80:	ff000000 			; <UNDEFINED> instruction: 0xff000000
   12f84:	000000ff 	strdeq	r0, [r0], -pc	; <UNPREDICTABLE>
   12f88:	ff000000 			; <UNDEFINED> instruction: 0xff000000
   12f8c:	000000ff 	strdeq	r0, [r0], -pc	; <UNPREDICTABLE>
   12f90:	00000000 	andeq	r0, r0, r0
   12f94:	ff000000 			; <UNDEFINED> instruction: 0xff000000
   12f98:	000000ff 	strdeq	r0, [r0], -pc	; <UNPREDICTABLE>
   12f9c:	00000000 	andeq	r0, r0, r0
   12fa0:	ff000000 			; <UNDEFINED> instruction: 0xff000000
   12fa4:	ffffffff 			; <UNDEFINED> instruction: 0xffffffff
   12fa8:	ffffffff 			; <UNDEFINED> instruction: 0xffffffff
   12fac:	000000ff 	strdeq	r0, [r0], -pc	; <UNPREDICTABLE>
   12fb0:	00000000 	andeq	r0, r0, r0
   12fb4:	ff000000 			; <UNDEFINED> instruction: 0xff000000
   12fb8:	00ffffff 	ldrshteq	pc, [pc], #255	; <UNPREDICTABLE>
	...
   12fc4:	ff000000 			; <UNDEFINED> instruction: 0xff000000
   12fc8:	000000ff 	strdeq	r0, [r0], -pc	; <UNPREDICTABLE>
	...
   12fd4:	ffffff00 			; <UNDEFINED> instruction: 0xffffff00
   12fd8:	000000ff 	strdeq	r0, [r0], -pc	; <UNPREDICTABLE>
	...

Disassembly of section .rodata.str1.4:

0001b000 <.rodata.str1.4>:
   1b000:	45524f43 	ldrbmi	r4, [r2, #-3907]	; 0xfffff0bd
   1b004:	45522031 	ldrbmi	r2, [r2, #-49]	; 0xffffffcf
   1b008:	0a594441 	beq	166c114 <__bss_end+0xd02114>
   1b00c:	00000000 	andeq	r0, r0, r0
   1b010:	2d2d2d2d 	stccs	13, cr2, [sp, #-180]!	; 0xffffff4c
   1b014:	2d2d2d2d 	stccs	13, cr2, [sp, #-180]!	; 0xffffff4c
   1b018:	2d2d2d2d 	stccs	13, cr2, [sp, #-180]!	; 0xffffff4c
   1b01c:	2d2d2d2d 	stccs	13, cr2, [sp, #-180]!	; 0xffffff4c
   1b020:	2d2d2d2d 	stccs	13, cr2, [sp, #-180]!	; 0xffffff4c
   1b024:	2d2d2d2d 	stccs	13, cr2, [sp, #-180]!	; 0xffffff4c
   1b028:	2d2d2d2d 	stccs	13, cr2, [sp, #-180]!	; 0xffffff4c
   1b02c:	2d2d2d2d 	stccs	13, cr2, [sp, #-180]!	; 0xffffff4c
   1b030:	2d2d2d2d 	stccs	13, cr2, [sp, #-180]!	; 0xffffff4c
   1b034:	2d2d2d2d 	stccs	13, cr2, [sp, #-180]!	; 0xffffff4c
   1b038:	2d2d2d2d 	stccs	13, cr2, [sp, #-180]!	; 0xffffff4c
   1b03c:	2d2d2d2d 	stccs	13, cr2, [sp, #-180]!	; 0xffffff4c
   1b040:	2d2d2d2d 	stccs	13, cr2, [sp, #-180]!	; 0xffffff4c
   1b044:	000a2d2d 	andeq	r2, sl, sp, lsr #26
   1b048:	525f4f49 	subspl	r4, pc, #292	; 0x124
   1b04c:	28444145 	stmdacs	r4, {r0, r2, r6, r8, lr}^
   1b050:	5f443356 	svcpl	0x00443356
   1b054:	43305443 	teqmi	r0, #1124073472	; 0x43000000
   1b058:	20202953 	eorcs	r2, r0, r3, asr r9
   1b05c:	0a3d2020 	beq	f630e4 <__bss_end+0x5f90e4>
   1b060:	00000000 	andeq	r0, r0, r0
   1b064:	525f4f49 	subspl	r4, pc, #292	; 0x124
   1b068:	28444145 	stmdacs	r4, {r0, r2, r6, r8, lr}^
   1b06c:	5f443356 	svcpl	0x00443356
   1b070:	43315443 	teqmi	r1, #1124073472	; 0x43000000
   1b074:	20202953 	eorcs	r2, r0, r3, asr r9
   1b078:	0a3d2020 	beq	f63100 <__bss_end+0x5f9100>
   1b07c:	00000000 	andeq	r0, r0, r0
   1b080:	525f4f49 	subspl	r4, pc, #292	; 0x124
   1b084:	28444145 	stmdacs	r4, {r0, r2, r6, r8, lr}^
   1b088:	5f443356 	svcpl	0x00443356
   1b08c:	53525245 	cmppl	r2, #1342177284	; 0x50000004
   1b090:	29544154 	ldmdbcs	r4, {r2, r4, r6, r8, lr}^
   1b094:	0a3d2020 	beq	f6311c <__bss_end+0x5f911c>
   1b098:	00000000 	andeq	r0, r0, r0
   1b09c:	525f4f49 	subspl	r4, pc, #292	; 0x124
   1b0a0:	28444145 	stmdacs	r4, {r0, r2, r6, r8, lr}^
   1b0a4:	5f443356 	svcpl	0x00443356
   1b0a8:	29434642 	stmdbcs	r3, {r1, r6, r9, sl, lr}^
   1b0ac:	20202020 	eorcs	r2, r0, r0, lsr #32
   1b0b0:	0a3d2020 	beq	f63138 <__bss_end+0x5f9138>
   1b0b4:	00000000 	andeq	r0, r0, r0
   1b0b8:	525f4f49 	subspl	r4, pc, #292	; 0x124
   1b0bc:	28444145 	stmdacs	r4, {r0, r2, r6, r8, lr}^
   1b0c0:	5f443356 	svcpl	0x00443356
   1b0c4:	29434652 	stmdbcs	r3, {r1, r4, r6, r9, sl, lr}^
   1b0c8:	20202020 	eorcs	r2, r0, r0, lsr #32
   1b0cc:	0a3d2020 	beq	f63154 <__bss_end+0x5f9154>
   1b0d0:	00000000 	andeq	r0, r0, r0
   1b0d4:	525f4f49 	subspl	r4, pc, #292	; 0x124
   1b0d8:	28444145 	stmdacs	r4, {r0, r2, r6, r8, lr}^
   1b0dc:	5f443356 	svcpl	0x00443356
   1b0e0:	29534350 	ldmdbcs	r3, {r4, r6, r8, r9, lr}^
   1b0e4:	20202020 	eorcs	r2, r0, r0, lsr #32
   1b0e8:	0a3d2020 	beq	f63170 <__bss_end+0x5f9170>
   1b0ec:	00000000 	andeq	r0, r0, r0
   1b0f0:	525f4f49 	subspl	r4, pc, #292	; 0x124
   1b0f4:	28444145 	stmdacs	r4, {r0, r2, r6, r8, lr}^
   1b0f8:	5f443356 	svcpl	0x00443356
   1b0fc:	47424446 	strbmi	r4, [r2, -r6, asr #8]
   1b100:	2020294f 	eorcs	r2, r0, pc, asr #18
   1b104:	0a3d2020 	beq	f6318c <__bss_end+0x5f918c>
   1b108:	00000000 	andeq	r0, r0, r0
   1b10c:	525f4f49 	subspl	r4, pc, #292	; 0x124
   1b110:	28444145 	stmdacs	r4, {r0, r2, r6, r8, lr}^
   1b114:	5f443356 	svcpl	0x00443356
   1b118:	43544e49 	cmpmi	r4, #1168	; 0x490
   1b11c:	20294c54 	eorcs	r4, r9, r4, asr ip
   1b120:	0a3d2020 	beq	f631a8 <__bss_end+0x5f91a8>
   1b124:	00000000 	andeq	r0, r0, r0
   1b128:	525f4f49 	subspl	r4, pc, #292	; 0x124
   1b12c:	28444145 	stmdacs	r4, {r0, r2, r6, r8, lr}^
   1b130:	5f443356 	svcpl	0x00443356
   1b134:	43415056 	movtmi	r5, #4182	; 0x1056
   1b138:	294c544e 	stmdbcs	ip, {r1, r2, r3, r6, sl, ip, lr}^
   1b13c:	0a3d2020 	beq	f631c4 <__bss_end+0x5f91c4>
   1b140:	00000000 	andeq	r0, r0, r0
   1b144:	525f4f49 	subspl	r4, pc, #292	; 0x124
   1b148:	28444145 	stmdacs	r4, {r0, r2, r6, r8, lr}^
   1b14c:	5f443356 	svcpl	0x00443356
   1b150:	534f5042 	movtpl	r5, #61506	; 0xf042
   1b154:	20202029 	eorcs	r2, r0, r9, lsr #32
   1b158:	0a3d2020 	beq	f631e0 <__bss_end+0x5f91e0>
   1b15c:	00000000 	andeq	r0, r0, r0
   1b160:	525f4f49 	subspl	r4, pc, #292	; 0x124
   1b164:	28444145 	stmdacs	r4, {r0, r2, r6, r8, lr}^
   1b168:	5f443356 	svcpl	0x00443356
   1b16c:	414f5042 	cmpmi	pc, r2, asr #32
   1b170:	20202029 	eorcs	r2, r0, r9, lsr #32
   1b174:	0a3d2020 	beq	f631fc <__bss_end+0x5f91fc>
   1b178:	00000000 	andeq	r0, r0, r0
   1b17c:	525f4f49 	subspl	r4, pc, #292	; 0x124
   1b180:	28444145 	stmdacs	r4, {r0, r2, r6, r8, lr}^
   1b184:	5f443356 	svcpl	0x00443356
   1b188:	53435042 	movtpl	r5, #12354	; 0x3042
   1b18c:	20202029 	eorcs	r2, r0, r9, lsr #32
   1b190:	0a3d2020 	beq	f63218 <__bss_end+0x5f9218>
   1b194:	00000000 	andeq	r0, r0, r0
   1b198:	525f4f49 	subspl	r4, pc, #292	; 0x124
   1b19c:	28444145 	stmdacs	r4, {r0, r2, r6, r8, lr}^
   1b1a0:	5f443356 	svcpl	0x00443356
   1b1a4:	4e454449 	cdpmi	4, 4, cr4, cr5, cr9, {2}
   1b1a8:	20293254 	eorcs	r3, r9, r4, asr r2
   1b1ac:	0a3d2020 	beq	f63234 <__bss_end+0x5f9234>
   1b1b0:	00000000 	andeq	r0, r0, r0
   1b1b4:	2d2d2d2d 	stccs	13, cr2, [sp, #-180]!	; 0xffffff4c
   1b1b8:	2d2d2d2d 	stccs	13, cr2, [sp, #-180]!	; 0xffffff4c
   1b1bc:	2d2d2d2d 	stccs	13, cr2, [sp, #-180]!	; 0xffffff4c
   1b1c0:	2d2d2d2d 	stccs	13, cr2, [sp, #-180]!	; 0xffffff4c
   1b1c4:	2d2d2d2d 	stccs	13, cr2, [sp, #-180]!	; 0xffffff4c
   1b1c8:	2d2d2d2d 	stccs	13, cr2, [sp, #-180]!	; 0xffffff4c
   1b1cc:	2d2d2d2d 	stccs	13, cr2, [sp, #-180]!	; 0xffffff4c
   1b1d0:	2d2d2d2d 	stccs	13, cr2, [sp, #-180]!	; 0xffffff4c
   1b1d4:	2d2d2d2d 	stccs	13, cr2, [sp, #-180]!	; 0xffffff4c
   1b1d8:	2d2d2d2d 	stccs	13, cr2, [sp, #-180]!	; 0xffffff4c
   1b1dc:	2d2d2d2d 	stccs	13, cr2, [sp, #-180]!	; 0xffffff4c
   1b1e0:	2d2d2d2d 	stccs	13, cr2, [sp, #-180]!	; 0xffffff4c
   1b1e4:	00000a2d 	andeq	r0, r0, sp, lsr #20
   1b1e8:	45524f43 	ldrbmi	r4, [r2, #-3907]	; 0xfffff0bd
   1b1ec:	45522030 	ldrbmi	r2, [r2, #-48]	; 0xffffffd0
   1b1f0:	0a594441 	beq	166c2fc <__bss_end+0xd022fc>
   1b1f4:	00000000 	andeq	r0, r0, r0
   1b1f8:	44335620 	ldrtmi	r5, [r3], #-1568	; 0xfffff9e0
   1b1fc:	53455420 	movtpl	r5, #21536	; 0x5420
   1b200:	00000a54 	andeq	r0, r0, r4, asr sl
   1b204:	214b4f20 	cmpcs	fp, r0, lsr #30
   1b208:	494c4220 	stmdbmi	ip, {r5, r9, lr}^
   1b20c:	53204b4e 			; <UNDEFINED> instruction: 0x53204b4e
   1b210:	55544154 	ldrbpl	r4, [r4, #-340]	; 0xfffffeac
   1b214:	454c2053 	strbmi	r2, [ip, #-83]	; 0xffffffad
   1b218:	00000a44 	andeq	r0, r0, r4, asr #20
   1b21c:	0a474e20 	beq	11eeaa4 <__bss_end+0x884aa4>
   1b220:	00000000 	andeq	r0, r0, r0
   1b224:	20544547 	subscs	r4, r4, r7, asr #10
   1b228:	4d415246 	sfmmi	f5, 2, [r1, #-280]	; 0xfffffee8
   1b22c:	46554245 	ldrbmi	r4, [r5], -r5, asr #4
   1b230:	0a524546 	beq	14ac750 <__bss_end+0xb42750>
   1b234:	00000000 	andeq	r0, r0, r0
   1b238:	3e2d6266 	cdpcc	2, 2, cr6, cr13, cr6, {3}
   1b23c:	74646977 	strbtvc	r6, [r4], #-2423	; 0xfffff689
   1b240:	3d202068 	stccc	0, cr2, [r0, #-416]!	; 0xfffffe60
   1b244:	0000000a 	andeq	r0, r0, sl
   1b248:	3e2d6266 	cdpcc	2, 2, cr6, cr13, cr6, {3}
   1b24c:	67696568 	strbvs	r6, [r9, -r8, ror #10]!
   1b250:	3d207468 	cfstrscc	mvf7, [r0, #-416]!	; 0xfffffe60
   1b254:	0000000a 	andeq	r0, r0, sl
   1b258:	3e2d6266 	cdpcc	2, 2, cr6, cr13, cr6, {3}
   1b25c:	657a6973 	ldrbvs	r6, [sl, #-2419]!	; 0xfffff68d
   1b260:	3d202020 	stccc	0, cr2, [r0, #-128]!	; 0xffffff80
   1b264:	0000000a 	andeq	r0, r0, sl
   1b268:	3e2d6266 	cdpcc	2, 2, cr6, cr13, cr6, {3}
   1b26c:	6e696f70 	mcrvs	15, 3, r6, cr9, cr0, {3}
   1b270:	3d726574 	cfldr64cc	mvdx6, [r2, #-464]!	; 0xfffffe30
   1b274:	0000000a 	andeq	r0, r0, sl
   1b278:	54534554 	ldrbpl	r4, [r3], #-1364	; 0xfffffaac
   1b27c:	54414820 	strbpl	r4, [r1], #-2080	; 0xfffff7e0
   1b280:	0a2e4843 	beq	bad394 <__bss_end+0x243394>
   1b284:	00000000 	andeq	r0, r0, r0
   1b288:	74736574 	ldrbtvc	r6, [r3], #-1396	; 0xfffffa8c
   1b28c:	69726420 	ldmdbvs	r2!, {r5, sl, sp, lr}^
   1b290:	2e726576 	mrccs	5, 3, r6, cr2, cr6, {3}
   1b294:	0000000a 	andeq	r0, r0, sl
   1b298:	6c69616d 	stfvse	f6, [r9], #-436	; 0xfffffe4c
   1b29c:	5f786f62 	svcpl	0x00786f62
   1b2a0:	5f757071 	svcpl	0x00757071
   1b2a4:	62616e65 	rsbvs	r6, r1, #1616	; 0x650
   1b2a8:	4620656c 	strtmi	r6, [r0], -ip, ror #10
   1b2ac:	454c4941 	strbmi	r4, [ip, #-2369]	; 0xfffff6bf
   1b2b0:	5b702044 	blpl	1c233c8 <__bss_end+0x12b93c8>
   1b2b4:	0a3d5d31 	beq	f72780 <__bss_end+0x608780>
   1b2b8:	00000000 	andeq	r0, r0, r0
   1b2bc:	6c69616d 	stfvse	f6, [r9], #-436	; 0xfffffe4c
   1b2c0:	5f786f62 	svcpl	0x00786f62
   1b2c4:	5f757071 	svcpl	0x00757071
   1b2c8:	62616e65 	rsbvs	r6, r1, #1616	; 0x650
   1b2cc:	4f20656c 	svcmi	0x0020656c
   1b2d0:	000a204b 	andeq	r2, sl, fp, asr #32
   1b2d4:	6c69616d 	stfvse	f6, [r9], #-436	; 0xfffffe4c
   1b2d8:	5f786f62 	svcpl	0x00786f62
   1b2dc:	6f6c6e75 	svcvs	0x006c6e75
   1b2e0:	6d5f6b63 	vldrvs	d22, [pc, #-396]	; 1b15c <__rodata_start+0x1015c>
   1b2e4:	726f6d65 	rsbvc	r6, pc, #6464	; 0x1940
   1b2e8:	41462079 	hvcmi	25097	; 0x6209
   1b2ec:	44454c49 	strbmi	r4, [r5], #-3145	; 0xfffff3b7
   1b2f0:	315b7020 	cmpcc	fp, r0, lsr #32
   1b2f4:	000a3d5d 	andeq	r3, sl, sp, asr sp
   1b2f8:	6c69616d 	stfvse	f6, [r9], #-436	; 0xfffffe4c
   1b2fc:	5f786f62 	svcpl	0x00786f62
   1b300:	6f6c6c61 	svcvs	0x006c6c61
   1b304:	65746163 	ldrbvs	r6, [r4, #-355]!	; 0xfffffe9d
   1b308:	6d656d5f 	stclvs	13, cr6, [r5, #-380]!	; 0xfffffe84
   1b30c:	2079726f 	rsbscs	r7, r9, pc, ror #4
   1b310:	646e6168 	strbtvs	r6, [lr], #-360	; 0xfffffe98
   1b314:	0a3d656c 	beq	f748cc <__bss_end+0x60a8cc>
   1b318:	00000000 	andeq	r0, r0, r0
   1b31c:	6c69616d 	stfvse	f6, [r9], #-436	; 0xfffffe4c
   1b320:	5f786f62 	svcpl	0x00786f62
   1b324:	6b636f6c 	blvs	18f70dc <__bss_end+0xf8d0dc>
   1b328:	6d656d5f 	stclvs	13, cr6, [r5, #-380]!	; 0xfffffe84
   1b32c:	2079726f 	rsbscs	r7, r9, pc, ror #4
   1b330:	4c494146 	stfmie	f4, [r9], {70}	; 0x46
   1b334:	70204445 	eorvc	r4, r0, r5, asr #8
   1b338:	3d5d315b 	ldfcce	f3, [sp, #-364]	; 0xfffffe94
   1b33c:	0000000a 	andeq	r0, r0, sl
   1b340:	6c69616d 	stfvse	f6, [r9], #-436	; 0xfffffe4c
   1b344:	5f786f62 	svcpl	0x00786f62
   1b348:	6b636f6c 	blvs	18f7100 <__bss_end+0xf8d100>
   1b34c:	6d656d5f 	stclvs	13, cr6, [r5, #-380]!	; 0xfffffe84
   1b350:	2079726f 	rsbscs	r7, r9, pc, ror #4
   1b354:	72646461 	rsbvc	r6, r4, #1627389952	; 0x61000000
   1b358:	00000a3d 	andeq	r0, r0, sp, lsr sl
   1b35c:	6c69616d 	stfvse	f6, [r9], #-436	; 0xfffffe4c
   1b360:	5f786f62 	svcpl	0x00786f62
   1b364:	6f6c6e75 	svcvs	0x006c6e75
   1b368:	6d5f6b63 	vldrvs	d22, [pc, #-396]	; 1b1e4 <__rodata_start+0x101e4>
   1b36c:	726f6d65 	rsbvc	r6, pc, #6464	; 0x1940
   1b370:	000a3d79 	andeq	r3, sl, r9, ror sp
   1b374:	4c49414d 	stfmie	f4, [r9], {77}	; 0x4d
   1b378:	5f584f42 	svcpl	0x00584f42
   1b37c:	4d415246 	sfmmi	f5, 2, [r1, #-280]	; 0xfffffee8
   1b380:	46554245 	ldrbmi	r4, [r5], -r5, asr #4
   1b384:	20524546 	subscs	r4, r2, r6, asr #10
   1b388:	6e756f63 	cdpvs	15, 7, cr6, cr5, cr3, {3}
   1b38c:	000a3d74 	andeq	r3, sl, r4, ror sp
   1b390:	2d787463 	cfldrdcs	mvd7, [r8, #-396]!	; 0xfffffe74
   1b394:	4433563e 	ldrtmi	r5, [r3], #-1598	; 0xfffff9c2
   1b398:	5252455f 	subspl	r4, r2, #398458880	; 0x17c00000
   1b39c:	54415453 	strbpl	r5, [r1], #-1107	; 0xfffffbad
   1b3a0:	00000a3d 	andeq	r0, r0, sp, lsr sl
   1b3a4:	2d787463 	cfldrdcs	mvd7, [r8, #-396]!	; 0xfffffe74
   1b3a8:	4433563e 	ldrtmi	r5, [r3], #-1598	; 0xfffff9c2
   1b3ac:	5251535f 	subspl	r5, r1, #2080374785	; 0x7c000001
   1b3b0:	20305653 	eorscs	r5, r0, r3, asr r6
   1b3b4:	000a3d20 	andeq	r3, sl, r0, lsr #26
   1b3b8:	2d787463 	cfldrdcs	mvd7, [r8, #-396]!	; 0xfffffe74
   1b3bc:	4433563e 	ldrtmi	r5, [r3], #-1598	; 0xfffff9c2
   1b3c0:	5152535f 	cmppl	r2, pc, asr r3
   1b3c4:	20205343 	eorcs	r5, r0, r3, asr #6
   1b3c8:	000a3d20 	andeq	r3, sl, r0, lsr #26
   1b3cc:	2d787463 	cfldrdcs	mvd7, [r8, #-396]!	; 0xfffffe74
   1b3d0:	4433563e 	ldrtmi	r5, [r3], #-1598	; 0xfffff9c2
   1b3d4:	4150565f 	cmpmi	r0, pc, asr r6
   1b3d8:	4c544e43 	mrrcmi	14, 4, r4, r4, cr3	; <UNPREDICTABLE>
   1b3dc:	000a3d20 	andeq	r3, sl, r0, lsr #26
   1b3e0:	2d787463 	cfldrdcs	mvd7, [r8, #-396]!	; 0xfffffe74
   1b3e4:	4433563e 	ldrtmi	r5, [r3], #-1598	; 0xfffff9c2
   1b3e8:	4742445f 	smlsldmi	r4, r2, pc, r4	; <UNPREDICTABLE>
   1b3ec:	20202045 	eorcs	r2, r0, r5, asr #32
   1b3f0:	000a3d20 	andeq	r3, sl, r0, lsr #26
   1b3f4:	2d787463 	cfldrdcs	mvd7, [r8, #-396]!	; 0xfffffe74
   1b3f8:	4433563e 	ldrtmi	r5, [r3], #-1598	; 0xfffff9c2
   1b3fc:	4244465f 	submi	r4, r4, #99614720	; 0x5f00000
   1b400:	20204f47 	eorcs	r4, r0, r7, asr #30
   1b404:	000a3d20 	andeq	r3, sl, r0, lsr #26
   1b408:	2d787463 	cfldrdcs	mvd7, [r8, #-396]!	; 0xfffffe74
   1b40c:	4433563e 	ldrtmi	r5, [r3], #-1598	; 0xfffff9c2
   1b410:	4244465f 	submi	r4, r4, #99614720	; 0x5f00000
   1b414:	20205347 	eorcs	r5, r0, r7, asr #6
   1b418:	000a3d20 	andeq	r3, sl, r0, lsr #26
   1b41c:	2d787463 	cfldrdcs	mvd7, [r8, #-396]!	; 0xfffffe74
   1b420:	4433563e 	ldrtmi	r5, [r3], #-1598	; 0xfffff9c2
   1b424:	4358425f 	cmpmi	r8, #-268435451	; 0xf0000005
   1b428:	20202046 	eorcs	r2, r0, r6, asr #32
   1b42c:	000a3d20 	andeq	r3, sl, r0, lsr #26
   1b430:	56646441 	strbtpl	r6, [r4], -r1, asr #8
   1b434:	65747265 	ldrbvs	r7, [r4, #-613]!	; 0xfffffd9b
   1b438:	6f442078 	svcvs	0x00442078
   1b43c:	000a656e 	andeq	r6, sl, lr, ror #10
   1b440:	43443356 	movtmi	r3, #17238	; 0x4356
   1b444:	72746e6f 	rsbsvc	r6, r4, #1776	; 0x6f0
   1b448:	694c6c6f 	stmdbvs	ip, {r0, r1, r2, r3, r5, r6, sl, fp, sp, lr}^
   1b44c:	72437473 	subvc	r7, r3, #1929379840	; 0x73000000
   1b450:	65746165 	ldrbvs	r6, [r4, #-357]!	; 0xfffffe9b
   1b454:	6e6e6942 	cdpvs	9, 6, cr6, cr14, cr2, {2}
   1b458:	20676e69 	rsbcs	r6, r7, r9, ror #28
   1b45c:	656e6f44 	strbvs	r6, [lr, #-3908]!	; 0xfffff0bc
   1b460:	0000000a 	andeq	r0, r0, sl
   1b464:	43443356 	movtmi	r3, #17238	; 0x4356
   1b468:	72746e6f 	rsbsvc	r6, r4, #1776	; 0x6f0
   1b46c:	694c6c6f 	stmdbvs	ip, {r0, r1, r2, r3, r5, r6, sl, fp, sp, lr}^
   1b470:	72437473 	subvc	r7, r3, #1929379840	; 0x73000000
   1b474:	65746165 	ldrbvs	r6, [r4, #-357]!	; 0xfffffe9b
   1b478:	646e6552 	strbtvs	r6, [lr], #-1362	; 0xfffffaae
   1b47c:	6e697265 	cdpvs	2, 6, cr7, cr9, cr5, {3}
   1b480:	6f442067 	svcvs	0x00442067
   1b484:	000a656e 	andeq	r6, sl, lr, ror #10
   1b488:	00203a20 	eoreq	r3, r0, r0, lsr #20

Disassembly of section .data:

0001c000 <__data_start>:
   1c000:	0081da00 	addeq	sp, r1, r0, lsl #20

0001c004 <CHAR_COLOR>:
   1c004:	ffffffff 			; <UNDEFINED> instruction: 0xffffffff

0001c008 <table>:
   1c008:	33323130 	teqcc	r2, #48, 2
   1c00c:	37363534 			; <UNDEFINED> instruction: 0x37363534
   1c010:	42413938 	submi	r3, r1, #56, 18	; 0xe0000
   1c014:	46454443 	strbmi	r4, [r5], -r3, asr #8

0001c018 <rand_a>:
   1c018:	00000001 	andeq	r0, r0, r1

0001c01c <rand_b>:
   1c01c:	00005ba0 	andeq	r5, r0, r0, lsr #23

0001c020 <rand_c>:
   1c020:	007864cb 	rsbseq	r6, r8, fp, asr #9

0001c024 <sintable>:
   1c024:	00000000 	andeq	r0, r0, r0
   1c028:	00020001 	andeq	r0, r2, r1
   1c02c:	00030003 	andeq	r0, r3, r3
   1c030:	00050004 	andeq	r0, r5, r4
   1c034:	00070006 	andeq	r0, r7, r6
   1c038:	00080007 	andeq	r0, r8, r7
   1c03c:	000a0009 	andeq	r0, sl, r9
   1c040:	000b000a 	andeq	r0, fp, sl
   1c044:	000c000c 	andeq	r0, ip, ip
   1c048:	000e000d 	andeq	r0, lr, sp
   1c04c:	000f000f 	andeq	r0, pc, pc
   1c050:	00110010 	andseq	r0, r1, r0, lsl r0
   1c054:	00120011 	andseq	r0, r2, r1, lsl r0
   1c058:	00130013 	andseq	r0, r3, r3, lsl r0
   1c05c:	00140014 	andseq	r0, r4, r4, lsl r0
   1c060:	00160015 	andseq	r0, r6, r5, lsl r0
   1c064:	00170016 	andseq	r0, r7, r6, lsl r0
   1c068:	00180017 	andseq	r0, r8, r7, lsl r0
   1c06c:	00190018 	andseq	r0, r9, r8, lsl r0
   1c070:	001a0019 	andseq	r0, sl, r9, lsl r0
   1c074:	001b001a 	andseq	r0, fp, sl, lsl r0
   1c078:	001b001b 	andseq	r0, fp, fp, lsl r0
   1c07c:	001c001c 	andseq	r0, ip, ip, lsl r0
   1c080:	001d001c 	andseq	r0, sp, ip, lsl r0
   1c084:	001d001d 	andseq	r0, sp, sp, lsl r0
   1c088:	001e001e 	andseq	r0, lr, lr, lsl r0
   1c08c:	001e001e 	andseq	r0, lr, lr, lsl r0
   1c090:	001f001f 	andseq	r0, pc, pc, lsl r0	; <UNPREDICTABLE>
   1c094:	001f001f 	andseq	r0, pc, pc, lsl r0	; <UNPREDICTABLE>
   1c098:	001f001f 	andseq	r0, pc, pc, lsl r0	; <UNPREDICTABLE>
   1c09c:	001f001f 	andseq	r0, pc, pc, lsl r0	; <UNPREDICTABLE>
   1c0a0:	001f001f 	andseq	r0, pc, pc, lsl r0	; <UNPREDICTABLE>
   1c0a4:	001f0020 	andseq	r0, pc, r0, lsr #32
   1c0a8:	001f001f 	andseq	r0, pc, pc, lsl r0	; <UNPREDICTABLE>
   1c0ac:	001f001f 	andseq	r0, pc, pc, lsl r0	; <UNPREDICTABLE>
   1c0b0:	001f001f 	andseq	r0, pc, pc, lsl r0	; <UNPREDICTABLE>
   1c0b4:	001f001f 	andseq	r0, pc, pc, lsl r0	; <UNPREDICTABLE>
   1c0b8:	001e001f 	andseq	r0, lr, pc, lsl r0
   1c0bc:	001e001e 	andseq	r0, lr, lr, lsl r0
   1c0c0:	001d001e 	andseq	r0, sp, lr, lsl r0
   1c0c4:	001d001d 	andseq	r0, sp, sp, lsl r0
   1c0c8:	001c001c 	andseq	r0, ip, ip, lsl r0
   1c0cc:	001b001c 	andseq	r0, fp, ip, lsl r0
   1c0d0:	001b001b 	andseq	r0, fp, fp, lsl r0
   1c0d4:	001a001a 	andseq	r0, sl, sl, lsl r0
   1c0d8:	00190019 	andseq	r0, r9, r9, lsl r0
   1c0dc:	00180018 	andseq	r0, r8, r8, lsl r0
   1c0e0:	00170017 	andseq	r0, r7, r7, lsl r0
   1c0e4:	00160016 	andseq	r0, r6, r6, lsl r0
   1c0e8:	00140015 	andseq	r0, r4, r5, lsl r0
   1c0ec:	00130014 	andseq	r0, r3, r4, lsl r0
   1c0f0:	00120013 	andseq	r0, r2, r3, lsl r0
   1c0f4:	00110011 	andseq	r0, r1, r1, lsl r0
   1c0f8:	000f0010 	andeq	r0, pc, r0, lsl r0	; <UNPREDICTABLE>
   1c0fc:	000e000f 	andeq	r0, lr, pc
   1c100:	000c000d 	andeq	r0, ip, sp
   1c104:	000b000c 	andeq	r0, fp, ip
   1c108:	000a000a 	andeq	r0, sl, sl
   1c10c:	00080009 	andeq	r0, r8, r9
   1c110:	00070007 	andeq	r0, r7, r7
   1c114:	00050006 	andeq	r0, r5, r6
   1c118:	00030004 	andeq	r0, r3, r4
   1c11c:	00020003 	andeq	r0, r2, r3
   1c120:	00000001 	andeq	r0, r0, r1
   1c124:	00000000 	andeq	r0, r0, r0
   1c128:	fffeffff 			; <UNDEFINED> instruction: 0xfffeffff
   1c12c:	fffdfffd 			; <UNDEFINED> instruction: 0xfffdfffd
   1c130:	fffbfffc 			; <UNDEFINED> instruction: 0xfffbfffc
   1c134:	fff9fffa 			; <UNDEFINED> instruction: 0xfff9fffa
   1c138:	fff8fff9 			; <UNDEFINED> instruction: 0xfff8fff9
   1c13c:	fff6fff7 			; <UNDEFINED> instruction: 0xfff6fff7
   1c140:	fff5fff6 			; <UNDEFINED> instruction: 0xfff5fff6
   1c144:	fff4fff4 			; <UNDEFINED> instruction: 0xfff4fff4
   1c148:	fff2fff3 			; <UNDEFINED> instruction: 0xfff2fff3
   1c14c:	fff1fff1 			; <UNDEFINED> instruction: 0xfff1fff1
   1c150:	ffeffff0 			; <UNDEFINED> instruction: 0xffeffff0
   1c154:	ffeeffef 			; <UNDEFINED> instruction: 0xffeeffef
   1c158:	ffedffed 			; <UNDEFINED> instruction: 0xffedffed
   1c15c:	ffecffec 			; <UNDEFINED> instruction: 0xffecffec
   1c160:	ffeaffeb 			; <UNDEFINED> instruction: 0xffeaffeb
   1c164:	ffe9ffea 			; <UNDEFINED> instruction: 0xffe9ffea
   1c168:	ffe8ffe9 			; <UNDEFINED> instruction: 0xffe8ffe9
   1c16c:	ffe7ffe8 			; <UNDEFINED> instruction: 0xffe7ffe8
   1c170:	ffe6ffe7 			; <UNDEFINED> instruction: 0xffe6ffe7
   1c174:	ffe5ffe6 			; <UNDEFINED> instruction: 0xffe5ffe6
   1c178:	ffe5ffe5 			; <UNDEFINED> instruction: 0xffe5ffe5
   1c17c:	ffe4ffe4 			; <UNDEFINED> instruction: 0xffe4ffe4
   1c180:	ffe3ffe4 			; <UNDEFINED> instruction: 0xffe3ffe4
   1c184:	ffe3ffe3 			; <UNDEFINED> instruction: 0xffe3ffe3
   1c188:	ffe2ffe2 			; <UNDEFINED> instruction: 0xffe2ffe2
   1c18c:	ffe2ffe2 			; <UNDEFINED> instruction: 0xffe2ffe2
   1c190:	ffe1ffe1 			; <UNDEFINED> instruction: 0xffe1ffe1
   1c194:	ffe1ffe1 			; <UNDEFINED> instruction: 0xffe1ffe1
   1c198:	ffe1ffe1 			; <UNDEFINED> instruction: 0xffe1ffe1
   1c19c:	ffe1ffe1 			; <UNDEFINED> instruction: 0xffe1ffe1
   1c1a0:	ffe1ffe1 			; <UNDEFINED> instruction: 0xffe1ffe1
   1c1a4:	ffe1ffe0 			; <UNDEFINED> instruction: 0xffe1ffe0
   1c1a8:	ffe1ffe1 			; <UNDEFINED> instruction: 0xffe1ffe1
   1c1ac:	ffe1ffe1 			; <UNDEFINED> instruction: 0xffe1ffe1
   1c1b0:	ffe1ffe1 			; <UNDEFINED> instruction: 0xffe1ffe1
   1c1b4:	ffe1ffe1 			; <UNDEFINED> instruction: 0xffe1ffe1
   1c1b8:	ffe2ffe1 			; <UNDEFINED> instruction: 0xffe2ffe1
   1c1bc:	ffe2ffe2 			; <UNDEFINED> instruction: 0xffe2ffe2
   1c1c0:	ffe3ffe2 			; <UNDEFINED> instruction: 0xffe3ffe2
   1c1c4:	ffe3ffe3 			; <UNDEFINED> instruction: 0xffe3ffe3
   1c1c8:	ffe4ffe4 			; <UNDEFINED> instruction: 0xffe4ffe4
   1c1cc:	ffe5ffe4 			; <UNDEFINED> instruction: 0xffe5ffe4
   1c1d0:	ffe5ffe5 			; <UNDEFINED> instruction: 0xffe5ffe5
   1c1d4:	ffe6ffe6 			; <UNDEFINED> instruction: 0xffe6ffe6
   1c1d8:	ffe7ffe7 			; <UNDEFINED> instruction: 0xffe7ffe7
   1c1dc:	ffe8ffe8 			; <UNDEFINED> instruction: 0xffe8ffe8
   1c1e0:	ffe9ffe9 			; <UNDEFINED> instruction: 0xffe9ffe9
   1c1e4:	ffeaffea 			; <UNDEFINED> instruction: 0xffeaffea
   1c1e8:	ffecffeb 			; <UNDEFINED> instruction: 0xffecffeb
   1c1ec:	ffedffec 			; <UNDEFINED> instruction: 0xffedffec
   1c1f0:	ffeeffed 			; <UNDEFINED> instruction: 0xffeeffed
   1c1f4:	ffefffef 			; <UNDEFINED> instruction: 0xffefffef
   1c1f8:	fff1fff0 			; <UNDEFINED> instruction: 0xfff1fff0
   1c1fc:	fff2fff1 			; <UNDEFINED> instruction: 0xfff2fff1
   1c200:	fff4fff3 			; <UNDEFINED> instruction: 0xfff4fff3
   1c204:	fff5fff4 			; <UNDEFINED> instruction: 0xfff5fff4
   1c208:	fff6fff6 			; <UNDEFINED> instruction: 0xfff6fff6
   1c20c:	fff8fff7 			; <UNDEFINED> instruction: 0xfff8fff7
   1c210:	fff9fff9 			; <UNDEFINED> instruction: 0xfff9fff9
   1c214:	fffbfffa 			; <UNDEFINED> instruction: 0xfffbfffa
   1c218:	fffdfffc 			; <UNDEFINED> instruction: 0xfffdfffc
   1c21c:	fffefffd 			; <UNDEFINED> instruction: 0xfffefffd
   1c220:	0000ffff 	strdeq	pc, [r0], -pc	; <UNPREDICTABLE>

Disassembly of section .bss:

0001d000 <__bss_start>:
	...

0001d100 <command_index>:
	...

0001d200 <mailbox_fb_data>:
	...

0001d300 <p>:
	...

0001d700 <is_fb_init>:
   1d700:	00000000 	andeq	r0, r0, r0

0001d704 <stick>:
   1d704:	00000000 	andeq	r0, r0, r0

0001d708 <offset>:
   1d708:	00000000 	andeq	r0, r0, r0

0001d70c <frame>:
	...

0001d800 <renderchunk_buffer0>:
	...

0081d800 <dmadata>:
	...

0081da00 <context>:
	...

0081db00 <buffer>:
	...

00949b00 <M>:
	...

Disassembly of section .ARM.attributes:

00000000 <.ARM.attributes>:
   0:	00003c41 	andeq	r3, r0, r1, asr #24
   4:	61656100 	cmnvs	r5, r0, lsl #2
   8:	01006962 	tsteq	r0, r2, ror #18
   c:	00000032 	andeq	r0, r0, r2, lsr r0
  10:	726f4305 	rsbvc	r4, pc, #335544320	; 0x14000000
  14:	2d786574 	cfldr64cs	mvdx6, [r8, #-464]!	; 0xfffffe30
  18:	06003741 	streq	r3, [r0], -r1, asr #14
  1c:	0841070a 	stmdaeq	r1, {r1, r3, r8, r9, sl}^
  20:	0a020901 	beq	8242c <renderchunk_buffer0+0x64c2c>
  24:	12020c05 	andne	r0, r2, #1280	; 0x500
  28:	15011404 	strne	r1, [r1, #-1028]	; 0xfffffbfc
  2c:	18031701 	stmdane	r3, {r0, r8, r9, sl, ip}
  30:	1c011a01 	stcne	10, cr1, [r1], {1}
  34:	2a012201 	bcs	48840 <renderchunk_buffer0+0x2b040>
  38:	44022c01 	strmi	r2, [r2], #-3073	; 0xfffff3ff
  3c:	Address 0x0000003c is out of bounds.


Disassembly of section .comment:

00000000 <.comment>:
   0:	3a434347 	bcc	10d0d24 <__bss_end+0x766d24>
   4:	4e472820 	cdpmi	8, 4, cr2, cr7, cr0, {1}
   8:	6f542055 	svcvs	0x00542055
   c:	20736c6f 	rsbscs	r6, r3, pc, ror #24
  10:	20726f66 	rsbscs	r6, r2, r6, ror #30
  14:	204d5241 	subcs	r5, sp, r1, asr #4
  18:	65626d45 	strbvs	r6, [r2, #-3397]!	; 0xfffff2bb
  1c:	64656464 	strbtvs	r6, [r5], #-1124	; 0xfffffb9c
  20:	6f725020 	svcvs	0x00725020
  24:	73736563 	cmnvc	r3, #415236096	; 0x18c00000
  28:	2973726f 	ldmdbcs	r3!, {r0, r1, r2, r3, r5, r6, r9, ip, sp, lr}^
  2c:	322e3520 	eorcc	r3, lr, #32, 10	; 0x8000000
  30:	3220312e 	eorcc	r3, r0, #-2147483637	; 0x8000000b
  34:	31353130 	teqcc	r5, r0, lsr r1
  38:	20323032 	eorscs	r3, r2, r2, lsr r0
  3c:	6c657228 	sfmvs	f7, 2, [r5], #-160	; 0xffffff60
  40:	65736165 	ldrbvs	r6, [r3, #-357]!	; 0xfffffe9b
  44:	415b2029 	cmpmi	fp, r9, lsr #32
  48:	652f4d52 	strvs	r4, [pc, #-3410]!	; fffff2fe <__bss_end+0xff6952fe>
  4c:	6465626d 	strbtvs	r6, [r5], #-621	; 0xfffffd93
  50:	2d646564 	cfstr64cs	mvdx6, [r4, #-400]!	; 0xfffffe70
  54:	72622d35 	rsbvc	r2, r2, #3392	; 0xd40
  58:	68636e61 	stmdavs	r3!, {r0, r5, r6, r9, sl, fp, sp, lr}^
  5c:	76657220 	strbtvc	r7, [r5], -r0, lsr #4
  60:	6f697369 	svcvs	0x00697369
  64:	3332206e 	teqcc	r2, #110	; 0x6e
  68:	38343831 	ldmdacc	r4!, {r0, r4, r5, fp, ip, sp}
  6c:	Address 0x0000006c is out of bounds.

