
image.elf:     file format elf32-littlearm


Disassembly of section .text:

00008000 <__start>:
    8000:	e3a00000 	mov	r0, #0
    8004:	e3a01000 	mov	r1, #0
    8008:	e3a02000 	mov	r2, #0
    800c:	e3a03000 	mov	r3, #0
    8010:	e3a04000 	mov	r4, #0
    8014:	e3a05000 	mov	r5, #0
    8018:	e3a06000 	mov	r6, #0
    801c:	e3a07000 	mov	r7, #0
    8020:	e3a08000 	mov	r8, #0
    8024:	e3a09000 	mov	r9, #0
    8028:	e3a0a000 	mov	sl, #0
    802c:	e3a0b000 	mov	fp, #0
    8030:	ee110f10 	mrc	15, 0, r0, cr1, cr0, {0}
    8034:	e3800004 	orr	r0, r0, #4
    8038:	e3800b02 	orr	r0, r0, #2048	; 0x800
    803c:	e3800a01 	orr	r0, r0, #4096	; 0x1000
    8040:	ee010f10 	mcr	15, 0, r0, cr1, cr0, {0}
    8044:	ee110f50 	mrc	15, 0, r0, cr1, cr0, {2}
    8048:	e3800603 	orr	r0, r0, #3145728	; 0x300000
    804c:	e2800503 	add	r0, r0, #12582912	; 0xc00000
    8050:	ee010f50 	mcr	15, 0, r0, cr1, cr0, {2}
    8054:	e3a00101 	mov	r0, #1073741824	; 0x40000000
    8058:	eee80a10 	vmsr	fpexc, r0
    805c:	e3a0d902 	mov	sp, #32768	; 0x8000
    8060:	e3a000d3 	mov	r0, #211	; 0xd3
    8064:	e129f000 	msr	CPSR_fc, r0
    8068:	ea000cad 	b	b324 <main>

0000806c <_looping>:
    806c:	eafffffe 	b	806c <_looping>

00008070 <DataMemoryBarrierAll>:
    8070:	e3a00000 	mov	r0, #0
    8074:	ee070f16 	mcr	15, 0, r0, cr7, cr6, {0}
    8078:	ee070f1a 	mcr	15, 0, r0, cr7, cr10, {0}
    807c:	ee070f1e 	mcr	15, 0, r0, cr7, cr14, {0}
    8080:	ee070f9a 	mcr	15, 0, r0, cr7, cr10, {4}
    8084:	ee070fba 	mcr	15, 0, r0, cr7, cr10, {5}
    8088:	e1a0f00e 	mov	pc, lr

0000808c <MemoryBarrier>:
    808c:	ee07cf15 	mcr	15, 0, ip, cr7, cr5, {0}
    8090:	ee07cfd5 	mcr	15, 0, ip, cr7, cr5, {6}
    8094:	ee07cf9a 	mcr	15, 0, ip, cr7, cr10, {4}
    8098:	ee07cf95 	mcr	15, 0, ip, cr7, cr5, {4}
    809c:	e1a0f00e 	mov	pc, lr

000080a0 <func_command>:
    80a0:	e92d4070 	push	{r4, r5, r6, lr}
    80a4:	e1a04000 	mov	r4, r0
    80a8:	e5d03000 	ldrb	r3, [r0]
    80ac:	e20330df 	and	r3, r3, #223	; 0xdf
    80b0:	e3530044 	cmp	r3, #68	; 0x44
    80b4:	02801001 	addeq	r1, r0, #1
    80b8:	03a02000 	moveq	r2, #0
    80bc:	0a000021 	beq	8148 <func_command+0xa8>
    80c0:	e3530057 	cmp	r3, #87	; 0x57
    80c4:	03a00000 	moveq	r0, #0
    80c8:	0a000008 	beq	80f0 <func_command+0x50>
    80cc:	e8bd8070 	pop	{r4, r5, r6, pc}
    80d0:	e1a00200 	lsl	r0, r0, #4
    80d4:	e35c0009 	cmp	ip, #9
    80d8:	e240c030 	sub	ip, r0, #48	; 0x30
    80dc:	908c0003 	addls	r0, ip, r3
    80e0:	e3510005 	cmp	r1, #5
    80e4:	90800006 	addls	r0, r0, r6
    80e8:	e3520005 	cmp	r2, #5
    80ec:	90800005 	addls	r0, r0, r5
    80f0:	e5f43001 	ldrb	r3, [r4, #1]!
    80f4:	e3530000 	cmp	r3, #0
    80f8:	e243c030 	sub	ip, r3, #48	; 0x30
    80fc:	e2431041 	sub	r1, r3, #65	; 0x41
    8100:	e2432061 	sub	r2, r3, #97	; 0x61
    8104:	e6efc07c 	uxtb	ip, ip
    8108:	e6ef1071 	uxtb	r1, r1
    810c:	e6ef2072 	uxtb	r2, r2
    8110:	e2436037 	sub	r6, r3, #55	; 0x37
    8114:	e2435057 	sub	r5, r3, #87	; 0x57
    8118:	1affffec 	bne	80d0 <func_command+0x30>
    811c:	e3a01a01 	mov	r1, #4096	; 0x1000
    8120:	e8bd4070 	pop	{r4, r5, r6, lr}
    8124:	ea00044b 	b	9258 <uart_dump>
    8128:	e1a02202 	lsl	r2, r2, #4
    812c:	e35e0009 	cmp	lr, #9
    8130:	e242e030 	sub	lr, r2, #48	; 0x30
    8134:	908e2003 	addls	r2, lr, r3
    8138:	e35c0005 	cmp	ip, #5
    813c:	90822006 	addls	r2, r2, r6
    8140:	e3500005 	cmp	r0, #5
    8144:	90822005 	addls	r2, r2, r5
    8148:	e5d13000 	ldrb	r3, [r1]
    814c:	e1a04001 	mov	r4, r1
    8150:	e2811001 	add	r1, r1, #1
    8154:	e3530000 	cmp	r3, #0
    8158:	e243e030 	sub	lr, r3, #48	; 0x30
    815c:	e243c041 	sub	ip, r3, #65	; 0x41
    8160:	e2430061 	sub	r0, r3, #97	; 0x61
    8164:	e6efe07e 	uxtb	lr, lr
    8168:	e6efc07c 	uxtb	ip, ip
    816c:	e6ef0070 	uxtb	r0, r0
    8170:	e2436037 	sub	r6, r3, #55	; 0x37
    8174:	e2435057 	sub	r5, r3, #87	; 0x57
    8178:	1affffea 	bne	8128 <func_command+0x88>
    817c:	e1a00002 	mov	r0, r2
    8180:	e3a01a01 	mov	r1, #4096	; 0x1000
    8184:	eb00045a 	bl	92f4 <uart_bytedump>
    8188:	e5d43000 	ldrb	r3, [r4]
    818c:	e20330df 	and	r3, r3, #223	; 0xdf
    8190:	eaffffca 	b	80c0 <func_command+0x20>

00008194 <console_reset>:
    8194:	e92d4010 	push	{r4, lr}
    8198:	e3064000 	movw	r4, #24576	; 0x6000
    819c:	e3404002 	movt	r4, #2
    81a0:	e3a01000 	mov	r1, #0
    81a4:	e3a02c01 	mov	r2, #256	; 0x100
    81a8:	e1a00004 	mov	r0, r4
    81ac:	eb00054d 	bl	96e8 <memset_t>
    81b0:	e3a03000 	mov	r3, #0
    81b4:	e5c43100 	strb	r3, [r4, #256]	; 0x100
    81b8:	e8bd8010 	pop	{r4, pc}

000081bc <console_update>:
    81bc:	e92d4070 	push	{r4, r5, r6, lr}
    81c0:	e1a05000 	mov	r5, r0
    81c4:	eb00037f 	bl	8fc8 <uart_getc>
    81c8:	e2504000 	subs	r4, r0, #0
    81cc:	08bd8070 	popeq	{r4, r5, r6, pc}
    81d0:	e354000d 	cmp	r4, #13
    81d4:	0a000007 	beq	81f8 <console_update+0x3c>
    81d8:	eb000371 	bl	8fa4 <uart_putc>
    81dc:	e3063000 	movw	r3, #24576	; 0x6000
    81e0:	e3403002 	movt	r3, #2
    81e4:	e5d32100 	ldrb	r2, [r3, #256]	; 0x100
    81e8:	e7c34002 	strb	r4, [r3, r2]
    81ec:	e2822001 	add	r2, r2, #1
    81f0:	e5c32100 	strb	r2, [r3, #256]	; 0x100
    81f4:	e8bd8070 	pop	{r4, r5, r6, pc}
    81f8:	e3064000 	movw	r4, #24576	; 0x6000
    81fc:	eb000368 	bl	8fa4 <uart_putc>
    8200:	e3404002 	movt	r4, #2
    8204:	e3a0000a 	mov	r0, #10
    8208:	eb000365 	bl	8fa4 <uart_putc>
    820c:	e5d43100 	ldrb	r3, [r4, #256]	; 0x100
    8210:	e3a06000 	mov	r6, #0
    8214:	e1550006 	cmp	r5, r6
    8218:	e7c46003 	strb	r6, [r4, r3]
    821c:	e2833001 	add	r3, r3, #1
    8220:	e5c43100 	strb	r3, [r4, #256]	; 0x100
    8224:	08bd8070 	popeq	{r4, r5, r6, pc}
    8228:	e1a00004 	mov	r0, r4
    822c:	e12fff35 	blx	r5
    8230:	e1a00004 	mov	r0, r4
    8234:	e1a01006 	mov	r1, r6
    8238:	e3a02c01 	mov	r2, #256	; 0x100
    823c:	eb000529 	bl	96e8 <memset_t>
    8240:	e5c46100 	strb	r6, [r4, #256]	; 0x100
    8244:	e8bd8070 	pop	{r4, r5, r6, pc}

00008248 <core1_update>:
    8248:	e92d4008 	push	{r3, lr}
    824c:	eb00033b 	bl	8f40 <uart_init>
    8250:	e30c0048 	movw	r0, #49224	; 0xc048
    8254:	e3400001 	movt	r0, #1
    8258:	eb000361 	bl	8fe4 <uart_puts>
    825c:	e3a00601 	mov	r0, #1048576	; 0x100000
    8260:	eb000513 	bl	96b4 <usleep>
    8264:	e30800a0 	movw	r0, #32928	; 0x80a0
    8268:	e3400000 	movt	r0, #0
    826c:	ebffffd2 	bl	81bc <console_update>
    8270:	eafffffb 	b	8264 <core1_update+0x1c>

00008274 <get_fontdata16x16>:
    8274:	e30c0000 	movw	r0, #49152	; 0xc000
    8278:	e3400000 	movt	r0, #0
    827c:	e12fff1e 	bx	lr

00008280 <output_enable_status_led.part.0>:
    8280:	e3a03000 	mov	r3, #0
    8284:	e3a02602 	mov	r2, #2097152	; 0x200000
    8288:	e3433f20 	movt	r3, #16160	; 0x3f20
    828c:	e3a00ffa 	mov	r0, #1000	; 0x3e8
    8290:	e5832010 	str	r2, [r3, #16]
    8294:	ea000506 	b	96b4 <usleep>

00008298 <_hald_led>:
    8298:	e92d4080 	push	{r7, lr}
    829c:	e3a04000 	mov	r4, #0
    82a0:	e3434f20 	movt	r4, #16160	; 0x3f20
    82a4:	e3a06902 	mov	r6, #32768	; 0x8000
    82a8:	e1a07006 	mov	r7, r6
    82ac:	e1a05000 	mov	r5, r0
    82b0:	ebfffff2 	bl	8280 <output_enable_status_led.part.0>
    82b4:	e5847020 	str	r7, [r4, #32]
    82b8:	e1a00005 	mov	r0, r5
    82bc:	eb0004fc 	bl	96b4 <usleep>
    82c0:	e584602c 	str	r6, [r4, #44]	; 0x2c
    82c4:	e1a00005 	mov	r0, r5
    82c8:	eb0004f9 	bl	96b4 <usleep>
    82cc:	eafffff8 	b	82b4 <_hald_led+0x1c>

000082d0 <output_enable_status_led>:
    82d0:	eaffffea 	b	8280 <output_enable_status_led.part.0>

000082d4 <halt_led0>:
    82d4:	e92d4008 	push	{r3, lr}
    82d8:	e30c0350 	movw	r0, #50000	; 0xc350
    82dc:	ebffffed 	bl	8298 <_hald_led>

000082e0 <halt_led1>:
    82e0:	e30a0e60 	movw	r0, #44640	; 0xae60
    82e4:	e92d4008 	push	{r3, lr}
    82e8:	e340000a 	movt	r0, #10
    82ec:	ebffffe9 	bl	8298 <_hald_led>

000082f0 <on_status_led>:
    82f0:	e92d4008 	push	{r3, lr}
    82f4:	ebffffe1 	bl	8280 <output_enable_status_led.part.0>
    82f8:	e3a03000 	mov	r3, #0
    82fc:	e3a02902 	mov	r2, #32768	; 0x8000
    8300:	e3433f20 	movt	r3, #16160	; 0x3f20
    8304:	e583202c 	str	r2, [r3, #44]	; 0x2c
    8308:	e8bd8008 	pop	{r3, pc}

0000830c <off_status_led>:
    830c:	e92d4008 	push	{r3, lr}
    8310:	ebffffda 	bl	8280 <output_enable_status_led.part.0>
    8314:	e3a03000 	mov	r3, #0
    8318:	e3a02902 	mov	r2, #32768	; 0x8000
    831c:	e3433f20 	movt	r3, #16160	; 0x3f20
    8320:	e5832020 	str	r2, [r3, #32]
    8324:	e8bd8008 	pop	{r3, pc}

00008328 <mark_status_led>:
    8328:	e92d40f8 	push	{r3, r4, r5, r6, r7, lr}
    832c:	e3a05000 	mov	r5, #0
    8330:	e3435f20 	movt	r5, #16160	; 0x3f20
    8334:	e3a06902 	mov	r6, #32768	; 0x8000
    8338:	e1a07006 	mov	r7, r6
    833c:	e3a0400a 	mov	r4, #10
    8340:	ebffffce 	bl	8280 <output_enable_status_led.part.0>
    8344:	e5857020 	str	r7, [r5, #32]
    8348:	e30806a0 	movw	r0, #34464	; 0x86a0
    834c:	e3400001 	movt	r0, #1
    8350:	eb0004d7 	bl	96b4 <usleep>
    8354:	e585602c 	str	r6, [r5, #44]	; 0x2c
    8358:	e30806a0 	movw	r0, #34464	; 0x86a0
    835c:	e3400001 	movt	r0, #1
    8360:	eb0004d3 	bl	96b4 <usleep>
    8364:	e2544001 	subs	r4, r4, #1
    8368:	1afffff5 	bne	8344 <mark_status_led+0x1c>
    836c:	e8bd80f8 	pop	{r3, r4, r5, r6, r7, pc}

00008370 <ArmToVc>:
    8370:	e2800103 	add	r0, r0, #-1073741824	; 0xc0000000
    8374:	e12fff1e 	bx	lr

00008378 <VcToArm>:
    8378:	e3c00103 	bic	r0, r0, #-1073741824	; 0xc0000000
    837c:	e12fff1e 	bx	lr

00008380 <mailbox_fb_getaddr>:
    8380:	e3060200 	movw	r0, #25088	; 0x6200
    8384:	e3400002 	movt	r0, #2
    8388:	e12fff1e 	bx	lr

0000838c <mailbox_read>:
    838c:	e92d40f0 	push	{r4, r5, r6, r7, lr}
    8390:	e3a04a0b 	mov	r4, #45056	; 0xb000
    8394:	e3434f00 	movt	r4, #16128	; 0x3f00
    8398:	e24dd00c 	sub	sp, sp, #12
    839c:	e3a03000 	mov	r3, #0
    83a0:	e1a06000 	mov	r6, r0
    83a4:	e58d3004 	str	r3, [sp, #4]
    83a8:	e1a05004 	mov	r5, r4
    83ac:	ebffffcf 	bl	82f0 <on_status_led>
    83b0:	ebffff35 	bl	808c <MemoryBarrier>
    83b4:	e5943898 	ldr	r3, [r4, #2200]	; 0x898
    83b8:	e3a00801 	mov	r0, #65536	; 0x10000
    83bc:	e3130101 	tst	r3, #1073741824	; 0x40000000
    83c0:	0a00000a 	beq	83f0 <mailbox_read+0x64>
    83c4:	eb0004ba 	bl	96b4 <usleep>
    83c8:	e59d3004 	ldr	r3, [sp, #4]
    83cc:	e2833001 	add	r3, r3, #1
    83d0:	e58d3004 	str	r3, [sp, #4]
    83d4:	e59d3004 	ldr	r3, [sp, #4]
    83d8:	e3530a05 	cmp	r3, #20480	; 0x5000
    83dc:	dafffff4 	ble	83b4 <mailbox_read+0x28>
    83e0:	ebffffc9 	bl	830c <off_status_led>
    83e4:	e3a00000 	mov	r0, #0
    83e8:	e28dd00c 	add	sp, sp, #12
    83ec:	e8bd80f0 	pop	{r4, r5, r6, r7, pc}
    83f0:	ebffff25 	bl	808c <MemoryBarrier>
    83f4:	e5957880 	ldr	r7, [r5, #2176]	; 0x880
    83f8:	e207300f 	and	r3, r7, #15
    83fc:	e1530006 	cmp	r3, r6
    8400:	1affffea 	bne	83b0 <mailbox_read+0x24>
    8404:	ebffffc0 	bl	830c <off_status_led>
    8408:	e3c7000f 	bic	r0, r7, #15
    840c:	eafffff5 	b	83e8 <mailbox_read+0x5c>

00008410 <mailbox_write>:
    8410:	e92d4070 	push	{r4, r5, r6, lr}
    8414:	e1a04000 	mov	r4, r0
    8418:	e1a05001 	mov	r5, r1
    841c:	ebffff1a 	bl	808c <MemoryBarrier>
    8420:	ebffffb2 	bl	82f0 <on_status_led>
    8424:	e3a03a0b 	mov	r3, #45056	; 0xb000
    8428:	e3433f00 	movt	r3, #16128	; 0x3f00
    842c:	e5932898 	ldr	r2, [r3, #2200]	; 0x898
    8430:	e3520000 	cmp	r2, #0
    8434:	ba000008 	blt	845c <mailbox_write+0x4c>
    8438:	ebffffb3 	bl	830c <off_status_led>
    843c:	ebffff12 	bl	808c <MemoryBarrier>
    8440:	e3a03a0b 	mov	r3, #45056	; 0xb000
    8444:	e3c5500f 	bic	r5, r5, #15
    8448:	e3433f00 	movt	r3, #16128	; 0x3f00
    844c:	e3a00000 	mov	r0, #0
    8450:	e1854004 	orr	r4, r5, r4
    8454:	e58348a0 	str	r4, [r3, #2208]	; 0x8a0
    8458:	e8bd8070 	pop	{r4, r5, r6, pc}
    845c:	e1a06003 	mov	r6, r3
    8460:	e3a00801 	mov	r0, #65536	; 0x10000
    8464:	eb000492 	bl	96b4 <usleep>
    8468:	e5962898 	ldr	r2, [r6, #2200]	; 0x898
    846c:	e3520000 	cmp	r2, #0
    8470:	aafffff0 	bge	8438 <mailbox_write+0x28>
    8474:	eafffff9 	b	8460 <mailbox_write+0x50>

00008478 <mailbox_qpu_enable>:
    8478:	e92d4038 	push	{r3, r4, r5, lr}
    847c:	e3065200 	movw	r5, #25088	; 0x6200
    8480:	e3405002 	movt	r5, #2
    8484:	e3081002 	movw	r1, #32770	; 0x8002
    8488:	e3401003 	movt	r1, #3
    848c:	e30b2280 	movw	r2, #45696	; 0xb280
    8490:	e3402ee6 	movt	r2, #3814	; 0xee6
    8494:	e3a03012 	mov	r3, #18
    8498:	e3403003 	movt	r3, #3
    849c:	e3a0e005 	mov	lr, #5
    84a0:	e5851108 	str	r1, [r5, #264]	; 0x108
    84a4:	e3a0c001 	mov	ip, #1
    84a8:	e5852118 	str	r2, [r5, #280]	; 0x118
    84ac:	e3a01000 	mov	r1, #0
    84b0:	e585311c 	str	r3, [r5, #284]	; 0x11c
    84b4:	e3a02008 	mov	r2, #8
    84b8:	e585e114 	str	lr, [r5, #276]	; 0x114
    84bc:	e3a03004 	mov	r3, #4
    84c0:	e585c128 	str	ip, [r5, #296]	; 0x128
    84c4:	e3a00030 	mov	r0, #48	; 0x30
    84c8:	e5850100 	str	r0, [r5, #256]	; 0x100
    84cc:	e5851104 	str	r1, [r5, #260]	; 0x104
    84d0:	e585112c 	str	r1, [r5, #300]	; 0x12c
    84d4:	e585210c 	str	r2, [r5, #268]	; 0x10c
    84d8:	e5852110 	str	r2, [r5, #272]	; 0x110
    84dc:	e5853120 	str	r3, [r5, #288]	; 0x120
    84e0:	e5853124 	str	r3, [r5, #292]	; 0x124
    84e4:	ea000000 	b	84ec <mailbox_qpu_enable+0x74>
    84e8:	eb000339 	bl	91d4 <uart_debug_puts>
    84ec:	e59f1044 	ldr	r1, [pc, #68]	; 8538 <mailbox_qpu_enable+0xc0>
    84f0:	e3a00008 	mov	r0, #8
    84f4:	ebffffc5 	bl	8410 <mailbox_write>
    84f8:	e3a00008 	mov	r0, #8
    84fc:	e3064200 	movw	r4, #25088	; 0x6200
    8500:	e3404002 	movt	r4, #2
    8504:	ebffffa0 	bl	838c <mailbox_read>
    8508:	e5953104 	ldr	r3, [r5, #260]	; 0x104
    850c:	e30c0140 	movw	r0, #49472	; 0xc140
    8510:	e3400001 	movt	r0, #1
    8514:	e3530102 	cmp	r3, #-2147483648	; 0x80000000
    8518:	e1a01003 	mov	r1, r3
    851c:	1afffff1 	bne	84e8 <mailbox_qpu_enable+0x70>
    8520:	e30c0164 	movw	r0, #49508	; 0xc164
    8524:	e1a01003 	mov	r1, r3
    8528:	e3400001 	movt	r0, #1
    852c:	eb000328 	bl	91d4 <uart_debug_puts>
    8530:	e5940104 	ldr	r0, [r4, #260]	; 0x104
    8534:	e8bd8038 	pop	{r3, r4, r5, pc}
    8538:	c0026300 	andgt	r6, r2, r0, lsl #6

0000853c <mailbox_allocate_memory>:
    853c:	e92d4038 	push	{r3, r4, r5, lr}
    8540:	e3065200 	movw	r5, #25088	; 0x6200
    8544:	e3405002 	movt	r5, #2
    8548:	e3a0c00c 	mov	ip, #12
    854c:	e340c003 	movt	ip, #3
    8550:	e3a03000 	mov	r3, #0
    8554:	e5850114 	str	r0, [r5, #276]	; 0x114
    8558:	e3a0e024 	mov	lr, #36	; 0x24
    855c:	e5851118 	str	r1, [r5, #280]	; 0x118
    8560:	e3a0000c 	mov	r0, #12
    8564:	e585211c 	str	r2, [r5, #284]	; 0x11c
    8568:	e585c108 	str	ip, [r5, #264]	; 0x108
    856c:	e585e100 	str	lr, [r5, #256]	; 0x100
    8570:	e5853104 	str	r3, [r5, #260]	; 0x104
    8574:	e5853120 	str	r3, [r5, #288]	; 0x120
    8578:	e585010c 	str	r0, [r5, #268]	; 0x10c
    857c:	e5850110 	str	r0, [r5, #272]	; 0x110
    8580:	ea000000 	b	8588 <mailbox_allocate_memory+0x4c>
    8584:	eb000312 	bl	91d4 <uart_debug_puts>
    8588:	e59f1040 	ldr	r1, [pc, #64]	; 85d0 <mailbox_allocate_memory+0x94>
    858c:	e3a00008 	mov	r0, #8
    8590:	ebffff9e 	bl	8410 <mailbox_write>
    8594:	e3a00008 	mov	r0, #8
    8598:	e3064200 	movw	r4, #25088	; 0x6200
    859c:	e3404002 	movt	r4, #2
    85a0:	ebffff79 	bl	838c <mailbox_read>
    85a4:	e5951104 	ldr	r1, [r5, #260]	; 0x104
    85a8:	e30c017c 	movw	r0, #49532	; 0xc17c
    85ac:	e3400001 	movt	r0, #1
    85b0:	e3510102 	cmp	r1, #-2147483648	; 0x80000000
    85b4:	1afffff2 	bne	8584 <mailbox_allocate_memory+0x48>
    85b8:	e5941114 	ldr	r1, [r4, #276]	; 0x114
    85bc:	e30c01a0 	movw	r0, #49568	; 0xc1a0
    85c0:	e3400001 	movt	r0, #1
    85c4:	eb000302 	bl	91d4 <uart_debug_puts>
    85c8:	e5940114 	ldr	r0, [r4, #276]	; 0x114
    85cc:	e8bd8038 	pop	{r3, r4, r5, pc}
    85d0:	c0026300 	andgt	r6, r2, r0, lsl #6

000085d4 <mailbox_free_memory>:
    85d4:	e92d4010 	push	{r4, lr}
    85d8:	e3064200 	movw	r4, #25088	; 0x6200
    85dc:	e3404002 	movt	r4, #2
    85e0:	e3a0200f 	mov	r2, #15
    85e4:	e3402003 	movt	r2, #3
    85e8:	e3a03000 	mov	r3, #0
    85ec:	e5840114 	str	r0, [r4, #276]	; 0x114
    85f0:	e3a01004 	mov	r1, #4
    85f4:	e5842108 	str	r2, [r4, #264]	; 0x108
    85f8:	e3a0c01c 	mov	ip, #28
    85fc:	e584c100 	str	ip, [r4, #256]	; 0x100
    8600:	e5843104 	str	r3, [r4, #260]	; 0x104
    8604:	e5843118 	str	r3, [r4, #280]	; 0x118
    8608:	e584110c 	str	r1, [r4, #268]	; 0x10c
    860c:	e5841110 	str	r1, [r4, #272]	; 0x110
    8610:	ea000000 	b	8618 <mailbox_free_memory+0x44>
    8614:	eb0002ee 	bl	91d4 <uart_debug_puts>
    8618:	e59f1030 	ldr	r1, [pc, #48]	; 8650 <mailbox_free_memory+0x7c>
    861c:	e3a00008 	mov	r0, #8
    8620:	ebffff7a 	bl	8410 <mailbox_write>
    8624:	e3a00008 	mov	r0, #8
    8628:	ebffff57 	bl	838c <mailbox_read>
    862c:	e5941104 	ldr	r1, [r4, #260]	; 0x104
    8630:	e30c017c 	movw	r0, #49532	; 0xc17c
    8634:	e3400001 	movt	r0, #1
    8638:	e3063200 	movw	r3, #25088	; 0x6200
    863c:	e3510102 	cmp	r1, #-2147483648	; 0x80000000
    8640:	e3403002 	movt	r3, #2
    8644:	1afffff2 	bne	8614 <mailbox_free_memory+0x40>
    8648:	e5930114 	ldr	r0, [r3, #276]	; 0x114
    864c:	e8bd8010 	pop	{r4, pc}
    8650:	c0026300 	andgt	r6, r2, r0, lsl #6

00008654 <mailbox_lock_memory>:
    8654:	e92d4010 	push	{r4, lr}
    8658:	e3064200 	movw	r4, #25088	; 0x6200
    865c:	e3404002 	movt	r4, #2
    8660:	e3a0200d 	mov	r2, #13
    8664:	e3402003 	movt	r2, #3
    8668:	e3a03000 	mov	r3, #0
    866c:	e5840114 	str	r0, [r4, #276]	; 0x114
    8670:	e3a01004 	mov	r1, #4
    8674:	e5842108 	str	r2, [r4, #264]	; 0x108
    8678:	e3a0c01c 	mov	ip, #28
    867c:	e584c100 	str	ip, [r4, #256]	; 0x100
    8680:	e5843104 	str	r3, [r4, #260]	; 0x104
    8684:	e5843118 	str	r3, [r4, #280]	; 0x118
    8688:	e584110c 	str	r1, [r4, #268]	; 0x10c
    868c:	e5841110 	str	r1, [r4, #272]	; 0x110
    8690:	ea000000 	b	8698 <mailbox_lock_memory+0x44>
    8694:	eb0002ce 	bl	91d4 <uart_debug_puts>
    8698:	e59f1030 	ldr	r1, [pc, #48]	; 86d0 <mailbox_lock_memory+0x7c>
    869c:	e3a00008 	mov	r0, #8
    86a0:	ebffff5a 	bl	8410 <mailbox_write>
    86a4:	e3a00008 	mov	r0, #8
    86a8:	ebffff37 	bl	838c <mailbox_read>
    86ac:	e5941104 	ldr	r1, [r4, #260]	; 0x104
    86b0:	e30c01c4 	movw	r0, #49604	; 0xc1c4
    86b4:	e3400001 	movt	r0, #1
    86b8:	e3063200 	movw	r3, #25088	; 0x6200
    86bc:	e3510102 	cmp	r1, #-2147483648	; 0x80000000
    86c0:	e3403002 	movt	r3, #2
    86c4:	1afffff2 	bne	8694 <mailbox_lock_memory+0x40>
    86c8:	e5930114 	ldr	r0, [r3, #276]	; 0x114
    86cc:	e8bd8010 	pop	{r4, pc}
    86d0:	c0026300 	andgt	r6, r2, r0, lsl #6

000086d4 <mailbox_unlock_memory>:
    86d4:	e92d4010 	push	{r4, lr}
    86d8:	e3064200 	movw	r4, #25088	; 0x6200
    86dc:	e3404002 	movt	r4, #2
    86e0:	e3a0200e 	mov	r2, #14
    86e4:	e3402003 	movt	r2, #3
    86e8:	e3a03000 	mov	r3, #0
    86ec:	e5840114 	str	r0, [r4, #276]	; 0x114
    86f0:	e3a01004 	mov	r1, #4
    86f4:	e5842108 	str	r2, [r4, #264]	; 0x108
    86f8:	e3a0c01c 	mov	ip, #28
    86fc:	e584c100 	str	ip, [r4, #256]	; 0x100
    8700:	e5843104 	str	r3, [r4, #260]	; 0x104
    8704:	e5843118 	str	r3, [r4, #280]	; 0x118
    8708:	e584110c 	str	r1, [r4, #268]	; 0x10c
    870c:	e5841110 	str	r1, [r4, #272]	; 0x110
    8710:	ea000000 	b	8718 <mailbox_unlock_memory+0x44>
    8714:	eb0002ae 	bl	91d4 <uart_debug_puts>
    8718:	e59f1030 	ldr	r1, [pc, #48]	; 8750 <mailbox_unlock_memory+0x7c>
    871c:	e3a00008 	mov	r0, #8
    8720:	ebffff3a 	bl	8410 <mailbox_write>
    8724:	e3a00008 	mov	r0, #8
    8728:	ebffff17 	bl	838c <mailbox_read>
    872c:	e5941104 	ldr	r1, [r4, #260]	; 0x104
    8730:	e30c017c 	movw	r0, #49532	; 0xc17c
    8734:	e3400001 	movt	r0, #1
    8738:	e3063200 	movw	r3, #25088	; 0x6200
    873c:	e3510102 	cmp	r1, #-2147483648	; 0x80000000
    8740:	e3403002 	movt	r3, #2
    8744:	1afffff2 	bne	8714 <mailbox_unlock_memory+0x40>
    8748:	e5930114 	ldr	r0, [r3, #276]	; 0x114
    874c:	e8bd8010 	pop	{r4, pc}
    8750:	c0026300 	andgt	r6, r2, r0, lsl #6

00008754 <mailbox_fb_init>:
    8754:	e92d4038 	push	{r3, r4, r5, lr}
    8758:	e3065200 	movw	r5, #25088	; 0x6200
    875c:	e3405002 	movt	r5, #2
    8760:	e3a03000 	mov	r3, #0
    8764:	e3a02020 	mov	r2, #32
    8768:	e1a04003 	mov	r4, r3
    876c:	e5850000 	str	r0, [r5]
    8770:	e5851004 	str	r1, [r5, #4]
    8774:	e5951000 	ldr	r1, [r5]
    8778:	e5851008 	str	r1, [r5, #8]
    877c:	e5951004 	ldr	r1, [r5, #4]
    8780:	e585100c 	str	r1, [r5, #12]
    8784:	e5853010 	str	r3, [r5, #16]
    8788:	e5852014 	str	r2, [r5, #20]
    878c:	e5853018 	str	r3, [r5, #24]
    8790:	e585301c 	str	r3, [r5, #28]
    8794:	e5853020 	str	r3, [r5, #32]
    8798:	e5853024 	str	r3, [r5, #36]	; 0x24
    879c:	ea000007 	b	87c0 <mailbox_fb_init+0x6c>
    87a0:	ebfffed2 	bl	82f0 <on_status_led>
    87a4:	e3a00a01 	mov	r0, #4096	; 0x1000
    87a8:	e2844001 	add	r4, r4, #1
    87ac:	eb0003c0 	bl	96b4 <usleep>
    87b0:	e30c01e8 	movw	r0, #49640	; 0xc1e8
    87b4:	e1a01004 	mov	r1, r4
    87b8:	e3400001 	movt	r0, #1
    87bc:	eb000284 	bl	91d4 <uart_debug_puts>
    87c0:	e59f1040 	ldr	r1, [pc, #64]	; 8808 <mailbox_fb_init+0xb4>
    87c4:	e3a00001 	mov	r0, #1
    87c8:	ebffff10 	bl	8410 <mailbox_write>
    87cc:	e3a00001 	mov	r0, #1
    87d0:	ebfffeed 	bl	838c <mailbox_read>
    87d4:	e5952020 	ldr	r2, [r5, #32]
    87d8:	e3063200 	movw	r3, #25088	; 0x6200
    87dc:	e3403002 	movt	r3, #2
    87e0:	e3520000 	cmp	r2, #0
    87e4:	1a000003 	bne	87f8 <mailbox_fb_init+0xa4>
    87e8:	e3140001 	tst	r4, #1
    87ec:	1affffeb 	bne	87a0 <mailbox_fb_init+0x4c>
    87f0:	ebfffec5 	bl	830c <off_status_led>
    87f4:	eaffffea 	b	87a4 <mailbox_fb_init+0x50>
    87f8:	e3a02001 	mov	r2, #1
    87fc:	e3a00000 	mov	r0, #0
    8800:	e5832500 	str	r2, [r3, #1280]	; 0x500
    8804:	e8bd8038 	pop	{r3, r4, r5, pc}
    8808:	c0026200 	andgt	r6, r2, r0, lsl #4

0000880c <mailbox_fb_ptr>:
    880c:	e3063200 	movw	r3, #25088	; 0x6200
    8810:	e3403002 	movt	r3, #2
    8814:	e5930500 	ldr	r0, [r3, #1280]	; 0x500
    8818:	e3500000 	cmp	r0, #0
    881c:	15930020 	ldrne	r0, [r3, #32]
    8820:	e12fff1e 	bx	lr

00008824 <mailbox_fb_set_pixel>:
    8824:	e3063200 	movw	r3, #25088	; 0x6200
    8828:	e3403002 	movt	r3, #2
    882c:	e593c500 	ldr	ip, [r3, #1280]	; 0x500
    8830:	e35c0000 	cmp	ip, #0
    8834:	012fff1e 	bxeq	lr
    8838:	e191c002 	orrs	ip, r1, r2
    883c:	412fff1e 	bxmi	lr
    8840:	e593c000 	ldr	ip, [r3]
    8844:	e151000c 	cmp	r1, ip
    8848:	212fff1e 	bxcs	lr
    884c:	e593c004 	ldr	ip, [r3, #4]
    8850:	e152000c 	cmp	r2, ip
    8854:	3593c000 	ldrcc	ip, [r3]
    8858:	35933020 	ldrcc	r3, [r3, #32]
    885c:	3021129c 	mlacc	r1, ip, r2, r1
    8860:	37830101 	strcc	r0, [r3, r1, lsl #2]
    8864:	e12fff1e 	bx	lr

00008868 <init_render_chunk_buffer>:
    8868:	e3060900 	movw	r0, #26880	; 0x6900
    886c:	e3a0105a 	mov	r1, #90	; 0x5a
    8870:	e3400002 	movt	r0, #2
    8874:	e3a02502 	mov	r2, #8388608	; 0x800000
    8878:	ea00039a 	b	96e8 <memset_t>
    887c:	00000000 	andeq	r0, r0, r0

00008880 <ResetVertexFormat>:
    8880:	e3063800 	movw	r3, #26624	; 0x6800
    8884:	e3a02000 	mov	r2, #0
    8888:	e3403002 	movt	r3, #2
    888c:	e5832000 	str	r2, [r3]
    8890:	e12fff1e 	bx	lr

00008894 <GetVertexFormatCount>:
    8894:	e3063800 	movw	r3, #26624	; 0x6800
    8898:	e3403002 	movt	r3, #2
    889c:	e5930000 	ldr	r0, [r3]
    88a0:	e12fff1e 	bx	lr

000088a4 <AddVertexFormat>:
    88a4:	e3063800 	movw	r3, #26624	; 0x6800
    88a8:	e3072200 	movw	r2, #29184	; 0x7200
    88ac:	e3403002 	movt	r3, #2
    88b0:	e52d4004 	push	{r4}		; (str r4, [sp, #-4]!)
    88b4:	e593c000 	ldr	ip, [r3]
    88b8:	e3402082 	movt	r2, #130	; 0x82
    88bc:	e08c418c 	add	r4, ip, ip, lsl #3
    88c0:	e28cc001 	add	ip, ip, #1
    88c4:	e583c000 	str	ip, [r3]
    88c8:	e1a0c104 	lsl	ip, r4, #2
    88cc:	e08c3002 	add	r3, ip, r2
    88d0:	e18200bc 	strh	r0, [r2, ip]
    88d4:	e1c310b2 	strh	r1, [r3, #2]
    88d8:	ed830a01 	vstr	s0, [r3, #4]
    88dc:	edc30a02 	vstr	s1, [r3, #8]
    88e0:	ed831a03 	vstr	s2, [r3, #12]
    88e4:	edc31a04 	vstr	s3, [r3, #16]
    88e8:	ed832a05 	vstr	s4, [r3, #20]
    88ec:	e49d4004 	pop	{r4}		; (ldr r4, [sp], #4)
    88f0:	e12fff1e 	bx	lr

000088f4 <UpdateVertex>:
    88f4:	eddf7afd 	vldr	s15, [pc, #1012]	; 8cf0 <UpdateVertex+0x3fc>
    88f8:	e3060800 	movw	r0, #26624	; 0x6800
    88fc:	e3400002 	movt	r0, #2
    8900:	e92d4ff0 	push	{r4, r5, r6, r7, r8, r9, sl, fp, lr}
    8904:	e24dd034 	sub	sp, sp, #52	; 0x34
    8908:	e5903014 	ldr	r3, [r0, #20]
    890c:	e30da008 	movw	sl, #53256	; 0xd008
    8910:	e58d0028 	str	r0, [sp, #40]	; 0x28
    8914:	e3074200 	movw	r4, #29184	; 0x7200
    8918:	e0833103 	add	r3, r3, r3, lsl #2
    891c:	e3a09e12 	mov	r9, #288	; 0x120
    8920:	e5901008 	ldr	r1, [r0, #8]
    8924:	e3a0ef51 	mov	lr, #324	; 0x144
    8928:	e0833103 	add	r3, r3, r3, lsl #2
    892c:	e3a05000 	mov	r5, #0
    8930:	ee071a10 	vmov	s14, r1
    8934:	e1a03103 	lsl	r3, r3, #2
    8938:	e3a07000 	mov	r7, #0
    893c:	e58d1008 	str	r1, [sp, #8]
    8940:	e2830b02 	add	r0, r3, #2048	; 0x800
    8944:	e1a01fc3 	asr	r1, r3, #31
    8948:	e3008122 	movw	r8, #290	; 0x122
    894c:	e1a02fc0 	asr	r2, r0, #31
    8950:	e300b146 	movw	fp, #326	; 0x146
    8954:	e1a019a1 	lsr	r1, r1, #19
    8958:	e1a029a2 	lsr	r2, r2, #19
    895c:	e0833001 	add	r3, r3, r1
    8960:	e0800002 	add	r0, r0, r2
    8964:	e7ecc053 	ubfx	ip, r3, #0, #13
    8968:	e7ec3050 	ubfx	r3, r0, #0, #13
    896c:	e061100c 	rsb	r1, r1, ip
    8970:	e0623003 	rsb	r3, r2, r3
    8974:	e340a001 	movt	sl, #1
    8978:	e08a1101 	add	r1, sl, r1, lsl #2
    897c:	e08a3103 	add	r3, sl, r3, lsl #2
    8980:	eef81bc7 	vcvt.f64.s32	d17, s14
    8984:	edd36a00 	vldr	s13, [r3]
    8988:	ed917a00 	vldr	s14, [r1]
    898c:	eddf0bd5 	vldr	d16, [pc, #852]	; 8ce8 <UpdateVertex+0x3f4>
    8990:	ee277a27 	vmul.f32	s14, s14, s15
    8994:	ee667aa7 	vmul.f32	s15, s13, s15
    8998:	ee710ba0 	vadd.f64	d16, d17, d16
    899c:	e59d0028 	ldr	r0, [sp, #40]	; 0x28
    89a0:	eebd7ac7 	vcvt.s32.f32	s14, s14
    89a4:	eefd7ae7 	vcvt.s32.f32	s15, s15
    89a8:	e59d2028 	ldr	r2, [sp, #40]	; 0x28
    89ac:	e5901010 	ldr	r1, [r0, #16]
    89b0:	ee17ca10 	vmov	ip, s14
    89b4:	ee170a90 	vmov	r0, s15
    89b8:	e592300c 	ldr	r3, [r2, #12]
    89bc:	e28cca01 	add	ip, ip, #4096	; 0x1000
    89c0:	e5922004 	ldr	r2, [r2, #4]
    89c4:	e6ffc07c 	uxth	ip, ip
    89c8:	eefd6be0 	vcvt.s32.f64	s13, d16
    89cc:	e2800a01 	add	r0, r0, #4096	; 0x1000
    89d0:	e59d6028 	ldr	r6, [sp, #40]	; 0x28
    89d4:	e2822008 	add	r2, r2, #8
    89d8:	e1a01201 	lsl	r1, r1, #4
    89dc:	e6ff0070 	uxth	r0, r0
    89e0:	e5862004 	str	r2, [r6, #4]
    89e4:	e6ff1071 	uxth	r1, r1
    89e8:	e59d2028 	ldr	r2, [sp, #40]	; 0x28
    89ec:	e3a065fe 	mov	r6, #1065353216	; 0x3f800000
    89f0:	e3404082 	movt	r4, #130	; 0x82
    89f4:	e1a03203 	lsl	r3, r3, #4
    89f8:	edc26a02 	vstr	s13, [r2, #8]
    89fc:	e6ff3073 	uxth	r3, r3
    8a00:	e1a020a1 	lsr	r2, r1, #1
    8a04:	e1c432b4 	strh	r3, [r4, #36]	; 0x24
    8a08:	e1c434b8 	strh	r3, [r4, #72]	; 0x48
    8a0c:	e1c4c0b0 	strh	ip, [r4]
    8a10:	e1c4c6bc 	strh	ip, [r4, #108]	; 0x6c
    8a14:	e1c470b2 	strh	r7, [r4, #2]
    8a18:	e1c474ba 	strh	r7, [r4, #74]	; 0x4a
    8a1c:	e1c476be 	strh	r7, [r4, #110]	; 0x6e
    8a20:	e5846004 	str	r6, [r4, #4]
    8a24:	e5846008 	str	r6, [r4, #8]
    8a28:	e584600c 	str	r6, [r4, #12]
    8a2c:	e5846028 	str	r6, [r4, #40]	; 0x28
    8a30:	e584602c 	str	r6, [r4, #44]	; 0x2c
    8a34:	e5846034 	str	r6, [r4, #52]	; 0x34
    8a38:	e584604c 	str	r6, [r4, #76]	; 0x4c
    8a3c:	e5846050 	str	r6, [r4, #80]	; 0x50
    8a40:	e584605c 	str	r6, [r4, #92]	; 0x5c
    8a44:	e5846070 	str	r6, [r4, #112]	; 0x70
    8a48:	e5845010 	str	r5, [r4, #16]
    8a4c:	e1c43bb4 	strh	r3, [r4, #180]	; 0xb4
    8a50:	e1c41fbe 	strh	r1, [r4, #254]	; 0xfe
    8a54:	e5845014 	str	r5, [r4, #20]
    8a58:	e5845030 	str	r5, [r4, #48]	; 0x30
    8a5c:	e5845038 	str	r5, [r4, #56]	; 0x38
    8a60:	e5845054 	str	r5, [r4, #84]	; 0x54
    8a64:	e5845058 	str	r5, [r4, #88]	; 0x58
    8a68:	e1c422b6 	strh	r2, [r4, #38]	; 0x26
    8a6c:	e5846074 	str	r6, [r4, #116]	; 0x74
    8a70:	e1c4c9b0 	strh	ip, [r4, #144]	; 0x90
    8a74:	e3a0cf63 	mov	ip, #396	; 0x18c
    8a78:	e1c429b2 	strh	r2, [r4, #146]	; 0x92
    8a7c:	e1c42bb6 	strh	r2, [r4, #182]	; 0xb6
    8a80:	e1c42dba 	strh	r2, [r4, #218]	; 0xda
    8a84:	e5846078 	str	r6, [r4, #120]	; 0x78
    8a88:	e584507c 	str	r5, [r4, #124]	; 0x7c
    8a8c:	e5845080 	str	r5, [r4, #128]	; 0x80
    8a90:	e5846094 	str	r6, [r4, #148]	; 0x94
    8a94:	e5846098 	str	r6, [r4, #152]	; 0x98
    8a98:	e584509c 	str	r5, [r4, #156]	; 0x9c
    8a9c:	e58450a0 	str	r5, [r4, #160]	; 0xa0
    8aa0:	e58460a4 	str	r6, [r4, #164]	; 0xa4
    8aa4:	e58460b8 	str	r6, [r4, #184]	; 0xb8
    8aa8:	e58460bc 	str	r6, [r4, #188]	; 0xbc
    8aac:	e58450c0 	str	r5, [r4, #192]	; 0xc0
    8ab0:	e58460c4 	str	r6, [r4, #196]	; 0xc4
    8ab4:	e58450c8 	str	r5, [r4, #200]	; 0xc8
    8ab8:	e58460dc 	str	r6, [r4, #220]	; 0xdc
    8abc:	e58460e0 	str	r6, [r4, #224]	; 0xe0
    8ac0:	e58460e4 	str	r6, [r4, #228]	; 0xe4
    8ac4:	e58450e8 	str	r5, [r4, #232]	; 0xe8
    8ac8:	e58450ec 	str	r5, [r4, #236]	; 0xec
    8acc:	e5846100 	str	r6, [r4, #256]	; 0x100
    8ad0:	e5846104 	str	r6, [r4, #260]	; 0x104
    8ad4:	e5845108 	str	r5, [r4, #264]	; 0x108
    8ad8:	e18430b9 	strh	r3, [r4, r9]
    8adc:	e18400be 	strh	r0, [r4, lr]
    8ae0:	e59d9028 	ldr	r9, [sp, #40]	; 0x28
    8ae4:	e1c40db8 	strh	r0, [r4, #216]	; 0xd8
    8ae8:	e1c40fbc 	strh	r0, [r4, #252]	; 0xfc
    8aec:	e300018e 	movw	r0, #398	; 0x18e
    8af0:	e18410b8 	strh	r1, [r4, r8]
    8af4:	e3a0800c 	mov	r8, #12
    8af8:	e18420b0 	strh	r2, [r4, r0]
    8afc:	e5898000 	str	r8, [r9]
    8b00:	e300816a 	movw	r8, #362	; 0x16a
    8b04:	e18420bb 	strh	r2, [r4, fp]
    8b08:	e3a02f5a 	mov	r2, #360	; 0x168
    8b0c:	e18410b8 	strh	r1, [r4, r8]
    8b10:	e306b667 	movw	fp, #26215	; 0x6667
    8b14:	e18430b2 	strh	r3, [r4, r2]
    8b18:	e584610c 	str	r6, [r4, #268]	; 0x10c
    8b1c:	e5845110 	str	r5, [r4, #272]	; 0x110
    8b20:	e5846124 	str	r6, [r4, #292]	; 0x124
    8b24:	e5846128 	str	r6, [r4, #296]	; 0x128
    8b28:	e584512c 	str	r5, [r4, #300]	; 0x12c
    8b2c:	e5845130 	str	r5, [r4, #304]	; 0x130
    8b30:	e5846134 	str	r6, [r4, #308]	; 0x134
    8b34:	e5846148 	str	r6, [r4, #328]	; 0x148
    8b38:	e584614c 	str	r6, [r4, #332]	; 0x14c
    8b3c:	e5846150 	str	r6, [r4, #336]	; 0x150
    8b40:	e5845154 	str	r5, [r4, #340]	; 0x154
    8b44:	e5845158 	str	r5, [r4, #344]	; 0x158
    8b48:	e584616c 	str	r6, [r4, #364]	; 0x16c
    8b4c:	e5846170 	str	r6, [r4, #368]	; 0x170
    8b50:	e5845174 	str	r5, [r4, #372]	; 0x174
    8b54:	e5845178 	str	r5, [r4, #376]	; 0x178
    8b58:	e584617c 	str	r6, [r4, #380]	; 0x17c
    8b5c:	e5846190 	str	r6, [r4, #400]	; 0x190
    8b60:	e5846194 	str	r6, [r4, #404]	; 0x194
    8b64:	e5845198 	str	r5, [r4, #408]	; 0x198
    8b68:	e584619c 	str	r6, [r4, #412]	; 0x19c
    8b6c:	e58451a0 	str	r5, [r4, #416]	; 0x1a0
    8b70:	e18430bc 	strh	r3, [r4, ip]
    8b74:	eb0002b8 	bl	965c <init_random>
    8b78:	e5993014 	ldr	r3, [r9, #20]
    8b7c:	e59d0028 	ldr	r0, [sp, #40]	; 0x28
    8b80:	e1a03383 	lsl	r3, r3, #7
    8b84:	e5900004 	ldr	r0, [r0, #4]
    8b88:	e2838d4a 	add	r8, r3, #4736	; 0x1280
    8b8c:	e58d7014 	str	r7, [sp, #20]
    8b90:	e288802a 	add	r8, r8, #42	; 0x2a
    8b94:	e58d0010 	str	r0, [sp, #16]
    8b98:	e283ceaa 	add	ip, r3, #2720	; 0xaa0
    8b9c:	e5999000 	ldr	r9, [r9]
    8ba0:	e28cc00a 	add	ip, ip, #10
    8ba4:	e1a07fc8 	asr	r7, r8, #31
    8ba8:	e2831d75 	add	r1, r3, #7488	; 0x1d40
    8bac:	e58d902c 	str	r9, [sp, #44]	; 0x2c
    8bb0:	e1a00006 	mov	r0, r6
    8bb4:	e1a079a7 	lsr	r7, r7, #19
    8bb8:	e2811014 	add	r1, r1, #20
    8bbc:	e1a06fcc 	asr	r6, ip, #31
    8bc0:	e2832d55 	add	r2, r3, #5440	; 0x1540
    8bc4:	e0888007 	add	r8, r8, r7
    8bc8:	e2822014 	add	r2, r2, #20
    8bcc:	e1a069a6 	lsr	r6, r6, #19
    8bd0:	e2839b02 	add	r9, r3, #2048	; 0x800
    8bd4:	e7ec8058 	ubfx	r8, r8, #0, #13
    8bd8:	e0678008 	rsb	r8, r7, r8
    8bdc:	e08cc006 	add	ip, ip, r6
    8be0:	e1a07fc1 	asr	r7, r1, #31
    8be4:	e7ecc05c 	ubfx	ip, ip, #0, #13
    8be8:	e066c00c 	rsb	ip, r6, ip
    8bec:	e1a079a7 	lsr	r7, r7, #19
    8bf0:	e58dc00c 	str	ip, [sp, #12]
    8bf4:	e081c007 	add	ip, r1, r7
    8bf8:	e1a01fc2 	asr	r1, r2, #31
    8bfc:	e1a06fc9 	asr	r6, r9, #31
    8c00:	e1a019a1 	lsr	r1, r1, #19
    8c04:	e0822001 	add	r2, r2, r1
    8c08:	e7ec2052 	ubfx	r2, r2, #0, #13
    8c0c:	e1a069a6 	lsr	r6, r6, #19
    8c10:	e7ecc05c 	ubfx	ip, ip, #0, #13
    8c14:	e067c00c 	rsb	ip, r7, ip
    8c18:	e0611002 	rsb	r1, r1, r2
    8c1c:	e0897006 	add	r7, r9, r6
    8c20:	e1a02fc3 	asr	r2, r3, #31
    8c24:	e7ec7057 	ubfx	r7, r7, #0, #13
    8c28:	e1a029a2 	lsr	r2, r2, #19
    8c2c:	e0666007 	rsb	r6, r6, r7
    8c30:	e08a7108 	add	r7, sl, r8, lsl #2
    8c34:	e0833002 	add	r3, r3, r2
    8c38:	eddf7a2d 	vldr	s15, [pc, #180]	; 8cf4 <UpdateVertex+0x400>
    8c3c:	e7ec3053 	ubfx	r3, r3, #0, #13
    8c40:	ed975a00 	vldr	s10, [r7]
    8c44:	e0622003 	rsb	r2, r2, r3
    8c48:	e59d800c 	ldr	r8, [sp, #12]
    8c4c:	e08ac10c 	add	ip, sl, ip, lsl #2
    8c50:	e08a6106 	add	r6, sl, r6, lsl #2
    8c54:	ee255a27 	vmul.f32	s10, s10, s15
    8c58:	e08a3108 	add	r3, sl, r8, lsl #2
    8c5c:	e08a1101 	add	r1, sl, r1, lsl #2
    8c60:	e08a2102 	add	r2, sl, r2, lsl #2
    8c64:	ed9c6a00 	vldr	s12, [ip]
    8c68:	e1a0c005 	mov	ip, r5
    8c6c:	ed967a00 	vldr	s14, [r6]
    8c70:	edd35a00 	vldr	s11, [r3]
    8c74:	edd16a00 	vldr	s13, [r1]
    8c78:	edd24a00 	vldr	s9, [r2]
    8c7c:	ee266a27 	vmul.f32	s12, s12, s15
    8c80:	ee277a27 	vmul.f32	s14, s14, s15
    8c84:	eebd5ac5 	vcvt.s32.f32	s10, s10
    8c88:	ee655aa7 	vmul.f32	s11, s11, s15
    8c8c:	ee666aa7 	vmul.f32	s13, s13, s15
    8c90:	ee647aa7 	vmul.f32	s15, s9, s15
    8c94:	ee152a10 	vmov	r2, s10
    8c98:	eebd6ac6 	vcvt.s32.f32	s12, s12
    8c9c:	eebd7ac7 	vcvt.s32.f32	s14, s14
    8ca0:	e59d102c 	ldr	r1, [sp, #44]	; 0x2c
    8ca4:	eefd5ae5 	vcvt.s32.f32	s11, s11
    8ca8:	eefd6ae6 	vcvt.s32.f32	s13, s13
    8cac:	eefd7ae7 	vcvt.s32.f32	s15, s15
    8cb0:	e0813181 	add	r3, r1, r1, lsl #3
    8cb4:	e1a02202 	lsl	r2, r2, #4
    8cb8:	e0843103 	add	r3, r4, r3, lsl #2
    8cbc:	ee16aa10 	vmov	sl, s12
    8cc0:	ee179a10 	vmov	r9, s14
    8cc4:	e58d200c 	str	r2, [sp, #12]
    8cc8:	e58d3018 	str	r3, [sp, #24]
    8ccc:	ee152a90 	vmov	r2, s11
    8cd0:	ee163a90 	vmov	r3, s13
    8cd4:	ee175a90 	vmov	r5, s15
    8cd8:	e346b666 	movt	fp, #26214	; 0x6666
    8cdc:	e1a0a20a 	lsl	sl, sl, #4
    8ce0:	ea000004 	b	8cf8 <UpdateVertex+0x404>
    8ce4:	e320f000 	nop	{0}
    8ce8:	47ae147b 			; <UNDEFINED> instruction: 0x47ae147b
    8cec:	3f847ae1 	svccc	0x00847ae1
    8cf0:	42c80000 	sbcmi	r0, r8, #0
    8cf4:	42200000 	eormi	r0, r0, #0
    8cf8:	e1a09209 	lsl	r9, r9, #4
    8cfc:	e1a02202 	lsl	r2, r2, #4
    8d00:	e1a03203 	lsl	r3, r3, #4
    8d04:	e1a05205 	lsl	r5, r5, #4
    8d08:	e58d2020 	str	r2, [sp, #32]
    8d0c:	e58d3024 	str	r3, [sp, #36]	; 0x24
    8d10:	e58d501c 	str	r5, [sp, #28]
    8d14:	e59d8014 	ldr	r8, [sp, #20]
    8d18:	e3a04000 	mov	r4, #0
    8d1c:	e59d201c 	ldr	r2, [sp, #28]
    8d20:	e59d3020 	ldr	r3, [sp, #32]
    8d24:	e1a06208 	lsl	r6, r8, #4
    8d28:	e59d5024 	ldr	r5, [sp, #36]	; 0x24
    8d2c:	e0828006 	add	r8, r2, r6
    8d30:	e0837006 	add	r7, r3, r6
    8d34:	e6ff8078 	uxth	r8, r8
    8d38:	e0856006 	add	r6, r5, r6
    8d3c:	e6ff7077 	uxth	r7, r7
    8d40:	e59d1018 	ldr	r1, [sp, #24]
    8d44:	e6ff6076 	uxth	r6, r6
    8d48:	e58d6004 	str	r6, [sp, #4]
    8d4c:	e59d6010 	ldr	r6, [sp, #16]
    8d50:	e281106c 	add	r1, r1, #108	; 0x6c
    8d54:	e14186ba 	strh	r8, [r1, #-106]	; 0xffffff96
    8d58:	e0865204 	add	r5, r6, r4, lsl #4
    8d5c:	e2844028 	add	r4, r4, #40	; 0x28
    8d60:	e0c32b95 	smull	r2, r3, r5, fp
    8d64:	e1a02fc5 	asr	r2, r5, #31
    8d68:	e0623643 	rsb	r3, r2, r3, asr #12
    8d6c:	e59d600c 	ldr	r6, [sp, #12]
    8d70:	e0833103 	add	r3, r3, r3, lsl #2
    8d74:	e3540d0a 	cmp	r4, #640	; 0x280
    8d78:	e0453583 	sub	r3, r5, r3, lsl #11
    8d7c:	e0832006 	add	r2, r3, r6
    8d80:	e59d6004 	ldr	r6, [sp, #4]
    8d84:	e0835009 	add	r5, r3, r9
    8d88:	e083300a 	add	r3, r3, sl
    8d8c:	e5010068 	str	r0, [r1, #-104]	; 0x68
    8d90:	e5010064 	str	r0, [r1, #-100]	; 0x64
    8d94:	e5010060 	str	r0, [r1, #-96]	; 0x60
    8d98:	e501c05c 	str	ip, [r1, #-92]	; 0x5c
    8d9c:	e501c058 	str	ip, [r1, #-88]	; 0x58
    8da0:	e14174b6 	strh	r7, [r1, #-70]	; 0xffffffba
    8da4:	e5010044 	str	r0, [r1, #-68]	; 0x44
    8da8:	e5010040 	str	r0, [r1, #-64]	; 0x40
    8dac:	e501c03c 	str	ip, [r1, #-60]	; 0x3c
    8db0:	e5010038 	str	r0, [r1, #-56]	; 0x38
    8db4:	e501c034 	str	ip, [r1, #-52]	; 0x34
    8db8:	e14162b2 	strh	r6, [r1, #-34]	; 0xffffffde
    8dbc:	e5010020 	str	r0, [r1, #-32]
    8dc0:	e501001c 	str	r0, [r1, #-28]
    8dc4:	e501c018 	str	ip, [r1, #-24]
    8dc8:	e501c014 	str	ip, [r1, #-20]
    8dcc:	e5010010 	str	r0, [r1, #-16]
    8dd0:	e14156bc 	strh	r5, [r1, #-108]	; 0xffffff94
    8dd4:	e14124b8 	strh	r2, [r1, #-72]	; 0xffffffb8
    8dd8:	e14132b4 	strh	r3, [r1, #-36]	; 0xffffffdc
    8ddc:	1affffda 	bne	8d4c <UpdateVertex+0x458>
    8de0:	e59d8014 	ldr	r8, [sp, #20]
    8de4:	e59d1018 	ldr	r1, [sp, #24]
    8de8:	e2888028 	add	r8, r8, #40	; 0x28
    8dec:	e3580e1e 	cmp	r8, #480	; 0x1e0
    8df0:	e2811d1b 	add	r1, r1, #1728	; 0x6c0
    8df4:	e58d8014 	str	r8, [sp, #20]
    8df8:	e58d1018 	str	r1, [sp, #24]
    8dfc:	1affffc4 	bne	8d14 <UpdateVertex+0x420>
    8e00:	e59d202c 	ldr	r2, [sp, #44]	; 0x2c
    8e04:	e59d5028 	ldr	r5, [sp, #40]	; 0x28
    8e08:	e2823d09 	add	r3, r2, #576	; 0x240
    8e0c:	e5853000 	str	r3, [r5]
    8e10:	e28dd034 	add	sp, sp, #52	; 0x34
    8e14:	e8bd8ff0 	pop	{r4, r5, r6, r7, r8, r9, sl, fp, pc}

00008e18 <show_fps>:
    8e18:	e92d4008 	push	{r3, lr}
    8e1c:	eb000260 	bl	97a4 <get_systime_ms>
    8e20:	e3063800 	movw	r3, #26624	; 0x6800
    8e24:	e1a02000 	mov	r2, r0
    8e28:	e3403002 	movt	r3, #2
    8e2c:	e593001c 	ldr	r0, [r3, #28]
    8e30:	e5931018 	ldr	r1, [r3, #24]
    8e34:	e0600002 	rsb	r0, r0, r2
    8e38:	e3500ffa 	cmp	r0, #1000	; 0x3e8
    8e3c:	e2811001 	add	r1, r1, #1
    8e40:	e5831018 	str	r1, [r3, #24]
    8e44:	38bd8008 	popcc	{r3, pc}
    8e48:	ee060a10 	vmov	s12, r0
    8e4c:	eddf7a0d 	vldr	s15, [pc, #52]	; 8e88 <show_fps+0x70>
    8e50:	e30c0204 	movw	r0, #49668	; 0xc204
    8e54:	e583201c 	str	r2, [r3, #28]
    8e58:	e3a0c000 	mov	ip, #0
    8e5c:	eef86a46 	vcvt.f32.u32	s13, s12
    8e60:	ee061a10 	vmov	s12, r1
    8e64:	e583c018 	str	ip, [r3, #24]
    8e68:	eec67aa7 	vdiv.f32	s15, s13, s15
    8e6c:	eeb87a46 	vcvt.f32.u32	s14, s12
    8e70:	e3400001 	movt	r0, #1
    8e74:	e8bd4008 	pop	{r3, lr}
    8e78:	eec77a27 	vdiv.f32	s15, s14, s15
    8e7c:	eefc7ae7 	vcvt.u32.f32	s15, s15
    8e80:	ee171a90 	vmov	r1, s15
    8e84:	ea0000d2 	b	91d4 <uart_debug_puts>
    8e88:	447a0000 	ldrbtmi	r0, [sl], #-0

00008e8c <testTriangle>:
    8e8c:	e1a03000 	mov	r3, r0
    8e90:	e92d40f0 	push	{r4, r5, r6, r7, lr}
    8e94:	e30d5000 	movw	r5, #53248	; 0xd000
    8e98:	e590e000 	ldr	lr, [r0]
    8e9c:	e24dd00c 	sub	sp, sp, #12
    8ea0:	e593c004 	ldr	ip, [r3, #4]
    8ea4:	e3064800 	movw	r4, #26624	; 0x6800
    8ea8:	e3405001 	movt	r5, #1
    8eac:	e3a07501 	mov	r7, #4194304	; 0x400000
    8eb0:	e3404002 	movt	r4, #2
    8eb4:	e1a0100e 	mov	r1, lr
    8eb8:	e5933020 	ldr	r3, [r3, #32]
    8ebc:	e1a0200c 	mov	r2, ip
    8ec0:	e58d7000 	str	r7, [sp]
    8ec4:	e1a06005 	mov	r6, r5
    8ec8:	e5950000 	ldr	r0, [r5]
    8ecc:	e1a07004 	mov	r7, r4
    8ed0:	e584e00c 	str	lr, [r4, #12]
    8ed4:	e584c010 	str	ip, [r4, #16]
    8ed8:	eb0008fd 	bl	b2d4 <V3DCreateContext>
    8edc:	ea000001 	b	8ee8 <testTriangle+0x5c>
    8ee0:	e3020710 	movw	r0, #10000	; 0x2710
    8ee4:	eb0001f2 	bl	96b4 <usleep>
    8ee8:	e5943014 	ldr	r3, [r4, #20]
    8eec:	e2833001 	add	r3, r3, #1
    8ef0:	e5843014 	str	r3, [r4, #20]
    8ef4:	ebffffc7 	bl	8e18 <show_fps>
    8ef8:	e3a03000 	mov	r3, #0
    8efc:	e5843000 	str	r3, [r4]
    8f00:	ebfffe7b 	bl	88f4 <UpdateVertex>
    8f04:	e5950000 	ldr	r0, [r5]
    8f08:	eb00081d 	bl	af84 <V3DBeginScene>
    8f0c:	e3500000 	cmp	r0, #0
    8f10:	1afffff2 	bne	8ee0 <testTriangle+0x54>
    8f14:	e5960000 	ldr	r0, [r6]
    8f18:	e3071200 	movw	r1, #29184	; 0x7200
    8f1c:	e3401082 	movt	r1, #130	; 0x82
    8f20:	e3a03004 	mov	r3, #4
    8f24:	e5972000 	ldr	r2, [r7]
    8f28:	eb0007b5 	bl	ae04 <V3DSetDrawPrimitive>
    8f2c:	e5960000 	ldr	r0, [r6]
    8f30:	eb0008bb 	bl	b224 <V3DEndScene>
    8f34:	e5960000 	ldr	r0, [r6]
    8f38:	eb0008cb 	bl	b26c <V3DPresent>
    8f3c:	eaffffe7 	b	8ee0 <testTriangle+0x54>

00008f40 <uart_init>:
    8f40:	e3a02000 	mov	r2, #0
    8f44:	e3a03a01 	mov	r3, #4096	; 0x1000
    8f48:	e3433f20 	movt	r3, #16160	; 0x3f20
    8f4c:	e1a01002 	mov	r1, r2
    8f50:	e3432f20 	movt	r2, #16160	; 0x3f20
    8f54:	e3a00903 	mov	r0, #49152	; 0xc000
    8f58:	e92d0030 	push	{r4, r5}
    8f5c:	e3a0c028 	mov	ip, #40	; 0x28
    8f60:	e5831030 	str	r1, [r3, #48]	; 0x30
    8f64:	e30057ff 	movw	r5, #2047	; 0x7ff
    8f68:	e5821094 	str	r1, [r2, #148]	; 0x94
    8f6c:	e3a04001 	mov	r4, #1
    8f70:	e5820098 	str	r0, [r2, #152]	; 0x98
    8f74:	e3a00070 	mov	r0, #112	; 0x70
    8f78:	e5821098 	str	r1, [r2, #152]	; 0x98
    8f7c:	e30017f2 	movw	r1, #2034	; 0x7f2
    8f80:	e5835044 	str	r5, [r3, #68]	; 0x44
    8f84:	e3002301 	movw	r2, #769	; 0x301
    8f88:	e5834024 	str	r4, [r3, #36]	; 0x24
    8f8c:	e583c028 	str	ip, [r3, #40]	; 0x28
    8f90:	e8bd0030 	pop	{r4, r5}
    8f94:	e583002c 	str	r0, [r3, #44]	; 0x2c
    8f98:	e5831038 	str	r1, [r3, #56]	; 0x38
    8f9c:	e5832030 	str	r2, [r3, #48]	; 0x30
    8fa0:	e12fff1e 	bx	lr

00008fa4 <uart_putc>:
    8fa4:	e3a01a01 	mov	r1, #4096	; 0x1000
    8fa8:	e3431f20 	movt	r1, #16160	; 0x3f20
    8fac:	e5912018 	ldr	r2, [r1, #24]
    8fb0:	e3a03a01 	mov	r3, #4096	; 0x1000
    8fb4:	e3433f20 	movt	r3, #16160	; 0x3f20
    8fb8:	e3120020 	tst	r2, #32
    8fbc:	1afffffa 	bne	8fac <uart_putc+0x8>
    8fc0:	e5830000 	str	r0, [r3]
    8fc4:	e12fff1e 	bx	lr

00008fc8 <uart_getc>:
    8fc8:	e3a03a01 	mov	r3, #4096	; 0x1000
    8fcc:	e3433f20 	movt	r3, #16160	; 0x3f20
    8fd0:	e5930018 	ldr	r0, [r3, #24]
    8fd4:	e2100010 	ands	r0, r0, #16
    8fd8:	15930000 	ldrne	r0, [r3]
    8fdc:	16ef0070 	uxtbne	r0, r0
    8fe0:	e12fff1e 	bx	lr

00008fe4 <uart_puts>:
    8fe4:	e52d4004 	push	{r4}		; (str r4, [sp, #-4]!)
    8fe8:	e5d01000 	ldrb	r1, [r0]
    8fec:	e3510000 	cmp	r1, #0
    8ff0:	0a00000e 	beq	9030 <uart_puts+0x4c>
    8ff4:	e3a02a01 	mov	r2, #4096	; 0x1000
    8ff8:	e2800001 	add	r0, r0, #1
    8ffc:	e3432f20 	movt	r2, #16160	; 0x3f20
    9000:	e3a0400d 	mov	r4, #13
    9004:	e1a0c002 	mov	ip, r2
    9008:	e5923018 	ldr	r3, [r2, #24]
    900c:	e3130020 	tst	r3, #32
    9010:	1afffffc 	bne	9008 <uart_puts+0x24>
    9014:	e58c1000 	str	r1, [ip]
    9018:	e5503001 	ldrb	r3, [r0, #-1]
    901c:	e353000a 	cmp	r3, #10
    9020:	0a000004 	beq	9038 <uart_puts+0x54>
    9024:	e4d01001 	ldrb	r1, [r0], #1
    9028:	e3510000 	cmp	r1, #0
    902c:	1afffff5 	bne	9008 <uart_puts+0x24>
    9030:	e49d4004 	pop	{r4}		; (ldr r4, [sp], #4)
    9034:	e12fff1e 	bx	lr
    9038:	e5923018 	ldr	r3, [r2, #24]
    903c:	e3130020 	tst	r3, #32
    9040:	1afffffc 	bne	9038 <uart_puts+0x54>
    9044:	e58c4000 	str	r4, [ip]
    9048:	eafffff5 	b	9024 <uart_puts+0x40>

0000904c <uart_char_putc>:
    904c:	e305c008 	movw	ip, #20488	; 0x5008
    9050:	e3a01a01 	mov	r1, #4096	; 0x1000
    9054:	e340c002 	movt	ip, #2
    9058:	e52d4004 	push	{r4}		; (str r4, [sp, #-4]!)
    905c:	e3431f20 	movt	r1, #16160	; 0x3f20
    9060:	e7dc4220 	ldrb	r4, [ip, r0, lsr #4]
    9064:	e5912018 	ldr	r2, [r1, #24]
    9068:	e3a03a01 	mov	r3, #4096	; 0x1000
    906c:	e3433f20 	movt	r3, #16160	; 0x3f20
    9070:	e3120020 	tst	r2, #32
    9074:	1afffffa 	bne	9064 <uart_char_putc+0x18>
    9078:	e5834000 	str	r4, [r3]
    907c:	e200000f 	and	r0, r0, #15
    9080:	e7dc0000 	ldrb	r0, [ip, r0]
    9084:	e5931018 	ldr	r1, [r3, #24]
    9088:	e3a02a01 	mov	r2, #4096	; 0x1000
    908c:	e3432f20 	movt	r2, #16160	; 0x3f20
    9090:	e3110020 	tst	r1, #32
    9094:	1afffffa 	bne	9084 <uart_char_putc+0x38>
    9098:	e5820000 	str	r0, [r2]
    909c:	e49d4004 	pop	{r4}		; (ldr r4, [sp], #4)
    90a0:	e12fff1e 	bx	lr

000090a4 <uart_put_dword>:
    90a4:	e3051008 	movw	r1, #20488	; 0x5008
    90a8:	e3a0ca01 	mov	ip, #4096	; 0x1000
    90ac:	e3401002 	movt	r1, #2
    90b0:	e52d4004 	push	{r4}		; (str r4, [sp, #-4]!)
    90b4:	e343cf20 	movt	ip, #16160	; 0x3f20
    90b8:	e7d14e20 	ldrb	r4, [r1, r0, lsr #28]
    90bc:	e59c2018 	ldr	r2, [ip, #24]
    90c0:	e3a03a01 	mov	r3, #4096	; 0x1000
    90c4:	e3433f20 	movt	r3, #16160	; 0x3f20
    90c8:	e3120020 	tst	r2, #32
    90cc:	1afffffa 	bne	90bc <uart_put_dword+0x18>
    90d0:	e7e32c50 	ubfx	r2, r0, #24, #4
    90d4:	e1a0c003 	mov	ip, r3
    90d8:	e5834000 	str	r4, [r3]
    90dc:	e7d14002 	ldrb	r4, [r1, r2]
    90e0:	e59c2018 	ldr	r2, [ip, #24]
    90e4:	e3a03a01 	mov	r3, #4096	; 0x1000
    90e8:	e3433f20 	movt	r3, #16160	; 0x3f20
    90ec:	e3120020 	tst	r2, #32
    90f0:	1afffffa 	bne	90e0 <uart_put_dword+0x3c>
    90f4:	e7e32a50 	ubfx	r2, r0, #20, #4
    90f8:	e1a0c003 	mov	ip, r3
    90fc:	e5834000 	str	r4, [r3]
    9100:	e7d14002 	ldrb	r4, [r1, r2]
    9104:	e59c2018 	ldr	r2, [ip, #24]
    9108:	e3a03a01 	mov	r3, #4096	; 0x1000
    910c:	e3433f20 	movt	r3, #16160	; 0x3f20
    9110:	e3120020 	tst	r2, #32
    9114:	1afffffa 	bne	9104 <uart_put_dword+0x60>
    9118:	e7e32850 	ubfx	r2, r0, #16, #4
    911c:	e1a0c003 	mov	ip, r3
    9120:	e5834000 	str	r4, [r3]
    9124:	e7d14002 	ldrb	r4, [r1, r2]
    9128:	e59c2018 	ldr	r2, [ip, #24]
    912c:	e3a03a01 	mov	r3, #4096	; 0x1000
    9130:	e3433f20 	movt	r3, #16160	; 0x3f20
    9134:	e3120020 	tst	r2, #32
    9138:	1afffffa 	bne	9128 <uart_put_dword+0x84>
    913c:	e7e32650 	ubfx	r2, r0, #12, #4
    9140:	e1a0c003 	mov	ip, r3
    9144:	e5834000 	str	r4, [r3]
    9148:	e7d14002 	ldrb	r4, [r1, r2]
    914c:	e59c2018 	ldr	r2, [ip, #24]
    9150:	e3a03a01 	mov	r3, #4096	; 0x1000
    9154:	e3433f20 	movt	r3, #16160	; 0x3f20
    9158:	e3120020 	tst	r2, #32
    915c:	1afffffa 	bne	914c <uart_put_dword+0xa8>
    9160:	e7e32450 	ubfx	r2, r0, #8, #4
    9164:	e1a0c003 	mov	ip, r3
    9168:	e5834000 	str	r4, [r3]
    916c:	e7d14002 	ldrb	r4, [r1, r2]
    9170:	e59c2018 	ldr	r2, [ip, #24]
    9174:	e3a03a01 	mov	r3, #4096	; 0x1000
    9178:	e3433f20 	movt	r3, #16160	; 0x3f20
    917c:	e3120020 	tst	r2, #32
    9180:	1afffffa 	bne	9170 <uart_put_dword+0xcc>
    9184:	e7e32250 	ubfx	r2, r0, #4, #4
    9188:	e1a0c003 	mov	ip, r3
    918c:	e5834000 	str	r4, [r3]
    9190:	e7d14002 	ldrb	r4, [r1, r2]
    9194:	e59c2018 	ldr	r2, [ip, #24]
    9198:	e3a03a01 	mov	r3, #4096	; 0x1000
    919c:	e3433f20 	movt	r3, #16160	; 0x3f20
    91a0:	e3120020 	tst	r2, #32
    91a4:	1afffffa 	bne	9194 <uart_put_dword+0xf0>
    91a8:	e5834000 	str	r4, [r3]
    91ac:	e200000f 	and	r0, r0, #15
    91b0:	e7d10000 	ldrb	r0, [r1, r0]
    91b4:	e5931018 	ldr	r1, [r3, #24]
    91b8:	e3a02a01 	mov	r2, #4096	; 0x1000
    91bc:	e3432f20 	movt	r2, #16160	; 0x3f20
    91c0:	e3110020 	tst	r1, #32
    91c4:	1afffffa 	bne	91b4 <uart_put_dword+0x110>
    91c8:	e5820000 	str	r0, [r2]
    91cc:	e49d4004 	pop	{r4}		; (ldr r4, [sp], #4)
    91d0:	e12fff1e 	bx	lr

000091d4 <uart_debug_puts>:
    91d4:	e92d41f0 	push	{r4, r5, r6, r7, r8, lr}
    91d8:	e1a07001 	mov	r7, r1
    91dc:	e5d03000 	ldrb	r3, [r0]
    91e0:	e3530000 	cmp	r3, #0
    91e4:	08bd81f0 	popeq	{r4, r5, r6, r7, r8, pc}
    91e8:	e3a04a01 	mov	r4, #4096	; 0x1000
    91ec:	e2805001 	add	r5, r0, #1
    91f0:	e3434f20 	movt	r4, #16160	; 0x3f20
    91f4:	e3a06020 	mov	r6, #32
    91f8:	e1a08004 	mov	r8, r4
    91fc:	e353000a 	cmp	r3, #10
    9200:	0a000008 	beq	9228 <uart_debug_puts+0x54>
    9204:	e5552001 	ldrb	r2, [r5, #-1]
    9208:	e5943018 	ldr	r3, [r4, #24]
    920c:	e3130020 	tst	r3, #32
    9210:	1afffffc 	bne	9208 <uart_debug_puts+0x34>
    9214:	e5882000 	str	r2, [r8]
    9218:	e4d53001 	ldrb	r3, [r5], #1
    921c:	e3530000 	cmp	r3, #0
    9220:	1afffff5 	bne	91fc <uart_debug_puts+0x28>
    9224:	e8bd81f0 	pop	{r4, r5, r6, r7, r8, pc}
    9228:	e5943018 	ldr	r3, [r4, #24]
    922c:	e3130020 	tst	r3, #32
    9230:	1afffffc 	bne	9228 <uart_debug_puts+0x54>
    9234:	e5886000 	str	r6, [r8]
    9238:	e1a00007 	mov	r0, r7
    923c:	ebffff98 	bl	90a4 <uart_put_dword>
    9240:	e5943018 	ldr	r3, [r4, #24]
    9244:	e3130020 	tst	r3, #32
    9248:	1afffffc 	bne	9240 <uart_debug_puts+0x6c>
    924c:	e3a0300d 	mov	r3, #13
    9250:	e5883000 	str	r3, [r8]
    9254:	eaffffea 	b	9204 <uart_debug_puts+0x30>

00009258 <uart_dump>:
    9258:	e2103003 	ands	r3, r0, #3
    925c:	e92d41f0 	push	{r4, r5, r6, r7, r8, lr}
    9260:	18bd81f0 	popne	{r4, r5, r6, r7, r8, pc}
    9264:	e1b08121 	lsrs	r8, r1, #2
    9268:	0a000011 	beq	92b4 <uart_dump+0x5c>
    926c:	e3a04a01 	mov	r4, #4096	; 0x1000
    9270:	e1a06000 	mov	r6, r0
    9274:	e3434f20 	movt	r4, #16160	; 0x3f20
    9278:	e1a05003 	mov	r5, r3
    927c:	e1a07004 	mov	r7, r4
    9280:	e3130003 	tst	r3, #3
    9284:	0a000011 	beq	92d0 <uart_dump+0x78>
    9288:	e4960004 	ldr	r0, [r6], #4
    928c:	ebffff84 	bl	90a4 <uart_put_dword>
    9290:	e5943018 	ldr	r3, [r4, #24]
    9294:	e3130020 	tst	r3, #32
    9298:	1afffffc 	bne	9290 <uart_dump+0x38>
    929c:	e2855001 	add	r5, r5, #1
    92a0:	e3a02020 	mov	r2, #32
    92a4:	e1550008 	cmp	r5, r8
    92a8:	e1a03005 	mov	r3, r5
    92ac:	e5872000 	str	r2, [r7]
    92b0:	1afffff2 	bne	9280 <uart_dump+0x28>
    92b4:	e30c013c 	movw	r0, #49468	; 0xc13c
    92b8:	e3400001 	movt	r0, #1
    92bc:	ebffff48 	bl	8fe4 <uart_puts>
    92c0:	e30c013c 	movw	r0, #49468	; 0xc13c
    92c4:	e3400001 	movt	r0, #1
    92c8:	e8bd41f0 	pop	{r4, r5, r6, r7, r8, lr}
    92cc:	eaffff44 	b	8fe4 <uart_puts>
    92d0:	e30c013c 	movw	r0, #49468	; 0xc13c
    92d4:	e3400001 	movt	r0, #1
    92d8:	ebffff41 	bl	8fe4 <uart_puts>
    92dc:	e1a00006 	mov	r0, r6
    92e0:	ebffff6f 	bl	90a4 <uart_put_dword>
    92e4:	e30c020c 	movw	r0, #49676	; 0xc20c
    92e8:	e3400001 	movt	r0, #1
    92ec:	ebffff3c 	bl	8fe4 <uart_puts>
    92f0:	eaffffe4 	b	9288 <uart_dump+0x30>

000092f4 <uart_bytedump>:
    92f4:	e92d41f0 	push	{r4, r5, r6, r7, r8, lr}
    92f8:	e2518000 	subs	r8, r1, #0
    92fc:	0a000012 	beq	934c <uart_bytedump+0x58>
    9300:	e3a04a01 	mov	r4, #4096	; 0x1000
    9304:	e3a03000 	mov	r3, #0
    9308:	e3434f20 	movt	r4, #16160	; 0x3f20
    930c:	e1a06000 	mov	r6, r0
    9310:	e1a07004 	mov	r7, r4
    9314:	e1a05003 	mov	r5, r3
    9318:	e313000f 	tst	r3, #15
    931c:	0a000011 	beq	9368 <uart_bytedump+0x74>
    9320:	e4d60001 	ldrb	r0, [r6], #1
    9324:	ebffff48 	bl	904c <uart_char_putc>
    9328:	e5943018 	ldr	r3, [r4, #24]
    932c:	e3130020 	tst	r3, #32
    9330:	1afffffc 	bne	9328 <uart_bytedump+0x34>
    9334:	e2855001 	add	r5, r5, #1
    9338:	e3a02020 	mov	r2, #32
    933c:	e1550008 	cmp	r5, r8
    9340:	e1a03005 	mov	r3, r5
    9344:	e5872000 	str	r2, [r7]
    9348:	1afffff2 	bne	9318 <uart_bytedump+0x24>
    934c:	e30c013c 	movw	r0, #49468	; 0xc13c
    9350:	e3400001 	movt	r0, #1
    9354:	ebffff22 	bl	8fe4 <uart_puts>
    9358:	e30c013c 	movw	r0, #49468	; 0xc13c
    935c:	e3400001 	movt	r0, #1
    9360:	e8bd41f0 	pop	{r4, r5, r6, r7, r8, lr}
    9364:	eaffff1e 	b	8fe4 <uart_puts>
    9368:	e30c013c 	movw	r0, #49468	; 0xc13c
    936c:	e3400001 	movt	r0, #1
    9370:	ebffff1b 	bl	8fe4 <uart_puts>
    9374:	e1a00006 	mov	r0, r6
    9378:	ebffff49 	bl	90a4 <uart_put_dword>
    937c:	e30c020c 	movw	r0, #49676	; 0xc20c
    9380:	e3400001 	movt	r0, #1
    9384:	ebffff16 	bl	8fe4 <uart_puts>
    9388:	eaffffe4 	b	9320 <uart_bytedump+0x2c>

0000938c <draw_char.part.0>:
    938c:	e92d47f0 	push	{r4, r5, r6, r7, r8, r9, sl, lr}
    9390:	e1a04000 	mov	r4, r0
    9394:	e1a05001 	mov	r5, r1
    9398:	e1a06002 	mov	r6, r2
    939c:	ebfffbb4 	bl	8274 <get_fontdata16x16>
    93a0:	e1a01fc5 	asr	r1, r5, #31
    93a4:	e284e00f 	add	lr, r4, #15
    93a8:	e1a02fc4 	asr	r2, r4, #31
    93ac:	e30d8004 	movw	r8, #53252	; 0xd004
    93b0:	e3540000 	cmp	r4, #0
    93b4:	e1a01d21 	lsr	r1, r1, #26
    93b8:	a1a0e004 	movge	lr, r4
    93bc:	e1a02e22 	lsr	r2, r2, #28
    93c0:	e1a03fc6 	asr	r3, r6, #31
    93c4:	e0855001 	add	r5, r5, r1
    93c8:	e084c002 	add	ip, r4, r2
    93cc:	e205403f 	and	r4, r5, #63	; 0x3f
    93d0:	e0611004 	rsb	r1, r1, r4
    93d4:	e20cc00f 	and	ip, ip, #15
    93d8:	e1a03d23 	lsr	r3, r3, #26
    93dc:	e1a0e24e 	asr	lr, lr, #4
    93e0:	e062200c 	rsb	r2, r2, ip
    93e4:	e086c003 	add	ip, r6, r3
    93e8:	e082240e 	add	r2, r2, lr, lsl #8
    93ec:	e20cc03f 	and	ip, ip, #63	; 0x3f
    93f0:	e1a09201 	lsl	r9, r1, #4
    93f4:	e063300c 	rsb	r3, r3, ip
    93f8:	e2897010 	add	r7, r9, #16
    93fc:	e0800202 	add	r0, r0, r2, lsl #4
    9400:	e269aa01 	rsb	sl, r9, #4096	; 0x1000
    9404:	e0695000 	rsb	r5, r9, r0
    9408:	e080a00a 	add	sl, r0, sl
    940c:	e1a06203 	lsl	r6, r3, #4
    9410:	e3408001 	movt	r8, #1
    9414:	e1a04009 	mov	r4, r9
    9418:	e7d50004 	ldrb	r0, [r5, r4]
    941c:	e1a01004 	mov	r1, r4
    9420:	e1a02006 	mov	r2, r6
    9424:	e2844001 	add	r4, r4, #1
    9428:	e3500000 	cmp	r0, #0
    942c:	15980000 	ldrne	r0, [r8]
    9430:	ebfffcfb 	bl	8824 <mailbox_fb_set_pixel>
    9434:	e1570004 	cmp	r7, r4
    9438:	1afffff6 	bne	9418 <draw_char.part.0+0x8c>
    943c:	e2855c01 	add	r5, r5, #256	; 0x100
    9440:	e2866001 	add	r6, r6, #1
    9444:	e155000a 	cmp	r5, sl
    9448:	1afffff1 	bne	9414 <draw_char.part.0+0x88>
    944c:	e8bd87f0 	pop	{r4, r5, r6, r7, r8, r9, sl, pc}

00009450 <fsin>:
    9450:	e1a02fc0 	asr	r2, r0, #31
    9454:	e30d3004 	movw	r3, #53252	; 0xd004
    9458:	e3403001 	movt	r3, #1
    945c:	e1a029a2 	lsr	r2, r2, #19
    9460:	e0800002 	add	r0, r0, r2
    9464:	e7ec0050 	ubfx	r0, r0, #0, #13
    9468:	e0622000 	rsb	r2, r2, r0
    946c:	e0833102 	add	r3, r3, r2, lsl #2
    9470:	ed930a01 	vldr	s0, [r3, #4]
    9474:	e12fff1e 	bx	lr

00009478 <fcos>:
    9478:	e2800b02 	add	r0, r0, #2048	; 0x800
    947c:	e30d3004 	movw	r3, #53252	; 0xd004
    9480:	e3403001 	movt	r3, #1
    9484:	e1a02fc0 	asr	r2, r0, #31
    9488:	e1a029a2 	lsr	r2, r2, #19
    948c:	e0800002 	add	r0, r0, r2
    9490:	e7ec0050 	ubfx	r0, r0, #0, #13
    9494:	e0622000 	rsb	r2, r2, r0
    9498:	e0833102 	add	r3, r3, r2, lsl #2
    949c:	ed930a01 	vldr	s0, [r3, #4]
    94a0:	e12fff1e 	bx	lr

000094a4 <set_char_color>:
    94a4:	e30d3004 	movw	r3, #53252	; 0xd004
    94a8:	e3403001 	movt	r3, #1
    94ac:	e5830000 	str	r0, [r3]
    94b0:	e12fff1e 	bx	lr

000094b4 <reset_char_color>:
    94b4:	e30d3004 	movw	r3, #53252	; 0xd004
    94b8:	e3e02000 	mvn	r2, #0
    94bc:	e3403001 	movt	r3, #1
    94c0:	e5832000 	str	r2, [r3]
    94c4:	e12fff1e 	bx	lr

000094c8 <draw_char>:
    94c8:	e3500c01 	cmp	r0, #256	; 0x100
    94cc:	812fff1e 	bxhi	lr
    94d0:	eaffffad 	b	938c <draw_char.part.0>

000094d4 <draw_text>:
    94d4:	e92d4070 	push	{r4, r5, r6, lr}
    94d8:	e1a05000 	mov	r5, r0
    94dc:	e5d00000 	ldrb	r0, [r0]
    94e0:	e1a04001 	mov	r4, r1
    94e4:	e1a06002 	mov	r6, r2
    94e8:	e3500000 	cmp	r0, #0
    94ec:	08bd8070 	popeq	{r4, r5, r6, pc}
    94f0:	e1a01004 	mov	r1, r4
    94f4:	e1a02006 	mov	r2, r6
    94f8:	ebffffa3 	bl	938c <draw_char.part.0>
    94fc:	e5f50001 	ldrb	r0, [r5, #1]!
    9500:	e2844001 	add	r4, r4, #1
    9504:	e3500000 	cmp	r0, #0
    9508:	1afffff8 	bne	94f0 <draw_text+0x1c>
    950c:	e8bd8070 	pop	{r4, r5, r6, pc}

00009510 <draw_dword>:
    9510:	e92d40f8 	push	{r3, r4, r5, r6, r7, lr}
    9514:	e3044fe4 	movw	r4, #20452	; 0x4fe4
    9518:	e3404002 	movt	r4, #2
    951c:	e1a05000 	mov	r5, r0
    9520:	e0843e20 	add	r3, r4, r0, lsr #28
    9524:	e1a07001 	mov	r7, r1
    9528:	e1a06002 	mov	r6, r2
    952c:	e5d30024 	ldrb	r0, [r3, #36]	; 0x24
    9530:	ebffff95 	bl	938c <draw_char.part.0>
    9534:	e7e33c55 	ubfx	r3, r5, #24, #4
    9538:	e2871001 	add	r1, r7, #1
    953c:	e0843003 	add	r3, r4, r3
    9540:	e1a02006 	mov	r2, r6
    9544:	e5d30024 	ldrb	r0, [r3, #36]	; 0x24
    9548:	ebffff8f 	bl	938c <draw_char.part.0>
    954c:	e7e33a55 	ubfx	r3, r5, #20, #4
    9550:	e2871002 	add	r1, r7, #2
    9554:	e0843003 	add	r3, r4, r3
    9558:	e1a02006 	mov	r2, r6
    955c:	e5d30024 	ldrb	r0, [r3, #36]	; 0x24
    9560:	ebffff89 	bl	938c <draw_char.part.0>
    9564:	e7e33855 	ubfx	r3, r5, #16, #4
    9568:	e2871003 	add	r1, r7, #3
    956c:	e0843003 	add	r3, r4, r3
    9570:	e1a02006 	mov	r2, r6
    9574:	e5d30024 	ldrb	r0, [r3, #36]	; 0x24
    9578:	ebffff83 	bl	938c <draw_char.part.0>
    957c:	e7e33655 	ubfx	r3, r5, #12, #4
    9580:	e2871004 	add	r1, r7, #4
    9584:	e0843003 	add	r3, r4, r3
    9588:	e1a02006 	mov	r2, r6
    958c:	e5d30024 	ldrb	r0, [r3, #36]	; 0x24
    9590:	ebffff7d 	bl	938c <draw_char.part.0>
    9594:	e7e33455 	ubfx	r3, r5, #8, #4
    9598:	e2871005 	add	r1, r7, #5
    959c:	e0843003 	add	r3, r4, r3
    95a0:	e1a02006 	mov	r2, r6
    95a4:	e5d30024 	ldrb	r0, [r3, #36]	; 0x24
    95a8:	ebffff77 	bl	938c <draw_char.part.0>
    95ac:	e7e33255 	ubfx	r3, r5, #4, #4
    95b0:	e205500f 	and	r5, r5, #15
    95b4:	e0843003 	add	r3, r4, r3
    95b8:	e2871006 	add	r1, r7, #6
    95bc:	e0844005 	add	r4, r4, r5
    95c0:	e1a02006 	mov	r2, r6
    95c4:	e5d30024 	ldrb	r0, [r3, #36]	; 0x24
    95c8:	ebffff6f 	bl	938c <draw_char.part.0>
    95cc:	e5d40024 	ldrb	r0, [r4, #36]	; 0x24
    95d0:	e2871007 	add	r1, r7, #7
    95d4:	e1a02006 	mov	r2, r6
    95d8:	e8bd40f8 	pop	{r3, r4, r5, r6, r7, lr}
    95dc:	eaffff6a 	b	938c <draw_char.part.0>

000095e0 <draw_dump_data>:
    95e0:	e92d41f0 	push	{r4, r5, r6, r7, r8, lr}
    95e4:	e3048fe4 	movw	r8, #20452	; 0x4fe4
    95e8:	e3408002 	movt	r8, #2
    95ec:	e1a07000 	mov	r7, r0
    95f0:	e3a06000 	mov	r6, #0
    95f4:	e3a05000 	mov	r5, #0
    95f8:	e1a04005 	mov	r4, r5
    95fc:	e7d73004 	ldrb	r3, [r7, r4]
    9600:	e3140003 	tst	r4, #3
    9604:	02855001 	addeq	r5, r5, #1
    9608:	e1a02006 	mov	r2, r6
    960c:	e0883223 	add	r3, r8, r3, lsr #4
    9610:	e1a01005 	mov	r1, r5
    9614:	e5d30024 	ldrb	r0, [r3, #36]	; 0x24
    9618:	ebffff5b 	bl	938c <draw_char.part.0>
    961c:	e7d73004 	ldrb	r3, [r7, r4]
    9620:	e2851001 	add	r1, r5, #1
    9624:	e2844001 	add	r4, r4, #1
    9628:	e1a02006 	mov	r2, r6
    962c:	e203300f 	and	r3, r3, #15
    9630:	e2855002 	add	r5, r5, #2
    9634:	e0883003 	add	r3, r8, r3
    9638:	e5d30024 	ldrb	r0, [r3, #36]	; 0x24
    963c:	ebffff52 	bl	938c <draw_char.part.0>
    9640:	e3540010 	cmp	r4, #16
    9644:	1affffec 	bne	95fc <draw_dump_data+0x1c>
    9648:	e2866001 	add	r6, r6, #1
    964c:	e2877010 	add	r7, r7, #16
    9650:	e356001c 	cmp	r6, #28
    9654:	1affffe6 	bne	95f4 <draw_dump_data+0x14>
    9658:	e8bd81f0 	pop	{r4, r5, r6, r7, r8, pc}

0000965c <init_random>:
    965c:	e3043fe4 	movw	r3, #20452	; 0x4fe4
    9660:	e30624cb 	movw	r2, #25803	; 0x64cb
    9664:	e3403002 	movt	r3, #2
    9668:	e3a00001 	mov	r0, #1
    966c:	e3402078 	movt	r2, #120	; 0x78
    9670:	e3051ba0 	movw	r1, #23456	; 0x5ba0
    9674:	e5830034 	str	r0, [r3, #52]	; 0x34
    9678:	e5831038 	str	r1, [r3, #56]	; 0x38
    967c:	e583203c 	str	r2, [r3, #60]	; 0x3c
    9680:	e12fff1e 	bx	lr

00009684 <random>:
    9684:	e3043fe4 	movw	r3, #20452	; 0x4fe4
    9688:	e3403002 	movt	r3, #2
    968c:	e2830034 	add	r0, r3, #52	; 0x34
    9690:	e8900007 	ldm	r0, {r0, r1, r2}
    9694:	e0810000 	add	r0, r1, r0
    9698:	e0821001 	add	r1, r2, r1
    969c:	e0802002 	add	r2, r0, r2
    96a0:	e5830034 	str	r0, [r3, #52]	; 0x34
    96a4:	e5831038 	str	r1, [r3, #56]	; 0x38
    96a8:	e583203c 	str	r2, [r3, #60]	; 0x3c
    96ac:	e1a00820 	lsr	r0, r0, #16
    96b0:	e12fff1e 	bx	lr

000096b4 <usleep>:
    96b4:	e24dd008 	sub	sp, sp, #8
    96b8:	e58d0004 	str	r0, [sp, #4]
    96bc:	e59d3004 	ldr	r3, [sp, #4]
    96c0:	e3530000 	cmp	r3, #0
    96c4:	da000005 	ble	96e0 <usleep+0x2c>
    96c8:	e59d3004 	ldr	r3, [sp, #4]
    96cc:	e2433001 	sub	r3, r3, #1
    96d0:	e58d3004 	str	r3, [sp, #4]
    96d4:	e59d3004 	ldr	r3, [sp, #4]
    96d8:	e3530000 	cmp	r3, #0
    96dc:	cafffff9 	bgt	96c8 <usleep+0x14>
    96e0:	e28dd008 	add	sp, sp, #8
    96e4:	e12fff1e 	bx	lr

000096e8 <memset_t>:
    96e8:	e212c003 	ands	ip, r2, #3
    96ec:	0a000007 	beq	9710 <memset_t+0x28>
    96f0:	e3a0c000 	mov	ip, #0
    96f4:	e1a0300c 	mov	r3, ip
    96f8:	e7c0100c 	strb	r1, [r0, ip]
    96fc:	e2833001 	add	r3, r3, #1
    9700:	e1530002 	cmp	r3, r2
    9704:	e1a0c003 	mov	ip, r3
    9708:	1afffffa 	bne	96f8 <memset_t+0x10>
    970c:	e12fff1e 	bx	lr
    9710:	e1a03801 	lsl	r3, r1, #16
    9714:	e1833401 	orr	r3, r3, r1, lsl #8
    9718:	e1b02122 	lsrs	r2, r2, #2
    971c:	e1833001 	orr	r3, r3, r1
    9720:	e1831c01 	orr	r1, r3, r1, lsl #24
    9724:	012fff1e 	bxeq	lr
    9728:	e1a0300c 	mov	r3, ip
    972c:	e780110c 	str	r1, [r0, ip, lsl #2]
    9730:	e2833001 	add	r3, r3, #1
    9734:	e1530002 	cmp	r3, r2
    9738:	e1a0c003 	mov	ip, r3
    973c:	1afffffa 	bne	972c <memset_t+0x44>
    9740:	e12fff1e 	bx	lr

00009744 <get_systime>:
    9744:	e3a03a03 	mov	r3, #12288	; 0x3000
    9748:	e24dd008 	sub	sp, sp, #8
    974c:	e3433f00 	movt	r3, #16128	; 0x3f00
    9750:	e5932008 	ldr	r2, [r3, #8]
    9754:	e58d2000 	str	r2, [sp]
    9758:	e5932004 	ldr	r2, [r3, #4]
    975c:	e58d2004 	str	r2, [sp, #4]
    9760:	e5931008 	ldr	r1, [r3, #8]
    9764:	e59d2000 	ldr	r2, [sp]
    9768:	e1510002 	cmp	r1, r2
    976c:	15932008 	ldrne	r2, [r3, #8]
    9770:	158d2000 	strne	r2, [sp]
    9774:	15933004 	ldrne	r3, [r3, #4]
    9778:	158d3004 	strne	r3, [sp, #4]
    977c:	e59d2000 	ldr	r2, [sp]
    9780:	e59d3004 	ldr	r3, [sp, #4]
    9784:	ee802b90 	vdup.32	d16, r2
    9788:	f3e000b0 	vshr.u64	d16, d16, #32
    978c:	f2e015b0 	vshl.s64	d17, d16, #32
    9790:	ec510b31 	vmov	r0, r1, d17
    9794:	e0900003 	adds	r0, r0, r3
    9798:	e2a11000 	adc	r1, r1, #0
    979c:	e28dd008 	add	sp, sp, #8
    97a0:	e12fff1e 	bx	lr

000097a4 <get_systime_ms>:
    97a4:	ed9f7a16 	vldr	s14, [pc, #88]	; 9804 <get_systime_ms+0x60>
    97a8:	e3a03a03 	mov	r3, #12288	; 0x3000
    97ac:	e3433f00 	movt	r3, #16128	; 0x3f00
    97b0:	e24dd008 	sub	sp, sp, #8
    97b4:	e5932008 	ldr	r2, [r3, #8]
    97b8:	e58d2000 	str	r2, [sp]
    97bc:	e5932004 	ldr	r2, [r3, #4]
    97c0:	e58d2004 	str	r2, [sp, #4]
    97c4:	e5931008 	ldr	r1, [r3, #8]
    97c8:	e59d2000 	ldr	r2, [sp]
    97cc:	e1510002 	cmp	r1, r2
    97d0:	15932008 	ldrne	r2, [r3, #8]
    97d4:	158d2000 	strne	r2, [sp]
    97d8:	15933004 	ldrne	r3, [r3, #4]
    97dc:	158d3004 	strne	r3, [sp, #4]
    97e0:	e59d3000 	ldr	r3, [sp]
    97e4:	e59d3004 	ldr	r3, [sp, #4]
    97e8:	eddd7a01 	vldr	s15, [sp, #4]
    97ec:	eef87a67 	vcvt.f32.u32	s15, s15
    97f0:	eec77a87 	vdiv.f32	s15, s15, s14
    97f4:	eefc7ae7 	vcvt.u32.f32	s15, s15
    97f8:	ee170a90 	vmov	r0, s15
    97fc:	e28dd008 	add	sp, sp, #8
    9800:	e12fff1e 	bx	lr
    9804:	447a0000 	ldrbtmi	r0, [sl], #-0

00009808 <get_systime32>:
    9808:	e3a03a03 	mov	r3, #12288	; 0x3000
    980c:	e3433f00 	movt	r3, #16128	; 0x3f00
    9810:	e5930004 	ldr	r0, [r3, #4]
    9814:	e12fff1e 	bx	lr

00009818 <msleep>:
    9818:	e92d4038 	push	{r3, r4, r5, lr}
    981c:	e1a04000 	mov	r4, r0
    9820:	ebffffc7 	bl	9744 <get_systime>
    9824:	e0643284 	rsb	r3, r4, r4, lsl #5
    9828:	e0844103 	add	r4, r4, r3, lsl #2
    982c:	e1a03184 	lsl	r3, r4, #3
    9830:	e0904003 	adds	r4, r0, r3
    9834:	e2a15000 	adc	r5, r1, #0
    9838:	ebffffc1 	bl	9744 <get_systime>
    983c:	e1550001 	cmp	r5, r1
    9840:	01540000 	cmpeq	r4, r0
    9844:	8afffffb 	bhi	9838 <msleep+0x20>
    9848:	e8bd8038 	pop	{r3, r4, r5, pc}

0000984c <msleep32>:
    984c:	e3a03a03 	mov	r3, #12288	; 0x3000
    9850:	e3433f00 	movt	r3, #16128	; 0x3f00
    9854:	e0601280 	rsb	r1, r0, r0, lsl #5
    9858:	e1a02003 	mov	r2, r3
    985c:	e5933004 	ldr	r3, [r3, #4]
    9860:	e0800101 	add	r0, r0, r1, lsl #2
    9864:	e0831180 	add	r1, r3, r0, lsl #3
    9868:	e5923004 	ldr	r3, [r2, #4]
    986c:	e1510003 	cmp	r1, r3
    9870:	8afffffc 	bhi	9868 <msleep32+0x1c>
    9874:	e12fff1e 	bx	lr

00009878 <dispDiag>:
    9878:	e92d40f8 	push	{r3, r4, r5, r6, r7, lr}
    987c:	e3a065ff 	mov	r6, #1069547520	; 0x3fc00000
    9880:	e3a01000 	mov	r1, #0
    9884:	e3a02002 	mov	r2, #2
    9888:	e1a05000 	mov	r5, r0
    988c:	e3a07a01 	mov	r7, #4096	; 0x1000
    9890:	e5960100 	ldr	r0, [r6, #256]	; 0x100
    9894:	e3437f20 	movt	r7, #16160	; 0x3f20
    9898:	ebffff1c 	bl	9510 <draw_dword>
    989c:	e5960104 	ldr	r0, [r6, #260]	; 0x104
    98a0:	e3a01000 	mov	r1, #0
    98a4:	e1a04001 	mov	r4, r1
    98a8:	e3a02003 	mov	r2, #3
    98ac:	ebffff17 	bl	9510 <draw_dword>
    98b0:	e5960f20 	ldr	r0, [r6, #3872]	; 0xf20
    98b4:	e1a01004 	mov	r1, r4
    98b8:	e3a02004 	mov	r2, #4
    98bc:	ebffff13 	bl	9510 <draw_dword>
    98c0:	e5960134 	ldr	r0, [r6, #308]	; 0x134
    98c4:	e1a01004 	mov	r1, r4
    98c8:	e3a02006 	mov	r2, #6
    98cc:	ebffff0f 	bl	9510 <draw_dword>
    98d0:	e5960138 	ldr	r0, [r6, #312]	; 0x138
    98d4:	e1a01004 	mov	r1, r4
    98d8:	e3a02007 	mov	r2, #7
    98dc:	ebffff0b 	bl	9510 <draw_dword>
    98e0:	e5960130 	ldr	r0, [r6, #304]	; 0x130
    98e4:	e1a01004 	mov	r1, r4
    98e8:	e3a02008 	mov	r2, #8
    98ec:	ebffff07 	bl	9510 <draw_dword>
    98f0:	e5960f04 	ldr	r0, [r6, #3844]	; 0xf04
    98f4:	e1a01004 	mov	r1, r4
    98f8:	e3a02009 	mov	r2, #9
    98fc:	ebffff03 	bl	9510 <draw_dword>
    9900:	e5960030 	ldr	r0, [r6, #48]	; 0x30
    9904:	e1a01004 	mov	r1, r4
    9908:	e3a0200a 	mov	r2, #10
    990c:	ebfffeff 	bl	9510 <draw_dword>
    9910:	e5960500 	ldr	r0, [r6, #1280]	; 0x500
    9914:	e1a01004 	mov	r1, r4
    9918:	e3a0200b 	mov	r2, #11
    991c:	ebfffefb 	bl	9510 <draw_dword>
    9920:	e596030c 	ldr	r0, [r6, #780]	; 0x30c
    9924:	e1a01004 	mov	r1, r4
    9928:	e3a0200c 	mov	r2, #12
    992c:	ebfffef7 	bl	9510 <draw_dword>
    9930:	e5960308 	ldr	r0, [r6, #776]	; 0x308
    9934:	e1a01004 	mov	r1, r4
    9938:	e3a0200d 	mov	r2, #13
    993c:	ebfffef3 	bl	9510 <draw_dword>
    9940:	e5960304 	ldr	r0, [r6, #772]	; 0x304
    9944:	e1a01004 	mov	r1, r4
    9948:	e3a0200e 	mov	r2, #14
    994c:	ebfffeef 	bl	9510 <draw_dword>
    9950:	e5960008 	ldr	r0, [r6, #8]
    9954:	e1a01004 	mov	r1, r4
    9958:	e3a0200f 	mov	r2, #15
    995c:	ebfffeeb 	bl	9510 <draw_dword>
    9960:	e5970000 	ldr	r0, [r7]
    9964:	e1a01004 	mov	r1, r4
    9968:	e3a02010 	mov	r2, #16
    996c:	ebfffee7 	bl	9510 <draw_dword>
    9970:	e5970018 	ldr	r0, [r7, #24]
    9974:	e1a01004 	mov	r1, r4
    9978:	e3a02011 	mov	r2, #17
    997c:	ebfffee3 	bl	9510 <draw_dword>
    9980:	e4950004 	ldr	r0, [r5], #4
    9984:	e1a02004 	mov	r2, r4
    9988:	e3a0101b 	mov	r1, #27
    998c:	e2844001 	add	r4, r4, #1
    9990:	ebfffede 	bl	9510 <draw_dword>
    9994:	e3540018 	cmp	r4, #24
    9998:	1afffff8 	bne	9980 <dispDiag+0x108>
    999c:	e8bd80f8 	pop	{r3, r4, r5, r6, r7, pc}

000099a0 <uartDiag>:
    99a0:	e92d4038 	push	{r3, r4, r5, lr}
    99a4:	e30c5210 	movw	r5, #49680	; 0xc210
    99a8:	e3405001 	movt	r5, #1
    99ac:	e3a045ff 	mov	r4, #1069547520	; 0x3fc00000
    99b0:	e1a00005 	mov	r0, r5
    99b4:	ebfffd8a 	bl	8fe4 <uart_puts>
    99b8:	e5941100 	ldr	r1, [r4, #256]	; 0x100
    99bc:	e30c0248 	movw	r0, #49736	; 0xc248
    99c0:	e3400001 	movt	r0, #1
    99c4:	ebfffe02 	bl	91d4 <uart_debug_puts>
    99c8:	e5941104 	ldr	r1, [r4, #260]	; 0x104
    99cc:	e30c0264 	movw	r0, #49764	; 0xc264
    99d0:	e3400001 	movt	r0, #1
    99d4:	ebfffdfe 	bl	91d4 <uart_debug_puts>
    99d8:	e5941f20 	ldr	r1, [r4, #3872]	; 0xf20
    99dc:	e30c0280 	movw	r0, #49792	; 0xc280
    99e0:	e3400001 	movt	r0, #1
    99e4:	ebfffdfa 	bl	91d4 <uart_debug_puts>
    99e8:	e5941134 	ldr	r1, [r4, #308]	; 0x134
    99ec:	e30c029c 	movw	r0, #49820	; 0xc29c
    99f0:	e3400001 	movt	r0, #1
    99f4:	ebfffdf6 	bl	91d4 <uart_debug_puts>
    99f8:	e5941138 	ldr	r1, [r4, #312]	; 0x138
    99fc:	e30c02b8 	movw	r0, #49848	; 0xc2b8
    9a00:	e3400001 	movt	r0, #1
    9a04:	ebfffdf2 	bl	91d4 <uart_debug_puts>
    9a08:	e5941130 	ldr	r1, [r4, #304]	; 0x130
    9a0c:	e30c02d4 	movw	r0, #49876	; 0xc2d4
    9a10:	e3400001 	movt	r0, #1
    9a14:	ebfffdee 	bl	91d4 <uart_debug_puts>
    9a18:	e5941f04 	ldr	r1, [r4, #3844]	; 0xf04
    9a1c:	e30c02f0 	movw	r0, #49904	; 0xc2f0
    9a20:	e3400001 	movt	r0, #1
    9a24:	ebfffdea 	bl	91d4 <uart_debug_puts>
    9a28:	e5941030 	ldr	r1, [r4, #48]	; 0x30
    9a2c:	e30c030c 	movw	r0, #49932	; 0xc30c
    9a30:	e3400001 	movt	r0, #1
    9a34:	ebfffde6 	bl	91d4 <uart_debug_puts>
    9a38:	e5941500 	ldr	r1, [r4, #1280]	; 0x500
    9a3c:	e30c0328 	movw	r0, #49960	; 0xc328
    9a40:	e3400001 	movt	r0, #1
    9a44:	ebfffde2 	bl	91d4 <uart_debug_puts>
    9a48:	e594130c 	ldr	r1, [r4, #780]	; 0x30c
    9a4c:	e30c0344 	movw	r0, #49988	; 0xc344
    9a50:	e3400001 	movt	r0, #1
    9a54:	ebfffdde 	bl	91d4 <uart_debug_puts>
    9a58:	e5941308 	ldr	r1, [r4, #776]	; 0x308
    9a5c:	e30c0360 	movw	r0, #50016	; 0xc360
    9a60:	e3400001 	movt	r0, #1
    9a64:	ebfffdda 	bl	91d4 <uart_debug_puts>
    9a68:	e5941304 	ldr	r1, [r4, #772]	; 0x304
    9a6c:	e30c037c 	movw	r0, #50044	; 0xc37c
    9a70:	e3400001 	movt	r0, #1
    9a74:	ebfffdd6 	bl	91d4 <uart_debug_puts>
    9a78:	e5941008 	ldr	r1, [r4, #8]
    9a7c:	e30c0398 	movw	r0, #50072	; 0xc398
    9a80:	e3400001 	movt	r0, #1
    9a84:	ebfffdd2 	bl	91d4 <uart_debug_puts>
    9a88:	e1a00005 	mov	r0, r5
    9a8c:	e8bd4038 	pop	{r3, r4, r5, lr}
    9a90:	eafffd53 	b	8fe4 <uart_puts>

00009a94 <V3DSetOffset>:
    9a94:	e3500000 	cmp	r0, #0
    9a98:	15903820 	ldrne	r3, [r0, #2080]	; 0x820
    9a9c:	10811003 	addne	r1, r1, r3
    9aa0:	15801828 	strne	r1, [r0, #2088]	; 0x828
    9aa4:	1580182c 	strne	r1, [r0, #2092]	; 0x82c
    9aa8:	e12fff1e 	bx	lr

00009aac <V3DSaveOffset>:
    9aac:	e3500000 	cmp	r0, #0
    9ab0:	012fff1e 	bxeq	lr
    9ab4:	e3510000 	cmp	r1, #0
    9ab8:	1a000005 	bne	9ad4 <V3DSaveOffset+0x28>
    9abc:	e5903828 	ldr	r3, [r0, #2088]	; 0x828
    9ac0:	e590282c 	ldr	r2, [r0, #2092]	; 0x82c
    9ac4:	e2433001 	sub	r3, r3, #1
    9ac8:	e5802834 	str	r2, [r0, #2100]	; 0x834
    9acc:	e5803838 	str	r3, [r0, #2104]	; 0x838
    9ad0:	e12fff1e 	bx	lr
    9ad4:	e3510001 	cmp	r1, #1
    9ad8:	05903828 	ldreq	r3, [r0, #2088]	; 0x828
    9adc:	0590282c 	ldreq	r2, [r0, #2092]	; 0x82c
    9ae0:	02433001 	subeq	r3, r3, #1
    9ae4:	0580283c 	streq	r2, [r0, #2108]	; 0x83c
    9ae8:	05803840 	streq	r3, [r0, #2112]	; 0x840
    9aec:	e12fff1e 	bx	lr

00009af0 <V3DFree>:
    9af0:	e92d4010 	push	{r4, lr}
    9af4:	e2504000 	subs	r4, r0, #0
    9af8:	08bd8010 	popeq	{r4, pc}
    9afc:	e594081c 	ldr	r0, [r4, #2076]	; 0x81c
    9b00:	e3500000 	cmp	r0, #0
    9b04:	1a000003 	bne	9b18 <V3DFree+0x28>
    9b08:	e3a03000 	mov	r3, #0
    9b0c:	e584381c 	str	r3, [r4, #2076]	; 0x81c
    9b10:	e5843820 	str	r3, [r4, #2080]	; 0x820
    9b14:	e8bd8010 	pop	{r4, pc}
    9b18:	ebfffaad 	bl	85d4 <mailbox_free_memory>
    9b1c:	eafffff9 	b	9b08 <V3DFree+0x18>

00009b20 <V3DAlloc>:
    9b20:	e92d4038 	push	{r3, r4, r5, lr}
    9b24:	e2504000 	subs	r4, r0, #0
    9b28:	e1a05001 	mov	r5, r1
    9b2c:	08bd8038 	popeq	{r3, r4, r5, pc}
    9b30:	e3a00502 	mov	r0, #8388608	; 0x800000
    9b34:	e3a01a01 	mov	r1, #4096	; 0x1000
    9b38:	e3a0200d 	mov	r2, #13
    9b3c:	ebfffa7e 	bl	853c <mailbox_allocate_memory>
    9b40:	e3500000 	cmp	r0, #0
    9b44:	08bd8038 	popeq	{r3, r4, r5, pc}
    9b48:	e584081c 	str	r0, [r4, #2076]	; 0x81c
    9b4c:	e3a03000 	mov	r3, #0
    9b50:	e5845830 	str	r5, [r4, #2096]	; 0x830
    9b54:	e5843820 	str	r3, [r4, #2080]	; 0x820
    9b58:	e5843828 	str	r3, [r4, #2088]	; 0x828
    9b5c:	e584382c 	str	r3, [r4, #2092]	; 0x82c
    9b60:	e5843834 	str	r3, [r4, #2100]	; 0x834
    9b64:	e5843838 	str	r3, [r4, #2104]	; 0x838
    9b68:	e584383c 	str	r3, [r4, #2108]	; 0x83c
    9b6c:	e5843840 	str	r3, [r4, #2112]	; 0x840
    9b70:	e584384c 	str	r3, [r4, #2124]	; 0x84c
    9b74:	e5843850 	str	r3, [r4, #2128]	; 0x850
    9b78:	e5843854 	str	r3, [r4, #2132]	; 0x854
    9b7c:	e8bd8038 	pop	{r3, r4, r5, pc}

00009b80 <V3DClearOffsetVertex>:
    9b80:	e3500000 	cmp	r0, #0
    9b84:	13a03000 	movne	r3, #0
    9b88:	1580384c 	strne	r3, [r0, #2124]	; 0x84c
    9b8c:	15803850 	strne	r3, [r0, #2128]	; 0x850
    9b90:	e12fff1e 	bx	lr

00009b94 <V3DSetOffsetBeginVertex>:
    9b94:	e3500000 	cmp	r0, #0
    9b98:	012fff1e 	bxeq	lr
    9b9c:	e590284c 	ldr	r2, [r0, #2124]	; 0x84c
    9ba0:	e5903820 	ldr	r3, [r0, #2080]	; 0x820
    9ba4:	e0823003 	add	r3, r2, r3
    9ba8:	e283381b 	add	r3, r3, #1769472	; 0x1b0000
    9bac:	e5803828 	str	r3, [r0, #2088]	; 0x828
    9bb0:	e580382c 	str	r3, [r0, #2092]	; 0x82c
    9bb4:	e12fff1e 	bx	lr

00009bb8 <V3DSetOffsetEndVertex>:
    9bb8:	e3500000 	cmp	r0, #0
    9bbc:	15903828 	ldrne	r3, [r0, #2088]	; 0x828
    9bc0:	1580384c 	strne	r3, [r0, #2124]	; 0x84c
    9bc4:	e12fff1e 	bx	lr

00009bc8 <V3DSetBusAddress>:
    9bc8:	e92d4010 	push	{r4, lr}
    9bcc:	e2504000 	subs	r4, r0, #0
    9bd0:	08bd8010 	popeq	{r4, pc}
    9bd4:	e5841820 	str	r1, [r4, #2080]	; 0x820
    9bd8:	e1a00001 	mov	r0, r1
    9bdc:	ebfff9e3 	bl	8370 <ArmToVc>
    9be0:	e5840824 	str	r0, [r4, #2084]	; 0x824
    9be4:	e8bd8010 	pop	{r4, pc}

00009be8 <V3DLock>:
    9be8:	e92d4010 	push	{r4, lr}
    9bec:	e2504000 	subs	r4, r0, #0
    9bf0:	08bd8010 	popeq	{r4, pc}
    9bf4:	e594081c 	ldr	r0, [r4, #2076]	; 0x81c
    9bf8:	e3500000 	cmp	r0, #0
    9bfc:	08bd8010 	popeq	{r4, pc}
    9c00:	ebfffa93 	bl	8654 <mailbox_lock_memory>
    9c04:	e5840824 	str	r0, [r4, #2084]	; 0x824
    9c08:	ebfff9da 	bl	8378 <VcToArm>
    9c0c:	e5840820 	str	r0, [r4, #2080]	; 0x820
    9c10:	e8bd8010 	pop	{r4, pc}

00009c14 <V3DUnlock>:
    9c14:	e92d4010 	push	{r4, lr}
    9c18:	e2504000 	subs	r4, r0, #0
    9c1c:	08bd8010 	popeq	{r4, pc}
    9c20:	e594081c 	ldr	r0, [r4, #2076]	; 0x81c
    9c24:	e3500000 	cmp	r0, #0
    9c28:	08bd8010 	popeq	{r4, pc}
    9c2c:	ebfffaa8 	bl	86d4 <mailbox_unlock_memory>
    9c30:	e3a03000 	mov	r3, #0
    9c34:	e5843824 	str	r3, [r4, #2084]	; 0x824
    9c38:	e5843820 	str	r3, [r4, #2080]	; 0x820
    9c3c:	e8bd8010 	pop	{r4, pc}

00009c40 <V3DWrite32>:
    9c40:	e5903828 	ldr	r3, [r0, #2088]	; 0x828
    9c44:	e24dd010 	sub	sp, sp, #16
    9c48:	e58d300c 	str	r3, [sp, #12]
    9c4c:	e59d300c 	ldr	r3, [sp, #12]
    9c50:	e58d1004 	str	r1, [sp, #4]
    9c54:	e5dd2004 	ldrb	r2, [sp, #4]
    9c58:	e6ef2072 	uxtb	r2, r2
    9c5c:	e5c32000 	strb	r2, [r3]
    9c60:	e5dd2005 	ldrb	r2, [sp, #5]
    9c64:	e6ef2072 	uxtb	r2, r2
    9c68:	e5c32001 	strb	r2, [r3, #1]
    9c6c:	e5dd2006 	ldrb	r2, [sp, #6]
    9c70:	e6ef2072 	uxtb	r2, r2
    9c74:	e5c32002 	strb	r2, [r3, #2]
    9c78:	e5dd2007 	ldrb	r2, [sp, #7]
    9c7c:	e6ef2072 	uxtb	r2, r2
    9c80:	e5c32003 	strb	r2, [r3, #3]
    9c84:	e5903828 	ldr	r3, [r0, #2088]	; 0x828
    9c88:	e2833004 	add	r3, r3, #4
    9c8c:	e5803828 	str	r3, [r0, #2088]	; 0x828
    9c90:	e28dd010 	add	sp, sp, #16
    9c94:	e12fff1e 	bx	lr

00009c98 <V3DFloat32>:
    9c98:	e5903828 	ldr	r3, [r0, #2088]	; 0x828
    9c9c:	e24dd008 	sub	sp, sp, #8
    9ca0:	ed8d0a01 	vstr	s0, [sp, #4]
    9ca4:	e5dd2004 	ldrb	r2, [sp, #4]
    9ca8:	e6ef2072 	uxtb	r2, r2
    9cac:	e5c32000 	strb	r2, [r3]
    9cb0:	e5dd2005 	ldrb	r2, [sp, #5]
    9cb4:	e6ef2072 	uxtb	r2, r2
    9cb8:	e5c32001 	strb	r2, [r3, #1]
    9cbc:	e5dd2006 	ldrb	r2, [sp, #6]
    9cc0:	e6ef2072 	uxtb	r2, r2
    9cc4:	e5c32002 	strb	r2, [r3, #2]
    9cc8:	e5dd2007 	ldrb	r2, [sp, #7]
    9ccc:	e6ef2072 	uxtb	r2, r2
    9cd0:	e5c32003 	strb	r2, [r3, #3]
    9cd4:	e5903828 	ldr	r3, [r0, #2088]	; 0x828
    9cd8:	e2833004 	add	r3, r3, #4
    9cdc:	e5803828 	str	r3, [r0, #2088]	; 0x828
    9ce0:	e28dd008 	add	sp, sp, #8
    9ce4:	e12fff1e 	bx	lr

00009ce8 <V3DWrite32Align>:
    9ce8:	e5903828 	ldr	r3, [r0, #2088]	; 0x828
    9cec:	e4831004 	str	r1, [r3], #4
    9cf0:	e5803828 	str	r3, [r0, #2088]	; 0x828
    9cf4:	e12fff1e 	bx	lr

00009cf8 <V3DFloat32Align>:
    9cf8:	e5903828 	ldr	r3, [r0, #2088]	; 0x828
    9cfc:	eca30a01 	vstmia	r3!, {s0}
    9d00:	e5803828 	str	r3, [r0, #2088]	; 0x828
    9d04:	e12fff1e 	bx	lr

00009d08 <V3DWrite16>:
    9d08:	e5903828 	ldr	r3, [r0, #2088]	; 0x828
    9d0c:	e24dd008 	sub	sp, sp, #8
    9d10:	e1a02421 	lsr	r2, r1, #8
    9d14:	e5c31000 	strb	r1, [r3]
    9d18:	e5903828 	ldr	r3, [r0, #2088]	; 0x828
    9d1c:	e5c32001 	strb	r2, [r3, #1]
    9d20:	e5903828 	ldr	r3, [r0, #2088]	; 0x828
    9d24:	e2833002 	add	r3, r3, #2
    9d28:	e5803828 	str	r3, [r0, #2088]	; 0x828
    9d2c:	e28dd008 	add	sp, sp, #8
    9d30:	e12fff1e 	bx	lr

00009d34 <V3DWrite8>:
    9d34:	e5903828 	ldr	r3, [r0, #2088]	; 0x828
    9d38:	e5c31000 	strb	r1, [r3]
    9d3c:	e5903828 	ldr	r3, [r0, #2088]	; 0x828
    9d40:	e2833001 	add	r3, r3, #1
    9d44:	e5803828 	str	r3, [r0, #2088]	; 0x828
    9d48:	e12fff1e 	bx	lr

00009d4c <V3DControlSetShaderInfo>:
    9d4c:	e3500000 	cmp	r0, #0
    9d50:	e3a03000 	mov	r3, #0
    9d54:	e52d4004 	push	{r4}		; (str r4, [sp, #-4]!)
    9d58:	e3a0c024 	mov	ip, #36	; 0x24
    9d5c:	15902820 	ldrne	r2, [r0, #2080]	; 0x820
    9d60:	e24dd01c 	sub	sp, sp, #28
    9d64:	05902828 	ldreq	r2, [r0, #2088]	; 0x828
    9d68:	e3a01003 	mov	r1, #3
    9d6c:	e58d3008 	str	r3, [sp, #8]
    9d70:	12822801 	addne	r2, r2, #65536	; 0x10000
    9d74:	15802828 	strne	r2, [r0, #2088]	; 0x828
    9d78:	1580282c 	strne	r2, [r0, #2092]	; 0x82c
    9d7c:	e5c23000 	strb	r3, [r2]
    9d80:	e5902828 	ldr	r2, [r0, #2088]	; 0x828
    9d84:	e2824001 	add	r4, r2, #1
    9d88:	e5804828 	str	r4, [r0, #2088]	; 0x828
    9d8c:	e5c2c001 	strb	ip, [r2, #1]
    9d90:	e5902828 	ldr	r2, [r0, #2088]	; 0x828
    9d94:	e282c001 	add	ip, r2, #1
    9d98:	e580c828 	str	ip, [r0, #2088]	; 0x828
    9d9c:	e5c23001 	strb	r3, [r2, #1]
    9da0:	e5903828 	ldr	r3, [r0, #2088]	; 0x828
    9da4:	e2832001 	add	r2, r3, #1
    9da8:	e5802828 	str	r2, [r0, #2088]	; 0x828
    9dac:	e5c31001 	strb	r1, [r3, #1]
    9db0:	e5902828 	ldr	r2, [r0, #2088]	; 0x828
    9db4:	e5901820 	ldr	r1, [r0, #2080]	; 0x820
    9db8:	e2822001 	add	r2, r2, #1
    9dbc:	e58d2004 	str	r2, [sp, #4]
    9dc0:	e2811809 	add	r1, r1, #589824	; 0x90000
    9dc4:	e59d3004 	ldr	r3, [sp, #4]
    9dc8:	e58d1000 	str	r1, [sp]
    9dcc:	e5dd1000 	ldrb	r1, [sp]
    9dd0:	e5802828 	str	r2, [r0, #2088]	; 0x828
    9dd4:	e6ef2071 	uxtb	r2, r1
    9dd8:	e5c32000 	strb	r2, [r3]
    9ddc:	e5dd2001 	ldrb	r2, [sp, #1]
    9de0:	e6ef2072 	uxtb	r2, r2
    9de4:	e5c32001 	strb	r2, [r3, #1]
    9de8:	e5dd2002 	ldrb	r2, [sp, #2]
    9dec:	e6ef2072 	uxtb	r2, r2
    9df0:	e5c32002 	strb	r2, [r3, #2]
    9df4:	e5dd2003 	ldrb	r2, [sp, #3]
    9df8:	e6ef2072 	uxtb	r2, r2
    9dfc:	e5c32003 	strb	r2, [r3, #3]
    9e00:	e5902828 	ldr	r2, [r0, #2088]	; 0x828
    9e04:	e2822004 	add	r2, r2, #4
    9e08:	e58d200c 	str	r2, [sp, #12]
    9e0c:	e59d300c 	ldr	r3, [sp, #12]
    9e10:	e5dd1008 	ldrb	r1, [sp, #8]
    9e14:	e5802828 	str	r2, [r0, #2088]	; 0x828
    9e18:	e6ef2071 	uxtb	r2, r1
    9e1c:	e5c32000 	strb	r2, [r3]
    9e20:	e5dd2009 	ldrb	r2, [sp, #9]
    9e24:	e6ef2072 	uxtb	r2, r2
    9e28:	e5c32001 	strb	r2, [r3, #1]
    9e2c:	e5dd200a 	ldrb	r2, [sp, #10]
    9e30:	e6ef2072 	uxtb	r2, r2
    9e34:	e5c32002 	strb	r2, [r3, #2]
    9e38:	e5dd200b 	ldrb	r2, [sp, #11]
    9e3c:	e6ef2072 	uxtb	r2, r2
    9e40:	e5c32003 	strb	r2, [r3, #3]
    9e44:	e5902828 	ldr	r2, [r0, #2088]	; 0x828
    9e48:	e5901824 	ldr	r1, [r0, #2084]	; 0x824
    9e4c:	e2822004 	add	r2, r2, #4
    9e50:	e58d2014 	str	r2, [sp, #20]
    9e54:	e281181b 	add	r1, r1, #1769472	; 0x1b0000
    9e58:	e59d3014 	ldr	r3, [sp, #20]
    9e5c:	e58d1010 	str	r1, [sp, #16]
    9e60:	e5dd1010 	ldrb	r1, [sp, #16]
    9e64:	e5802828 	str	r2, [r0, #2088]	; 0x828
    9e68:	e6ef2071 	uxtb	r2, r1
    9e6c:	e5c32000 	strb	r2, [r3]
    9e70:	e5dd2011 	ldrb	r2, [sp, #17]
    9e74:	e6ef2072 	uxtb	r2, r2
    9e78:	e5c32001 	strb	r2, [r3, #1]
    9e7c:	e5dd2012 	ldrb	r2, [sp, #18]
    9e80:	e6ef2072 	uxtb	r2, r2
    9e84:	e5c32002 	strb	r2, [r3, #2]
    9e88:	e5dd2013 	ldrb	r2, [sp, #19]
    9e8c:	e6ef2072 	uxtb	r2, r2
    9e90:	e5c32003 	strb	r2, [r3, #3]
    9e94:	e5903828 	ldr	r3, [r0, #2088]	; 0x828
    9e98:	e2833004 	add	r3, r3, #4
    9e9c:	e5803828 	str	r3, [r0, #2088]	; 0x828
    9ea0:	e28dd01c 	add	sp, sp, #28
    9ea4:	e49d4004 	pop	{r4}		; (ldr r4, [sp], #4)
    9ea8:	e12fff1e 	bx	lr

00009eac <V3DControlSetFragmentShader>:
    9eac:	e3500000 	cmp	r0, #0
    9eb0:	e3041823 	movw	r1, #18467	; 0x4823
    9eb4:	e92d0ff0 	push	{r4, r5, r6, r7, r8, r9, sl, fp}
    9eb8:	e24dd0a8 	sub	sp, sp, #168	; 0xa8
    9ebc:	15903820 	ldrne	r3, [r0, #2080]	; 0x820
    9ec0:	e3076176 	movw	r6, #29046	; 0x7176
    9ec4:	05903828 	ldreq	r3, [r0, #2088]	; 0x828
    9ec8:	e3072376 	movw	r2, #29558	; 0x7376
    9ecc:	e34d1172 	movt	r1, #53618	; 0xd172
    9ed0:	12833809 	addne	r3, r3, #589824	; 0x90000
    9ed4:	e58d300c 	str	r3, [sp, #12]
    9ed8:	e3045821 	movw	r5, #18465	; 0x4821
    9edc:	15803828 	strne	r3, [r0, #2088]	; 0x828
    9ee0:	e3044862 	movw	r4, #18530	; 0x4862
    9ee4:	1580382c 	strne	r3, [r0, #2092]	; 0x82c
    9ee8:	e30f3dbf 	movw	r3, #64959	; 0xfdbf
    9eec:	e349358e 	movt	r3, #38286	; 0x958e
    9ef0:	e307a009 	movw	sl, #28681	; 0x7009
    9ef4:	e58d3008 	str	r3, [sp, #8]
    9ef8:	e3078012 	movw	r8, #28690	; 0x7012
    9efc:	e59d300c 	ldr	r3, [sp, #12]
    9f00:	e30499e3 	movw	r9, #18915	; 0x49e3
    9f04:	e5ddc008 	ldrb	ip, [sp, #8]
    9f08:	e58d1010 	str	r1, [sp, #16]
    9f0c:	e348618e 	movt	r6, #33166	; 0x818e
    9f10:	e6ef107c 	uxtb	r1, ip
    9f14:	e5c31000 	strb	r1, [r3]
    9f18:	e30418a3 	movw	r1, #18595	; 0x48a3
    9f1c:	e5dd7009 	ldrb	r7, [sp, #9]
    9f20:	e307c540 	movw	ip, #30016	; 0x7540
    9f24:	e58d6018 	str	r6, [sp, #24]
    9f28:	e348218e 	movt	r2, #33166	; 0x818e
    9f2c:	e6ef6077 	uxtb	r6, r7
    9f30:	e5c36001 	strb	r6, [r3, #1]
    9f34:	e1a07009 	mov	r7, r9
    9f38:	e5dd600a 	ldrb	r6, [sp, #10]
    9f3c:	e3445002 	movt	r5, #16386	; 0x4002
    9f40:	e3414002 	movt	r4, #4098	; 0x1002
    9f44:	e6ef6076 	uxtb	r6, r6
    9f48:	e5c36002 	strb	r6, [r3, #2]
    9f4c:	e3a06c77 	mov	r6, #30464	; 0x7700
    9f50:	e58d6004 	str	r6, [sp, #4]
    9f54:	e5dd600b 	ldrb	r6, [sp, #11]
    9f58:	e3411142 	movt	r1, #4418	; 0x1142
    9f5c:	e348c19e 	movt	ip, #33182	; 0x819e
    9f60:	e6ef6076 	uxtb	r6, r6
    9f64:	e5c36003 	strb	r6, [r3, #3]
    9f68:	e5906828 	ldr	r6, [r0, #2088]	; 0x828
    9f6c:	e348a09e 	movt	sl, #32926	; 0x809e
    9f70:	e348809e 	movt	r8, #32926	; 0x809e
    9f74:	e2866004 	add	r6, r6, #4
    9f78:	e58d6014 	str	r6, [sp, #20]
    9f7c:	e59d3014 	ldr	r3, [sp, #20]
    9f80:	e5ddb010 	ldrb	fp, [sp, #16]
    9f84:	e5806828 	str	r6, [r0, #2088]	; 0x828
    9f88:	e3419150 	movt	r9, #4432	; 0x1150
    9f8c:	e6efb07b 	uxtb	fp, fp
    9f90:	e5c3b000 	strb	fp, [r3]
    9f94:	e3a0bc77 	mov	fp, #30464	; 0x7700
    9f98:	e5dd6011 	ldrb	r6, [sp, #17]
    9f9c:	e341be9e 	movt	fp, #7838	; 0x1e9e
    9fa0:	e58db004 	str	fp, [sp, #4]
    9fa4:	e6ef6076 	uxtb	r6, r6
    9fa8:	e5c36001 	strb	r6, [r3, #1]
    9fac:	e5dd6012 	ldrb	r6, [sp, #18]
    9fb0:	e3487160 	movt	r7, #33120	; 0x8160
    9fb4:	e6ef6076 	uxtb	r6, r6
    9fb8:	e5c36002 	strb	r6, [r3, #2]
    9fbc:	e30068e7 	movw	r6, #2279	; 0x8e7
    9fc0:	e5ddb013 	ldrb	fp, [sp, #19]
    9fc4:	e3416002 	movt	r6, #4098	; 0x1002
    9fc8:	e6efb07b 	uxtb	fp, fp
    9fcc:	e5c3b003 	strb	fp, [r3, #3]
    9fd0:	e590b828 	ldr	fp, [r0, #2088]	; 0x828
    9fd4:	e28bb004 	add	fp, fp, #4
    9fd8:	e58db01c 	str	fp, [sp, #28]
    9fdc:	e59d301c 	ldr	r3, [sp, #28]
    9fe0:	e580b828 	str	fp, [r0, #2088]	; 0x828
    9fe4:	e5ddb018 	ldrb	fp, [sp, #24]
    9fe8:	e58d2028 	str	r2, [sp, #40]	; 0x28
    9fec:	e58d5020 	str	r5, [sp, #32]
    9ff0:	e6efb07b 	uxtb	fp, fp
    9ff4:	e5c3b000 	strb	fp, [r3]
    9ff8:	e30756c0 	movw	r5, #30400	; 0x76c0
    9ffc:	e5ddb019 	ldrb	fp, [sp, #25]
    a000:	e58d4030 	str	r4, [sp, #48]	; 0x30
    a004:	e3004ba7 	movw	r4, #2983	; 0xba7
    a008:	e3434002 	movt	r4, #12290	; 0x3002
    a00c:	e6efb07b 	uxtb	fp, fp
    a010:	e5c3b001 	strb	fp, [r3, #1]
    a014:	e5ddb01a 	ldrb	fp, [sp, #26]
    a018:	e341559e 	movt	r5, #5534	; 0x159e
    a01c:	e6efb07b 	uxtb	fp, fp
    a020:	e5c3b002 	strb	fp, [r3, #2]
    a024:	e5ddb01b 	ldrb	fp, [sp, #27]
    a028:	e6efb07b 	uxtb	fp, fp
    a02c:	e5c3b003 	strb	fp, [r3, #3]
    a030:	e5902828 	ldr	r2, [r0, #2088]	; 0x828
    a034:	e2822004 	add	r2, r2, #4
    a038:	e58d2024 	str	r2, [sp, #36]	; 0x24
    a03c:	e59d3024 	ldr	r3, [sp, #36]	; 0x24
    a040:	e5ddb020 	ldrb	fp, [sp, #32]
    a044:	e5802828 	str	r2, [r0, #2088]	; 0x828
    a048:	e3a02a07 	mov	r2, #28672	; 0x7000
    a04c:	e340209e 	movt	r2, #158	; 0x9e
    a050:	e6efb07b 	uxtb	fp, fp
    a054:	e5c3b000 	strb	fp, [r3]
    a058:	e5ddb021 	ldrb	fp, [sp, #33]	; 0x21
    a05c:	e6efb07b 	uxtb	fp, fp
    a060:	e5c3b001 	strb	fp, [r3, #1]
    a064:	e5ddb022 	ldrb	fp, [sp, #34]	; 0x22
    a068:	e6efb07b 	uxtb	fp, fp
    a06c:	e5c3b002 	strb	fp, [r3, #2]
    a070:	e5ddb023 	ldrb	fp, [sp, #35]	; 0x23
    a074:	e6efb07b 	uxtb	fp, fp
    a078:	e5c3b003 	strb	fp, [r3, #3]
    a07c:	e590b828 	ldr	fp, [r0, #2088]	; 0x828
    a080:	e28bb004 	add	fp, fp, #4
    a084:	e58db02c 	str	fp, [sp, #44]	; 0x2c
    a088:	e59d302c 	ldr	r3, [sp, #44]	; 0x2c
    a08c:	e580b828 	str	fp, [r0, #2088]	; 0x828
    a090:	e5ddb028 	ldrb	fp, [sp, #40]	; 0x28
    a094:	e6efb07b 	uxtb	fp, fp
    a098:	e5c3b000 	strb	fp, [r3]
    a09c:	e5ddb029 	ldrb	fp, [sp, #41]	; 0x29
    a0a0:	e6efb07b 	uxtb	fp, fp
    a0a4:	e5c3b001 	strb	fp, [r3, #1]
    a0a8:	e5ddb02a 	ldrb	fp, [sp, #42]	; 0x2a
    a0ac:	e6efb07b 	uxtb	fp, fp
    a0b0:	e5c3b002 	strb	fp, [r3, #2]
    a0b4:	e5ddb02b 	ldrb	fp, [sp, #43]	; 0x2b
    a0b8:	e58d1040 	str	r1, [sp, #64]	; 0x40
    a0bc:	e58dc038 	str	ip, [sp, #56]	; 0x38
    a0c0:	e6efb07b 	uxtb	fp, fp
    a0c4:	e5c3b003 	strb	fp, [r3, #3]
    a0c8:	e300c9e7 	movw	ip, #2535	; 0x9e7
    a0cc:	e590b828 	ldr	fp, [r0, #2088]	; 0x828
    a0d0:	e341c000 	movt	ip, #4096	; 0x1000
    a0d4:	e28bb004 	add	fp, fp, #4
    a0d8:	e58db034 	str	fp, [sp, #52]	; 0x34
    a0dc:	e59d3034 	ldr	r3, [sp, #52]	; 0x34
    a0e0:	e580b828 	str	fp, [r0, #2088]	; 0x828
    a0e4:	e5ddb030 	ldrb	fp, [sp, #48]	; 0x30
    a0e8:	e6efb07b 	uxtb	fp, fp
    a0ec:	e5c3b000 	strb	fp, [r3]
    a0f0:	e5ddb031 	ldrb	fp, [sp, #49]	; 0x31
    a0f4:	e6efb07b 	uxtb	fp, fp
    a0f8:	e5c3b001 	strb	fp, [r3, #1]
    a0fc:	e5dd1032 	ldrb	r1, [sp, #50]	; 0x32
    a100:	e6ef1071 	uxtb	r1, r1
    a104:	e5c31002 	strb	r1, [r3, #2]
    a108:	e30019e7 	movw	r1, #2535	; 0x9e7
    a10c:	e5ddb033 	ldrb	fp, [sp, #51]	; 0x33
    a110:	e3451000 	movt	r1, #20480	; 0x5000
    a114:	e6efb07b 	uxtb	fp, fp
    a118:	e5c3b003 	strb	fp, [r3, #3]
    a11c:	e590b828 	ldr	fp, [r0, #2088]	; 0x828
    a120:	e28bb004 	add	fp, fp, #4
    a124:	e58db03c 	str	fp, [sp, #60]	; 0x3c
    a128:	e59d303c 	ldr	r3, [sp, #60]	; 0x3c
    a12c:	e580b828 	str	fp, [r0, #2088]	; 0x828
    a130:	e5ddb038 	ldrb	fp, [sp, #56]	; 0x38
    a134:	e6efb07b 	uxtb	fp, fp
    a138:	e5c3b000 	strb	fp, [r3]
    a13c:	e5ddb039 	ldrb	fp, [sp, #57]	; 0x39
    a140:	e6efb07b 	uxtb	fp, fp
    a144:	e5c3b001 	strb	fp, [r3, #1]
    a148:	e5ddb03a 	ldrb	fp, [sp, #58]	; 0x3a
    a14c:	e6efb07b 	uxtb	fp, fp
    a150:	e5c3b002 	strb	fp, [r3, #2]
    a154:	e5ddb03b 	ldrb	fp, [sp, #59]	; 0x3b
    a158:	e6efb07b 	uxtb	fp, fp
    a15c:	e5c3b003 	strb	fp, [r3, #3]
    a160:	e590b828 	ldr	fp, [r0, #2088]	; 0x828
    a164:	e28bb004 	add	fp, fp, #4
    a168:	e58db044 	str	fp, [sp, #68]	; 0x44
    a16c:	e59d3044 	ldr	r3, [sp, #68]	; 0x44
    a170:	e580b828 	str	fp, [r0, #2088]	; 0x828
    a174:	e5ddb040 	ldrb	fp, [sp, #64]	; 0x40
    a178:	e6efb07b 	uxtb	fp, fp
    a17c:	e5c3b000 	strb	fp, [r3]
    a180:	e5ddb041 	ldrb	fp, [sp, #65]	; 0x41
    a184:	e58da048 	str	sl, [sp, #72]	; 0x48
    a188:	e58d8058 	str	r8, [sp, #88]	; 0x58
    a18c:	e6efb07b 	uxtb	fp, fp
    a190:	e5c3b001 	strb	fp, [r3, #1]
    a194:	e5ddb042 	ldrb	fp, [sp, #66]	; 0x42
    a198:	e58d9050 	str	r9, [sp, #80]	; 0x50
    a19c:	e6efb07b 	uxtb	fp, fp
    a1a0:	e5c3b002 	strb	fp, [r3, #2]
    a1a4:	e5ddb043 	ldrb	fp, [sp, #67]	; 0x43
    a1a8:	e6efb07b 	uxtb	fp, fp
    a1ac:	e5c3b003 	strb	fp, [r3, #3]
    a1b0:	e5903828 	ldr	r3, [r0, #2088]	; 0x828
    a1b4:	e2833004 	add	r3, r3, #4
    a1b8:	e58d304c 	str	r3, [sp, #76]	; 0x4c
    a1bc:	e5803828 	str	r3, [r0, #2088]	; 0x828
    a1c0:	e59d304c 	ldr	r3, [sp, #76]	; 0x4c
    a1c4:	e5dda048 	ldrb	sl, [sp, #72]	; 0x48
    a1c8:	e6ef807a 	uxtb	r8, sl
    a1cc:	e5c38000 	strb	r8, [r3]
    a1d0:	e5dd8049 	ldrb	r8, [sp, #73]	; 0x49
    a1d4:	e6ef8078 	uxtb	r8, r8
    a1d8:	e5c38001 	strb	r8, [r3, #1]
    a1dc:	e5dd804a 	ldrb	r8, [sp, #74]	; 0x4a
    a1e0:	e6ef8078 	uxtb	r8, r8
    a1e4:	e5c38002 	strb	r8, [r3, #2]
    a1e8:	e5dd804b 	ldrb	r8, [sp, #75]	; 0x4b
    a1ec:	e6ef8078 	uxtb	r8, r8
    a1f0:	e5c38003 	strb	r8, [r3, #3]
    a1f4:	e5908828 	ldr	r8, [r0, #2088]	; 0x828
    a1f8:	e2888004 	add	r8, r8, #4
    a1fc:	e58d8054 	str	r8, [sp, #84]	; 0x54
    a200:	e59d3054 	ldr	r3, [sp, #84]	; 0x54
    a204:	e5dd9050 	ldrb	r9, [sp, #80]	; 0x50
    a208:	e5808828 	str	r8, [r0, #2088]	; 0x828
    a20c:	e6ef8079 	uxtb	r8, r9
    a210:	e5c38000 	strb	r8, [r3]
    a214:	e5dd8051 	ldrb	r8, [sp, #81]	; 0x51
    a218:	e6ef8078 	uxtb	r8, r8
    a21c:	e5c38001 	strb	r8, [r3, #1]
    a220:	e5dd8052 	ldrb	r8, [sp, #82]	; 0x52
    a224:	e6ef8078 	uxtb	r8, r8
    a228:	e5c38002 	strb	r8, [r3, #2]
    a22c:	e5dd8053 	ldrb	r8, [sp, #83]	; 0x53
    a230:	e6ef8078 	uxtb	r8, r8
    a234:	e5c38003 	strb	r8, [r3, #3]
    a238:	e5908828 	ldr	r8, [r0, #2088]	; 0x828
    a23c:	e2888004 	add	r8, r8, #4
    a240:	e58d805c 	str	r8, [sp, #92]	; 0x5c
    a244:	e59d305c 	ldr	r3, [sp, #92]	; 0x5c
    a248:	e5dd9058 	ldrb	r9, [sp, #88]	; 0x58
    a24c:	e5808828 	str	r8, [r0, #2088]	; 0x828
    a250:	e58d7060 	str	r7, [sp, #96]	; 0x60
    a254:	e6ef8079 	uxtb	r8, r9
    a258:	e5c38000 	strb	r8, [r3]
    a25c:	e5dd8059 	ldrb	r8, [sp, #89]	; 0x59
    a260:	e59d7004 	ldr	r7, [sp, #4]
    a264:	e58d6070 	str	r6, [sp, #112]	; 0x70
    a268:	e6ef8078 	uxtb	r8, r8
    a26c:	e5c38001 	strb	r8, [r3, #1]
    a270:	e5dd805a 	ldrb	r8, [sp, #90]	; 0x5a
    a274:	e58d7068 	str	r7, [sp, #104]	; 0x68
    a278:	e6ef8078 	uxtb	r8, r8
    a27c:	e5c38002 	strb	r8, [r3, #2]
    a280:	e5dd805b 	ldrb	r8, [sp, #91]	; 0x5b
    a284:	e6ef7078 	uxtb	r7, r8
    a288:	e5c37003 	strb	r7, [r3, #3]
    a28c:	e5903828 	ldr	r3, [r0, #2088]	; 0x828
    a290:	e2836004 	add	r6, r3, #4
    a294:	e58d6064 	str	r6, [sp, #100]	; 0x64
    a298:	e59d3064 	ldr	r3, [sp, #100]	; 0x64
    a29c:	e5dd7060 	ldrb	r7, [sp, #96]	; 0x60
    a2a0:	e5806828 	str	r6, [r0, #2088]	; 0x828
    a2a4:	e6ef6077 	uxtb	r6, r7
    a2a8:	e5c36000 	strb	r6, [r3]
    a2ac:	e5dd6061 	ldrb	r6, [sp, #97]	; 0x61
    a2b0:	e6ef6076 	uxtb	r6, r6
    a2b4:	e5c36001 	strb	r6, [r3, #1]
    a2b8:	e5dd6062 	ldrb	r6, [sp, #98]	; 0x62
    a2bc:	e6ef6076 	uxtb	r6, r6
    a2c0:	e5c36002 	strb	r6, [r3, #2]
    a2c4:	e5dd6063 	ldrb	r6, [sp, #99]	; 0x63
    a2c8:	e6ef6076 	uxtb	r6, r6
    a2cc:	e5c36003 	strb	r6, [r3, #3]
    a2d0:	e5906828 	ldr	r6, [r0, #2088]	; 0x828
    a2d4:	e2866004 	add	r6, r6, #4
    a2d8:	e58d606c 	str	r6, [sp, #108]	; 0x6c
    a2dc:	e59d306c 	ldr	r3, [sp, #108]	; 0x6c
    a2e0:	e5dd7068 	ldrb	r7, [sp, #104]	; 0x68
    a2e4:	e5806828 	str	r6, [r0, #2088]	; 0x828
    a2e8:	e6ef6077 	uxtb	r6, r7
    a2ec:	e5c36000 	strb	r6, [r3]
    a2f0:	e5dd6069 	ldrb	r6, [sp, #105]	; 0x69
    a2f4:	e6ef6076 	uxtb	r6, r6
    a2f8:	e5c36001 	strb	r6, [r3, #1]
    a2fc:	e5dd606a 	ldrb	r6, [sp, #106]	; 0x6a
    a300:	e58d4080 	str	r4, [sp, #128]	; 0x80
    a304:	e58d5078 	str	r5, [sp, #120]	; 0x78
    a308:	e6ef6076 	uxtb	r6, r6
    a30c:	e5c36002 	strb	r6, [r3, #2]
    a310:	e5dd606b 	ldrb	r6, [sp, #107]	; 0x6b
    a314:	e6ef6076 	uxtb	r6, r6
    a318:	e5c36003 	strb	r6, [r3, #3]
    a31c:	e5906828 	ldr	r6, [r0, #2088]	; 0x828
    a320:	e2866004 	add	r6, r6, #4
    a324:	e58d6074 	str	r6, [sp, #116]	; 0x74
    a328:	e59d3074 	ldr	r3, [sp, #116]	; 0x74
    a32c:	e5dd7070 	ldrb	r7, [sp, #112]	; 0x70
    a330:	e5806828 	str	r6, [r0, #2088]	; 0x828
    a334:	e6ef6077 	uxtb	r6, r7
    a338:	e5c36000 	strb	r6, [r3]
    a33c:	e5dd6071 	ldrb	r6, [sp, #113]	; 0x71
    a340:	e6ef4076 	uxtb	r4, r6
    a344:	e5c34001 	strb	r4, [r3, #1]
    a348:	e5dd4072 	ldrb	r4, [sp, #114]	; 0x72
    a34c:	e6ef4074 	uxtb	r4, r4
    a350:	e5c34002 	strb	r4, [r3, #2]
    a354:	e5dd4073 	ldrb	r4, [sp, #115]	; 0x73
    a358:	e6ef4074 	uxtb	r4, r4
    a35c:	e5c34003 	strb	r4, [r3, #3]
    a360:	e5904828 	ldr	r4, [r0, #2088]	; 0x828
    a364:	e2844004 	add	r4, r4, #4
    a368:	e58d407c 	str	r4, [sp, #124]	; 0x7c
    a36c:	e59d307c 	ldr	r3, [sp, #124]	; 0x7c
    a370:	e5dd5078 	ldrb	r5, [sp, #120]	; 0x78
    a374:	e5804828 	str	r4, [r0, #2088]	; 0x828
    a378:	e6ef4075 	uxtb	r4, r5
    a37c:	e5c34000 	strb	r4, [r3]
    a380:	e5dd4079 	ldrb	r4, [sp, #121]	; 0x79
    a384:	e6ef4074 	uxtb	r4, r4
    a388:	e5c34001 	strb	r4, [r3, #1]
    a38c:	e5dd407a 	ldrb	r4, [sp, #122]	; 0x7a
    a390:	e6ef4074 	uxtb	r4, r4
    a394:	e5c34002 	strb	r4, [r3, #2]
    a398:	e5dd407b 	ldrb	r4, [sp, #123]	; 0x7b
    a39c:	e6ef4074 	uxtb	r4, r4
    a3a0:	e5c34003 	strb	r4, [r3, #3]
    a3a4:	e5904828 	ldr	r4, [r0, #2088]	; 0x828
    a3a8:	e2844004 	add	r4, r4, #4
    a3ac:	e58d4084 	str	r4, [sp, #132]	; 0x84
    a3b0:	e59d3084 	ldr	r3, [sp, #132]	; 0x84
    a3b4:	e5dd5080 	ldrb	r5, [sp, #128]	; 0x80
    a3b8:	e5804828 	str	r4, [r0, #2088]	; 0x828
    a3bc:	e58d2088 	str	r2, [sp, #136]	; 0x88
    a3c0:	e6ef4075 	uxtb	r4, r5
    a3c4:	e5c34000 	strb	r4, [r3]
    a3c8:	e5dd4081 	ldrb	r4, [sp, #129]	; 0x81
    a3cc:	e58d2098 	str	r2, [sp, #152]	; 0x98
    a3d0:	e58dc090 	str	ip, [sp, #144]	; 0x90
    a3d4:	e6ef4074 	uxtb	r4, r4
    a3d8:	e5c34001 	strb	r4, [r3, #1]
    a3dc:	e5dd4082 	ldrb	r4, [sp, #130]	; 0x82
    a3e0:	e6ef4074 	uxtb	r4, r4
    a3e4:	e5c34002 	strb	r4, [r3, #2]
    a3e8:	e5dd4083 	ldrb	r4, [sp, #131]	; 0x83
    a3ec:	e6ef4074 	uxtb	r4, r4
    a3f0:	e5c34003 	strb	r4, [r3, #3]
    a3f4:	e5903828 	ldr	r3, [r0, #2088]	; 0x828
    a3f8:	e2833004 	add	r3, r3, #4
    a3fc:	e58d308c 	str	r3, [sp, #140]	; 0x8c
    a400:	e5803828 	str	r3, [r0, #2088]	; 0x828
    a404:	e59d308c 	ldr	r3, [sp, #140]	; 0x8c
    a408:	e5dd4088 	ldrb	r4, [sp, #136]	; 0x88
    a40c:	e6ef2074 	uxtb	r2, r4
    a410:	e5c32000 	strb	r2, [r3]
    a414:	e5dd2089 	ldrb	r2, [sp, #137]	; 0x89
    a418:	e6ef2072 	uxtb	r2, r2
    a41c:	e5c32001 	strb	r2, [r3, #1]
    a420:	e5dd208a 	ldrb	r2, [sp, #138]	; 0x8a
    a424:	e6ef2072 	uxtb	r2, r2
    a428:	e5c32002 	strb	r2, [r3, #2]
    a42c:	e5dd208b 	ldrb	r2, [sp, #139]	; 0x8b
    a430:	e6ef2072 	uxtb	r2, r2
    a434:	e5c32003 	strb	r2, [r3, #3]
    a438:	e5902828 	ldr	r2, [r0, #2088]	; 0x828
    a43c:	e2822004 	add	r2, r2, #4
    a440:	e58d2094 	str	r2, [sp, #148]	; 0x94
    a444:	e59d3094 	ldr	r3, [sp, #148]	; 0x94
    a448:	e5ddc090 	ldrb	ip, [sp, #144]	; 0x90
    a44c:	e5802828 	str	r2, [r0, #2088]	; 0x828
    a450:	e6ef207c 	uxtb	r2, ip
    a454:	e5c32000 	strb	r2, [r3]
    a458:	e5dd2091 	ldrb	r2, [sp, #145]	; 0x91
    a45c:	e6ef2072 	uxtb	r2, r2
    a460:	e5c32001 	strb	r2, [r3, #1]
    a464:	e5dd2092 	ldrb	r2, [sp, #146]	; 0x92
    a468:	e6ef2072 	uxtb	r2, r2
    a46c:	e5c32002 	strb	r2, [r3, #2]
    a470:	e5dd2093 	ldrb	r2, [sp, #147]	; 0x93
    a474:	e6ef2072 	uxtb	r2, r2
    a478:	e5c32003 	strb	r2, [r3, #3]
    a47c:	e5902828 	ldr	r2, [r0, #2088]	; 0x828
    a480:	e58d10a0 	str	r1, [sp, #160]	; 0xa0
    a484:	e2822004 	add	r2, r2, #4
    a488:	e58d209c 	str	r2, [sp, #156]	; 0x9c
    a48c:	e59d309c 	ldr	r3, [sp, #156]	; 0x9c
    a490:	e5ddc098 	ldrb	ip, [sp, #152]	; 0x98
    a494:	e5802828 	str	r2, [r0, #2088]	; 0x828
    a498:	e6ef207c 	uxtb	r2, ip
    a49c:	e5c32000 	strb	r2, [r3]
    a4a0:	e5dd2099 	ldrb	r2, [sp, #153]	; 0x99
    a4a4:	e6ef2072 	uxtb	r2, r2
    a4a8:	e5c32001 	strb	r2, [r3, #1]
    a4ac:	e5dd209a 	ldrb	r2, [sp, #154]	; 0x9a
    a4b0:	e6ef2072 	uxtb	r2, r2
    a4b4:	e5c32002 	strb	r2, [r3, #2]
    a4b8:	e5dd209b 	ldrb	r2, [sp, #155]	; 0x9b
    a4bc:	e6ef2072 	uxtb	r2, r2
    a4c0:	e5c32003 	strb	r2, [r3, #3]
    a4c4:	e5902828 	ldr	r2, [r0, #2088]	; 0x828
    a4c8:	e2822004 	add	r2, r2, #4
    a4cc:	e58d20a4 	str	r2, [sp, #164]	; 0xa4
    a4d0:	e59d30a4 	ldr	r3, [sp, #164]	; 0xa4
    a4d4:	e5dd10a0 	ldrb	r1, [sp, #160]	; 0xa0
    a4d8:	e5802828 	str	r2, [r0, #2088]	; 0x828
    a4dc:	e6ef2071 	uxtb	r2, r1
    a4e0:	e5c32000 	strb	r2, [r3]
    a4e4:	e5dd20a1 	ldrb	r2, [sp, #161]	; 0xa1
    a4e8:	e6ef2072 	uxtb	r2, r2
    a4ec:	e5c32001 	strb	r2, [r3, #1]
    a4f0:	e5dd20a2 	ldrb	r2, [sp, #162]	; 0xa2
    a4f4:	e6ef2072 	uxtb	r2, r2
    a4f8:	e5c32002 	strb	r2, [r3, #2]
    a4fc:	e5dd20a3 	ldrb	r2, [sp, #163]	; 0xa3
    a500:	e6ef2072 	uxtb	r2, r2
    a504:	e5c32003 	strb	r2, [r3, #3]
    a508:	e5903828 	ldr	r3, [r0, #2088]	; 0x828
    a50c:	e2833004 	add	r3, r3, #4
    a510:	e5803828 	str	r3, [r0, #2088]	; 0x828
    a514:	e28dd0a8 	add	sp, sp, #168	; 0xa8
    a518:	e8bd0ff0 	pop	{r4, r5, r6, r7, r8, r9, sl, fp}
    a51c:	e12fff1e 	bx	lr

0000a520 <V3DControlListSetupBinning>:
    a520:	e2503000 	subs	r3, r0, #0
    a524:	e3a00070 	mov	r0, #112	; 0x70
    a528:	e92d4ff0 	push	{r4, r5, r6, r7, r8, r9, sl, fp, lr}
    a52c:	e24dd03c 	sub	sp, sp, #60	; 0x3c
    a530:	05932828 	ldreq	r2, [r3, #2088]	; 0x828
    a534:	e3a01a01 	mov	r1, #4096	; 0x1000
    a538:	15932820 	ldrne	r2, [r3, #2080]	; 0x820
    a53c:	e3a09005 	mov	r9, #5
    a540:	e58d1010 	str	r1, [sp, #16]
    a544:	e3a08066 	mov	r8, #102	; 0x66
    a548:	15832828 	strne	r2, [r3, #2088]	; 0x828
    a54c:	e3a04002 	mov	r4, #2
    a550:	1583282c 	strne	r2, [r3, #2092]	; 0x82c
    a554:	e3a07067 	mov	r7, #103	; 0x67
    a558:	e5c20000 	strb	r0, [r2]
    a55c:	e3a00006 	mov	r0, #6
    a560:	e593c828 	ldr	ip, [r3, #2088]	; 0x828
    a564:	e3a02000 	mov	r2, #0
    a568:	e593e820 	ldr	lr, [r3, #2080]	; 0x820
    a56c:	e3a06060 	mov	r6, #96	; 0x60
    a570:	e28cc001 	add	ip, ip, #1
    a574:	e3a05047 	mov	r5, #71	; 0x47
    a578:	e58dc00c 	str	ip, [sp, #12]
    a57c:	e28ee602 	add	lr, lr, #2097152	; 0x200000
    a580:	e59d100c 	ldr	r1, [sp, #12]
    a584:	e58de008 	str	lr, [sp, #8]
    a588:	e5dde008 	ldrb	lr, [sp, #8]
    a58c:	e583c828 	str	ip, [r3, #2088]	; 0x828
    a590:	e6efc07e 	uxtb	ip, lr
    a594:	e3a0e041 	mov	lr, #65	; 0x41
    a598:	e5c1c000 	strb	ip, [r1]
    a59c:	e3a0c004 	mov	ip, #4
    a5a0:	e5dda009 	ldrb	sl, [sp, #9]
    a5a4:	e6efa07a 	uxtb	sl, sl
    a5a8:	e5c1a001 	strb	sl, [r1, #1]
    a5ac:	e5dda00a 	ldrb	sl, [sp, #10]
    a5b0:	e6efa07a 	uxtb	sl, sl
    a5b4:	e5c1a002 	strb	sl, [r1, #2]
    a5b8:	e5dda00b 	ldrb	sl, [sp, #11]
    a5bc:	e6efa07a 	uxtb	sl, sl
    a5c0:	e5c1a003 	strb	sl, [r1, #3]
    a5c4:	e593a828 	ldr	sl, [r3, #2088]	; 0x828
    a5c8:	e08aa00c 	add	sl, sl, ip
    a5cc:	e58da014 	str	sl, [sp, #20]
    a5d0:	e59d1014 	ldr	r1, [sp, #20]
    a5d4:	e583a828 	str	sl, [r3, #2088]	; 0x828
    a5d8:	e5dda010 	ldrb	sl, [sp, #16]
    a5dc:	e6efa07a 	uxtb	sl, sl
    a5e0:	e5c1a000 	strb	sl, [r1]
    a5e4:	e5dda011 	ldrb	sl, [sp, #17]
    a5e8:	e6efa07a 	uxtb	sl, sl
    a5ec:	e5c1a001 	strb	sl, [r1, #1]
    a5f0:	e5dda012 	ldrb	sl, [sp, #18]
    a5f4:	e6efa07a 	uxtb	sl, sl
    a5f8:	e5c1a002 	strb	sl, [r1, #2]
    a5fc:	e5dda013 	ldrb	sl, [sp, #19]
    a600:	e6efa07a 	uxtb	sl, sl
    a604:	e5c1a003 	strb	sl, [r1, #3]
    a608:	e593a828 	ldr	sl, [r3, #2088]	; 0x828
    a60c:	e5931820 	ldr	r1, [r3, #2080]	; 0x820
    a610:	e08aa00c 	add	sl, sl, ip
    a614:	e58da01c 	str	sl, [sp, #28]
    a618:	e2811802 	add	r1, r1, #131072	; 0x20000
    a61c:	e583a828 	str	sl, [r3, #2088]	; 0x828
    a620:	e58d1018 	str	r1, [sp, #24]
    a624:	e59d101c 	ldr	r1, [sp, #28]
    a628:	e5dda018 	ldrb	sl, [sp, #24]
    a62c:	e6efa07a 	uxtb	sl, sl
    a630:	e5c1a000 	strb	sl, [r1]
    a634:	e5dda019 	ldrb	sl, [sp, #25]
    a638:	e6efa07a 	uxtb	sl, sl
    a63c:	e5c1a001 	strb	sl, [r1, #1]
    a640:	e5dda01a 	ldrb	sl, [sp, #26]
    a644:	e6efa07a 	uxtb	sl, sl
    a648:	e5c1a002 	strb	sl, [r1, #2]
    a64c:	e5dda01b 	ldrb	sl, [sp, #27]
    a650:	e6efa07a 	uxtb	sl, sl
    a654:	e5c1a003 	strb	sl, [r1, #3]
    a658:	e5931828 	ldr	r1, [r3, #2088]	; 0x828
    a65c:	e593a000 	ldr	sl, [r3]
    a660:	e081b00c 	add	fp, r1, ip
    a664:	e1a0a93a 	lsr	sl, sl, r9
    a668:	e583b828 	str	fp, [r3, #2088]	; 0x828
    a66c:	e5c1a004 	strb	sl, [r1, #4]
    a670:	e5931828 	ldr	r1, [r3, #2088]	; 0x828
    a674:	e593a004 	ldr	sl, [r3, #4]
    a678:	e281b001 	add	fp, r1, #1
    a67c:	e1a0a93a 	lsr	sl, sl, r9
    a680:	e583b828 	str	fp, [r3, #2088]	; 0x828
    a684:	e5c1a001 	strb	sl, [r1, #1]
    a688:	e5931828 	ldr	r1, [r3, #2088]	; 0x828
    a68c:	e281a001 	add	sl, r1, #1
    a690:	e583a828 	str	sl, [r3, #2088]	; 0x828
    a694:	e5c19001 	strb	r9, [r1, #1]
    a698:	e1a01002 	mov	r1, r2
    a69c:	e5939828 	ldr	r9, [r3, #2088]	; 0x828
    a6a0:	e289a001 	add	sl, r9, #1
    a6a4:	e583a828 	str	sl, [r3, #2088]	; 0x828
    a6a8:	e5c90001 	strb	r0, [r9, #1]
    a6ac:	e1a00003 	mov	r0, r3
    a6b0:	e5939828 	ldr	r9, [r3, #2088]	; 0x828
    a6b4:	e289a001 	add	sl, r9, #1
    a6b8:	e583a828 	str	sl, [r3, #2088]	; 0x828
    a6bc:	e5c98001 	strb	r8, [r9, #1]
    a6c0:	e5938828 	ldr	r8, [r3, #2088]	; 0x828
    a6c4:	e2889001 	add	r9, r8, #1
    a6c8:	e5839828 	str	r9, [r3, #2088]	; 0x828
    a6cc:	e5c82001 	strb	r2, [r8, #1]
    a6d0:	e5938828 	ldr	r8, [r3, #2088]	; 0x828
    a6d4:	e5c82001 	strb	r2, [r8, #1]
    a6d8:	e5938828 	ldr	r8, [r3, #2088]	; 0x828
    a6dc:	e0889004 	add	r9, r8, r4
    a6e0:	e5839828 	str	r9, [r3, #2088]	; 0x828
    a6e4:	e5c82002 	strb	r2, [r8, #2]
    a6e8:	e5938828 	ldr	r8, [r3, #2088]	; 0x828
    a6ec:	e5c82001 	strb	r2, [r8, #1]
    a6f0:	e5938828 	ldr	r8, [r3, #2088]	; 0x828
    a6f4:	e0889004 	add	r9, r8, r4
    a6f8:	e5839828 	str	r9, [r3, #2088]	; 0x828
    a6fc:	e5939000 	ldr	r9, [r3]
    a700:	e5c89002 	strb	r9, [r8, #2]
    a704:	e5938828 	ldr	r8, [r3, #2088]	; 0x828
    a708:	e7e7a459 	ubfx	sl, r9, #8, #8
    a70c:	e5c8a001 	strb	sl, [r8, #1]
    a710:	e593a828 	ldr	sl, [r3, #2088]	; 0x828
    a714:	e5938004 	ldr	r8, [r3, #4]
    a718:	e1cd90b4 	strh	r9, [sp, #4]
    a71c:	e08a9004 	add	r9, sl, r4
    a720:	e5839828 	str	r9, [r3, #2088]	; 0x828
    a724:	e5ca8002 	strb	r8, [sl, #2]
    a728:	e5939828 	ldr	r9, [r3, #2088]	; 0x828
    a72c:	e7e7a458 	ubfx	sl, r8, #8, #8
    a730:	e5c9a001 	strb	sl, [r9, #1]
    a734:	e5939828 	ldr	r9, [r3, #2088]	; 0x828
    a738:	e1cd80b6 	strh	r8, [sp, #6]
    a73c:	e0898004 	add	r8, r9, r4
    a740:	e5838828 	str	r8, [r3, #2088]	; 0x828
    a744:	e5c97002 	strb	r7, [r9, #2]
    a748:	e5937828 	ldr	r7, [r3, #2088]	; 0x828
    a74c:	e2878001 	add	r8, r7, #1
    a750:	e5838828 	str	r8, [r3, #2088]	; 0x828
    a754:	e5c72001 	strb	r2, [r7, #1]
    a758:	e5937828 	ldr	r7, [r3, #2088]	; 0x828
    a75c:	e5c72001 	strb	r2, [r7, #1]
    a760:	e5937828 	ldr	r7, [r3, #2088]	; 0x828
    a764:	e0878004 	add	r8, r7, r4
    a768:	e5838828 	str	r8, [r3, #2088]	; 0x828
    a76c:	e5c72002 	strb	r2, [r7, #2]
    a770:	e5937828 	ldr	r7, [r3, #2088]	; 0x828
    a774:	e5c72001 	strb	r2, [r7, #1]
    a778:	e5937828 	ldr	r7, [r3, #2088]	; 0x828
    a77c:	e0878004 	add	r8, r7, r4
    a780:	e5838828 	str	r8, [r3, #2088]	; 0x828
    a784:	e5c76002 	strb	r6, [r7, #2]
    a788:	e5936828 	ldr	r6, [r3, #2088]	; 0x828
    a78c:	e2867001 	add	r7, r6, #1
    a790:	e5837828 	str	r7, [r3, #2088]	; 0x828
    a794:	e5c65001 	strb	r5, [r6, #1]
    a798:	e5935828 	ldr	r5, [r3, #2088]	; 0x828
    a79c:	e2856001 	add	r6, r5, #1
    a7a0:	e5836828 	str	r6, [r3, #2088]	; 0x828
    a7a4:	e5c54001 	strb	r4, [r5, #1]
    a7a8:	e5934828 	ldr	r4, [r3, #2088]	; 0x828
    a7ac:	e2845001 	add	r5, r4, #1
    a7b0:	e5835828 	str	r5, [r3, #2088]	; 0x828
    a7b4:	e5c42001 	strb	r2, [r4, #1]
    a7b8:	e5934828 	ldr	r4, [r3, #2088]	; 0x828
    a7bc:	e2845001 	add	r5, r4, #1
    a7c0:	e5835828 	str	r5, [r3, #2088]	; 0x828
    a7c4:	e5c4e001 	strb	lr, [r4, #1]
    a7c8:	e5934828 	ldr	r4, [r3, #2088]	; 0x828
    a7cc:	e5935820 	ldr	r5, [r3, #2080]	; 0x820
    a7d0:	e2844001 	add	r4, r4, #1
    a7d4:	e58d4024 	str	r4, [sp, #36]	; 0x24
    a7d8:	e2855801 	add	r5, r5, #65536	; 0x10000
    a7dc:	e59de024 	ldr	lr, [sp, #36]	; 0x24
    a7e0:	e58d5020 	str	r5, [sp, #32]
    a7e4:	e5dd5020 	ldrb	r5, [sp, #32]
    a7e8:	e5834828 	str	r4, [r3, #2088]	; 0x828
    a7ec:	e6ef4075 	uxtb	r4, r5
    a7f0:	e5ce4000 	strb	r4, [lr]
    a7f4:	e5dd4021 	ldrb	r4, [sp, #33]	; 0x21
    a7f8:	e6ef4074 	uxtb	r4, r4
    a7fc:	e5ce4001 	strb	r4, [lr, #1]
    a800:	e5dd4022 	ldrb	r4, [sp, #34]	; 0x22
    a804:	e6ef4074 	uxtb	r4, r4
    a808:	e5ce4002 	strb	r4, [lr, #2]
    a80c:	e5dd4023 	ldrb	r4, [sp, #35]	; 0x23
    a810:	e6ef4074 	uxtb	r4, r4
    a814:	e5ce4003 	strb	r4, [lr, #3]
    a818:	e593e828 	ldr	lr, [r3, #2088]	; 0x828
    a81c:	e08e400c 	add	r4, lr, ip
    a820:	e5834828 	str	r4, [r3, #2088]	; 0x828
    a824:	e3a04021 	mov	r4, #33	; 0x21
    a828:	e5ce4004 	strb	r4, [lr, #4]
    a82c:	e593e828 	ldr	lr, [r3, #2088]	; 0x828
    a830:	e28e4001 	add	r4, lr, #1
    a834:	e5834828 	str	r4, [r3, #2088]	; 0x828
    a838:	e5cec001 	strb	ip, [lr, #1]
    a83c:	e5934828 	ldr	r4, [r3, #2088]	; 0x828
    a840:	e593e850 	ldr	lr, [r3, #2128]	; 0x850
    a844:	e2844001 	add	r4, r4, #1
    a848:	e58de028 	str	lr, [sp, #40]	; 0x28
    a84c:	e58d402c 	str	r4, [sp, #44]	; 0x2c
    a850:	e59de02c 	ldr	lr, [sp, #44]	; 0x2c
    a854:	e5dd5028 	ldrb	r5, [sp, #40]	; 0x28
    a858:	e5834828 	str	r4, [r3, #2088]	; 0x828
    a85c:	e58d2030 	str	r2, [sp, #48]	; 0x30
    a860:	e6ef4075 	uxtb	r4, r5
    a864:	e5ce4000 	strb	r4, [lr]
    a868:	e5dd4029 	ldrb	r4, [sp, #41]	; 0x29
    a86c:	e6ef2074 	uxtb	r2, r4
    a870:	e5ce2001 	strb	r2, [lr, #1]
    a874:	e5dd202a 	ldrb	r2, [sp, #42]	; 0x2a
    a878:	e6ef2072 	uxtb	r2, r2
    a87c:	e5ce2002 	strb	r2, [lr, #2]
    a880:	e5dd202b 	ldrb	r2, [sp, #43]	; 0x2b
    a884:	e6ef2072 	uxtb	r2, r2
    a888:	e5ce2003 	strb	r2, [lr, #3]
    a88c:	e593e828 	ldr	lr, [r3, #2088]	; 0x828
    a890:	e08ee00c 	add	lr, lr, ip
    a894:	e58de034 	str	lr, [sp, #52]	; 0x34
    a898:	e59d2034 	ldr	r2, [sp, #52]	; 0x34
    a89c:	e5dd4030 	ldrb	r4, [sp, #48]	; 0x30
    a8a0:	e583e828 	str	lr, [r3, #2088]	; 0x828
    a8a4:	e6efe074 	uxtb	lr, r4
    a8a8:	e5c2e000 	strb	lr, [r2]
    a8ac:	e5dde031 	ldrb	lr, [sp, #49]	; 0x31
    a8b0:	e6efe07e 	uxtb	lr, lr
    a8b4:	e5c2e001 	strb	lr, [r2, #1]
    a8b8:	e5dde032 	ldrb	lr, [sp, #50]	; 0x32
    a8bc:	e6efe07e 	uxtb	lr, lr
    a8c0:	e5c2e002 	strb	lr, [r2, #2]
    a8c4:	e5dde033 	ldrb	lr, [sp, #51]	; 0x33
    a8c8:	e6efe07e 	uxtb	lr, lr
    a8cc:	e5c2e003 	strb	lr, [r2, #3]
    a8d0:	e5932828 	ldr	r2, [r3, #2088]	; 0x828
    a8d4:	e082e00c 	add	lr, r2, ip
    a8d8:	e583e828 	str	lr, [r3, #2088]	; 0x828
    a8dc:	e5c2c004 	strb	ip, [r2, #4]
    a8e0:	e5932828 	ldr	r2, [r3, #2088]	; 0x828
    a8e4:	e282c001 	add	ip, r2, #1
    a8e8:	e583c828 	str	ip, [r3, #2088]	; 0x828
    a8ec:	e3a0c001 	mov	ip, #1
    a8f0:	e5c2c001 	strb	ip, [r2, #1]
    a8f4:	e5932828 	ldr	r2, [r3, #2088]	; 0x828
    a8f8:	e2822001 	add	r2, r2, #1
    a8fc:	e5832828 	str	r2, [r3, #2088]	; 0x828
    a900:	ebfffc69 	bl	9aac <V3DSaveOffset>
    a904:	e28dd03c 	add	sp, sp, #60	; 0x3c
    a908:	e8bd8ff0 	pop	{r4, r5, r6, r7, r8, r9, sl, fp, pc}

0000a90c <V3DControlListSetupRendering>:
    a90c:	e2503000 	subs	r3, r0, #0
    a910:	e3a00072 	mov	r0, #114	; 0x72
    a914:	e92d4ff0 	push	{r4, r5, r6, r7, r8, r9, sl, fp, lr}
    a918:	e24dd04c 	sub	sp, sp, #76	; 0x4c
    a91c:	15932820 	ldrne	r2, [r3, #2080]	; 0x820
    a920:	e3a06038 	mov	r6, #56	; 0x38
    a924:	05932828 	ldreq	r2, [r3, #2088]	; 0x828
    a928:	e3a0c032 	mov	ip, #50	; 0x32
    a92c:	e5931010 	ldr	r1, [r3, #16]
    a930:	12822902 	addne	r2, r2, #32768	; 0x8000
    a934:	15832828 	strne	r2, [r3, #2088]	; 0x828
    a938:	e3a05071 	mov	r5, #113	; 0x71
    a93c:	1583282c 	strne	r2, [r3, #2092]	; 0x82c
    a940:	e3a04005 	mov	r4, #5
    a944:	e5c20000 	strb	r0, [r2]
    a948:	e3a02000 	mov	r2, #0
    a94c:	e5930828 	ldr	r0, [r3, #2088]	; 0x828
    a950:	e3a07073 	mov	r7, #115	; 0x73
    a954:	e58d1018 	str	r1, [sp, #24]
    a958:	e3a0e01c 	mov	lr, #28
    a95c:	e58d1020 	str	r1, [sp, #32]
    a960:	e2800001 	add	r0, r0, #1
    a964:	e58d001c 	str	r0, [sp, #28]
    a968:	e59d101c 	ldr	r1, [sp, #28]
    a96c:	e5dd8018 	ldrb	r8, [sp, #24]
    a970:	e5830828 	str	r0, [r3, #2088]	; 0x828
    a974:	e58d2028 	str	r2, [sp, #40]	; 0x28
    a978:	e6ef0078 	uxtb	r0, r8
    a97c:	e5c10000 	strb	r0, [r1]
    a980:	e5dd0019 	ldrb	r0, [sp, #25]
    a984:	e6ef0070 	uxtb	r0, r0
    a988:	e5c10001 	strb	r0, [r1, #1]
    a98c:	e5dd001a 	ldrb	r0, [sp, #26]
    a990:	e6ef0070 	uxtb	r0, r0
    a994:	e5c10002 	strb	r0, [r1, #2]
    a998:	e5dd001b 	ldrb	r0, [sp, #27]
    a99c:	e6ef0070 	uxtb	r0, r0
    a9a0:	e5c10003 	strb	r0, [r1, #3]
    a9a4:	e5930828 	ldr	r0, [r3, #2088]	; 0x828
    a9a8:	e2800004 	add	r0, r0, #4
    a9ac:	e58d0024 	str	r0, [sp, #36]	; 0x24
    a9b0:	e59d1024 	ldr	r1, [sp, #36]	; 0x24
    a9b4:	e5dd8020 	ldrb	r8, [sp, #32]
    a9b8:	e5830828 	str	r0, [r3, #2088]	; 0x828
    a9bc:	e6ef0078 	uxtb	r0, r8
    a9c0:	e5c10000 	strb	r0, [r1]
    a9c4:	e5dd0021 	ldrb	r0, [sp, #33]	; 0x21
    a9c8:	e6ef0070 	uxtb	r0, r0
    a9cc:	e5c10001 	strb	r0, [r1, #1]
    a9d0:	e5dd0022 	ldrb	r0, [sp, #34]	; 0x22
    a9d4:	e6ef0070 	uxtb	r0, r0
    a9d8:	e5c10002 	strb	r0, [r1, #2]
    a9dc:	e5dd0023 	ldrb	r0, [sp, #35]	; 0x23
    a9e0:	e6ef0070 	uxtb	r0, r0
    a9e4:	e5c10003 	strb	r0, [r1, #3]
    a9e8:	e5930828 	ldr	r0, [r3, #2088]	; 0x828
    a9ec:	e2800004 	add	r0, r0, #4
    a9f0:	e58d002c 	str	r0, [sp, #44]	; 0x2c
    a9f4:	e59d102c 	ldr	r1, [sp, #44]	; 0x2c
    a9f8:	e5dd8028 	ldrb	r8, [sp, #40]	; 0x28
    a9fc:	e5830828 	str	r0, [r3, #2088]	; 0x828
    aa00:	e6ef0078 	uxtb	r0, r8
    aa04:	e5c10000 	strb	r0, [r1]
    aa08:	e5dd0029 	ldrb	r0, [sp, #41]	; 0x29
    aa0c:	e6ef0070 	uxtb	r0, r0
    aa10:	e5c10001 	strb	r0, [r1, #1]
    aa14:	e5dd002a 	ldrb	r0, [sp, #42]	; 0x2a
    aa18:	e6ef0070 	uxtb	r0, r0
    aa1c:	e5c10002 	strb	r0, [r1, #2]
    aa20:	e5dd002b 	ldrb	r0, [sp, #43]	; 0x2b
    aa24:	e6ef0070 	uxtb	r0, r0
    aa28:	e5c10003 	strb	r0, [r1, #3]
    aa2c:	e5931828 	ldr	r1, [r3, #2088]	; 0x828
    aa30:	e2810004 	add	r0, r1, #4
    aa34:	e5830828 	str	r0, [r3, #2088]	; 0x828
    aa38:	e5c12004 	strb	r2, [r1, #4]
    aa3c:	e5931828 	ldr	r1, [r3, #2088]	; 0x828
    aa40:	e2810001 	add	r0, r1, #1
    aa44:	e5830828 	str	r0, [r3, #2088]	; 0x828
    aa48:	e5c16001 	strb	r6, [r1, #1]
    aa4c:	e5931828 	ldr	r1, [r3, #2088]	; 0x828
    aa50:	e2810001 	add	r0, r1, #1
    aa54:	e5830828 	str	r0, [r3, #2088]	; 0x828
    aa58:	e5c1c001 	strb	ip, [r1, #1]
    aa5c:	e5931828 	ldr	r1, [r3, #2088]	; 0x828
    aa60:	e1d3c0b0 	ldrh	ip, [r3]
    aa64:	e5936014 	ldr	r6, [r3, #20]
    aa68:	e2810001 	add	r0, r1, #1
    aa6c:	e5830828 	str	r0, [r3, #2088]	; 0x828
    aa70:	e1d300b4 	ldrh	r0, [r3, #4]
    aa74:	e5c15001 	strb	r5, [r1, #1]
    aa78:	e5935828 	ldr	r5, [r3, #2088]	; 0x828
    aa7c:	e58d6030 	str	r6, [sp, #48]	; 0x30
    aa80:	e2855001 	add	r5, r5, #1
    aa84:	e58d5034 	str	r5, [sp, #52]	; 0x34
    aa88:	e59d1034 	ldr	r1, [sp, #52]	; 0x34
    aa8c:	e5dd6030 	ldrb	r6, [sp, #48]	; 0x30
    aa90:	e5835828 	str	r5, [r3, #2088]	; 0x828
    aa94:	e6ef5076 	uxtb	r5, r6
    aa98:	e5c15000 	strb	r5, [r1]
    aa9c:	e5dd5031 	ldrb	r5, [sp, #49]	; 0x31
    aaa0:	e1a0642c 	lsr	r6, ip, #8
    aaa4:	e1cdc1b4 	strh	ip, [sp, #20]
    aaa8:	e6ef5075 	uxtb	r5, r5
    aaac:	e5c15001 	strb	r5, [r1, #1]
    aab0:	e5dd8032 	ldrb	r8, [sp, #50]	; 0x32
    aab4:	e1a05420 	lsr	r5, r0, #8
    aab8:	e1cd01b6 	strh	r0, [sp, #22]
    aabc:	e6ef8078 	uxtb	r8, r8
    aac0:	e5c18002 	strb	r8, [r1, #2]
    aac4:	e5dd8033 	ldrb	r8, [sp, #51]	; 0x33
    aac8:	e6ef8078 	uxtb	r8, r8
    aacc:	e5c18003 	strb	r8, [r1, #3]
    aad0:	e5931828 	ldr	r1, [r3, #2088]	; 0x828
    aad4:	e2818004 	add	r8, r1, #4
    aad8:	e5838828 	str	r8, [r3, #2088]	; 0x828
    aadc:	e5c1c004 	strb	ip, [r1, #4]
    aae0:	e5931828 	ldr	r1, [r3, #2088]	; 0x828
    aae4:	e5c16001 	strb	r6, [r1, #1]
    aae8:	e5931828 	ldr	r1, [r3, #2088]	; 0x828
    aaec:	e281c002 	add	ip, r1, #2
    aaf0:	e583c828 	str	ip, [r3, #2088]	; 0x828
    aaf4:	e5c10002 	strb	r0, [r1, #2]
    aaf8:	e5931828 	ldr	r1, [r3, #2088]	; 0x828
    aafc:	e5c15001 	strb	r5, [r1, #1]
    ab00:	e5931828 	ldr	r1, [r3, #2088]	; 0x828
    ab04:	e2810002 	add	r0, r1, #2
    ab08:	e5830828 	str	r0, [r3, #2088]	; 0x828
    ab0c:	e5c14002 	strb	r4, [r1, #2]
    ab10:	e5931828 	ldr	r1, [r3, #2088]	; 0x828
    ab14:	e2810001 	add	r0, r1, #1
    ab18:	e5830828 	str	r0, [r3, #2088]	; 0x828
    ab1c:	e5c12001 	strb	r2, [r1, #1]
    ab20:	e5931828 	ldr	r1, [r3, #2088]	; 0x828
    ab24:	e2810001 	add	r0, r1, #1
    ab28:	e5830828 	str	r0, [r3, #2088]	; 0x828
    ab2c:	e5c17001 	strb	r7, [r1, #1]
    ab30:	e5931828 	ldr	r1, [r3, #2088]	; 0x828
    ab34:	e2810001 	add	r0, r1, #1
    ab38:	e5830828 	str	r0, [r3, #2088]	; 0x828
    ab3c:	e5c12001 	strb	r2, [r1, #1]
    ab40:	e5931828 	ldr	r1, [r3, #2088]	; 0x828
    ab44:	e2810001 	add	r0, r1, #1
    ab48:	e5830828 	str	r0, [r3, #2088]	; 0x828
    ab4c:	e5c12001 	strb	r2, [r1, #1]
    ab50:	e5931828 	ldr	r1, [r3, #2088]	; 0x828
    ab54:	e2810001 	add	r0, r1, #1
    ab58:	e5830828 	str	r0, [r3, #2088]	; 0x828
    ab5c:	e5c1e001 	strb	lr, [r1, #1]
    ab60:	e5931828 	ldr	r1, [r3, #2088]	; 0x828
    ab64:	e58d2038 	str	r2, [sp, #56]	; 0x38
    ab68:	e2810001 	add	r0, r1, #1
    ab6c:	e5830828 	str	r0, [r3, #2088]	; 0x828
    ab70:	e5c12001 	strb	r2, [r1, #1]
    ab74:	e5931828 	ldr	r1, [r3, #2088]	; 0x828
    ab78:	e5c12001 	strb	r2, [r1, #1]
    ab7c:	e5930828 	ldr	r0, [r3, #2088]	; 0x828
    ab80:	e2800002 	add	r0, r0, #2
    ab84:	e58d003c 	str	r0, [sp, #60]	; 0x3c
    ab88:	e59d103c 	ldr	r1, [sp, #60]	; 0x3c
    ab8c:	e5ddc038 	ldrb	ip, [sp, #56]	; 0x38
    ab90:	e5830828 	str	r0, [r3, #2088]	; 0x828
    ab94:	e6ef007c 	uxtb	r0, ip
    ab98:	e5c10000 	strb	r0, [r1]
    ab9c:	e5dd0039 	ldrb	r0, [sp, #57]	; 0x39
    aba0:	e6ef0070 	uxtb	r0, r0
    aba4:	e5c10001 	strb	r0, [r1, #1]
    aba8:	e5dd003a 	ldrb	r0, [sp, #58]	; 0x3a
    abac:	e6ef0070 	uxtb	r0, r0
    abb0:	e5c10002 	strb	r0, [r1, #2]
    abb4:	e5dd003b 	ldrb	r0, [sp, #59]	; 0x3b
    abb8:	e6ef0070 	uxtb	r0, r0
    abbc:	e5c10003 	strb	r0, [r1, #3]
    abc0:	e5931004 	ldr	r1, [r3, #4]
    abc4:	e593c828 	ldr	ip, [r3, #2088]	; 0x828
    abc8:	e1a01431 	lsr	r1, r1, r4
    abcc:	e593e000 	ldr	lr, [r3]
    abd0:	e28cc004 	add	ip, ip, #4
    abd4:	e1510002 	cmp	r1, r2
    abd8:	e1a0e43e 	lsr	lr, lr, r4
    abdc:	e58d1008 	str	r1, [sp, #8]
    abe0:	e0080e91 	mul	r8, r1, lr
    abe4:	e583c828 	str	ip, [r3, #2088]	; 0x828
    abe8:	da000046 	ble	ad08 <V3DControlListSetupRendering+0x3fc>
    abec:	e58d2004 	str	r2, [sp, #4]
    abf0:	e2488001 	sub	r8, r8, #1
    abf4:	e1a0a002 	mov	sl, r2
    abf8:	e1a04002 	mov	r4, r2
    abfc:	e3a06011 	mov	r6, #17
    ac00:	e3a09018 	mov	r9, #24
    ac04:	e1a0128e 	lsl	r1, lr, #5
    ac08:	e58d100c 	str	r1, [sp, #12]
    ac0c:	e35e0000 	cmp	lr, #0
    ac10:	da000034 	ble	ace8 <V3DControlListSetupRendering+0x3dc>
    ac14:	e59d0004 	ldr	r0, [sp, #4]
    ac18:	e6ef507a 	uxtb	r5, sl
    ac1c:	e3a02000 	mov	r2, #0
    ac20:	e5cc7000 	strb	r7, [ip]
    ac24:	e5931828 	ldr	r1, [r3, #2088]	; 0x828
    ac28:	e082c004 	add	ip, r2, r4
    ac2c:	e158000c 	cmp	r8, ip
    ac30:	e281c001 	add	ip, r1, #1
    ac34:	e583c828 	str	ip, [r3, #2088]	; 0x828
    ac38:	e5c12001 	strb	r2, [r1, #1]
    ac3c:	e2822001 	add	r2, r2, #1
    ac40:	e5931828 	ldr	r1, [r3, #2088]	; 0x828
    ac44:	e281c001 	add	ip, r1, #1
    ac48:	e583c828 	str	ip, [r3, #2088]	; 0x828
    ac4c:	e5c15001 	strb	r5, [r1, #1]
    ac50:	e5931828 	ldr	r1, [r3, #2088]	; 0x828
    ac54:	e593b820 	ldr	fp, [r3, #2080]	; 0x820
    ac58:	e281c001 	add	ip, r1, #1
    ac5c:	e583c828 	str	ip, [r3, #2088]	; 0x828
    ac60:	e28bb602 	add	fp, fp, #2097152	; 0x200000
    ac64:	e5c16001 	strb	r6, [r1, #1]
    ac68:	e593c828 	ldr	ip, [r3, #2088]	; 0x828
    ac6c:	e080100b 	add	r1, r0, fp
    ac70:	e2800020 	add	r0, r0, #32
    ac74:	e58d1040 	str	r1, [sp, #64]	; 0x40
    ac78:	e28cc001 	add	ip, ip, #1
    ac7c:	e58dc044 	str	ip, [sp, #68]	; 0x44
    ac80:	e59d1044 	ldr	r1, [sp, #68]	; 0x44
    ac84:	e5ddb040 	ldrb	fp, [sp, #64]	; 0x40
    ac88:	e583c828 	str	ip, [r3, #2088]	; 0x828
    ac8c:	e6efc07b 	uxtb	ip, fp
    ac90:	e5c1c000 	strb	ip, [r1]
    ac94:	e5ddc041 	ldrb	ip, [sp, #65]	; 0x41
    ac98:	e6efc07c 	uxtb	ip, ip
    ac9c:	e5c1c001 	strb	ip, [r1, #1]
    aca0:	e5ddc042 	ldrb	ip, [sp, #66]	; 0x42
    aca4:	e6efc07c 	uxtb	ip, ip
    aca8:	e5c1c002 	strb	ip, [r1, #2]
    acac:	e5ddc043 	ldrb	ip, [sp, #67]	; 0x43
    acb0:	e6efc07c 	uxtb	ip, ip
    acb4:	e5c1c003 	strb	ip, [r1, #3]
    acb8:	e5931828 	ldr	r1, [r3, #2088]	; 0x828
    acbc:	e281c004 	add	ip, r1, #4
    acc0:	e583c828 	str	ip, [r3, #2088]	; 0x828
    acc4:	03a0c019 	moveq	ip, #25
    acc8:	05c1c004 	strbeq	ip, [r1, #4]
    accc:	15c19004 	strbne	r9, [r1, #4]
    acd0:	e593c828 	ldr	ip, [r3, #2088]	; 0x828
    acd4:	e15e0002 	cmp	lr, r2
    acd8:	e28cc001 	add	ip, ip, #1
    acdc:	e583c828 	str	ip, [r3, #2088]	; 0x828
    ace0:	1affffce 	bne	ac20 <V3DControlListSetupRendering+0x314>
    ace4:	e084400e 	add	r4, r4, lr
    ace8:	e59d1004 	ldr	r1, [sp, #4]
    acec:	e28aa001 	add	sl, sl, #1
    acf0:	e59d200c 	ldr	r2, [sp, #12]
    acf4:	e0811002 	add	r1, r1, r2
    acf8:	e58d1004 	str	r1, [sp, #4]
    acfc:	e59d1008 	ldr	r1, [sp, #8]
    ad00:	e151000a 	cmp	r1, sl
    ad04:	1affffc0 	bne	ac0c <V3DControlListSetupRendering+0x300>
    ad08:	e3a01001 	mov	r1, #1
    ad0c:	e1a00003 	mov	r0, r3
    ad10:	e5cc1000 	strb	r1, [ip]
    ad14:	e5932828 	ldr	r2, [r3, #2088]	; 0x828
    ad18:	e0822001 	add	r2, r2, r1
    ad1c:	e5832828 	str	r2, [r3, #2088]	; 0x828
    ad20:	ebfffb61 	bl	9aac <V3DSaveOffset>
    ad24:	e28dd04c 	add	sp, sp, #76	; 0x4c
    ad28:	e8bd8ff0 	pop	{r4, r5, r6, r7, r8, r9, sl, fp, pc}

0000ad2c <V3DControlReset>:
    ad2c:	e3a035ff 	mov	r3, #1069547520	; 0x3fc00000
    ad30:	e3a02902 	mov	r2, #32768	; 0x8000
    ad34:	e5832100 	str	r2, [r3, #256]	; 0x100
    ad38:	e5832104 	str	r2, [r3, #260]	; 0x104
    ad3c:	e12fff1e 	bx	lr

0000ad40 <V3DControlPresentBinning>:
    ad40:	e3a035ff 	mov	r3, #1069547520	; 0x3fc00000
    ad44:	e3a01001 	mov	r1, #1
    ad48:	e1a02003 	mov	r2, r3
    ad4c:	e5831134 	str	r1, [r3, #308]	; 0x134
    ad50:	e5901834 	ldr	r1, [r0, #2100]	; 0x834
    ad54:	e5831110 	str	r1, [r3, #272]	; 0x110
    ad58:	e5901838 	ldr	r1, [r0, #2104]	; 0x838
    ad5c:	e5831108 	str	r1, [r3, #264]	; 0x108
    ad60:	e5923134 	ldr	r3, [r2, #308]	; 0x134
    ad64:	e3530000 	cmp	r3, #0
    ad68:	0afffffc 	beq	ad60 <V3DControlPresentBinning+0x20>
    ad6c:	e12fff1e 	bx	lr

0000ad70 <V3DControlPresentRendering>:
    ad70:	e3a035ff 	mov	r3, #1069547520	; 0x3fc00000
    ad74:	e3a01001 	mov	r1, #1
    ad78:	e1a02003 	mov	r2, r3
    ad7c:	e5831138 	str	r1, [r3, #312]	; 0x138
    ad80:	e590183c 	ldr	r1, [r0, #2108]	; 0x83c
    ad84:	e5831114 	str	r1, [r3, #276]	; 0x114
    ad88:	e5901840 	ldr	r1, [r0, #2112]	; 0x840
    ad8c:	e583110c 	str	r1, [r3, #268]	; 0x10c
    ad90:	e5923138 	ldr	r3, [r2, #312]	; 0x138
    ad94:	e3530000 	cmp	r3, #0
    ad98:	0afffffc 	beq	ad90 <V3DControlPresentRendering+0x20>
    ad9c:	e5903854 	ldr	r3, [r0, #2132]	; 0x854
    ada0:	e2833001 	add	r3, r3, #1
    ada4:	e5803854 	str	r3, [r0, #2132]	; 0x854
    ada8:	e12fff1e 	bx	lr

0000adac <V3DNVVertexAdd>:
    adac:	e5903828 	ldr	r3, [r0, #2088]	; 0x828
    adb0:	e1c310b0 	strh	r1, [r3]
    adb4:	e1c320b2 	strh	r2, [r3, #2]
    adb8:	e5901828 	ldr	r1, [r0, #2088]	; 0x828
    adbc:	e5902850 	ldr	r2, [r0, #2128]	; 0x850
    adc0:	ed830a01 	vstr	s0, [r3, #4]
    adc4:	e2811024 	add	r1, r1, #36	; 0x24
    adc8:	edc30a02 	vstr	s1, [r3, #8]
    adcc:	e2822001 	add	r2, r2, #1
    add0:	ed831a03 	vstr	s2, [r3, #12]
    add4:	edc31a04 	vstr	s3, [r3, #16]
    add8:	ed832a05 	vstr	s4, [r3, #20]
    addc:	edc32a06 	vstr	s5, [r3, #24]
    ade0:	ed833a07 	vstr	s6, [r3, #28]
    ade4:	edc33a08 	vstr	s7, [r3, #32]
    ade8:	e5801828 	str	r1, [r0, #2088]	; 0x828
    adec:	e5802850 	str	r2, [r0, #2128]	; 0x850
    adf0:	e12fff1e 	bx	lr

0000adf4 <V3DSetBlendState>:
    adf4:	e5801008 	str	r1, [r0, #8]
    adf8:	e12fff1e 	bx	lr

0000adfc <V3DSetClearColor>:
    adfc:	e5801010 	str	r1, [r0, #16]
    ae00:	e12fff1e 	bx	lr

0000ae04 <V3DSetDrawPrimitive>:
    ae04:	e92d47f0 	push	{r4, r5, r6, r7, r8, r9, sl, lr}
    ae08:	e1a04000 	mov	r4, r0
    ae0c:	e590e818 	ldr	lr, [r0, #2072]	; 0x818
    ae10:	e1a00001 	mov	r0, r1
    ae14:	e30cc000 	movw	ip, #49152	; 0xc000
    ae18:	e3a06000 	mov	r6, #0
    ae1c:	e1a0120e 	lsl	r1, lr, #4
    ae20:	e3a08024 	mov	r8, #36	; 0x24
    ae24:	e340c001 	movt	ip, #1
    ae28:	e2811018 	add	r1, r1, #24
    ae2c:	e0845001 	add	r5, r4, r1
    ae30:	e28ee001 	add	lr, lr, #1
    ae34:	e584e818 	str	lr, [r4, #2072]	; 0x818
    ae38:	e3a07006 	mov	r7, #6
    ae3c:	e7c46001 	strb	r6, [r4, r1]
    ae40:	e24dd018 	sub	sp, sp, #24
    ae44:	e5c56002 	strb	r6, [r5, #2]
    ae48:	e1a09002 	mov	r9, r2
    ae4c:	e5856008 	str	r6, [r5, #8]
    ae50:	e1a0a003 	mov	sl, r3
    ae54:	e5c58001 	strb	r8, [r5, #1]
    ae58:	e5c57003 	strb	r7, [r5, #3]
    ae5c:	e585c004 	str	ip, [r5, #4]
    ae60:	ebfff542 	bl	8370 <ArmToVc>
    ae64:	e5943828 	ldr	r3, [r4, #2088]	; 0x828
    ae68:	e3a02041 	mov	r2, #65	; 0x41
    ae6c:	e585000c 	str	r0, [r5, #12]
    ae70:	e3a00021 	mov	r0, #33	; 0x21
    ae74:	e5c32000 	strb	r2, [r3]
    ae78:	e5941828 	ldr	r1, [r4, #2088]	; 0x828
    ae7c:	e58d5000 	str	r5, [sp]
    ae80:	e58d9008 	str	r9, [sp, #8]
    ae84:	e2811001 	add	r1, r1, #1
    ae88:	e58d1004 	str	r1, [sp, #4]
    ae8c:	e59d2004 	ldr	r2, [sp, #4]
    ae90:	e5dd3000 	ldrb	r3, [sp]
    ae94:	e5841828 	str	r1, [r4, #2088]	; 0x828
    ae98:	e6ef3073 	uxtb	r3, r3
    ae9c:	e5c23000 	strb	r3, [r2]
    aea0:	e5dd3001 	ldrb	r3, [sp, #1]
    aea4:	e6ef3073 	uxtb	r3, r3
    aea8:	e5c23001 	strb	r3, [r2, #1]
    aeac:	e5dd3002 	ldrb	r3, [sp, #2]
    aeb0:	e6ef3073 	uxtb	r3, r3
    aeb4:	e5c23002 	strb	r3, [r2, #2]
    aeb8:	e5dd3003 	ldrb	r3, [sp, #3]
    aebc:	e6ef3073 	uxtb	r3, r3
    aec0:	e5c23003 	strb	r3, [r2, #3]
    aec4:	e5942828 	ldr	r2, [r4, #2088]	; 0x828
    aec8:	e2823004 	add	r3, r2, #4
    aecc:	e5843828 	str	r3, [r4, #2088]	; 0x828
    aed0:	e5c20004 	strb	r0, [r2, #4]
    aed4:	e5942828 	ldr	r2, [r4, #2088]	; 0x828
    aed8:	e2823001 	add	r3, r2, #1
    aedc:	e5843828 	str	r3, [r4, #2088]	; 0x828
    aee0:	e5c2a001 	strb	sl, [r2, #1]
    aee4:	e5942828 	ldr	r2, [r4, #2088]	; 0x828
    aee8:	e2822001 	add	r2, r2, #1
    aeec:	e58d200c 	str	r2, [sp, #12]
    aef0:	e59d300c 	ldr	r3, [sp, #12]
    aef4:	e5dd1008 	ldrb	r1, [sp, #8]
    aef8:	e5842828 	str	r2, [r4, #2088]	; 0x828
    aefc:	e6ef2071 	uxtb	r2, r1
    af00:	e5c32000 	strb	r2, [r3]
    af04:	e5dd2009 	ldrb	r2, [sp, #9]
    af08:	e6ef2072 	uxtb	r2, r2
    af0c:	e5c32001 	strb	r2, [r3, #1]
    af10:	e5dd200a 	ldrb	r2, [sp, #10]
    af14:	e6ef2072 	uxtb	r2, r2
    af18:	e5c32002 	strb	r2, [r3, #2]
    af1c:	e5dd200b 	ldrb	r2, [sp, #11]
    af20:	e6ef2072 	uxtb	r2, r2
    af24:	e5c32003 	strb	r2, [r3, #3]
    af28:	e5942828 	ldr	r2, [r4, #2088]	; 0x828
    af2c:	e58d6010 	str	r6, [sp, #16]
    af30:	e2822004 	add	r2, r2, #4
    af34:	e58d2014 	str	r2, [sp, #20]
    af38:	e59d3014 	ldr	r3, [sp, #20]
    af3c:	e5dd1010 	ldrb	r1, [sp, #16]
    af40:	e5842828 	str	r2, [r4, #2088]	; 0x828
    af44:	e6ef2071 	uxtb	r2, r1
    af48:	e5c32000 	strb	r2, [r3]
    af4c:	e5dd2011 	ldrb	r2, [sp, #17]
    af50:	e6ef2072 	uxtb	r2, r2
    af54:	e5c32001 	strb	r2, [r3, #1]
    af58:	e5dd2012 	ldrb	r2, [sp, #18]
    af5c:	e6ef2072 	uxtb	r2, r2
    af60:	e5c32002 	strb	r2, [r3, #2]
    af64:	e5dd2013 	ldrb	r2, [sp, #19]
    af68:	e6ef2072 	uxtb	r2, r2
    af6c:	e5c32003 	strb	r2, [r3, #3]
    af70:	e5943828 	ldr	r3, [r4, #2088]	; 0x828
    af74:	e2833004 	add	r3, r3, #4
    af78:	e5843828 	str	r3, [r4, #2088]	; 0x828
    af7c:	e28dd018 	add	sp, sp, #24
    af80:	e8bd87f0 	pop	{r4, r5, r6, r7, r8, r9, sl, pc}

0000af84 <V3DBeginScene>:
    af84:	e2503000 	subs	r3, r0, #0
    af88:	e3a00070 	mov	r0, #112	; 0x70
    af8c:	e92d0ff0 	push	{r4, r5, r6, r7, r8, r9, sl, fp}
    af90:	e24dd020 	sub	sp, sp, #32
    af94:	05932828 	ldreq	r2, [r3, #2088]	; 0x828
    af98:	e3a01a01 	mov	r1, #4096	; 0x1000
    af9c:	15932820 	ldrne	r2, [r3, #2080]	; 0x820
    afa0:	e3a09005 	mov	r9, #5
    afa4:	e58d1010 	str	r1, [sp, #16]
    afa8:	e3a08006 	mov	r8, #6
    afac:	15832828 	strne	r2, [r3, #2088]	; 0x828
    afb0:	e3a06066 	mov	r6, #102	; 0x66
    afb4:	1583282c 	strne	r2, [r3, #2092]	; 0x82c
    afb8:	e3a07067 	mov	r7, #103	; 0x67
    afbc:	e5c20000 	strb	r0, [r2]
    afc0:	e3a02000 	mov	r2, #0
    afc4:	e5930828 	ldr	r0, [r3, #2088]	; 0x828
    afc8:	e3a05060 	mov	r5, #96	; 0x60
    afcc:	e593c820 	ldr	ip, [r3, #2080]	; 0x820
    afd0:	e3a04047 	mov	r4, #71	; 0x47
    afd4:	e2800001 	add	r0, r0, #1
    afd8:	e58d000c 	str	r0, [sp, #12]
    afdc:	e28cc602 	add	ip, ip, #2097152	; 0x200000
    afe0:	e59d100c 	ldr	r1, [sp, #12]
    afe4:	e58dc008 	str	ip, [sp, #8]
    afe8:	e5ddc008 	ldrb	ip, [sp, #8]
    afec:	e5830828 	str	r0, [r3, #2088]	; 0x828
    aff0:	e6ef007c 	uxtb	r0, ip
    aff4:	e3a0c002 	mov	ip, #2
    aff8:	e5c10000 	strb	r0, [r1]
    affc:	e1a00002 	mov	r0, r2
    b000:	e5dda009 	ldrb	sl, [sp, #9]
    b004:	e6efa07a 	uxtb	sl, sl
    b008:	e5c1a001 	strb	sl, [r1, #1]
    b00c:	e5dda00a 	ldrb	sl, [sp, #10]
    b010:	e6efa07a 	uxtb	sl, sl
    b014:	e5c1a002 	strb	sl, [r1, #2]
    b018:	e5dda00b 	ldrb	sl, [sp, #11]
    b01c:	e6efa07a 	uxtb	sl, sl
    b020:	e5c1a003 	strb	sl, [r1, #3]
    b024:	e593a828 	ldr	sl, [r3, #2088]	; 0x828
    b028:	e28aa004 	add	sl, sl, #4
    b02c:	e58da014 	str	sl, [sp, #20]
    b030:	e59d1014 	ldr	r1, [sp, #20]
    b034:	e5ddb010 	ldrb	fp, [sp, #16]
    b038:	e583a828 	str	sl, [r3, #2088]	; 0x828
    b03c:	e6efa07b 	uxtb	sl, fp
    b040:	e5c1a000 	strb	sl, [r1]
    b044:	e5dda011 	ldrb	sl, [sp, #17]
    b048:	e6efa07a 	uxtb	sl, sl
    b04c:	e5c1a001 	strb	sl, [r1, #1]
    b050:	e5dda012 	ldrb	sl, [sp, #18]
    b054:	e6efa07a 	uxtb	sl, sl
    b058:	e5c1a002 	strb	sl, [r1, #2]
    b05c:	e5dda013 	ldrb	sl, [sp, #19]
    b060:	e6efa07a 	uxtb	sl, sl
    b064:	e5c1a003 	strb	sl, [r1, #3]
    b068:	e593a828 	ldr	sl, [r3, #2088]	; 0x828
    b06c:	e5931820 	ldr	r1, [r3, #2080]	; 0x820
    b070:	e28aa004 	add	sl, sl, #4
    b074:	e58da01c 	str	sl, [sp, #28]
    b078:	e2811802 	add	r1, r1, #131072	; 0x20000
    b07c:	e58d1018 	str	r1, [sp, #24]
    b080:	e59d101c 	ldr	r1, [sp, #28]
    b084:	e5ddb018 	ldrb	fp, [sp, #24]
    b088:	e583a828 	str	sl, [r3, #2088]	; 0x828
    b08c:	e6efa07b 	uxtb	sl, fp
    b090:	e5c1a000 	strb	sl, [r1]
    b094:	e5dda019 	ldrb	sl, [sp, #25]
    b098:	e6efa07a 	uxtb	sl, sl
    b09c:	e5c1a001 	strb	sl, [r1, #1]
    b0a0:	e5dda01a 	ldrb	sl, [sp, #26]
    b0a4:	e6efa07a 	uxtb	sl, sl
    b0a8:	e5c1a002 	strb	sl, [r1, #2]
    b0ac:	e5dda01b 	ldrb	sl, [sp, #27]
    b0b0:	e6efa07a 	uxtb	sl, sl
    b0b4:	e5c1a003 	strb	sl, [r1, #3]
    b0b8:	e5931828 	ldr	r1, [r3, #2088]	; 0x828
    b0bc:	e593a000 	ldr	sl, [r3]
    b0c0:	e281b004 	add	fp, r1, #4
    b0c4:	e1a0a93a 	lsr	sl, sl, r9
    b0c8:	e583b828 	str	fp, [r3, #2088]	; 0x828
    b0cc:	e5c1a004 	strb	sl, [r1, #4]
    b0d0:	e5931828 	ldr	r1, [r3, #2088]	; 0x828
    b0d4:	e593a004 	ldr	sl, [r3, #4]
    b0d8:	e281b001 	add	fp, r1, #1
    b0dc:	e1a0a93a 	lsr	sl, sl, r9
    b0e0:	e583b828 	str	fp, [r3, #2088]	; 0x828
    b0e4:	e5c1a001 	strb	sl, [r1, #1]
    b0e8:	e5931828 	ldr	r1, [r3, #2088]	; 0x828
    b0ec:	e281a001 	add	sl, r1, #1
    b0f0:	e583a828 	str	sl, [r3, #2088]	; 0x828
    b0f4:	e5c19001 	strb	r9, [r1, #1]
    b0f8:	e5931828 	ldr	r1, [r3, #2088]	; 0x828
    b0fc:	e2819001 	add	r9, r1, #1
    b100:	e5839828 	str	r9, [r3, #2088]	; 0x828
    b104:	e5c18001 	strb	r8, [r1, #1]
    b108:	e5931828 	ldr	r1, [r3, #2088]	; 0x828
    b10c:	e2818001 	add	r8, r1, #1
    b110:	e5838828 	str	r8, [r3, #2088]	; 0x828
    b114:	e5c16001 	strb	r6, [r1, #1]
    b118:	e5931828 	ldr	r1, [r3, #2088]	; 0x828
    b11c:	e2816001 	add	r6, r1, #1
    b120:	e5836828 	str	r6, [r3, #2088]	; 0x828
    b124:	e5c12001 	strb	r2, [r1, #1]
    b128:	e5931828 	ldr	r1, [r3, #2088]	; 0x828
    b12c:	e5c12001 	strb	r2, [r1, #1]
    b130:	e5931828 	ldr	r1, [r3, #2088]	; 0x828
    b134:	e081600c 	add	r6, r1, ip
    b138:	e5836828 	str	r6, [r3, #2088]	; 0x828
    b13c:	e5c12002 	strb	r2, [r1, #2]
    b140:	e5931828 	ldr	r1, [r3, #2088]	; 0x828
    b144:	e5c12001 	strb	r2, [r1, #1]
    b148:	e5936828 	ldr	r6, [r3, #2088]	; 0x828
    b14c:	e086100c 	add	r1, r6, ip
    b150:	e5831828 	str	r1, [r3, #2088]	; 0x828
    b154:	e5931000 	ldr	r1, [r3]
    b158:	e5c61002 	strb	r1, [r6, #2]
    b15c:	e5936828 	ldr	r6, [r3, #2088]	; 0x828
    b160:	e7e71451 	ubfx	r1, r1, #8, #8
    b164:	e5c61001 	strb	r1, [r6, #1]
    b168:	e5931828 	ldr	r1, [r3, #2088]	; 0x828
    b16c:	e5936004 	ldr	r6, [r3, #4]
    b170:	e081900c 	add	r9, r1, ip
    b174:	e5839828 	str	r9, [r3, #2088]	; 0x828
    b178:	e5c16002 	strb	r6, [r1, #2]
    b17c:	e5931828 	ldr	r1, [r3, #2088]	; 0x828
    b180:	e7e78456 	ubfx	r8, r6, #8, #8
    b184:	e5c18001 	strb	r8, [r1, #1]
    b188:	e5931828 	ldr	r1, [r3, #2088]	; 0x828
    b18c:	e081600c 	add	r6, r1, ip
    b190:	e5836828 	str	r6, [r3, #2088]	; 0x828
    b194:	e5c17002 	strb	r7, [r1, #2]
    b198:	e5931828 	ldr	r1, [r3, #2088]	; 0x828
    b19c:	e2816001 	add	r6, r1, #1
    b1a0:	e5836828 	str	r6, [r3, #2088]	; 0x828
    b1a4:	e5c12001 	strb	r2, [r1, #1]
    b1a8:	e5931828 	ldr	r1, [r3, #2088]	; 0x828
    b1ac:	e5c12001 	strb	r2, [r1, #1]
    b1b0:	e5931828 	ldr	r1, [r3, #2088]	; 0x828
    b1b4:	e081600c 	add	r6, r1, ip
    b1b8:	e5836828 	str	r6, [r3, #2088]	; 0x828
    b1bc:	e5c12002 	strb	r2, [r1, #2]
    b1c0:	e5931828 	ldr	r1, [r3, #2088]	; 0x828
    b1c4:	e5c12001 	strb	r2, [r1, #1]
    b1c8:	e5931828 	ldr	r1, [r3, #2088]	; 0x828
    b1cc:	e081600c 	add	r6, r1, ip
    b1d0:	e5836828 	str	r6, [r3, #2088]	; 0x828
    b1d4:	e5c15002 	strb	r5, [r1, #2]
    b1d8:	e5931828 	ldr	r1, [r3, #2088]	; 0x828
    b1dc:	e2815001 	add	r5, r1, #1
    b1e0:	e5835828 	str	r5, [r3, #2088]	; 0x828
    b1e4:	e5c14001 	strb	r4, [r1, #1]
    b1e8:	e5931828 	ldr	r1, [r3, #2088]	; 0x828
    b1ec:	e2814001 	add	r4, r1, #1
    b1f0:	e5834828 	str	r4, [r3, #2088]	; 0x828
    b1f4:	e5c1c001 	strb	ip, [r1, #1]
    b1f8:	e5931828 	ldr	r1, [r3, #2088]	; 0x828
    b1fc:	e281c001 	add	ip, r1, #1
    b200:	e583c828 	str	ip, [r3, #2088]	; 0x828
    b204:	e5c12001 	strb	r2, [r1, #1]
    b208:	e5931828 	ldr	r1, [r3, #2088]	; 0x828
    b20c:	e5832818 	str	r2, [r3, #2072]	; 0x818
    b210:	e2812001 	add	r2, r1, #1
    b214:	e5832828 	str	r2, [r3, #2088]	; 0x828
    b218:	e28dd020 	add	sp, sp, #32
    b21c:	e8bd0ff0 	pop	{r4, r5, r6, r7, r8, r9, sl, fp}
    b220:	e12fff1e 	bx	lr

0000b224 <V3DEndScene>:
    b224:	e5903828 	ldr	r3, [r0, #2088]	; 0x828
    b228:	e3a01004 	mov	r1, #4
    b22c:	e92d4010 	push	{r4, lr}
    b230:	e3a02001 	mov	r2, #1
    b234:	e5c31000 	strb	r1, [r3]
    b238:	e1a04000 	mov	r4, r0
    b23c:	e5903828 	ldr	r3, [r0, #2088]	; 0x828
    b240:	e3a01000 	mov	r1, #0
    b244:	e083c002 	add	ip, r3, r2
    b248:	e580c828 	str	ip, [r0, #2088]	; 0x828
    b24c:	e5c32001 	strb	r2, [r3, #1]
    b250:	e5903828 	ldr	r3, [r0, #2088]	; 0x828
    b254:	e0833002 	add	r3, r3, r2
    b258:	e5803828 	str	r3, [r0, #2088]	; 0x828
    b25c:	ebfffa12 	bl	9aac <V3DSaveOffset>
    b260:	e1a00004 	mov	r0, r4
    b264:	e8bd4010 	pop	{r4, lr}
    b268:	eafffda7 	b	a90c <V3DControlListSetupRendering>

0000b26c <V3DPresent>:
    b26c:	e3a035ff 	mov	r3, #1069547520	; 0x3fc00000
    b270:	e3a02001 	mov	r2, #1
    b274:	e1a01003 	mov	r1, r3
    b278:	e5832134 	str	r2, [r3, #308]	; 0x134
    b27c:	e5902834 	ldr	r2, [r0, #2100]	; 0x834
    b280:	e5832110 	str	r2, [r3, #272]	; 0x110
    b284:	e5902838 	ldr	r2, [r0, #2104]	; 0x838
    b288:	e5832108 	str	r2, [r3, #264]	; 0x108
    b28c:	e5913134 	ldr	r3, [r1, #308]	; 0x134
    b290:	e3a025ff 	mov	r2, #1069547520	; 0x3fc00000
    b294:	e3530000 	cmp	r3, #0
    b298:	0afffffb 	beq	b28c <V3DPresent+0x20>
    b29c:	e3a03001 	mov	r3, #1
    b2a0:	e1a01002 	mov	r1, r2
    b2a4:	e5823138 	str	r3, [r2, #312]	; 0x138
    b2a8:	e590383c 	ldr	r3, [r0, #2108]	; 0x83c
    b2ac:	e5823114 	str	r3, [r2, #276]	; 0x114
    b2b0:	e5903840 	ldr	r3, [r0, #2112]	; 0x840
    b2b4:	e582310c 	str	r3, [r2, #268]	; 0x10c
    b2b8:	e5913138 	ldr	r3, [r1, #312]	; 0x138
    b2bc:	e3530000 	cmp	r3, #0
    b2c0:	0afffffc 	beq	b2b8 <V3DPresent+0x4c>
    b2c4:	e5903854 	ldr	r3, [r0, #2132]	; 0x854
    b2c8:	e2833001 	add	r3, r3, #1
    b2cc:	e5803854 	str	r3, [r0, #2132]	; 0x854
    b2d0:	e12fff1e 	bx	lr

0000b2d4 <V3DCreateContext>:
    b2d4:	e92d41f0 	push	{r4, r5, r6, r7, r8, lr}
    b2d8:	e1a04000 	mov	r4, r0
    b2dc:	e59d5018 	ldr	r5, [sp, #24]
    b2e0:	e1a07001 	mov	r7, r1
    b2e4:	e1a06002 	mov	r6, r2
    b2e8:	e3a01000 	mov	r1, #0
    b2ec:	e3002858 	movw	r2, #2136	; 0x858
    b2f0:	e1a08003 	mov	r8, r3
    b2f4:	ebfff8fb 	bl	96e8 <memset_t>
    b2f8:	e5847000 	str	r7, [r4]
    b2fc:	e3a01000 	mov	r1, #0
    b300:	e5846004 	str	r6, [r4, #4]
    b304:	e1a00005 	mov	r0, r5
    b308:	e5848014 	str	r8, [r4, #20]
    b30c:	e5845820 	str	r5, [r4, #2080]	; 0x820
    b310:	e5841008 	str	r1, [r4, #8]
    b314:	e5841010 	str	r1, [r4, #16]
    b318:	ebfff414 	bl	8370 <ArmToVc>
    b31c:	e5840824 	str	r0, [r4, #2084]	; 0x824
    b320:	e8bd81f0 	pop	{r4, r5, r6, r7, r8, pc}

Disassembly of section .text.startup:

0000b324 <main>:
    b324:	e92d40f8 	push	{r3, r4, r5, r6, r7, lr}
    b328:	ebfff704 	bl	8f40 <uart_init>
    b32c:	e30c0058 	movw	r0, #49240	; 0xc058
    b330:	e3400001 	movt	r0, #1
    b334:	ebfff72a 	bl	8fe4 <uart_puts>
    b338:	e30c008c 	movw	r0, #49292	; 0xc08c
    b33c:	e3400001 	movt	r0, #1
    b340:	ebfff727 	bl	8fe4 <uart_puts>
    b344:	e30c0058 	movw	r0, #49240	; 0xc058
    b348:	e3400001 	movt	r0, #1
    b34c:	ebfff724 	bl	8fe4 <uart_puts>
    b350:	e30c009c 	movw	r0, #49308	; 0xc09c
    b354:	e3400001 	movt	r0, #1
    b358:	ebfff721 	bl	8fe4 <uart_puts>
    b35c:	e30c0058 	movw	r0, #49240	; 0xc058
    b360:	e3400001 	movt	r0, #1
    b364:	ebfff71e 	bl	8fe4 <uart_puts>
    b368:	ebfff442 	bl	8478 <mailbox_qpu_enable>
    b36c:	e3a025ff 	mov	r2, #1069547520	; 0x3fc00000
    b370:	e3033356 	movw	r3, #13142	; 0x3356
    b374:	e3403244 	movt	r3, #580	; 0x244
    b378:	e5922000 	ldr	r2, [r2]
    b37c:	e1520003 	cmp	r2, r3
    b380:	0a00004f 	beq	b4c4 <main+0x1a0>
    b384:	e30c00c0 	movw	r0, #49344	; 0xc0c0
    b388:	e3400001 	movt	r0, #1
    b38c:	ebfff714 	bl	8fe4 <uart_puts>
    b390:	ebfff3cf 	bl	82d4 <halt_led0>
    b394:	e30c0058 	movw	r0, #49240	; 0xc058
    b398:	e3400001 	movt	r0, #1
    b39c:	ebfff710 	bl	8fe4 <uart_puts>
    b3a0:	e3a01e1e 	mov	r1, #480	; 0x1e0
    b3a4:	e3a00d0a 	mov	r0, #640	; 0x280
    b3a8:	ebfff4e9 	bl	8754 <mailbox_fb_init>
    b3ac:	e1a05000 	mov	r5, r0
    b3b0:	ebfff3f2 	bl	8380 <mailbox_fb_getaddr>
    b3b4:	e5903020 	ldr	r3, [r0, #32]
    b3b8:	e1a04000 	mov	r4, r0
    b3bc:	e3530000 	cmp	r3, #0
    b3c0:	0a00003d 	beq	b4bc <main+0x198>
    b3c4:	e30c00c8 	movw	r0, #49352	; 0xc0c8
    b3c8:	e3400001 	movt	r0, #1
    b3cc:	ebfff704 	bl	8fe4 <uart_puts>
    b3d0:	e5941000 	ldr	r1, [r4]
    b3d4:	e30c00dc 	movw	r0, #49372	; 0xc0dc
    b3d8:	e3400001 	movt	r0, #1
    b3dc:	ebfff77c 	bl	91d4 <uart_debug_puts>
    b3e0:	e5941004 	ldr	r1, [r4, #4]
    b3e4:	e30c00ec 	movw	r0, #49388	; 0xc0ec
    b3e8:	e3400001 	movt	r0, #1
    b3ec:	ebfff778 	bl	91d4 <uart_debug_puts>
    b3f0:	e30c00fc 	movw	r0, #49404	; 0xc0fc
    b3f4:	e1a01005 	mov	r1, r5
    b3f8:	e3400001 	movt	r0, #1
    b3fc:	ebfff774 	bl	91d4 <uart_debug_puts>
    b400:	e5941020 	ldr	r1, [r4, #32]
    b404:	e30c010c 	movw	r0, #49420	; 0xc10c
    b408:	e3400001 	movt	r0, #1
    b40c:	ebfff770 	bl	91d4 <uart_debug_puts>
    b410:	e5940020 	ldr	r0, [r4, #32]
    b414:	ebfff3d7 	bl	8378 <VcToArm>
    b418:	e5943004 	ldr	r3, [r4, #4]
    b41c:	e3530001 	cmp	r3, #1
    b420:	9a000019 	bls	b48c <main+0x168>
    b424:	e5941000 	ldr	r1, [r4]
    b428:	e3a0e001 	mov	lr, #1
    b42c:	e30f5ff0 	movw	r5, #65520	; 0xfff0
    b430:	e1a0700e 	mov	r7, lr
    b434:	e34f500f 	movt	r5, #61455	; 0xf00f
    b438:	e3510001 	cmp	r1, #1
    b43c:	9a00000e 	bls	b47c <main+0x158>
    b440:	e3a02001 	mov	r2, #1
    b444:	e20e600f 	and	r6, lr, #15
    b448:	e1a03002 	mov	r3, r2
    b44c:	e312000f 	tst	r2, #15
    b450:	e2833001 	add	r3, r3, #1
    b454:	e02c219e 	mla	ip, lr, r1, r2
    b458:	e1a02003 	mov	r2, r3
    b45c:	0a000001 	beq	b468 <main+0x144>
    b460:	e3560000 	cmp	r6, #0
    b464:	1a000001 	bne	b470 <main+0x14c>
    b468:	e780510c 	str	r5, [r0, ip, lsl #2]
    b46c:	e5941000 	ldr	r1, [r4]
    b470:	e1530001 	cmp	r3, r1
    b474:	3afffff4 	bcc	b44c <main+0x128>
    b478:	e5943004 	ldr	r3, [r4, #4]
    b47c:	e2877001 	add	r7, r7, #1
    b480:	e1570003 	cmp	r7, r3
    b484:	e1a0e007 	mov	lr, r7
    b488:	3affffea 	bcc	b438 <main+0x114>
    b48c:	e30c011c 	movw	r0, #49436	; 0xc11c
    b490:	e3400001 	movt	r0, #1
    b494:	ebfff6d2 	bl	8fe4 <uart_puts>
    b498:	e3a00801 	mov	r0, #65536	; 0x10000
    b49c:	ebfff884 	bl	96b4 <usleep>
    b4a0:	e30c012c 	movw	r0, #49452	; 0xc12c
    b4a4:	e3400001 	movt	r0, #1
    b4a8:	ebfff6cd 	bl	8fe4 <uart_puts>
    b4ac:	e1a00004 	mov	r0, r4
    b4b0:	ebfff675 	bl	8e8c <testTriangle>
    b4b4:	e3a00000 	mov	r0, #0
    b4b8:	e8bd80f8 	pop	{r3, r4, r5, r6, r7, pc}
    b4bc:	ebfff384 	bl	82d4 <halt_led0>
    b4c0:	eaffffbf 	b	b3c4 <main+0xa0>
    b4c4:	e30c00a8 	movw	r0, #49320	; 0xc0a8
    b4c8:	e3400001 	movt	r0, #1
    b4cc:	ebfff6c4 	bl	8fe4 <uart_puts>
    b4d0:	ebfff394 	bl	8328 <mark_status_led>
    b4d4:	eaffffae 	b	b394 <main+0x70>

Disassembly of section .rodata:

0000c000 <__rodata_start>:
	...
    e020:	ff000000 			; <UNDEFINED> instruction: 0xff000000
    e024:	ff0000ff 			; <UNDEFINED> instruction: 0xff0000ff
    e028:	000000ff 	strdeq	r0, [r0], -pc	; <UNPREDICTABLE>
	...
    e074:	ffffff00 			; <UNDEFINED> instruction: 0xffffff00
    e078:	000000ff 	strdeq	r0, [r0], -pc	; <UNPREDICTABLE>
	...
    e084:	ffffff00 			; <UNDEFINED> instruction: 0xffffff00
    e088:	000000ff 	strdeq	r0, [r0], -pc	; <UNPREDICTABLE>
	...
    e094:	ffffff00 			; <UNDEFINED> instruction: 0xffffff00
    e098:	000000ff 	strdeq	r0, [r0], -pc	; <UNPREDICTABLE>
	...
    e0fc:	00ffff00 	rscseq	pc, pc, r0, lsl #30
	...
    e120:	ff000000 			; <UNDEFINED> instruction: 0xff000000
    e124:	ff0000ff 			; <UNDEFINED> instruction: 0xff0000ff
    e128:	000000ff 	strdeq	r0, [r0], -pc	; <UNPREDICTABLE>
	...
    e174:	ffffff00 			; <UNDEFINED> instruction: 0xffffff00
    e178:	000000ff 	strdeq	r0, [r0], -pc	; <UNPREDICTABLE>
	...
    e184:	ffffff00 			; <UNDEFINED> instruction: 0xffffff00
    e188:	000000ff 	strdeq	r0, [r0], -pc	; <UNPREDICTABLE>
	...
    e194:	ffffff00 			; <UNDEFINED> instruction: 0xffffff00
    e198:	000000ff 	strdeq	r0, [r0], -pc	; <UNPREDICTABLE>
	...
    e1fc:	00ffff00 	rscseq	pc, pc, r0, lsl #30
	...
    e214:	ffffff00 			; <UNDEFINED> instruction: 0xffffff00
    e218:	000000ff 	strdeq	r0, [r0], -pc	; <UNPREDICTABLE>
    e21c:	00000000 	andeq	r0, r0, r0
    e220:	ff000000 			; <UNDEFINED> instruction: 0xff000000
    e224:	ff0000ff 			; <UNDEFINED> instruction: 0xff0000ff
    e228:	000000ff 	strdeq	r0, [r0], -pc	; <UNPREDICTABLE>
    e22c:	00000000 	andeq	r0, r0, r0
    e230:	ff000000 			; <UNDEFINED> instruction: 0xff000000
    e234:	ff0000ff 			; <UNDEFINED> instruction: 0xff0000ff
    e238:	00ffffff 	ldrshteq	pc, [pc], #255	; <UNPREDICTABLE>
	...
    e244:	ffffff00 			; <UNDEFINED> instruction: 0xffffff00
    e248:	000000ff 	strdeq	r0, [r0], -pc	; <UNPREDICTABLE>
    e24c:	00000000 	andeq	r0, r0, r0
    e250:	00ffff00 	rscseq	pc, pc, r0, lsl #30
    e254:	00000000 	andeq	r0, r0, r0
    e258:	ff000000 			; <UNDEFINED> instruction: 0xff000000
    e25c:	000000ff 	strdeq	r0, [r0], -pc	; <UNPREDICTABLE>
    e260:	ffffff00 			; <UNDEFINED> instruction: 0xffffff00
    e264:	00ffffff 	ldrshteq	pc, [pc], #255	; <UNPREDICTABLE>
	...
    e274:	ffffff00 			; <UNDEFINED> instruction: 0xffffff00
    e278:	000000ff 	strdeq	r0, [r0], -pc	; <UNPREDICTABLE>
    e27c:	00000000 	andeq	r0, r0, r0
    e280:	ff000000 			; <UNDEFINED> instruction: 0xff000000
    e284:	000000ff 	strdeq	r0, [r0], -pc	; <UNPREDICTABLE>
	...
    e298:	00ffff00 	rscseq	pc, pc, r0, lsl #30
    e29c:	00000000 	andeq	r0, r0, r0
    e2a0:	00ffff00 	rscseq	pc, pc, r0, lsl #30
    e2a4:	00000000 	andeq	r0, r0, r0
    e2a8:	ff000000 			; <UNDEFINED> instruction: 0xff000000
    e2ac:	000000ff 	strdeq	r0, [r0], -pc	; <UNPREDICTABLE>
    e2b0:	00000000 	andeq	r0, r0, r0
    e2b4:	ffffff00 			; <UNDEFINED> instruction: 0xffffff00
    e2b8:	000000ff 	strdeq	r0, [r0], -pc	; <UNPREDICTABLE>
	...
    e2f8:	ff000000 			; <UNDEFINED> instruction: 0xff000000
    e2fc:	000000ff 	strdeq	r0, [r0], -pc	; <UNPREDICTABLE>
	...
    e314:	ffffff00 			; <UNDEFINED> instruction: 0xffffff00
    e318:	000000ff 	strdeq	r0, [r0], -pc	; <UNPREDICTABLE>
    e31c:	00000000 	andeq	r0, r0, r0
    e320:	ff000000 			; <UNDEFINED> instruction: 0xff000000
    e324:	ff0000ff 			; <UNDEFINED> instruction: 0xff0000ff
    e328:	000000ff 	strdeq	r0, [r0], -pc	; <UNPREDICTABLE>
    e32c:	00000000 	andeq	r0, r0, r0
    e330:	ff000000 			; <UNDEFINED> instruction: 0xff000000
    e334:	ff0000ff 			; <UNDEFINED> instruction: 0xff0000ff
    e338:	00ffffff 	ldrshteq	pc, [pc], #255	; <UNPREDICTABLE>
	...
    e344:	ffffff00 			; <UNDEFINED> instruction: 0xffffff00
    e348:	000000ff 	strdeq	r0, [r0], -pc	; <UNPREDICTABLE>
    e34c:	00000000 	andeq	r0, r0, r0
    e350:	00ffff00 	rscseq	pc, pc, r0, lsl #30
    e354:	00000000 	andeq	r0, r0, r0
    e358:	ff000000 			; <UNDEFINED> instruction: 0xff000000
    e35c:	000000ff 	strdeq	r0, [r0], -pc	; <UNPREDICTABLE>
    e360:	ffffff00 			; <UNDEFINED> instruction: 0xffffff00
    e364:	00ffffff 	ldrshteq	pc, [pc], #255	; <UNPREDICTABLE>
	...
    e374:	ffffff00 			; <UNDEFINED> instruction: 0xffffff00
    e378:	000000ff 	strdeq	r0, [r0], -pc	; <UNPREDICTABLE>
    e37c:	00000000 	andeq	r0, r0, r0
    e380:	ff000000 			; <UNDEFINED> instruction: 0xff000000
    e384:	000000ff 	strdeq	r0, [r0], -pc	; <UNPREDICTABLE>
	...
    e398:	00ffff00 	rscseq	pc, pc, r0, lsl #30
    e39c:	00000000 	andeq	r0, r0, r0
    e3a0:	00ffff00 	rscseq	pc, pc, r0, lsl #30
    e3a4:	00000000 	andeq	r0, r0, r0
    e3a8:	ff000000 			; <UNDEFINED> instruction: 0xff000000
    e3ac:	000000ff 	strdeq	r0, [r0], -pc	; <UNPREDICTABLE>
    e3b0:	00000000 	andeq	r0, r0, r0
    e3b4:	ffffff00 			; <UNDEFINED> instruction: 0xffffff00
    e3b8:	000000ff 	strdeq	r0, [r0], -pc	; <UNPREDICTABLE>
	...
    e3f8:	ff000000 			; <UNDEFINED> instruction: 0xff000000
    e3fc:	000000ff 	strdeq	r0, [r0], -pc	; <UNPREDICTABLE>
	...
    e414:	ffffff00 			; <UNDEFINED> instruction: 0xffffff00
    e418:	000000ff 	strdeq	r0, [r0], -pc	; <UNPREDICTABLE>
	...
    e42c:	ff000000 			; <UNDEFINED> instruction: 0xff000000
    e430:	ffffffff 			; <UNDEFINED> instruction: 0xffffffff
    e434:	ffffffff 			; <UNDEFINED> instruction: 0xffffffff
    e438:	ffffffff 			; <UNDEFINED> instruction: 0xffffffff
    e43c:	00ffffff 	ldrshteq	pc, [pc], #255	; <UNPREDICTABLE>
    e440:	ffffff00 			; <UNDEFINED> instruction: 0xffffff00
    e444:	ffffffff 			; <UNDEFINED> instruction: 0xffffffff
    e448:	ffffffff 			; <UNDEFINED> instruction: 0xffffffff
    e44c:	ff0000ff 			; <UNDEFINED> instruction: 0xff0000ff
    e450:	ff0000ff 			; <UNDEFINED> instruction: 0xff0000ff
    e454:	000000ff 	strdeq	r0, [r0], -pc	; <UNPREDICTABLE>
    e458:	00ffff00 	rscseq	pc, pc, r0, lsl #30
    e45c:	00000000 	andeq	r0, r0, r0
    e460:	00ffff00 	rscseq	pc, pc, r0, lsl #30
    e464:	ff000000 			; <UNDEFINED> instruction: 0xff000000
    e468:	000000ff 	strdeq	r0, [r0], -pc	; <UNPREDICTABLE>
	...
    e474:	ff000000 			; <UNDEFINED> instruction: 0xff000000
    e478:	000000ff 	strdeq	r0, [r0], -pc	; <UNPREDICTABLE>
    e47c:	00000000 	andeq	r0, r0, r0
    e480:	00ffff00 	rscseq	pc, pc, r0, lsl #30
	...
    e498:	ff000000 			; <UNDEFINED> instruction: 0xff000000
    e49c:	000000ff 	strdeq	r0, [r0], -pc	; <UNPREDICTABLE>
    e4a0:	ff000000 			; <UNDEFINED> instruction: 0xff000000
    e4a4:	000000ff 	strdeq	r0, [r0], -pc	; <UNPREDICTABLE>
    e4a8:	00ffff00 	rscseq	pc, pc, r0, lsl #30
	...
    e4b4:	ffffff00 			; <UNDEFINED> instruction: 0xffffff00
    e4b8:	000000ff 	strdeq	r0, [r0], -pc	; <UNPREDICTABLE>
	...
    e4f8:	00ffff00 	rscseq	pc, pc, r0, lsl #30
	...
    e514:	ffffff00 			; <UNDEFINED> instruction: 0xffffff00
    e518:	000000ff 	strdeq	r0, [r0], -pc	; <UNPREDICTABLE>
	...
    e52c:	ff000000 			; <UNDEFINED> instruction: 0xff000000
    e530:	ffffffff 			; <UNDEFINED> instruction: 0xffffffff
    e534:	ffffffff 			; <UNDEFINED> instruction: 0xffffffff
    e538:	ffffffff 			; <UNDEFINED> instruction: 0xffffffff
    e53c:	00ffffff 	ldrshteq	pc, [pc], #255	; <UNPREDICTABLE>
    e540:	ffffff00 			; <UNDEFINED> instruction: 0xffffff00
    e544:	ffffffff 			; <UNDEFINED> instruction: 0xffffffff
    e548:	ffffffff 			; <UNDEFINED> instruction: 0xffffffff
    e54c:	ff0000ff 			; <UNDEFINED> instruction: 0xff0000ff
    e550:	ff0000ff 			; <UNDEFINED> instruction: 0xff0000ff
    e554:	000000ff 	strdeq	r0, [r0], -pc	; <UNPREDICTABLE>
    e558:	00ffff00 	rscseq	pc, pc, r0, lsl #30
    e55c:	00000000 	andeq	r0, r0, r0
    e560:	00ffff00 	rscseq	pc, pc, r0, lsl #30
    e564:	ff000000 			; <UNDEFINED> instruction: 0xff000000
    e568:	000000ff 	strdeq	r0, [r0], -pc	; <UNPREDICTABLE>
	...
    e574:	ff000000 			; <UNDEFINED> instruction: 0xff000000
    e578:	000000ff 	strdeq	r0, [r0], -pc	; <UNPREDICTABLE>
    e57c:	00000000 	andeq	r0, r0, r0
    e580:	00ffff00 	rscseq	pc, pc, r0, lsl #30
	...
    e598:	ff000000 			; <UNDEFINED> instruction: 0xff000000
    e59c:	000000ff 	strdeq	r0, [r0], -pc	; <UNPREDICTABLE>
    e5a0:	ff000000 			; <UNDEFINED> instruction: 0xff000000
    e5a4:	000000ff 	strdeq	r0, [r0], -pc	; <UNPREDICTABLE>
    e5a8:	00ffff00 	rscseq	pc, pc, r0, lsl #30
	...
    e5b4:	ffffff00 			; <UNDEFINED> instruction: 0xffffff00
    e5b8:	000000ff 	strdeq	r0, [r0], -pc	; <UNPREDICTABLE>
	...
    e5f8:	00ffff00 	rscseq	pc, pc, r0, lsl #30
	...
    e614:	ffffff00 			; <UNDEFINED> instruction: 0xffffff00
    e618:	000000ff 	strdeq	r0, [r0], -pc	; <UNPREDICTABLE>
	...
    e630:	ff000000 			; <UNDEFINED> instruction: 0xff000000
    e634:	ff0000ff 			; <UNDEFINED> instruction: 0xff0000ff
    e638:	00ffffff 	ldrshteq	pc, [pc], #255	; <UNPREDICTABLE>
    e63c:	00000000 	andeq	r0, r0, r0
    e640:	00ffff00 	rscseq	pc, pc, r0, lsl #30
    e644:	ffffff00 			; <UNDEFINED> instruction: 0xffffff00
    e648:	000000ff 	strdeq	r0, [r0], -pc	; <UNPREDICTABLE>
    e64c:	00000000 	andeq	r0, r0, r0
    e650:	00ffff00 	rscseq	pc, pc, r0, lsl #30
    e654:	ff000000 			; <UNDEFINED> instruction: 0xff000000
    e658:	000000ff 	strdeq	r0, [r0], -pc	; <UNPREDICTABLE>
    e65c:	00000000 	andeq	r0, r0, r0
    e660:	ffffff00 			; <UNDEFINED> instruction: 0xffffff00
    e664:	ffffffff 			; <UNDEFINED> instruction: 0xffffffff
    e668:	000000ff 	strdeq	r0, [r0], -pc	; <UNPREDICTABLE>
	...
    e680:	00ffff00 	rscseq	pc, pc, r0, lsl #30
	...
    e698:	ff000000 			; <UNDEFINED> instruction: 0xff000000
    e69c:	000000ff 	strdeq	r0, [r0], -pc	; <UNPREDICTABLE>
    e6a0:	ffffff00 			; <UNDEFINED> instruction: 0xffffff00
    e6a4:	ffffffff 			; <UNDEFINED> instruction: 0xffffffff
    e6a8:	ffffffff 			; <UNDEFINED> instruction: 0xffffffff
    e6ac:	000000ff 	strdeq	r0, [r0], -pc	; <UNPREDICTABLE>
    e6b0:	ffffff00 			; <UNDEFINED> instruction: 0xffffff00
    e6b4:	ffffffff 			; <UNDEFINED> instruction: 0xffffffff
    e6b8:	ffffffff 			; <UNDEFINED> instruction: 0xffffffff
    e6bc:	000000ff 	strdeq	r0, [r0], -pc	; <UNPREDICTABLE>
	...
    e6f4:	ff000000 			; <UNDEFINED> instruction: 0xff000000
    e6f8:	000000ff 	strdeq	r0, [r0], -pc	; <UNPREDICTABLE>
	...
    e714:	ffffff00 			; <UNDEFINED> instruction: 0xffffff00
    e718:	000000ff 	strdeq	r0, [r0], -pc	; <UNPREDICTABLE>
	...
    e730:	ff000000 			; <UNDEFINED> instruction: 0xff000000
    e734:	ff0000ff 			; <UNDEFINED> instruction: 0xff0000ff
    e738:	00ffffff 	ldrshteq	pc, [pc], #255	; <UNPREDICTABLE>
    e73c:	00000000 	andeq	r0, r0, r0
    e740:	00ffff00 	rscseq	pc, pc, r0, lsl #30
    e744:	ffffff00 			; <UNDEFINED> instruction: 0xffffff00
    e748:	000000ff 	strdeq	r0, [r0], -pc	; <UNPREDICTABLE>
    e74c:	00000000 	andeq	r0, r0, r0
    e750:	00ffff00 	rscseq	pc, pc, r0, lsl #30
    e754:	ff000000 			; <UNDEFINED> instruction: 0xff000000
    e758:	000000ff 	strdeq	r0, [r0], -pc	; <UNPREDICTABLE>
    e75c:	00000000 	andeq	r0, r0, r0
    e760:	ffffff00 			; <UNDEFINED> instruction: 0xffffff00
    e764:	ffffffff 			; <UNDEFINED> instruction: 0xffffffff
    e768:	000000ff 	strdeq	r0, [r0], -pc	; <UNPREDICTABLE>
	...
    e780:	00ffff00 	rscseq	pc, pc, r0, lsl #30
	...
    e798:	ff000000 			; <UNDEFINED> instruction: 0xff000000
    e79c:	000000ff 	strdeq	r0, [r0], -pc	; <UNPREDICTABLE>
    e7a0:	ffffff00 			; <UNDEFINED> instruction: 0xffffff00
    e7a4:	ffffffff 			; <UNDEFINED> instruction: 0xffffffff
    e7a8:	ffffffff 			; <UNDEFINED> instruction: 0xffffffff
    e7ac:	000000ff 	strdeq	r0, [r0], -pc	; <UNPREDICTABLE>
    e7b0:	ffffff00 			; <UNDEFINED> instruction: 0xffffff00
    e7b4:	ffffffff 			; <UNDEFINED> instruction: 0xffffffff
    e7b8:	ffffffff 			; <UNDEFINED> instruction: 0xffffffff
    e7bc:	000000ff 	strdeq	r0, [r0], -pc	; <UNPREDICTABLE>
	...
    e7f4:	ff000000 			; <UNDEFINED> instruction: 0xff000000
    e7f8:	000000ff 	strdeq	r0, [r0], -pc	; <UNPREDICTABLE>
	...
    e814:	ffffff00 			; <UNDEFINED> instruction: 0xffffff00
    e818:	000000ff 	strdeq	r0, [r0], -pc	; <UNPREDICTABLE>
	...
    e830:	ff000000 			; <UNDEFINED> instruction: 0xff000000
    e834:	ff0000ff 			; <UNDEFINED> instruction: 0xff0000ff
    e838:	00ffffff 	ldrshteq	pc, [pc], #255	; <UNPREDICTABLE>
    e83c:	00000000 	andeq	r0, r0, r0
    e840:	ffffff00 			; <UNDEFINED> instruction: 0xffffff00
    e844:	ffffffff 			; <UNDEFINED> instruction: 0xffffffff
    e848:	ffffffff 			; <UNDEFINED> instruction: 0xffffffff
    e84c:	000000ff 	strdeq	r0, [r0], -pc	; <UNPREDICTABLE>
    e850:	00000000 	andeq	r0, r0, r0
    e854:	00ffff00 	rscseq	pc, pc, r0, lsl #30
    e858:	ff000000 			; <UNDEFINED> instruction: 0xff000000
    e85c:	000000ff 	strdeq	r0, [r0], -pc	; <UNPREDICTABLE>
    e860:	00000000 	andeq	r0, r0, r0
    e864:	ff000000 			; <UNDEFINED> instruction: 0xff000000
    e868:	ff0000ff 			; <UNDEFINED> instruction: 0xff0000ff
    e86c:	000000ff 	strdeq	r0, [r0], -pc	; <UNPREDICTABLE>
	...
    e880:	00ffff00 	rscseq	pc, pc, r0, lsl #30
	...
    e898:	ff000000 			; <UNDEFINED> instruction: 0xff000000
    e89c:	000000ff 	strdeq	r0, [r0], -pc	; <UNPREDICTABLE>
    e8a0:	ffffff00 			; <UNDEFINED> instruction: 0xffffff00
    e8a4:	ffffffff 			; <UNDEFINED> instruction: 0xffffffff
    e8a8:	ffffffff 			; <UNDEFINED> instruction: 0xffffffff
    e8ac:	000000ff 	strdeq	r0, [r0], -pc	; <UNPREDICTABLE>
    e8b0:	ffffff00 			; <UNDEFINED> instruction: 0xffffff00
    e8b4:	ffffffff 			; <UNDEFINED> instruction: 0xffffffff
    e8b8:	ffffffff 			; <UNDEFINED> instruction: 0xffffffff
    e8bc:	000000ff 	strdeq	r0, [r0], -pc	; <UNPREDICTABLE>
	...
    e8d0:	ffffff00 			; <UNDEFINED> instruction: 0xffffff00
    e8d4:	ffffffff 			; <UNDEFINED> instruction: 0xffffffff
    e8d8:	ffffffff 			; <UNDEFINED> instruction: 0xffffffff
    e8dc:	000000ff 	strdeq	r0, [r0], -pc	; <UNPREDICTABLE>
	...
    e8f4:	00ffff00 	rscseq	pc, pc, r0, lsl #30
	...
    e914:	ffffff00 			; <UNDEFINED> instruction: 0xffffff00
    e918:	000000ff 	strdeq	r0, [r0], -pc	; <UNPREDICTABLE>
	...
    e930:	ff000000 			; <UNDEFINED> instruction: 0xff000000
    e934:	ff0000ff 			; <UNDEFINED> instruction: 0xff0000ff
    e938:	00ffffff 	ldrshteq	pc, [pc], #255	; <UNPREDICTABLE>
    e93c:	00000000 	andeq	r0, r0, r0
    e940:	ffffff00 			; <UNDEFINED> instruction: 0xffffff00
    e944:	ffffffff 			; <UNDEFINED> instruction: 0xffffffff
    e948:	ffffffff 			; <UNDEFINED> instruction: 0xffffffff
    e94c:	000000ff 	strdeq	r0, [r0], -pc	; <UNPREDICTABLE>
    e950:	00000000 	andeq	r0, r0, r0
    e954:	00ffff00 	rscseq	pc, pc, r0, lsl #30
    e958:	ff000000 			; <UNDEFINED> instruction: 0xff000000
    e95c:	000000ff 	strdeq	r0, [r0], -pc	; <UNPREDICTABLE>
    e960:	00000000 	andeq	r0, r0, r0
    e964:	ff000000 			; <UNDEFINED> instruction: 0xff000000
    e968:	ff0000ff 			; <UNDEFINED> instruction: 0xff0000ff
    e96c:	000000ff 	strdeq	r0, [r0], -pc	; <UNPREDICTABLE>
	...
    e980:	00ffff00 	rscseq	pc, pc, r0, lsl #30
	...
    e998:	ff000000 			; <UNDEFINED> instruction: 0xff000000
    e99c:	000000ff 	strdeq	r0, [r0], -pc	; <UNPREDICTABLE>
    e9a0:	ffffff00 			; <UNDEFINED> instruction: 0xffffff00
    e9a4:	ffffffff 			; <UNDEFINED> instruction: 0xffffffff
    e9a8:	ffffffff 			; <UNDEFINED> instruction: 0xffffffff
    e9ac:	000000ff 	strdeq	r0, [r0], -pc	; <UNPREDICTABLE>
    e9b0:	ffffff00 			; <UNDEFINED> instruction: 0xffffff00
    e9b4:	ffffffff 			; <UNDEFINED> instruction: 0xffffffff
    e9b8:	ffffffff 			; <UNDEFINED> instruction: 0xffffffff
    e9bc:	000000ff 	strdeq	r0, [r0], -pc	; <UNPREDICTABLE>
	...
    e9d0:	ffffff00 			; <UNDEFINED> instruction: 0xffffff00
    e9d4:	ffffffff 			; <UNDEFINED> instruction: 0xffffffff
    e9d8:	ffffffff 			; <UNDEFINED> instruction: 0xffffffff
    e9dc:	000000ff 	strdeq	r0, [r0], -pc	; <UNPREDICTABLE>
	...
    e9f4:	00ffff00 	rscseq	pc, pc, r0, lsl #30
	...
    ea2c:	ff000000 			; <UNDEFINED> instruction: 0xff000000
    ea30:	ffffffff 			; <UNDEFINED> instruction: 0xffffffff
    ea34:	ffffffff 			; <UNDEFINED> instruction: 0xffffffff
    ea38:	ffffffff 			; <UNDEFINED> instruction: 0xffffffff
    ea3c:	00ffffff 	ldrshteq	pc, [pc], #255	; <UNPREDICTABLE>
    ea40:	00000000 	andeq	r0, r0, r0
    ea44:	ffffff00 			; <UNDEFINED> instruction: 0xffffff00
    ea48:	ff0000ff 			; <UNDEFINED> instruction: 0xff0000ff
    ea4c:	000000ff 	strdeq	r0, [r0], -pc	; <UNPREDICTABLE>
    ea50:	ff000000 			; <UNDEFINED> instruction: 0xff000000
    ea54:	000000ff 	strdeq	r0, [r0], -pc	; <UNPREDICTABLE>
    ea58:	00ffff00 	rscseq	pc, pc, r0, lsl #30
    ea5c:	00ffff00 	rscseq	pc, pc, r0, lsl #30
    ea60:	ff000000 			; <UNDEFINED> instruction: 0xff000000
    ea64:	00ffffff 	ldrshteq	pc, [pc], #255	; <UNPREDICTABLE>
    ea68:	ffffff00 			; <UNDEFINED> instruction: 0xffffff00
    ea6c:	00ffffff 	ldrshteq	pc, [pc], #255	; <UNPREDICTABLE>
	...
    ea80:	00ffff00 	rscseq	pc, pc, r0, lsl #30
	...
    ea98:	ff000000 			; <UNDEFINED> instruction: 0xff000000
    ea9c:	000000ff 	strdeq	r0, [r0], -pc	; <UNPREDICTABLE>
    eaa0:	ff000000 			; <UNDEFINED> instruction: 0xff000000
    eaa4:	000000ff 	strdeq	r0, [r0], -pc	; <UNPREDICTABLE>
    eaa8:	00ffff00 	rscseq	pc, pc, r0, lsl #30
	...
    eab4:	ffffff00 			; <UNDEFINED> instruction: 0xffffff00
    eab8:	000000ff 	strdeq	r0, [r0], -pc	; <UNPREDICTABLE>
	...
    eac4:	ffffff00 			; <UNDEFINED> instruction: 0xffffff00
    eac8:	000000ff 	strdeq	r0, [r0], -pc	; <UNPREDICTABLE>
	...
    eaf0:	ff000000 			; <UNDEFINED> instruction: 0xff000000
    eaf4:	000000ff 	strdeq	r0, [r0], -pc	; <UNPREDICTABLE>
	...
    eb2c:	ff000000 			; <UNDEFINED> instruction: 0xff000000
    eb30:	ffffffff 			; <UNDEFINED> instruction: 0xffffffff
    eb34:	ffffffff 			; <UNDEFINED> instruction: 0xffffffff
    eb38:	ffffffff 			; <UNDEFINED> instruction: 0xffffffff
    eb3c:	00ffffff 	ldrshteq	pc, [pc], #255	; <UNPREDICTABLE>
    eb40:	00000000 	andeq	r0, r0, r0
    eb44:	ffffff00 			; <UNDEFINED> instruction: 0xffffff00
    eb48:	ff0000ff 			; <UNDEFINED> instruction: 0xff0000ff
    eb4c:	000000ff 	strdeq	r0, [r0], -pc	; <UNPREDICTABLE>
    eb50:	ff000000 			; <UNDEFINED> instruction: 0xff000000
    eb54:	000000ff 	strdeq	r0, [r0], -pc	; <UNPREDICTABLE>
    eb58:	00ffff00 	rscseq	pc, pc, r0, lsl #30
    eb5c:	00ffff00 	rscseq	pc, pc, r0, lsl #30
    eb60:	ff000000 			; <UNDEFINED> instruction: 0xff000000
    eb64:	00ffffff 	ldrshteq	pc, [pc], #255	; <UNPREDICTABLE>
    eb68:	ffffff00 			; <UNDEFINED> instruction: 0xffffff00
    eb6c:	00ffffff 	ldrshteq	pc, [pc], #255	; <UNPREDICTABLE>
	...
    eb80:	00ffff00 	rscseq	pc, pc, r0, lsl #30
	...
    eb98:	ff000000 			; <UNDEFINED> instruction: 0xff000000
    eb9c:	000000ff 	strdeq	r0, [r0], -pc	; <UNPREDICTABLE>
    eba0:	ff000000 			; <UNDEFINED> instruction: 0xff000000
    eba4:	000000ff 	strdeq	r0, [r0], -pc	; <UNPREDICTABLE>
    eba8:	00ffff00 	rscseq	pc, pc, r0, lsl #30
	...
    ebb4:	ffffff00 			; <UNDEFINED> instruction: 0xffffff00
    ebb8:	000000ff 	strdeq	r0, [r0], -pc	; <UNPREDICTABLE>
	...
    ebc4:	ffffff00 			; <UNDEFINED> instruction: 0xffffff00
    ebc8:	000000ff 	strdeq	r0, [r0], -pc	; <UNPREDICTABLE>
	...
    ebf0:	ff000000 			; <UNDEFINED> instruction: 0xff000000
    ebf4:	000000ff 	strdeq	r0, [r0], -pc	; <UNPREDICTABLE>
	...
    ec14:	ffffff00 			; <UNDEFINED> instruction: 0xffffff00
    ec18:	000000ff 	strdeq	r0, [r0], -pc	; <UNPREDICTABLE>
	...
    ec30:	ff000000 			; <UNDEFINED> instruction: 0xff000000
    ec34:	ff0000ff 			; <UNDEFINED> instruction: 0xff0000ff
    ec38:	00ffffff 	ldrshteq	pc, [pc], #255	; <UNPREDICTABLE>
    ec3c:	00000000 	andeq	r0, r0, r0
    ec40:	ffffff00 			; <UNDEFINED> instruction: 0xffffff00
    ec44:	ffffffff 			; <UNDEFINED> instruction: 0xffffffff
    ec48:	ffffffff 			; <UNDEFINED> instruction: 0xffffffff
    ec4c:	000000ff 	strdeq	r0, [r0], -pc	; <UNPREDICTABLE>
    ec50:	00ffff00 	rscseq	pc, pc, r0, lsl #30
    ec54:	00000000 	andeq	r0, r0, r0
    ec58:	ff000000 			; <UNDEFINED> instruction: 0xff000000
    ec5c:	000000ff 	strdeq	r0, [r0], -pc	; <UNPREDICTABLE>
    ec60:	00ffff00 	rscseq	pc, pc, r0, lsl #30
    ec64:	00000000 	andeq	r0, r0, r0
    ec68:	ff000000 			; <UNDEFINED> instruction: 0xff000000
    ec6c:	000000ff 	strdeq	r0, [r0], -pc	; <UNPREDICTABLE>
	...
    ec80:	ff000000 			; <UNDEFINED> instruction: 0xff000000
    ec84:	000000ff 	strdeq	r0, [r0], -pc	; <UNPREDICTABLE>
	...
    ec98:	00ffff00 	rscseq	pc, pc, r0, lsl #30
    ec9c:	00000000 	andeq	r0, r0, r0
    eca0:	00ffff00 	rscseq	pc, pc, r0, lsl #30
    eca4:	00000000 	andeq	r0, r0, r0
    eca8:	ff000000 			; <UNDEFINED> instruction: 0xff000000
    ecac:	000000ff 	strdeq	r0, [r0], -pc	; <UNPREDICTABLE>
    ecb0:	00000000 	andeq	r0, r0, r0
    ecb4:	ffffff00 			; <UNDEFINED> instruction: 0xffffff00
    ecb8:	000000ff 	strdeq	r0, [r0], -pc	; <UNPREDICTABLE>
	...
    ecc4:	ffffff00 			; <UNDEFINED> instruction: 0xffffff00
    ecc8:	000000ff 	strdeq	r0, [r0], -pc	; <UNPREDICTABLE>
	...
    ece4:	ffffff00 			; <UNDEFINED> instruction: 0xffffff00
    ece8:	000000ff 	strdeq	r0, [r0], -pc	; <UNPREDICTABLE>
    ecec:	00000000 	andeq	r0, r0, r0
    ecf0:	00ffff00 	rscseq	pc, pc, r0, lsl #30
	...
    ed14:	ffffff00 			; <UNDEFINED> instruction: 0xffffff00
    ed18:	000000ff 	strdeq	r0, [r0], -pc	; <UNPREDICTABLE>
	...
    ed30:	ff000000 			; <UNDEFINED> instruction: 0xff000000
    ed34:	ff0000ff 			; <UNDEFINED> instruction: 0xff0000ff
    ed38:	00ffffff 	ldrshteq	pc, [pc], #255	; <UNPREDICTABLE>
    ed3c:	00000000 	andeq	r0, r0, r0
    ed40:	ffffff00 			; <UNDEFINED> instruction: 0xffffff00
    ed44:	ffffffff 			; <UNDEFINED> instruction: 0xffffffff
    ed48:	ffffffff 			; <UNDEFINED> instruction: 0xffffffff
    ed4c:	000000ff 	strdeq	r0, [r0], -pc	; <UNPREDICTABLE>
    ed50:	00ffff00 	rscseq	pc, pc, r0, lsl #30
    ed54:	00000000 	andeq	r0, r0, r0
    ed58:	ff000000 			; <UNDEFINED> instruction: 0xff000000
    ed5c:	000000ff 	strdeq	r0, [r0], -pc	; <UNPREDICTABLE>
    ed60:	00ffff00 	rscseq	pc, pc, r0, lsl #30
    ed64:	00000000 	andeq	r0, r0, r0
    ed68:	ff000000 			; <UNDEFINED> instruction: 0xff000000
    ed6c:	000000ff 	strdeq	r0, [r0], -pc	; <UNPREDICTABLE>
	...
    ed80:	ff000000 			; <UNDEFINED> instruction: 0xff000000
    ed84:	000000ff 	strdeq	r0, [r0], -pc	; <UNPREDICTABLE>
	...
    ed98:	00ffff00 	rscseq	pc, pc, r0, lsl #30
    ed9c:	00000000 	andeq	r0, r0, r0
    eda0:	00ffff00 	rscseq	pc, pc, r0, lsl #30
    eda4:	00000000 	andeq	r0, r0, r0
    eda8:	ff000000 			; <UNDEFINED> instruction: 0xff000000
    edac:	000000ff 	strdeq	r0, [r0], -pc	; <UNPREDICTABLE>
    edb0:	00000000 	andeq	r0, r0, r0
    edb4:	ffffff00 			; <UNDEFINED> instruction: 0xffffff00
    edb8:	000000ff 	strdeq	r0, [r0], -pc	; <UNPREDICTABLE>
	...
    edc4:	ffffff00 			; <UNDEFINED> instruction: 0xffffff00
    edc8:	000000ff 	strdeq	r0, [r0], -pc	; <UNPREDICTABLE>
	...
    ede4:	ffffff00 			; <UNDEFINED> instruction: 0xffffff00
    ede8:	000000ff 	strdeq	r0, [r0], -pc	; <UNPREDICTABLE>
    edec:	00000000 	andeq	r0, r0, r0
    edf0:	00ffff00 	rscseq	pc, pc, r0, lsl #30
	...
    ee14:	ffffff00 			; <UNDEFINED> instruction: 0xffffff00
    ee18:	000000ff 	strdeq	r0, [r0], -pc	; <UNPREDICTABLE>
	...
    ee44:	ffffff00 			; <UNDEFINED> instruction: 0xffffff00
    ee48:	000000ff 	strdeq	r0, [r0], -pc	; <UNPREDICTABLE>
	...
    ee60:	ff000000 			; <UNDEFINED> instruction: 0xff000000
    ee64:	ffffffff 			; <UNDEFINED> instruction: 0xffffffff
    ee68:	00ffffff 	ldrshteq	pc, [pc], #255	; <UNPREDICTABLE>
	...
    ee84:	ffffff00 			; <UNDEFINED> instruction: 0xffffff00
    ee88:	000000ff 	strdeq	r0, [r0], -pc	; <UNPREDICTABLE>
	...
    ee94:	ffffff00 			; <UNDEFINED> instruction: 0xffffff00
    ee98:	000000ff 	strdeq	r0, [r0], -pc	; <UNPREDICTABLE>
	...
    eec4:	ff000000 			; <UNDEFINED> instruction: 0xff000000
    eec8:	000000ff 	strdeq	r0, [r0], -pc	; <UNPREDICTABLE>
	...
    eee4:	ffffff00 			; <UNDEFINED> instruction: 0xffffff00
    eee8:	000000ff 	strdeq	r0, [r0], -pc	; <UNPREDICTABLE>
    eeec:	ff000000 			; <UNDEFINED> instruction: 0xff000000
    eef0:	000000ff 	strdeq	r0, [r0], -pc	; <UNPREDICTABLE>
	...
    ef14:	ffffff00 			; <UNDEFINED> instruction: 0xffffff00
    ef18:	000000ff 	strdeq	r0, [r0], -pc	; <UNPREDICTABLE>
	...
    ef44:	ffffff00 			; <UNDEFINED> instruction: 0xffffff00
    ef48:	000000ff 	strdeq	r0, [r0], -pc	; <UNPREDICTABLE>
	...
    ef60:	ff000000 			; <UNDEFINED> instruction: 0xff000000
    ef64:	ffffffff 			; <UNDEFINED> instruction: 0xffffffff
    ef68:	00ffffff 	ldrshteq	pc, [pc], #255	; <UNPREDICTABLE>
	...
    ef84:	ffffff00 			; <UNDEFINED> instruction: 0xffffff00
    ef88:	000000ff 	strdeq	r0, [r0], -pc	; <UNPREDICTABLE>
	...
    ef94:	ffffff00 			; <UNDEFINED> instruction: 0xffffff00
    ef98:	000000ff 	strdeq	r0, [r0], -pc	; <UNPREDICTABLE>
	...
    efc4:	ff000000 			; <UNDEFINED> instruction: 0xff000000
    efc8:	000000ff 	strdeq	r0, [r0], -pc	; <UNPREDICTABLE>
	...
    efe4:	ffffff00 			; <UNDEFINED> instruction: 0xffffff00
    efe8:	000000ff 	strdeq	r0, [r0], -pc	; <UNPREDICTABLE>
    efec:	ff000000 			; <UNDEFINED> instruction: 0xff000000
    eff0:	000000ff 	strdeq	r0, [r0], -pc	; <UNPREDICTABLE>
	...
    f0c4:	ff000000 			; <UNDEFINED> instruction: 0xff000000
    f0c8:	000000ff 	strdeq	r0, [r0], -pc	; <UNPREDICTABLE>
	...
    f0e4:	00ffff00 	rscseq	pc, pc, r0, lsl #30
	...
    f1c4:	ff000000 			; <UNDEFINED> instruction: 0xff000000
    f1c8:	000000ff 	strdeq	r0, [r0], -pc	; <UNPREDICTABLE>
	...
    f1e4:	00ffff00 	rscseq	pc, pc, r0, lsl #30
	...
    f2c4:	00ffff00 	rscseq	pc, pc, r0, lsl #30
	...
    f2e4:	ff000000 			; <UNDEFINED> instruction: 0xff000000
    f2e8:	000000ff 	strdeq	r0, [r0], -pc	; <UNPREDICTABLE>
    f2ec:	00000000 	andeq	r0, r0, r0
    f2f0:	ff000000 			; <UNDEFINED> instruction: 0xff000000
    f2f4:	ffffffff 			; <UNDEFINED> instruction: 0xffffffff
    f2f8:	00ffffff 	ldrshteq	pc, [pc], #255	; <UNPREDICTABLE>
	...
    f3c4:	00ffff00 	rscseq	pc, pc, r0, lsl #30
	...
    f3e4:	ff000000 			; <UNDEFINED> instruction: 0xff000000
    f3e8:	000000ff 	strdeq	r0, [r0], -pc	; <UNPREDICTABLE>
    f3ec:	00000000 	andeq	r0, r0, r0
    f3f0:	ff000000 			; <UNDEFINED> instruction: 0xff000000
    f3f4:	ffffffff 			; <UNDEFINED> instruction: 0xffffffff
    f3f8:	00ffffff 	ldrshteq	pc, [pc], #255	; <UNPREDICTABLE>
	...
    f404:	ffffff00 			; <UNDEFINED> instruction: 0xffffff00
    f408:	00ffffff 	ldrshteq	pc, [pc], #255	; <UNPREDICTABLE>
	...
    f418:	ff000000 			; <UNDEFINED> instruction: 0xff000000
    f41c:	000000ff 	strdeq	r0, [r0], -pc	; <UNPREDICTABLE>
    f420:	ff000000 			; <UNDEFINED> instruction: 0xff000000
    f424:	ffffffff 			; <UNDEFINED> instruction: 0xffffffff
    f428:	ffffffff 			; <UNDEFINED> instruction: 0xffffffff
    f42c:	000000ff 	strdeq	r0, [r0], -pc	; <UNPREDICTABLE>
    f430:	00000000 	andeq	r0, r0, r0
    f434:	ffffff00 			; <UNDEFINED> instruction: 0xffffff00
    f438:	ffffffff 			; <UNDEFINED> instruction: 0xffffffff
    f43c:	000000ff 	strdeq	r0, [r0], -pc	; <UNPREDICTABLE>
    f440:	00000000 	andeq	r0, r0, r0
    f444:	00ffff00 	rscseq	pc, pc, r0, lsl #30
    f448:	ff000000 			; <UNDEFINED> instruction: 0xff000000
    f44c:	000000ff 	strdeq	r0, [r0], -pc	; <UNPREDICTABLE>
    f450:	00000000 	andeq	r0, r0, r0
    f454:	ffffff00 			; <UNDEFINED> instruction: 0xffffff00
    f458:	ffffffff 			; <UNDEFINED> instruction: 0xffffffff
    f45c:	000000ff 	strdeq	r0, [r0], -pc	; <UNPREDICTABLE>
    f460:	00000000 	andeq	r0, r0, r0
    f464:	ffffff00 			; <UNDEFINED> instruction: 0xffffff00
    f468:	ffffffff 			; <UNDEFINED> instruction: 0xffffffff
    f46c:	000000ff 	strdeq	r0, [r0], -pc	; <UNPREDICTABLE>
    f470:	00000000 	andeq	r0, r0, r0
    f474:	ffffff00 			; <UNDEFINED> instruction: 0xffffff00
    f478:	ffffffff 			; <UNDEFINED> instruction: 0xffffffff
    f47c:	000000ff 	strdeq	r0, [r0], -pc	; <UNPREDICTABLE>
    f480:	00000000 	andeq	r0, r0, r0
    f484:	ffffff00 			; <UNDEFINED> instruction: 0xffffff00
    f488:	ffffffff 			; <UNDEFINED> instruction: 0xffffffff
    f48c:	000000ff 	strdeq	r0, [r0], -pc	; <UNPREDICTABLE>
    f490:	00000000 	andeq	r0, r0, r0
    f494:	ffffff00 			; <UNDEFINED> instruction: 0xffffff00
    f498:	ffffffff 			; <UNDEFINED> instruction: 0xffffffff
    f49c:	000000ff 	strdeq	r0, [r0], -pc	; <UNPREDICTABLE>
    f4a0:	00000000 	andeq	r0, r0, r0
    f4a4:	ffffff00 			; <UNDEFINED> instruction: 0xffffff00
    f4a8:	000000ff 	strdeq	r0, [r0], -pc	; <UNPREDICTABLE>
	...
    f4b4:	ffffff00 			; <UNDEFINED> instruction: 0xffffff00
    f4b8:	000000ff 	strdeq	r0, [r0], -pc	; <UNPREDICTABLE>
    f4bc:	00000000 	andeq	r0, r0, r0
    f4c0:	ff000000 			; <UNDEFINED> instruction: 0xff000000
    f4c4:	000000ff 	strdeq	r0, [r0], -pc	; <UNPREDICTABLE>
	...
    f4d0:	ff000000 			; <UNDEFINED> instruction: 0xff000000
    f4d4:	ffffffff 			; <UNDEFINED> instruction: 0xffffffff
    f4d8:	00ffffff 	ldrshteq	pc, [pc], #255	; <UNPREDICTABLE>
	...
    f4e8:	00ffff00 	rscseq	pc, pc, r0, lsl #30
    f4ec:	00000000 	andeq	r0, r0, r0
    f4f0:	ff000000 			; <UNDEFINED> instruction: 0xff000000
    f4f4:	000000ff 	strdeq	r0, [r0], -pc	; <UNPREDICTABLE>
    f4f8:	00ffff00 	rscseq	pc, pc, r0, lsl #30
	...
    f504:	ffffff00 			; <UNDEFINED> instruction: 0xffffff00
    f508:	00ffffff 	ldrshteq	pc, [pc], #255	; <UNPREDICTABLE>
	...
    f518:	ff000000 			; <UNDEFINED> instruction: 0xff000000
    f51c:	000000ff 	strdeq	r0, [r0], -pc	; <UNPREDICTABLE>
    f520:	ff000000 			; <UNDEFINED> instruction: 0xff000000
    f524:	ffffffff 			; <UNDEFINED> instruction: 0xffffffff
    f528:	ffffffff 			; <UNDEFINED> instruction: 0xffffffff
    f52c:	000000ff 	strdeq	r0, [r0], -pc	; <UNPREDICTABLE>
    f530:	00000000 	andeq	r0, r0, r0
    f534:	ffffff00 			; <UNDEFINED> instruction: 0xffffff00
    f538:	ffffffff 			; <UNDEFINED> instruction: 0xffffffff
    f53c:	000000ff 	strdeq	r0, [r0], -pc	; <UNPREDICTABLE>
    f540:	00000000 	andeq	r0, r0, r0
    f544:	00ffff00 	rscseq	pc, pc, r0, lsl #30
    f548:	ff000000 			; <UNDEFINED> instruction: 0xff000000
    f54c:	000000ff 	strdeq	r0, [r0], -pc	; <UNPREDICTABLE>
    f550:	00000000 	andeq	r0, r0, r0
    f554:	ffffff00 			; <UNDEFINED> instruction: 0xffffff00
    f558:	ffffffff 			; <UNDEFINED> instruction: 0xffffffff
    f55c:	000000ff 	strdeq	r0, [r0], -pc	; <UNPREDICTABLE>
    f560:	00000000 	andeq	r0, r0, r0
    f564:	ffffff00 			; <UNDEFINED> instruction: 0xffffff00
    f568:	ffffffff 			; <UNDEFINED> instruction: 0xffffffff
    f56c:	000000ff 	strdeq	r0, [r0], -pc	; <UNPREDICTABLE>
    f570:	00000000 	andeq	r0, r0, r0
    f574:	ffffff00 			; <UNDEFINED> instruction: 0xffffff00
    f578:	ffffffff 			; <UNDEFINED> instruction: 0xffffffff
    f57c:	000000ff 	strdeq	r0, [r0], -pc	; <UNPREDICTABLE>
    f580:	00000000 	andeq	r0, r0, r0
    f584:	ffffff00 			; <UNDEFINED> instruction: 0xffffff00
    f588:	ffffffff 			; <UNDEFINED> instruction: 0xffffffff
    f58c:	000000ff 	strdeq	r0, [r0], -pc	; <UNPREDICTABLE>
    f590:	00000000 	andeq	r0, r0, r0
    f594:	ffffff00 			; <UNDEFINED> instruction: 0xffffff00
    f598:	ffffffff 			; <UNDEFINED> instruction: 0xffffffff
    f59c:	000000ff 	strdeq	r0, [r0], -pc	; <UNPREDICTABLE>
    f5a0:	00000000 	andeq	r0, r0, r0
    f5a4:	ffffff00 			; <UNDEFINED> instruction: 0xffffff00
    f5a8:	000000ff 	strdeq	r0, [r0], -pc	; <UNPREDICTABLE>
	...
    f5b4:	ffffff00 			; <UNDEFINED> instruction: 0xffffff00
    f5b8:	000000ff 	strdeq	r0, [r0], -pc	; <UNPREDICTABLE>
    f5bc:	00000000 	andeq	r0, r0, r0
    f5c0:	ff000000 			; <UNDEFINED> instruction: 0xff000000
    f5c4:	000000ff 	strdeq	r0, [r0], -pc	; <UNPREDICTABLE>
	...
    f5d0:	ff000000 			; <UNDEFINED> instruction: 0xff000000
    f5d4:	ffffffff 			; <UNDEFINED> instruction: 0xffffffff
    f5d8:	00ffffff 	ldrshteq	pc, [pc], #255	; <UNPREDICTABLE>
	...
    f5e8:	00ffff00 	rscseq	pc, pc, r0, lsl #30
    f5ec:	00000000 	andeq	r0, r0, r0
    f5f0:	ff000000 			; <UNDEFINED> instruction: 0xff000000
    f5f4:	000000ff 	strdeq	r0, [r0], -pc	; <UNPREDICTABLE>
    f5f8:	00ffff00 	rscseq	pc, pc, r0, lsl #30
    f5fc:	00000000 	andeq	r0, r0, r0
    f600:	ff000000 			; <UNDEFINED> instruction: 0xff000000
    f604:	000000ff 	strdeq	r0, [r0], -pc	; <UNPREDICTABLE>
    f608:	ff000000 			; <UNDEFINED> instruction: 0xff000000
    f60c:	000000ff 	strdeq	r0, [r0], -pc	; <UNPREDICTABLE>
	...
    f618:	ff000000 			; <UNDEFINED> instruction: 0xff000000
    f61c:	000000ff 	strdeq	r0, [r0], -pc	; <UNPREDICTABLE>
	...
    f628:	ff000000 			; <UNDEFINED> instruction: 0xff000000
    f62c:	000000ff 	strdeq	r0, [r0], -pc	; <UNPREDICTABLE>
	...
    f638:	ff000000 			; <UNDEFINED> instruction: 0xff000000
    f63c:	000000ff 	strdeq	r0, [r0], -pc	; <UNPREDICTABLE>
    f640:	00000000 	andeq	r0, r0, r0
    f644:	00ffff00 	rscseq	pc, pc, r0, lsl #30
    f648:	ff000000 			; <UNDEFINED> instruction: 0xff000000
    f64c:	000000ff 	strdeq	r0, [r0], -pc	; <UNPREDICTABLE>
    f650:	00000000 	andeq	r0, r0, r0
    f654:	00ffff00 	rscseq	pc, pc, r0, lsl #30
	...
    f664:	00ffff00 	rscseq	pc, pc, r0, lsl #30
	...
    f674:	00ffff00 	rscseq	pc, pc, r0, lsl #30
    f678:	ff000000 			; <UNDEFINED> instruction: 0xff000000
    f67c:	000000ff 	strdeq	r0, [r0], -pc	; <UNPREDICTABLE>
    f680:	00000000 	andeq	r0, r0, r0
    f684:	00ffff00 	rscseq	pc, pc, r0, lsl #30
    f688:	ff000000 			; <UNDEFINED> instruction: 0xff000000
    f68c:	000000ff 	strdeq	r0, [r0], -pc	; <UNPREDICTABLE>
    f690:	00000000 	andeq	r0, r0, r0
    f694:	00ffff00 	rscseq	pc, pc, r0, lsl #30
    f698:	ff000000 			; <UNDEFINED> instruction: 0xff000000
    f69c:	000000ff 	strdeq	r0, [r0], -pc	; <UNPREDICTABLE>
    f6a0:	00000000 	andeq	r0, r0, r0
    f6a4:	ffffff00 			; <UNDEFINED> instruction: 0xffffff00
    f6a8:	000000ff 	strdeq	r0, [r0], -pc	; <UNPREDICTABLE>
	...
    f6b4:	ffffff00 			; <UNDEFINED> instruction: 0xffffff00
    f6b8:	000000ff 	strdeq	r0, [r0], -pc	; <UNPREDICTABLE>
    f6bc:	00000000 	andeq	r0, r0, r0
    f6c0:	00ffff00 	rscseq	pc, pc, r0, lsl #30
	...
    f6e8:	ff000000 			; <UNDEFINED> instruction: 0xff000000
    f6ec:	000000ff 	strdeq	r0, [r0], -pc	; <UNPREDICTABLE>
	...
    f6f8:	00ffff00 	rscseq	pc, pc, r0, lsl #30
    f6fc:	00000000 	andeq	r0, r0, r0
    f700:	ff000000 			; <UNDEFINED> instruction: 0xff000000
    f704:	000000ff 	strdeq	r0, [r0], -pc	; <UNPREDICTABLE>
    f708:	ff000000 			; <UNDEFINED> instruction: 0xff000000
    f70c:	000000ff 	strdeq	r0, [r0], -pc	; <UNPREDICTABLE>
	...
    f718:	ff000000 			; <UNDEFINED> instruction: 0xff000000
    f71c:	000000ff 	strdeq	r0, [r0], -pc	; <UNPREDICTABLE>
	...
    f728:	ff000000 			; <UNDEFINED> instruction: 0xff000000
    f72c:	000000ff 	strdeq	r0, [r0], -pc	; <UNPREDICTABLE>
	...
    f738:	ff000000 			; <UNDEFINED> instruction: 0xff000000
    f73c:	000000ff 	strdeq	r0, [r0], -pc	; <UNPREDICTABLE>
    f740:	00000000 	andeq	r0, r0, r0
    f744:	00ffff00 	rscseq	pc, pc, r0, lsl #30
    f748:	ff000000 			; <UNDEFINED> instruction: 0xff000000
    f74c:	000000ff 	strdeq	r0, [r0], -pc	; <UNPREDICTABLE>
    f750:	00000000 	andeq	r0, r0, r0
    f754:	00ffff00 	rscseq	pc, pc, r0, lsl #30
	...
    f764:	00ffff00 	rscseq	pc, pc, r0, lsl #30
	...
    f774:	00ffff00 	rscseq	pc, pc, r0, lsl #30
    f778:	ff000000 			; <UNDEFINED> instruction: 0xff000000
    f77c:	000000ff 	strdeq	r0, [r0], -pc	; <UNPREDICTABLE>
    f780:	00000000 	andeq	r0, r0, r0
    f784:	00ffff00 	rscseq	pc, pc, r0, lsl #30
    f788:	ff000000 			; <UNDEFINED> instruction: 0xff000000
    f78c:	000000ff 	strdeq	r0, [r0], -pc	; <UNPREDICTABLE>
    f790:	00000000 	andeq	r0, r0, r0
    f794:	00ffff00 	rscseq	pc, pc, r0, lsl #30
    f798:	ff000000 			; <UNDEFINED> instruction: 0xff000000
    f79c:	000000ff 	strdeq	r0, [r0], -pc	; <UNPREDICTABLE>
    f7a0:	00000000 	andeq	r0, r0, r0
    f7a4:	ffffff00 			; <UNDEFINED> instruction: 0xffffff00
    f7a8:	000000ff 	strdeq	r0, [r0], -pc	; <UNPREDICTABLE>
	...
    f7b4:	ffffff00 			; <UNDEFINED> instruction: 0xffffff00
    f7b8:	000000ff 	strdeq	r0, [r0], -pc	; <UNPREDICTABLE>
    f7bc:	00000000 	andeq	r0, r0, r0
    f7c0:	00ffff00 	rscseq	pc, pc, r0, lsl #30
	...
    f7e8:	ff000000 			; <UNDEFINED> instruction: 0xff000000
    f7ec:	000000ff 	strdeq	r0, [r0], -pc	; <UNPREDICTABLE>
	...
    f7f8:	00ffff00 	rscseq	pc, pc, r0, lsl #30
    f7fc:	00000000 	andeq	r0, r0, r0
    f800:	ff000000 			; <UNDEFINED> instruction: 0xff000000
    f804:	000000ff 	strdeq	r0, [r0], -pc	; <UNPREDICTABLE>
    f808:	ff000000 			; <UNDEFINED> instruction: 0xff000000
    f80c:	000000ff 	strdeq	r0, [r0], -pc	; <UNPREDICTABLE>
	...
    f818:	ff000000 			; <UNDEFINED> instruction: 0xff000000
    f81c:	000000ff 	strdeq	r0, [r0], -pc	; <UNPREDICTABLE>
    f820:	ff000000 			; <UNDEFINED> instruction: 0xff000000
    f824:	ffffffff 			; <UNDEFINED> instruction: 0xffffffff
    f828:	ffffffff 			; <UNDEFINED> instruction: 0xffffffff
    f82c:	000000ff 	strdeq	r0, [r0], -pc	; <UNPREDICTABLE>
    f830:	00000000 	andeq	r0, r0, r0
    f834:	ffffff00 			; <UNDEFINED> instruction: 0xffffff00
    f838:	ffffffff 			; <UNDEFINED> instruction: 0xffffffff
    f83c:	000000ff 	strdeq	r0, [r0], -pc	; <UNPREDICTABLE>
    f840:	00000000 	andeq	r0, r0, r0
    f844:	ffffff00 			; <UNDEFINED> instruction: 0xffffff00
    f848:	ffffffff 			; <UNDEFINED> instruction: 0xffffffff
    f84c:	000000ff 	strdeq	r0, [r0], -pc	; <UNPREDICTABLE>
    f850:	00000000 	andeq	r0, r0, r0
    f854:	ffffff00 			; <UNDEFINED> instruction: 0xffffff00
    f858:	ffffffff 			; <UNDEFINED> instruction: 0xffffffff
    f85c:	000000ff 	strdeq	r0, [r0], -pc	; <UNPREDICTABLE>
    f860:	00000000 	andeq	r0, r0, r0
    f864:	ffffff00 			; <UNDEFINED> instruction: 0xffffff00
    f868:	ffffffff 			; <UNDEFINED> instruction: 0xffffffff
    f86c:	000000ff 	strdeq	r0, [r0], -pc	; <UNPREDICTABLE>
	...
    f878:	ff000000 			; <UNDEFINED> instruction: 0xff000000
    f87c:	000000ff 	strdeq	r0, [r0], -pc	; <UNPREDICTABLE>
    f880:	00000000 	andeq	r0, r0, r0
    f884:	ffffff00 			; <UNDEFINED> instruction: 0xffffff00
    f888:	ffffffff 			; <UNDEFINED> instruction: 0xffffffff
    f88c:	000000ff 	strdeq	r0, [r0], -pc	; <UNPREDICTABLE>
    f890:	00000000 	andeq	r0, r0, r0
    f894:	ffffff00 			; <UNDEFINED> instruction: 0xffffff00
    f898:	ffffffff 			; <UNDEFINED> instruction: 0xffffffff
    f89c:	000000ff 	strdeq	r0, [r0], -pc	; <UNPREDICTABLE>
	...
    f8c0:	00ffff00 	rscseq	pc, pc, r0, lsl #30
	...
    f8e8:	ff000000 			; <UNDEFINED> instruction: 0xff000000
    f8ec:	000000ff 	strdeq	r0, [r0], -pc	; <UNPREDICTABLE>
    f8f0:	00000000 	andeq	r0, r0, r0
    f8f4:	ffffff00 			; <UNDEFINED> instruction: 0xffffff00
    f8f8:	00ffffff 	ldrshteq	pc, [pc], #255	; <UNPREDICTABLE>
    f8fc:	00000000 	andeq	r0, r0, r0
    f900:	ff000000 			; <UNDEFINED> instruction: 0xff000000
    f904:	000000ff 	strdeq	r0, [r0], -pc	; <UNPREDICTABLE>
    f908:	ff000000 			; <UNDEFINED> instruction: 0xff000000
    f90c:	000000ff 	strdeq	r0, [r0], -pc	; <UNPREDICTABLE>
	...
    f918:	ff000000 			; <UNDEFINED> instruction: 0xff000000
    f91c:	000000ff 	strdeq	r0, [r0], -pc	; <UNPREDICTABLE>
    f920:	ff000000 			; <UNDEFINED> instruction: 0xff000000
    f924:	ffffffff 			; <UNDEFINED> instruction: 0xffffffff
    f928:	ffffffff 			; <UNDEFINED> instruction: 0xffffffff
    f92c:	000000ff 	strdeq	r0, [r0], -pc	; <UNPREDICTABLE>
    f930:	00000000 	andeq	r0, r0, r0
    f934:	ffffff00 			; <UNDEFINED> instruction: 0xffffff00
    f938:	ffffffff 			; <UNDEFINED> instruction: 0xffffffff
    f93c:	000000ff 	strdeq	r0, [r0], -pc	; <UNPREDICTABLE>
    f940:	00000000 	andeq	r0, r0, r0
    f944:	ffffff00 			; <UNDEFINED> instruction: 0xffffff00
    f948:	ffffffff 			; <UNDEFINED> instruction: 0xffffffff
    f94c:	000000ff 	strdeq	r0, [r0], -pc	; <UNPREDICTABLE>
    f950:	00000000 	andeq	r0, r0, r0
    f954:	ffffff00 			; <UNDEFINED> instruction: 0xffffff00
    f958:	ffffffff 			; <UNDEFINED> instruction: 0xffffffff
    f95c:	000000ff 	strdeq	r0, [r0], -pc	; <UNPREDICTABLE>
    f960:	00000000 	andeq	r0, r0, r0
    f964:	ffffff00 			; <UNDEFINED> instruction: 0xffffff00
    f968:	ffffffff 			; <UNDEFINED> instruction: 0xffffffff
    f96c:	000000ff 	strdeq	r0, [r0], -pc	; <UNPREDICTABLE>
	...
    f978:	ff000000 			; <UNDEFINED> instruction: 0xff000000
    f97c:	000000ff 	strdeq	r0, [r0], -pc	; <UNPREDICTABLE>
    f980:	00000000 	andeq	r0, r0, r0
    f984:	ffffff00 			; <UNDEFINED> instruction: 0xffffff00
    f988:	ffffffff 			; <UNDEFINED> instruction: 0xffffffff
    f98c:	000000ff 	strdeq	r0, [r0], -pc	; <UNPREDICTABLE>
    f990:	00000000 	andeq	r0, r0, r0
    f994:	ffffff00 			; <UNDEFINED> instruction: 0xffffff00
    f998:	ffffffff 			; <UNDEFINED> instruction: 0xffffffff
    f99c:	000000ff 	strdeq	r0, [r0], -pc	; <UNPREDICTABLE>
	...
    f9c0:	00ffff00 	rscseq	pc, pc, r0, lsl #30
	...
    f9e8:	ff000000 			; <UNDEFINED> instruction: 0xff000000
    f9ec:	000000ff 	strdeq	r0, [r0], -pc	; <UNPREDICTABLE>
    f9f0:	00000000 	andeq	r0, r0, r0
    f9f4:	ffffff00 			; <UNDEFINED> instruction: 0xffffff00
    f9f8:	00ffffff 	ldrshteq	pc, [pc], #255	; <UNPREDICTABLE>
    f9fc:	00000000 	andeq	r0, r0, r0
    fa00:	ff000000 			; <UNDEFINED> instruction: 0xff000000
    fa04:	000000ff 	strdeq	r0, [r0], -pc	; <UNPREDICTABLE>
    fa08:	ff000000 			; <UNDEFINED> instruction: 0xff000000
    fa0c:	000000ff 	strdeq	r0, [r0], -pc	; <UNPREDICTABLE>
	...
    fa18:	ff000000 			; <UNDEFINED> instruction: 0xff000000
    fa1c:	000000ff 	strdeq	r0, [r0], -pc	; <UNPREDICTABLE>
    fa20:	ff000000 			; <UNDEFINED> instruction: 0xff000000
    fa24:	000000ff 	strdeq	r0, [r0], -pc	; <UNPREDICTABLE>
	...
    fa38:	ff000000 			; <UNDEFINED> instruction: 0xff000000
    fa3c:	000000ff 	strdeq	r0, [r0], -pc	; <UNPREDICTABLE>
	...
    fa48:	ff000000 			; <UNDEFINED> instruction: 0xff000000
    fa4c:	000000ff 	strdeq	r0, [r0], -pc	; <UNPREDICTABLE>
	...
    fa58:	ff000000 			; <UNDEFINED> instruction: 0xff000000
    fa5c:	000000ff 	strdeq	r0, [r0], -pc	; <UNPREDICTABLE>
    fa60:	00000000 	andeq	r0, r0, r0
    fa64:	00ffff00 	rscseq	pc, pc, r0, lsl #30
    fa68:	ff000000 			; <UNDEFINED> instruction: 0xff000000
    fa6c:	000000ff 	strdeq	r0, [r0], -pc	; <UNPREDICTABLE>
	...
    fa78:	ff000000 			; <UNDEFINED> instruction: 0xff000000
    fa7c:	000000ff 	strdeq	r0, [r0], -pc	; <UNPREDICTABLE>
    fa80:	00000000 	andeq	r0, r0, r0
    fa84:	00ffff00 	rscseq	pc, pc, r0, lsl #30
    fa88:	ff000000 			; <UNDEFINED> instruction: 0xff000000
    fa8c:	000000ff 	strdeq	r0, [r0], -pc	; <UNPREDICTABLE>
	...
    fa98:	ff000000 			; <UNDEFINED> instruction: 0xff000000
    fa9c:	000000ff 	strdeq	r0, [r0], -pc	; <UNPREDICTABLE>
    faa0:	00000000 	andeq	r0, r0, r0
    faa4:	ffffff00 			; <UNDEFINED> instruction: 0xffffff00
    faa8:	000000ff 	strdeq	r0, [r0], -pc	; <UNPREDICTABLE>
	...
    fab4:	ffffff00 			; <UNDEFINED> instruction: 0xffffff00
    fab8:	000000ff 	strdeq	r0, [r0], -pc	; <UNPREDICTABLE>
    fabc:	00000000 	andeq	r0, r0, r0
    fac0:	ff000000 			; <UNDEFINED> instruction: 0xff000000
    fac4:	000000ff 	strdeq	r0, [r0], -pc	; <UNPREDICTABLE>
	...
    fad0:	ff000000 			; <UNDEFINED> instruction: 0xff000000
    fad4:	ffffffff 			; <UNDEFINED> instruction: 0xffffffff
    fad8:	00ffffff 	ldrshteq	pc, [pc], #255	; <UNPREDICTABLE>
	...
    fae8:	00ffff00 	rscseq	pc, pc, r0, lsl #30
	...
    faf4:	ffffff00 			; <UNDEFINED> instruction: 0xffffff00
    faf8:	000000ff 	strdeq	r0, [r0], -pc	; <UNPREDICTABLE>
    fafc:	00000000 	andeq	r0, r0, r0
    fb00:	ff000000 			; <UNDEFINED> instruction: 0xff000000
    fb04:	000000ff 	strdeq	r0, [r0], -pc	; <UNPREDICTABLE>
    fb08:	ff000000 			; <UNDEFINED> instruction: 0xff000000
    fb0c:	000000ff 	strdeq	r0, [r0], -pc	; <UNPREDICTABLE>
	...
    fb18:	ff000000 			; <UNDEFINED> instruction: 0xff000000
    fb1c:	000000ff 	strdeq	r0, [r0], -pc	; <UNPREDICTABLE>
    fb20:	ff000000 			; <UNDEFINED> instruction: 0xff000000
    fb24:	000000ff 	strdeq	r0, [r0], -pc	; <UNPREDICTABLE>
	...
    fb38:	ff000000 			; <UNDEFINED> instruction: 0xff000000
    fb3c:	000000ff 	strdeq	r0, [r0], -pc	; <UNPREDICTABLE>
	...
    fb48:	ff000000 			; <UNDEFINED> instruction: 0xff000000
    fb4c:	000000ff 	strdeq	r0, [r0], -pc	; <UNPREDICTABLE>
	...
    fb58:	ff000000 			; <UNDEFINED> instruction: 0xff000000
    fb5c:	000000ff 	strdeq	r0, [r0], -pc	; <UNPREDICTABLE>
    fb60:	00000000 	andeq	r0, r0, r0
    fb64:	00ffff00 	rscseq	pc, pc, r0, lsl #30
    fb68:	ff000000 			; <UNDEFINED> instruction: 0xff000000
    fb6c:	000000ff 	strdeq	r0, [r0], -pc	; <UNPREDICTABLE>
	...
    fb78:	ff000000 			; <UNDEFINED> instruction: 0xff000000
    fb7c:	000000ff 	strdeq	r0, [r0], -pc	; <UNPREDICTABLE>
    fb80:	00000000 	andeq	r0, r0, r0
    fb84:	00ffff00 	rscseq	pc, pc, r0, lsl #30
    fb88:	ff000000 			; <UNDEFINED> instruction: 0xff000000
    fb8c:	000000ff 	strdeq	r0, [r0], -pc	; <UNPREDICTABLE>
	...
    fb98:	ff000000 			; <UNDEFINED> instruction: 0xff000000
    fb9c:	000000ff 	strdeq	r0, [r0], -pc	; <UNPREDICTABLE>
    fba0:	00000000 	andeq	r0, r0, r0
    fba4:	ffffff00 			; <UNDEFINED> instruction: 0xffffff00
    fba8:	000000ff 	strdeq	r0, [r0], -pc	; <UNPREDICTABLE>
	...
    fbb4:	ffffff00 			; <UNDEFINED> instruction: 0xffffff00
    fbb8:	000000ff 	strdeq	r0, [r0], -pc	; <UNPREDICTABLE>
    fbbc:	00000000 	andeq	r0, r0, r0
    fbc0:	ff000000 			; <UNDEFINED> instruction: 0xff000000
    fbc4:	000000ff 	strdeq	r0, [r0], -pc	; <UNPREDICTABLE>
	...
    fbd0:	ff000000 			; <UNDEFINED> instruction: 0xff000000
    fbd4:	ffffffff 			; <UNDEFINED> instruction: 0xffffffff
    fbd8:	00ffffff 	ldrshteq	pc, [pc], #255	; <UNPREDICTABLE>
	...
    fbe8:	00ffff00 	rscseq	pc, pc, r0, lsl #30
	...
    fbf4:	ffffff00 			; <UNDEFINED> instruction: 0xffffff00
    fbf8:	000000ff 	strdeq	r0, [r0], -pc	; <UNPREDICTABLE>
	...
    fc04:	ffffff00 			; <UNDEFINED> instruction: 0xffffff00
    fc08:	00ffffff 	ldrshteq	pc, [pc], #255	; <UNPREDICTABLE>
	...
    fc18:	ff000000 			; <UNDEFINED> instruction: 0xff000000
    fc1c:	000000ff 	strdeq	r0, [r0], -pc	; <UNPREDICTABLE>
    fc20:	ff000000 			; <UNDEFINED> instruction: 0xff000000
    fc24:	ffffffff 			; <UNDEFINED> instruction: 0xffffffff
    fc28:	ffffffff 			; <UNDEFINED> instruction: 0xffffffff
    fc2c:	000000ff 	strdeq	r0, [r0], -pc	; <UNPREDICTABLE>
    fc30:	00000000 	andeq	r0, r0, r0
    fc34:	ffffff00 			; <UNDEFINED> instruction: 0xffffff00
    fc38:	ffffffff 			; <UNDEFINED> instruction: 0xffffffff
    fc3c:	000000ff 	strdeq	r0, [r0], -pc	; <UNPREDICTABLE>
	...
    fc48:	ff000000 			; <UNDEFINED> instruction: 0xff000000
    fc4c:	000000ff 	strdeq	r0, [r0], -pc	; <UNPREDICTABLE>
    fc50:	00000000 	andeq	r0, r0, r0
    fc54:	ffffff00 			; <UNDEFINED> instruction: 0xffffff00
    fc58:	ffffffff 			; <UNDEFINED> instruction: 0xffffffff
    fc5c:	000000ff 	strdeq	r0, [r0], -pc	; <UNPREDICTABLE>
    fc60:	00000000 	andeq	r0, r0, r0
    fc64:	ffffff00 			; <UNDEFINED> instruction: 0xffffff00
    fc68:	ffffffff 			; <UNDEFINED> instruction: 0xffffffff
    fc6c:	000000ff 	strdeq	r0, [r0], -pc	; <UNPREDICTABLE>
	...
    fc78:	ff000000 			; <UNDEFINED> instruction: 0xff000000
    fc7c:	000000ff 	strdeq	r0, [r0], -pc	; <UNPREDICTABLE>
    fc80:	00000000 	andeq	r0, r0, r0
    fc84:	ffffff00 			; <UNDEFINED> instruction: 0xffffff00
    fc88:	ffffffff 			; <UNDEFINED> instruction: 0xffffffff
    fc8c:	000000ff 	strdeq	r0, [r0], -pc	; <UNPREDICTABLE>
	...
    fc98:	ff000000 			; <UNDEFINED> instruction: 0xff000000
    fc9c:	000000ff 	strdeq	r0, [r0], -pc	; <UNPREDICTABLE>
    fca0:	00000000 	andeq	r0, r0, r0
    fca4:	ffffff00 			; <UNDEFINED> instruction: 0xffffff00
    fca8:	000000ff 	strdeq	r0, [r0], -pc	; <UNPREDICTABLE>
	...
    fcb4:	ffffff00 			; <UNDEFINED> instruction: 0xffffff00
    fcb8:	000000ff 	strdeq	r0, [r0], -pc	; <UNPREDICTABLE>
	...
    fcc4:	00ffff00 	rscseq	pc, pc, r0, lsl #30
	...
    fce4:	ff000000 			; <UNDEFINED> instruction: 0xff000000
    fce8:	000000ff 	strdeq	r0, [r0], -pc	; <UNPREDICTABLE>
	...
    fd04:	ffffff00 			; <UNDEFINED> instruction: 0xffffff00
    fd08:	00ffffff 	ldrshteq	pc, [pc], #255	; <UNPREDICTABLE>
	...
    fd18:	ff000000 			; <UNDEFINED> instruction: 0xff000000
    fd1c:	000000ff 	strdeq	r0, [r0], -pc	; <UNPREDICTABLE>
    fd20:	ff000000 			; <UNDEFINED> instruction: 0xff000000
    fd24:	ffffffff 			; <UNDEFINED> instruction: 0xffffffff
    fd28:	ffffffff 			; <UNDEFINED> instruction: 0xffffffff
    fd2c:	000000ff 	strdeq	r0, [r0], -pc	; <UNPREDICTABLE>
    fd30:	00000000 	andeq	r0, r0, r0
    fd34:	ffffff00 			; <UNDEFINED> instruction: 0xffffff00
    fd38:	ffffffff 			; <UNDEFINED> instruction: 0xffffffff
    fd3c:	000000ff 	strdeq	r0, [r0], -pc	; <UNPREDICTABLE>
	...
    fd48:	ff000000 			; <UNDEFINED> instruction: 0xff000000
    fd4c:	000000ff 	strdeq	r0, [r0], -pc	; <UNPREDICTABLE>
    fd50:	00000000 	andeq	r0, r0, r0
    fd54:	ffffff00 			; <UNDEFINED> instruction: 0xffffff00
    fd58:	ffffffff 			; <UNDEFINED> instruction: 0xffffffff
    fd5c:	000000ff 	strdeq	r0, [r0], -pc	; <UNPREDICTABLE>
    fd60:	00000000 	andeq	r0, r0, r0
    fd64:	ffffff00 			; <UNDEFINED> instruction: 0xffffff00
    fd68:	ffffffff 			; <UNDEFINED> instruction: 0xffffffff
    fd6c:	000000ff 	strdeq	r0, [r0], -pc	; <UNPREDICTABLE>
	...
    fd78:	ff000000 			; <UNDEFINED> instruction: 0xff000000
    fd7c:	000000ff 	strdeq	r0, [r0], -pc	; <UNPREDICTABLE>
    fd80:	00000000 	andeq	r0, r0, r0
    fd84:	ffffff00 			; <UNDEFINED> instruction: 0xffffff00
    fd88:	ffffffff 			; <UNDEFINED> instruction: 0xffffffff
    fd8c:	000000ff 	strdeq	r0, [r0], -pc	; <UNPREDICTABLE>
	...
    fd98:	ff000000 			; <UNDEFINED> instruction: 0xff000000
    fd9c:	000000ff 	strdeq	r0, [r0], -pc	; <UNPREDICTABLE>
    fda0:	00000000 	andeq	r0, r0, r0
    fda4:	ffffff00 			; <UNDEFINED> instruction: 0xffffff00
    fda8:	000000ff 	strdeq	r0, [r0], -pc	; <UNPREDICTABLE>
	...
    fdb4:	ffffff00 			; <UNDEFINED> instruction: 0xffffff00
    fdb8:	000000ff 	strdeq	r0, [r0], -pc	; <UNPREDICTABLE>
	...
    fdc4:	00ffff00 	rscseq	pc, pc, r0, lsl #30
	...
    fde4:	ff000000 			; <UNDEFINED> instruction: 0xff000000
    fde8:	000000ff 	strdeq	r0, [r0], -pc	; <UNPREDICTABLE>
	...
    feb4:	ff000000 			; <UNDEFINED> instruction: 0xff000000
    feb8:	000000ff 	strdeq	r0, [r0], -pc	; <UNPREDICTABLE>
	...
    fec4:	ff000000 			; <UNDEFINED> instruction: 0xff000000
    fec8:	000000ff 	strdeq	r0, [r0], -pc	; <UNPREDICTABLE>
	...
    fee4:	00ffff00 	rscseq	pc, pc, r0, lsl #30
	...
    fef4:	ffffff00 			; <UNDEFINED> instruction: 0xffffff00
    fef8:	000000ff 	strdeq	r0, [r0], -pc	; <UNPREDICTABLE>
	...
    ffb4:	ff000000 			; <UNDEFINED> instruction: 0xff000000
    ffb8:	000000ff 	strdeq	r0, [r0], -pc	; <UNPREDICTABLE>
	...
    ffc4:	ff000000 			; <UNDEFINED> instruction: 0xff000000
    ffc8:	000000ff 	strdeq	r0, [r0], -pc	; <UNPREDICTABLE>
	...
    ffe4:	00ffff00 	rscseq	pc, pc, r0, lsl #30
	...
    fff4:	ffffff00 			; <UNDEFINED> instruction: 0xffffff00
    fff8:	000000ff 	strdeq	r0, [r0], -pc	; <UNPREDICTABLE>
	...
   10210:	ff000000 			; <UNDEFINED> instruction: 0xff000000
   10214:	ffffffff 			; <UNDEFINED> instruction: 0xffffffff
   10218:	ffffffff 			; <UNDEFINED> instruction: 0xffffffff
   1021c:	000000ff 	strdeq	r0, [r0], -pc	; <UNPREDICTABLE>
   10220:	ff000000 			; <UNDEFINED> instruction: 0xff000000
   10224:	ffffffff 			; <UNDEFINED> instruction: 0xffffffff
   10228:	00ffffff 	ldrshteq	pc, [pc], #255	; <UNPREDICTABLE>
	...
   10234:	ffffff00 			; <UNDEFINED> instruction: 0xffffff00
   10238:	00ffffff 	ldrshteq	pc, [pc], #255	; <UNPREDICTABLE>
   1023c:	00000000 	andeq	r0, r0, r0
   10240:	ff000000 			; <UNDEFINED> instruction: 0xff000000
   10244:	ffffffff 			; <UNDEFINED> instruction: 0xffffffff
   10248:	00ffffff 	ldrshteq	pc, [pc], #255	; <UNPREDICTABLE>
   1024c:	00000000 	andeq	r0, r0, r0
   10250:	ff000000 			; <UNDEFINED> instruction: 0xff000000
   10254:	ffffffff 			; <UNDEFINED> instruction: 0xffffffff
   10258:	ffffffff 			; <UNDEFINED> instruction: 0xffffffff
   1025c:	000000ff 	strdeq	r0, [r0], -pc	; <UNPREDICTABLE>
   10260:	ff000000 			; <UNDEFINED> instruction: 0xff000000
   10264:	ffffffff 			; <UNDEFINED> instruction: 0xffffffff
   10268:	ffffffff 			; <UNDEFINED> instruction: 0xffffffff
   1026c:	000000ff 	strdeq	r0, [r0], -pc	; <UNPREDICTABLE>
   10270:	ff000000 			; <UNDEFINED> instruction: 0xff000000
   10274:	ffffffff 			; <UNDEFINED> instruction: 0xffffffff
   10278:	ffffffff 			; <UNDEFINED> instruction: 0xffffffff
   1027c:	000000ff 	strdeq	r0, [r0], -pc	; <UNPREDICTABLE>
   10280:	ff000000 			; <UNDEFINED> instruction: 0xff000000
   10284:	000000ff 	strdeq	r0, [r0], -pc	; <UNPREDICTABLE>
   10288:	ff000000 			; <UNDEFINED> instruction: 0xff000000
   1028c:	000000ff 	strdeq	r0, [r0], -pc	; <UNPREDICTABLE>
   10290:	ff000000 			; <UNDEFINED> instruction: 0xff000000
   10294:	ffffffff 			; <UNDEFINED> instruction: 0xffffffff
   10298:	00ffffff 	ldrshteq	pc, [pc], #255	; <UNPREDICTABLE>
   1029c:	00000000 	andeq	r0, r0, r0
   102a0:	ff000000 			; <UNDEFINED> instruction: 0xff000000
   102a4:	ffffffff 			; <UNDEFINED> instruction: 0xffffffff
   102a8:	ffffffff 			; <UNDEFINED> instruction: 0xffffffff
   102ac:	000000ff 	strdeq	r0, [r0], -pc	; <UNPREDICTABLE>
   102b0:	ff000000 			; <UNDEFINED> instruction: 0xff000000
   102b4:	000000ff 	strdeq	r0, [r0], -pc	; <UNPREDICTABLE>
   102b8:	ff000000 			; <UNDEFINED> instruction: 0xff000000
   102bc:	000000ff 	strdeq	r0, [r0], -pc	; <UNPREDICTABLE>
   102c0:	ff000000 			; <UNDEFINED> instruction: 0xff000000
   102c4:	000000ff 	strdeq	r0, [r0], -pc	; <UNPREDICTABLE>
	...
   102d0:	ff000000 			; <UNDEFINED> instruction: 0xff000000
   102d4:	000000ff 	strdeq	r0, [r0], -pc	; <UNPREDICTABLE>
   102d8:	ff000000 			; <UNDEFINED> instruction: 0xff000000
   102dc:	000000ff 	strdeq	r0, [r0], -pc	; <UNPREDICTABLE>
   102e0:	ff000000 			; <UNDEFINED> instruction: 0xff000000
   102e4:	000000ff 	strdeq	r0, [r0], -pc	; <UNPREDICTABLE>
   102e8:	ff000000 			; <UNDEFINED> instruction: 0xff000000
   102ec:	000000ff 	strdeq	r0, [r0], -pc	; <UNPREDICTABLE>
   102f0:	00000000 	andeq	r0, r0, r0
   102f4:	ffffff00 			; <UNDEFINED> instruction: 0xffffff00
   102f8:	00ffffff 	ldrshteq	pc, [pc], #255	; <UNPREDICTABLE>
	...
   10310:	ff000000 			; <UNDEFINED> instruction: 0xff000000
   10314:	ffffffff 			; <UNDEFINED> instruction: 0xffffffff
   10318:	ffffffff 			; <UNDEFINED> instruction: 0xffffffff
   1031c:	000000ff 	strdeq	r0, [r0], -pc	; <UNPREDICTABLE>
   10320:	ff000000 			; <UNDEFINED> instruction: 0xff000000
   10324:	ffffffff 			; <UNDEFINED> instruction: 0xffffffff
   10328:	00ffffff 	ldrshteq	pc, [pc], #255	; <UNPREDICTABLE>
	...
   10334:	ffffff00 			; <UNDEFINED> instruction: 0xffffff00
   10338:	00ffffff 	ldrshteq	pc, [pc], #255	; <UNPREDICTABLE>
   1033c:	00000000 	andeq	r0, r0, r0
   10340:	ff000000 			; <UNDEFINED> instruction: 0xff000000
   10344:	ffffffff 			; <UNDEFINED> instruction: 0xffffffff
   10348:	00ffffff 	ldrshteq	pc, [pc], #255	; <UNPREDICTABLE>
   1034c:	00000000 	andeq	r0, r0, r0
   10350:	ff000000 			; <UNDEFINED> instruction: 0xff000000
   10354:	ffffffff 			; <UNDEFINED> instruction: 0xffffffff
   10358:	ffffffff 			; <UNDEFINED> instruction: 0xffffffff
   1035c:	000000ff 	strdeq	r0, [r0], -pc	; <UNPREDICTABLE>
   10360:	ff000000 			; <UNDEFINED> instruction: 0xff000000
   10364:	ffffffff 			; <UNDEFINED> instruction: 0xffffffff
   10368:	ffffffff 			; <UNDEFINED> instruction: 0xffffffff
   1036c:	000000ff 	strdeq	r0, [r0], -pc	; <UNPREDICTABLE>
   10370:	ff000000 			; <UNDEFINED> instruction: 0xff000000
   10374:	ffffffff 			; <UNDEFINED> instruction: 0xffffffff
   10378:	ffffffff 			; <UNDEFINED> instruction: 0xffffffff
   1037c:	000000ff 	strdeq	r0, [r0], -pc	; <UNPREDICTABLE>
   10380:	ff000000 			; <UNDEFINED> instruction: 0xff000000
   10384:	000000ff 	strdeq	r0, [r0], -pc	; <UNPREDICTABLE>
   10388:	ff000000 			; <UNDEFINED> instruction: 0xff000000
   1038c:	000000ff 	strdeq	r0, [r0], -pc	; <UNPREDICTABLE>
   10390:	ff000000 			; <UNDEFINED> instruction: 0xff000000
   10394:	ffffffff 			; <UNDEFINED> instruction: 0xffffffff
   10398:	00ffffff 	ldrshteq	pc, [pc], #255	; <UNPREDICTABLE>
   1039c:	00000000 	andeq	r0, r0, r0
   103a0:	ff000000 			; <UNDEFINED> instruction: 0xff000000
   103a4:	ffffffff 			; <UNDEFINED> instruction: 0xffffffff
   103a8:	ffffffff 			; <UNDEFINED> instruction: 0xffffffff
   103ac:	000000ff 	strdeq	r0, [r0], -pc	; <UNPREDICTABLE>
   103b0:	ff000000 			; <UNDEFINED> instruction: 0xff000000
   103b4:	000000ff 	strdeq	r0, [r0], -pc	; <UNPREDICTABLE>
   103b8:	ff000000 			; <UNDEFINED> instruction: 0xff000000
   103bc:	000000ff 	strdeq	r0, [r0], -pc	; <UNPREDICTABLE>
   103c0:	ff000000 			; <UNDEFINED> instruction: 0xff000000
   103c4:	000000ff 	strdeq	r0, [r0], -pc	; <UNPREDICTABLE>
	...
   103d0:	ff000000 			; <UNDEFINED> instruction: 0xff000000
   103d4:	000000ff 	strdeq	r0, [r0], -pc	; <UNPREDICTABLE>
   103d8:	ff000000 			; <UNDEFINED> instruction: 0xff000000
   103dc:	000000ff 	strdeq	r0, [r0], -pc	; <UNPREDICTABLE>
   103e0:	ff000000 			; <UNDEFINED> instruction: 0xff000000
   103e4:	000000ff 	strdeq	r0, [r0], -pc	; <UNPREDICTABLE>
   103e8:	ff000000 			; <UNDEFINED> instruction: 0xff000000
   103ec:	000000ff 	strdeq	r0, [r0], -pc	; <UNPREDICTABLE>
   103f0:	00000000 	andeq	r0, r0, r0
   103f4:	ffffff00 			; <UNDEFINED> instruction: 0xffffff00
   103f8:	00ffffff 	ldrshteq	pc, [pc], #255	; <UNPREDICTABLE>
   103fc:	00000000 	andeq	r0, r0, r0
   10400:	ffffff00 			; <UNDEFINED> instruction: 0xffffff00
   10404:	ffffffff 			; <UNDEFINED> instruction: 0xffffffff
   10408:	ffffffff 			; <UNDEFINED> instruction: 0xffffffff
   1040c:	000000ff 	strdeq	r0, [r0], -pc	; <UNPREDICTABLE>
   10410:	ff000000 			; <UNDEFINED> instruction: 0xff000000
   10414:	000000ff 	strdeq	r0, [r0], -pc	; <UNPREDICTABLE>
   10418:	ff000000 			; <UNDEFINED> instruction: 0xff000000
   1041c:	000000ff 	strdeq	r0, [r0], -pc	; <UNPREDICTABLE>
   10420:	ff000000 			; <UNDEFINED> instruction: 0xff000000
   10424:	000000ff 	strdeq	r0, [r0], -pc	; <UNPREDICTABLE>
   10428:	ff000000 			; <UNDEFINED> instruction: 0xff000000
   1042c:	000000ff 	strdeq	r0, [r0], -pc	; <UNPREDICTABLE>
   10430:	ff000000 			; <UNDEFINED> instruction: 0xff000000
   10434:	000000ff 	strdeq	r0, [r0], -pc	; <UNPREDICTABLE>
   10438:	ff000000 			; <UNDEFINED> instruction: 0xff000000
   1043c:	000000ff 	strdeq	r0, [r0], -pc	; <UNPREDICTABLE>
   10440:	ff000000 			; <UNDEFINED> instruction: 0xff000000
   10444:	000000ff 	strdeq	r0, [r0], -pc	; <UNPREDICTABLE>
   10448:	ff000000 			; <UNDEFINED> instruction: 0xff000000
   1044c:	000000ff 	strdeq	r0, [r0], -pc	; <UNPREDICTABLE>
   10450:	ff000000 			; <UNDEFINED> instruction: 0xff000000
   10454:	000000ff 	strdeq	r0, [r0], -pc	; <UNPREDICTABLE>
	...
   10460:	ff000000 			; <UNDEFINED> instruction: 0xff000000
   10464:	000000ff 	strdeq	r0, [r0], -pc	; <UNPREDICTABLE>
	...
   10470:	ff000000 			; <UNDEFINED> instruction: 0xff000000
   10474:	000000ff 	strdeq	r0, [r0], -pc	; <UNPREDICTABLE>
	...
   10480:	ff000000 			; <UNDEFINED> instruction: 0xff000000
   10484:	000000ff 	strdeq	r0, [r0], -pc	; <UNPREDICTABLE>
   10488:	ff000000 			; <UNDEFINED> instruction: 0xff000000
   1048c:	000000ff 	strdeq	r0, [r0], -pc	; <UNPREDICTABLE>
   10490:	00000000 	andeq	r0, r0, r0
   10494:	ff000000 			; <UNDEFINED> instruction: 0xff000000
   10498:	000000ff 	strdeq	r0, [r0], -pc	; <UNPREDICTABLE>
	...
   104a8:	00ffff00 	rscseq	pc, pc, r0, lsl #30
   104ac:	00000000 	andeq	r0, r0, r0
   104b0:	ff000000 			; <UNDEFINED> instruction: 0xff000000
   104b4:	000000ff 	strdeq	r0, [r0], -pc	; <UNPREDICTABLE>
   104b8:	00ffff00 	rscseq	pc, pc, r0, lsl #30
   104bc:	00000000 	andeq	r0, r0, r0
   104c0:	ff000000 			; <UNDEFINED> instruction: 0xff000000
   104c4:	000000ff 	strdeq	r0, [r0], -pc	; <UNPREDICTABLE>
	...
   104d0:	ff000000 			; <UNDEFINED> instruction: 0xff000000
   104d4:	00ffffff 	ldrshteq	pc, [pc], #255	; <UNPREDICTABLE>
   104d8:	ffffff00 			; <UNDEFINED> instruction: 0xffffff00
   104dc:	000000ff 	strdeq	r0, [r0], -pc	; <UNPREDICTABLE>
   104e0:	ff000000 			; <UNDEFINED> instruction: 0xff000000
   104e4:	00ffffff 	ldrshteq	pc, [pc], #255	; <UNPREDICTABLE>
   104e8:	ff000000 			; <UNDEFINED> instruction: 0xff000000
   104ec:	000000ff 	strdeq	r0, [r0], -pc	; <UNPREDICTABLE>
   104f0:	ff000000 			; <UNDEFINED> instruction: 0xff000000
   104f4:	000000ff 	strdeq	r0, [r0], -pc	; <UNPREDICTABLE>
   104f8:	ff000000 			; <UNDEFINED> instruction: 0xff000000
   104fc:	000000ff 	strdeq	r0, [r0], -pc	; <UNPREDICTABLE>
   10500:	ffffff00 			; <UNDEFINED> instruction: 0xffffff00
   10504:	ffffffff 			; <UNDEFINED> instruction: 0xffffffff
   10508:	ffffffff 			; <UNDEFINED> instruction: 0xffffffff
   1050c:	000000ff 	strdeq	r0, [r0], -pc	; <UNPREDICTABLE>
   10510:	ff000000 			; <UNDEFINED> instruction: 0xff000000
   10514:	000000ff 	strdeq	r0, [r0], -pc	; <UNPREDICTABLE>
   10518:	ff000000 			; <UNDEFINED> instruction: 0xff000000
   1051c:	000000ff 	strdeq	r0, [r0], -pc	; <UNPREDICTABLE>
   10520:	ff000000 			; <UNDEFINED> instruction: 0xff000000
   10524:	000000ff 	strdeq	r0, [r0], -pc	; <UNPREDICTABLE>
   10528:	ff000000 			; <UNDEFINED> instruction: 0xff000000
   1052c:	000000ff 	strdeq	r0, [r0], -pc	; <UNPREDICTABLE>
   10530:	ff000000 			; <UNDEFINED> instruction: 0xff000000
   10534:	000000ff 	strdeq	r0, [r0], -pc	; <UNPREDICTABLE>
   10538:	ff000000 			; <UNDEFINED> instruction: 0xff000000
   1053c:	000000ff 	strdeq	r0, [r0], -pc	; <UNPREDICTABLE>
   10540:	ff000000 			; <UNDEFINED> instruction: 0xff000000
   10544:	000000ff 	strdeq	r0, [r0], -pc	; <UNPREDICTABLE>
   10548:	ff000000 			; <UNDEFINED> instruction: 0xff000000
   1054c:	000000ff 	strdeq	r0, [r0], -pc	; <UNPREDICTABLE>
   10550:	ff000000 			; <UNDEFINED> instruction: 0xff000000
   10554:	000000ff 	strdeq	r0, [r0], -pc	; <UNPREDICTABLE>
	...
   10560:	ff000000 			; <UNDEFINED> instruction: 0xff000000
   10564:	000000ff 	strdeq	r0, [r0], -pc	; <UNPREDICTABLE>
	...
   10570:	ff000000 			; <UNDEFINED> instruction: 0xff000000
   10574:	000000ff 	strdeq	r0, [r0], -pc	; <UNPREDICTABLE>
	...
   10580:	ff000000 			; <UNDEFINED> instruction: 0xff000000
   10584:	000000ff 	strdeq	r0, [r0], -pc	; <UNPREDICTABLE>
   10588:	ff000000 			; <UNDEFINED> instruction: 0xff000000
   1058c:	000000ff 	strdeq	r0, [r0], -pc	; <UNPREDICTABLE>
   10590:	00000000 	andeq	r0, r0, r0
   10594:	ff000000 			; <UNDEFINED> instruction: 0xff000000
   10598:	000000ff 	strdeq	r0, [r0], -pc	; <UNPREDICTABLE>
	...
   105a8:	00ffff00 	rscseq	pc, pc, r0, lsl #30
   105ac:	00000000 	andeq	r0, r0, r0
   105b0:	ff000000 			; <UNDEFINED> instruction: 0xff000000
   105b4:	000000ff 	strdeq	r0, [r0], -pc	; <UNPREDICTABLE>
   105b8:	00ffff00 	rscseq	pc, pc, r0, lsl #30
   105bc:	00000000 	andeq	r0, r0, r0
   105c0:	ff000000 			; <UNDEFINED> instruction: 0xff000000
   105c4:	000000ff 	strdeq	r0, [r0], -pc	; <UNPREDICTABLE>
	...
   105d0:	ff000000 			; <UNDEFINED> instruction: 0xff000000
   105d4:	00ffffff 	ldrshteq	pc, [pc], #255	; <UNPREDICTABLE>
   105d8:	ffffff00 			; <UNDEFINED> instruction: 0xffffff00
   105dc:	000000ff 	strdeq	r0, [r0], -pc	; <UNPREDICTABLE>
   105e0:	ff000000 			; <UNDEFINED> instruction: 0xff000000
   105e4:	00ffffff 	ldrshteq	pc, [pc], #255	; <UNPREDICTABLE>
   105e8:	ff000000 			; <UNDEFINED> instruction: 0xff000000
   105ec:	000000ff 	strdeq	r0, [r0], -pc	; <UNPREDICTABLE>
   105f0:	ff000000 			; <UNDEFINED> instruction: 0xff000000
   105f4:	000000ff 	strdeq	r0, [r0], -pc	; <UNPREDICTABLE>
   105f8:	ff000000 			; <UNDEFINED> instruction: 0xff000000
   105fc:	000000ff 	strdeq	r0, [r0], -pc	; <UNPREDICTABLE>
   10600:	00ffff00 	rscseq	pc, pc, r0, lsl #30
   10604:	00000000 	andeq	r0, r0, r0
   10608:	ff000000 			; <UNDEFINED> instruction: 0xff000000
   1060c:	000000ff 	strdeq	r0, [r0], -pc	; <UNPREDICTABLE>
   10610:	ff000000 			; <UNDEFINED> instruction: 0xff000000
   10614:	000000ff 	strdeq	r0, [r0], -pc	; <UNPREDICTABLE>
   10618:	ff000000 			; <UNDEFINED> instruction: 0xff000000
   1061c:	000000ff 	strdeq	r0, [r0], -pc	; <UNPREDICTABLE>
   10620:	ff000000 			; <UNDEFINED> instruction: 0xff000000
   10624:	000000ff 	strdeq	r0, [r0], -pc	; <UNPREDICTABLE>
   10628:	ff000000 			; <UNDEFINED> instruction: 0xff000000
   1062c:	000000ff 	strdeq	r0, [r0], -pc	; <UNPREDICTABLE>
   10630:	ff000000 			; <UNDEFINED> instruction: 0xff000000
   10634:	000000ff 	strdeq	r0, [r0], -pc	; <UNPREDICTABLE>
	...
   10640:	ff000000 			; <UNDEFINED> instruction: 0xff000000
   10644:	000000ff 	strdeq	r0, [r0], -pc	; <UNPREDICTABLE>
   10648:	ff000000 			; <UNDEFINED> instruction: 0xff000000
   1064c:	000000ff 	strdeq	r0, [r0], -pc	; <UNPREDICTABLE>
   10650:	ff000000 			; <UNDEFINED> instruction: 0xff000000
   10654:	000000ff 	strdeq	r0, [r0], -pc	; <UNPREDICTABLE>
	...
   10660:	ff000000 			; <UNDEFINED> instruction: 0xff000000
   10664:	000000ff 	strdeq	r0, [r0], -pc	; <UNPREDICTABLE>
	...
   10670:	ff000000 			; <UNDEFINED> instruction: 0xff000000
   10674:	000000ff 	strdeq	r0, [r0], -pc	; <UNPREDICTABLE>
	...
   10680:	ff000000 			; <UNDEFINED> instruction: 0xff000000
   10684:	000000ff 	strdeq	r0, [r0], -pc	; <UNPREDICTABLE>
   10688:	ff000000 			; <UNDEFINED> instruction: 0xff000000
   1068c:	000000ff 	strdeq	r0, [r0], -pc	; <UNPREDICTABLE>
   10690:	00000000 	andeq	r0, r0, r0
   10694:	ff000000 			; <UNDEFINED> instruction: 0xff000000
   10698:	000000ff 	strdeq	r0, [r0], -pc	; <UNPREDICTABLE>
	...
   106a8:	00ffff00 	rscseq	pc, pc, r0, lsl #30
   106ac:	00000000 	andeq	r0, r0, r0
   106b0:	ff000000 			; <UNDEFINED> instruction: 0xff000000
   106b4:	000000ff 	strdeq	r0, [r0], -pc	; <UNPREDICTABLE>
   106b8:	00ffff00 	rscseq	pc, pc, r0, lsl #30
   106bc:	00000000 	andeq	r0, r0, r0
   106c0:	ff000000 			; <UNDEFINED> instruction: 0xff000000
   106c4:	000000ff 	strdeq	r0, [r0], -pc	; <UNPREDICTABLE>
	...
   106d0:	ff000000 			; <UNDEFINED> instruction: 0xff000000
   106d4:	ff0000ff 			; <UNDEFINED> instruction: 0xff0000ff
   106d8:	ff0000ff 			; <UNDEFINED> instruction: 0xff0000ff
   106dc:	000000ff 	strdeq	r0, [r0], -pc	; <UNPREDICTABLE>
   106e0:	ff000000 			; <UNDEFINED> instruction: 0xff000000
   106e4:	00ffffff 	ldrshteq	pc, [pc], #255	; <UNPREDICTABLE>
   106e8:	ff000000 			; <UNDEFINED> instruction: 0xff000000
   106ec:	000000ff 	strdeq	r0, [r0], -pc	; <UNPREDICTABLE>
   106f0:	ff000000 			; <UNDEFINED> instruction: 0xff000000
   106f4:	000000ff 	strdeq	r0, [r0], -pc	; <UNPREDICTABLE>
   106f8:	ff000000 			; <UNDEFINED> instruction: 0xff000000
   106fc:	000000ff 	strdeq	r0, [r0], -pc	; <UNPREDICTABLE>
   10700:	00ffff00 	rscseq	pc, pc, r0, lsl #30
   10704:	00000000 	andeq	r0, r0, r0
   10708:	ff000000 			; <UNDEFINED> instruction: 0xff000000
   1070c:	000000ff 	strdeq	r0, [r0], -pc	; <UNPREDICTABLE>
   10710:	ff000000 			; <UNDEFINED> instruction: 0xff000000
   10714:	000000ff 	strdeq	r0, [r0], -pc	; <UNPREDICTABLE>
   10718:	ff000000 			; <UNDEFINED> instruction: 0xff000000
   1071c:	000000ff 	strdeq	r0, [r0], -pc	; <UNPREDICTABLE>
   10720:	ff000000 			; <UNDEFINED> instruction: 0xff000000
   10724:	000000ff 	strdeq	r0, [r0], -pc	; <UNPREDICTABLE>
   10728:	ff000000 			; <UNDEFINED> instruction: 0xff000000
   1072c:	000000ff 	strdeq	r0, [r0], -pc	; <UNPREDICTABLE>
   10730:	ff000000 			; <UNDEFINED> instruction: 0xff000000
   10734:	000000ff 	strdeq	r0, [r0], -pc	; <UNPREDICTABLE>
	...
   10740:	ff000000 			; <UNDEFINED> instruction: 0xff000000
   10744:	000000ff 	strdeq	r0, [r0], -pc	; <UNPREDICTABLE>
   10748:	ff000000 			; <UNDEFINED> instruction: 0xff000000
   1074c:	000000ff 	strdeq	r0, [r0], -pc	; <UNPREDICTABLE>
   10750:	ff000000 			; <UNDEFINED> instruction: 0xff000000
   10754:	000000ff 	strdeq	r0, [r0], -pc	; <UNPREDICTABLE>
	...
   10760:	ff000000 			; <UNDEFINED> instruction: 0xff000000
   10764:	000000ff 	strdeq	r0, [r0], -pc	; <UNPREDICTABLE>
	...
   10770:	ff000000 			; <UNDEFINED> instruction: 0xff000000
   10774:	000000ff 	strdeq	r0, [r0], -pc	; <UNPREDICTABLE>
	...
   10780:	ff000000 			; <UNDEFINED> instruction: 0xff000000
   10784:	000000ff 	strdeq	r0, [r0], -pc	; <UNPREDICTABLE>
   10788:	ff000000 			; <UNDEFINED> instruction: 0xff000000
   1078c:	000000ff 	strdeq	r0, [r0], -pc	; <UNPREDICTABLE>
   10790:	00000000 	andeq	r0, r0, r0
   10794:	ff000000 			; <UNDEFINED> instruction: 0xff000000
   10798:	000000ff 	strdeq	r0, [r0], -pc	; <UNPREDICTABLE>
	...
   107a8:	00ffff00 	rscseq	pc, pc, r0, lsl #30
   107ac:	00000000 	andeq	r0, r0, r0
   107b0:	ff000000 			; <UNDEFINED> instruction: 0xff000000
   107b4:	000000ff 	strdeq	r0, [r0], -pc	; <UNPREDICTABLE>
   107b8:	00ffff00 	rscseq	pc, pc, r0, lsl #30
   107bc:	00000000 	andeq	r0, r0, r0
   107c0:	ff000000 			; <UNDEFINED> instruction: 0xff000000
   107c4:	000000ff 	strdeq	r0, [r0], -pc	; <UNPREDICTABLE>
	...
   107d0:	ff000000 			; <UNDEFINED> instruction: 0xff000000
   107d4:	ff0000ff 			; <UNDEFINED> instruction: 0xff0000ff
   107d8:	ff0000ff 			; <UNDEFINED> instruction: 0xff0000ff
   107dc:	000000ff 	strdeq	r0, [r0], -pc	; <UNPREDICTABLE>
   107e0:	ff000000 			; <UNDEFINED> instruction: 0xff000000
   107e4:	00ffffff 	ldrshteq	pc, [pc], #255	; <UNPREDICTABLE>
   107e8:	ff000000 			; <UNDEFINED> instruction: 0xff000000
   107ec:	000000ff 	strdeq	r0, [r0], -pc	; <UNPREDICTABLE>
   107f0:	ff000000 			; <UNDEFINED> instruction: 0xff000000
   107f4:	000000ff 	strdeq	r0, [r0], -pc	; <UNPREDICTABLE>
   107f8:	ff000000 			; <UNDEFINED> instruction: 0xff000000
   107fc:	000000ff 	strdeq	r0, [r0], -pc	; <UNPREDICTABLE>
	...
   10808:	ff000000 			; <UNDEFINED> instruction: 0xff000000
   1080c:	000000ff 	strdeq	r0, [r0], -pc	; <UNPREDICTABLE>
   10810:	ff000000 			; <UNDEFINED> instruction: 0xff000000
   10814:	ffffffff 			; <UNDEFINED> instruction: 0xffffffff
   10818:	ffffffff 			; <UNDEFINED> instruction: 0xffffffff
   1081c:	000000ff 	strdeq	r0, [r0], -pc	; <UNPREDICTABLE>
   10820:	ff000000 			; <UNDEFINED> instruction: 0xff000000
   10824:	ffffffff 			; <UNDEFINED> instruction: 0xffffffff
   10828:	00ffffff 	ldrshteq	pc, [pc], #255	; <UNPREDICTABLE>
   1082c:	00000000 	andeq	r0, r0, r0
   10830:	ff000000 			; <UNDEFINED> instruction: 0xff000000
   10834:	000000ff 	strdeq	r0, [r0], -pc	; <UNPREDICTABLE>
	...
   10840:	ff000000 			; <UNDEFINED> instruction: 0xff000000
   10844:	000000ff 	strdeq	r0, [r0], -pc	; <UNPREDICTABLE>
   10848:	ff000000 			; <UNDEFINED> instruction: 0xff000000
   1084c:	000000ff 	strdeq	r0, [r0], -pc	; <UNPREDICTABLE>
   10850:	ff000000 			; <UNDEFINED> instruction: 0xff000000
   10854:	ffffffff 			; <UNDEFINED> instruction: 0xffffffff
   10858:	00ffffff 	ldrshteq	pc, [pc], #255	; <UNPREDICTABLE>
   1085c:	00000000 	andeq	r0, r0, r0
   10860:	ff000000 			; <UNDEFINED> instruction: 0xff000000
   10864:	ffffffff 			; <UNDEFINED> instruction: 0xffffffff
   10868:	00ffffff 	ldrshteq	pc, [pc], #255	; <UNPREDICTABLE>
   1086c:	00000000 	andeq	r0, r0, r0
   10870:	ff000000 			; <UNDEFINED> instruction: 0xff000000
   10874:	000000ff 	strdeq	r0, [r0], -pc	; <UNPREDICTABLE>
   10878:	ffffff00 			; <UNDEFINED> instruction: 0xffffff00
   1087c:	000000ff 	strdeq	r0, [r0], -pc	; <UNPREDICTABLE>
   10880:	ff000000 			; <UNDEFINED> instruction: 0xff000000
   10884:	ffffffff 			; <UNDEFINED> instruction: 0xffffffff
   10888:	ffffffff 			; <UNDEFINED> instruction: 0xffffffff
   1088c:	000000ff 	strdeq	r0, [r0], -pc	; <UNPREDICTABLE>
   10890:	00000000 	andeq	r0, r0, r0
   10894:	ff000000 			; <UNDEFINED> instruction: 0xff000000
   10898:	000000ff 	strdeq	r0, [r0], -pc	; <UNPREDICTABLE>
	...
   108a8:	00ffff00 	rscseq	pc, pc, r0, lsl #30
   108ac:	00000000 	andeq	r0, r0, r0
   108b0:	ff000000 			; <UNDEFINED> instruction: 0xff000000
   108b4:	ffffffff 			; <UNDEFINED> instruction: 0xffffffff
   108b8:	000000ff 	strdeq	r0, [r0], -pc	; <UNPREDICTABLE>
   108bc:	00000000 	andeq	r0, r0, r0
   108c0:	ff000000 			; <UNDEFINED> instruction: 0xff000000
   108c4:	000000ff 	strdeq	r0, [r0], -pc	; <UNPREDICTABLE>
	...
   108d0:	ff000000 			; <UNDEFINED> instruction: 0xff000000
   108d4:	ff0000ff 			; <UNDEFINED> instruction: 0xff0000ff
   108d8:	ff0000ff 			; <UNDEFINED> instruction: 0xff0000ff
   108dc:	000000ff 	strdeq	r0, [r0], -pc	; <UNPREDICTABLE>
   108e0:	ff000000 			; <UNDEFINED> instruction: 0xff000000
   108e4:	ff0000ff 			; <UNDEFINED> instruction: 0xff0000ff
   108e8:	ff0000ff 			; <UNDEFINED> instruction: 0xff0000ff
   108ec:	000000ff 	strdeq	r0, [r0], -pc	; <UNPREDICTABLE>
   108f0:	ff000000 			; <UNDEFINED> instruction: 0xff000000
   108f4:	000000ff 	strdeq	r0, [r0], -pc	; <UNPREDICTABLE>
   108f8:	ff000000 			; <UNDEFINED> instruction: 0xff000000
   108fc:	000000ff 	strdeq	r0, [r0], -pc	; <UNPREDICTABLE>
	...
   10908:	ff000000 			; <UNDEFINED> instruction: 0xff000000
   1090c:	000000ff 	strdeq	r0, [r0], -pc	; <UNPREDICTABLE>
   10910:	ff000000 			; <UNDEFINED> instruction: 0xff000000
   10914:	ffffffff 			; <UNDEFINED> instruction: 0xffffffff
   10918:	ffffffff 			; <UNDEFINED> instruction: 0xffffffff
   1091c:	000000ff 	strdeq	r0, [r0], -pc	; <UNPREDICTABLE>
   10920:	ff000000 			; <UNDEFINED> instruction: 0xff000000
   10924:	ffffffff 			; <UNDEFINED> instruction: 0xffffffff
   10928:	00ffffff 	ldrshteq	pc, [pc], #255	; <UNPREDICTABLE>
   1092c:	00000000 	andeq	r0, r0, r0
   10930:	ff000000 			; <UNDEFINED> instruction: 0xff000000
   10934:	000000ff 	strdeq	r0, [r0], -pc	; <UNPREDICTABLE>
	...
   10940:	ff000000 			; <UNDEFINED> instruction: 0xff000000
   10944:	000000ff 	strdeq	r0, [r0], -pc	; <UNPREDICTABLE>
   10948:	ff000000 			; <UNDEFINED> instruction: 0xff000000
   1094c:	000000ff 	strdeq	r0, [r0], -pc	; <UNPREDICTABLE>
   10950:	ff000000 			; <UNDEFINED> instruction: 0xff000000
   10954:	ffffffff 			; <UNDEFINED> instruction: 0xffffffff
   10958:	00ffffff 	ldrshteq	pc, [pc], #255	; <UNPREDICTABLE>
   1095c:	00000000 	andeq	r0, r0, r0
   10960:	ff000000 			; <UNDEFINED> instruction: 0xff000000
   10964:	ffffffff 			; <UNDEFINED> instruction: 0xffffffff
   10968:	00ffffff 	ldrshteq	pc, [pc], #255	; <UNPREDICTABLE>
   1096c:	00000000 	andeq	r0, r0, r0
   10970:	ff000000 			; <UNDEFINED> instruction: 0xff000000
   10974:	000000ff 	strdeq	r0, [r0], -pc	; <UNPREDICTABLE>
   10978:	ffffff00 			; <UNDEFINED> instruction: 0xffffff00
   1097c:	000000ff 	strdeq	r0, [r0], -pc	; <UNPREDICTABLE>
   10980:	ff000000 			; <UNDEFINED> instruction: 0xff000000
   10984:	ffffffff 			; <UNDEFINED> instruction: 0xffffffff
   10988:	ffffffff 			; <UNDEFINED> instruction: 0xffffffff
   1098c:	000000ff 	strdeq	r0, [r0], -pc	; <UNPREDICTABLE>
   10990:	00000000 	andeq	r0, r0, r0
   10994:	ff000000 			; <UNDEFINED> instruction: 0xff000000
   10998:	000000ff 	strdeq	r0, [r0], -pc	; <UNPREDICTABLE>
	...
   109a8:	00ffff00 	rscseq	pc, pc, r0, lsl #30
   109ac:	00000000 	andeq	r0, r0, r0
   109b0:	ff000000 			; <UNDEFINED> instruction: 0xff000000
   109b4:	ffffffff 			; <UNDEFINED> instruction: 0xffffffff
   109b8:	000000ff 	strdeq	r0, [r0], -pc	; <UNPREDICTABLE>
   109bc:	00000000 	andeq	r0, r0, r0
   109c0:	ff000000 			; <UNDEFINED> instruction: 0xff000000
   109c4:	000000ff 	strdeq	r0, [r0], -pc	; <UNPREDICTABLE>
	...
   109d0:	ff000000 			; <UNDEFINED> instruction: 0xff000000
   109d4:	ff0000ff 			; <UNDEFINED> instruction: 0xff0000ff
   109d8:	ff0000ff 			; <UNDEFINED> instruction: 0xff0000ff
   109dc:	000000ff 	strdeq	r0, [r0], -pc	; <UNPREDICTABLE>
   109e0:	ff000000 			; <UNDEFINED> instruction: 0xff000000
   109e4:	ff0000ff 			; <UNDEFINED> instruction: 0xff0000ff
   109e8:	ff0000ff 			; <UNDEFINED> instruction: 0xff0000ff
   109ec:	000000ff 	strdeq	r0, [r0], -pc	; <UNPREDICTABLE>
   109f0:	ff000000 			; <UNDEFINED> instruction: 0xff000000
   109f4:	000000ff 	strdeq	r0, [r0], -pc	; <UNPREDICTABLE>
   109f8:	ff000000 			; <UNDEFINED> instruction: 0xff000000
   109fc:	000000ff 	strdeq	r0, [r0], -pc	; <UNPREDICTABLE>
   10a00:	ff000000 			; <UNDEFINED> instruction: 0xff000000
   10a04:	ffffffff 			; <UNDEFINED> instruction: 0xffffffff
   10a08:	ff0000ff 			; <UNDEFINED> instruction: 0xff0000ff
   10a0c:	000000ff 	strdeq	r0, [r0], -pc	; <UNPREDICTABLE>
   10a10:	ff000000 			; <UNDEFINED> instruction: 0xff000000
   10a14:	000000ff 	strdeq	r0, [r0], -pc	; <UNPREDICTABLE>
   10a18:	ff000000 			; <UNDEFINED> instruction: 0xff000000
   10a1c:	000000ff 	strdeq	r0, [r0], -pc	; <UNPREDICTABLE>
   10a20:	ff000000 			; <UNDEFINED> instruction: 0xff000000
   10a24:	000000ff 	strdeq	r0, [r0], -pc	; <UNPREDICTABLE>
   10a28:	ff000000 			; <UNDEFINED> instruction: 0xff000000
   10a2c:	000000ff 	strdeq	r0, [r0], -pc	; <UNPREDICTABLE>
   10a30:	ff000000 			; <UNDEFINED> instruction: 0xff000000
   10a34:	000000ff 	strdeq	r0, [r0], -pc	; <UNPREDICTABLE>
	...
   10a40:	ff000000 			; <UNDEFINED> instruction: 0xff000000
   10a44:	000000ff 	strdeq	r0, [r0], -pc	; <UNPREDICTABLE>
   10a48:	ff000000 			; <UNDEFINED> instruction: 0xff000000
   10a4c:	000000ff 	strdeq	r0, [r0], -pc	; <UNPREDICTABLE>
   10a50:	ff000000 			; <UNDEFINED> instruction: 0xff000000
   10a54:	000000ff 	strdeq	r0, [r0], -pc	; <UNPREDICTABLE>
	...
   10a60:	ff000000 			; <UNDEFINED> instruction: 0xff000000
   10a64:	000000ff 	strdeq	r0, [r0], -pc	; <UNPREDICTABLE>
	...
   10a70:	ff000000 			; <UNDEFINED> instruction: 0xff000000
   10a74:	000000ff 	strdeq	r0, [r0], -pc	; <UNPREDICTABLE>
   10a78:	ff000000 			; <UNDEFINED> instruction: 0xff000000
   10a7c:	000000ff 	strdeq	r0, [r0], -pc	; <UNPREDICTABLE>
   10a80:	ff000000 			; <UNDEFINED> instruction: 0xff000000
   10a84:	000000ff 	strdeq	r0, [r0], -pc	; <UNPREDICTABLE>
   10a88:	ff000000 			; <UNDEFINED> instruction: 0xff000000
   10a8c:	000000ff 	strdeq	r0, [r0], -pc	; <UNPREDICTABLE>
   10a90:	00000000 	andeq	r0, r0, r0
   10a94:	ff000000 			; <UNDEFINED> instruction: 0xff000000
   10a98:	000000ff 	strdeq	r0, [r0], -pc	; <UNPREDICTABLE>
   10a9c:	00000000 	andeq	r0, r0, r0
   10aa0:	ff000000 			; <UNDEFINED> instruction: 0xff000000
   10aa4:	000000ff 	strdeq	r0, [r0], -pc	; <UNPREDICTABLE>
   10aa8:	00ffff00 	rscseq	pc, pc, r0, lsl #30
   10aac:	00000000 	andeq	r0, r0, r0
   10ab0:	ff000000 			; <UNDEFINED> instruction: 0xff000000
   10ab4:	000000ff 	strdeq	r0, [r0], -pc	; <UNPREDICTABLE>
   10ab8:	00ffff00 	rscseq	pc, pc, r0, lsl #30
   10abc:	00000000 	andeq	r0, r0, r0
   10ac0:	ff000000 			; <UNDEFINED> instruction: 0xff000000
   10ac4:	000000ff 	strdeq	r0, [r0], -pc	; <UNPREDICTABLE>
	...
   10ad0:	ff000000 			; <UNDEFINED> instruction: 0xff000000
   10ad4:	ff0000ff 			; <UNDEFINED> instruction: 0xff0000ff
   10ad8:	ff0000ff 			; <UNDEFINED> instruction: 0xff0000ff
   10adc:	000000ff 	strdeq	r0, [r0], -pc	; <UNPREDICTABLE>
   10ae0:	ff000000 			; <UNDEFINED> instruction: 0xff000000
   10ae4:	000000ff 	strdeq	r0, [r0], -pc	; <UNPREDICTABLE>
   10ae8:	ffffff00 			; <UNDEFINED> instruction: 0xffffff00
   10aec:	000000ff 	strdeq	r0, [r0], -pc	; <UNPREDICTABLE>
   10af0:	ff000000 			; <UNDEFINED> instruction: 0xff000000
   10af4:	000000ff 	strdeq	r0, [r0], -pc	; <UNPREDICTABLE>
   10af8:	ff000000 			; <UNDEFINED> instruction: 0xff000000
   10afc:	000000ff 	strdeq	r0, [r0], -pc	; <UNPREDICTABLE>
   10b00:	ff000000 			; <UNDEFINED> instruction: 0xff000000
   10b04:	ffffffff 			; <UNDEFINED> instruction: 0xffffffff
   10b08:	ff0000ff 			; <UNDEFINED> instruction: 0xff0000ff
   10b0c:	000000ff 	strdeq	r0, [r0], -pc	; <UNPREDICTABLE>
   10b10:	ff000000 			; <UNDEFINED> instruction: 0xff000000
   10b14:	000000ff 	strdeq	r0, [r0], -pc	; <UNPREDICTABLE>
   10b18:	ff000000 			; <UNDEFINED> instruction: 0xff000000
   10b1c:	000000ff 	strdeq	r0, [r0], -pc	; <UNPREDICTABLE>
   10b20:	ff000000 			; <UNDEFINED> instruction: 0xff000000
   10b24:	000000ff 	strdeq	r0, [r0], -pc	; <UNPREDICTABLE>
   10b28:	ff000000 			; <UNDEFINED> instruction: 0xff000000
   10b2c:	000000ff 	strdeq	r0, [r0], -pc	; <UNPREDICTABLE>
   10b30:	ff000000 			; <UNDEFINED> instruction: 0xff000000
   10b34:	000000ff 	strdeq	r0, [r0], -pc	; <UNPREDICTABLE>
	...
   10b40:	ff000000 			; <UNDEFINED> instruction: 0xff000000
   10b44:	000000ff 	strdeq	r0, [r0], -pc	; <UNPREDICTABLE>
   10b48:	ff000000 			; <UNDEFINED> instruction: 0xff000000
   10b4c:	000000ff 	strdeq	r0, [r0], -pc	; <UNPREDICTABLE>
   10b50:	ff000000 			; <UNDEFINED> instruction: 0xff000000
   10b54:	000000ff 	strdeq	r0, [r0], -pc	; <UNPREDICTABLE>
	...
   10b60:	ff000000 			; <UNDEFINED> instruction: 0xff000000
   10b64:	000000ff 	strdeq	r0, [r0], -pc	; <UNPREDICTABLE>
	...
   10b70:	ff000000 			; <UNDEFINED> instruction: 0xff000000
   10b74:	000000ff 	strdeq	r0, [r0], -pc	; <UNPREDICTABLE>
   10b78:	ff000000 			; <UNDEFINED> instruction: 0xff000000
   10b7c:	000000ff 	strdeq	r0, [r0], -pc	; <UNPREDICTABLE>
   10b80:	ff000000 			; <UNDEFINED> instruction: 0xff000000
   10b84:	000000ff 	strdeq	r0, [r0], -pc	; <UNPREDICTABLE>
   10b88:	ff000000 			; <UNDEFINED> instruction: 0xff000000
   10b8c:	000000ff 	strdeq	r0, [r0], -pc	; <UNPREDICTABLE>
   10b90:	00000000 	andeq	r0, r0, r0
   10b94:	ff000000 			; <UNDEFINED> instruction: 0xff000000
   10b98:	000000ff 	strdeq	r0, [r0], -pc	; <UNPREDICTABLE>
   10b9c:	00000000 	andeq	r0, r0, r0
   10ba0:	ff000000 			; <UNDEFINED> instruction: 0xff000000
   10ba4:	000000ff 	strdeq	r0, [r0], -pc	; <UNPREDICTABLE>
   10ba8:	00ffff00 	rscseq	pc, pc, r0, lsl #30
   10bac:	00000000 	andeq	r0, r0, r0
   10bb0:	ff000000 			; <UNDEFINED> instruction: 0xff000000
   10bb4:	000000ff 	strdeq	r0, [r0], -pc	; <UNPREDICTABLE>
   10bb8:	00ffff00 	rscseq	pc, pc, r0, lsl #30
   10bbc:	00000000 	andeq	r0, r0, r0
   10bc0:	ff000000 			; <UNDEFINED> instruction: 0xff000000
   10bc4:	000000ff 	strdeq	r0, [r0], -pc	; <UNPREDICTABLE>
	...
   10bd0:	ff000000 			; <UNDEFINED> instruction: 0xff000000
   10bd4:	ff0000ff 			; <UNDEFINED> instruction: 0xff0000ff
   10bd8:	ff0000ff 			; <UNDEFINED> instruction: 0xff0000ff
   10bdc:	000000ff 	strdeq	r0, [r0], -pc	; <UNPREDICTABLE>
   10be0:	ff000000 			; <UNDEFINED> instruction: 0xff000000
   10be4:	000000ff 	strdeq	r0, [r0], -pc	; <UNPREDICTABLE>
   10be8:	ffffff00 			; <UNDEFINED> instruction: 0xffffff00
   10bec:	000000ff 	strdeq	r0, [r0], -pc	; <UNPREDICTABLE>
   10bf0:	ff000000 			; <UNDEFINED> instruction: 0xff000000
   10bf4:	000000ff 	strdeq	r0, [r0], -pc	; <UNPREDICTABLE>
   10bf8:	ff000000 			; <UNDEFINED> instruction: 0xff000000
   10bfc:	000000ff 	strdeq	r0, [r0], -pc	; <UNPREDICTABLE>
   10c00:	ff000000 			; <UNDEFINED> instruction: 0xff000000
   10c04:	ff0000ff 			; <UNDEFINED> instruction: 0xff0000ff
   10c08:	ff0000ff 			; <UNDEFINED> instruction: 0xff0000ff
   10c0c:	000000ff 	strdeq	r0, [r0], -pc	; <UNPREDICTABLE>
   10c10:	ff000000 			; <UNDEFINED> instruction: 0xff000000
   10c14:	000000ff 	strdeq	r0, [r0], -pc	; <UNPREDICTABLE>
   10c18:	ff000000 			; <UNDEFINED> instruction: 0xff000000
   10c1c:	000000ff 	strdeq	r0, [r0], -pc	; <UNPREDICTABLE>
   10c20:	ff000000 			; <UNDEFINED> instruction: 0xff000000
   10c24:	000000ff 	strdeq	r0, [r0], -pc	; <UNPREDICTABLE>
   10c28:	ff000000 			; <UNDEFINED> instruction: 0xff000000
   10c2c:	000000ff 	strdeq	r0, [r0], -pc	; <UNPREDICTABLE>
   10c30:	ff000000 			; <UNDEFINED> instruction: 0xff000000
   10c34:	000000ff 	strdeq	r0, [r0], -pc	; <UNPREDICTABLE>
   10c38:	ff000000 			; <UNDEFINED> instruction: 0xff000000
   10c3c:	000000ff 	strdeq	r0, [r0], -pc	; <UNPREDICTABLE>
   10c40:	ff000000 			; <UNDEFINED> instruction: 0xff000000
   10c44:	000000ff 	strdeq	r0, [r0], -pc	; <UNPREDICTABLE>
   10c48:	ff000000 			; <UNDEFINED> instruction: 0xff000000
   10c4c:	000000ff 	strdeq	r0, [r0], -pc	; <UNPREDICTABLE>
   10c50:	ff000000 			; <UNDEFINED> instruction: 0xff000000
   10c54:	000000ff 	strdeq	r0, [r0], -pc	; <UNPREDICTABLE>
	...
   10c60:	ff000000 			; <UNDEFINED> instruction: 0xff000000
   10c64:	000000ff 	strdeq	r0, [r0], -pc	; <UNPREDICTABLE>
	...
   10c70:	ff000000 			; <UNDEFINED> instruction: 0xff000000
   10c74:	000000ff 	strdeq	r0, [r0], -pc	; <UNPREDICTABLE>
   10c78:	ff000000 			; <UNDEFINED> instruction: 0xff000000
   10c7c:	000000ff 	strdeq	r0, [r0], -pc	; <UNPREDICTABLE>
   10c80:	ff000000 			; <UNDEFINED> instruction: 0xff000000
   10c84:	000000ff 	strdeq	r0, [r0], -pc	; <UNPREDICTABLE>
   10c88:	ff000000 			; <UNDEFINED> instruction: 0xff000000
   10c8c:	000000ff 	strdeq	r0, [r0], -pc	; <UNPREDICTABLE>
   10c90:	00000000 	andeq	r0, r0, r0
   10c94:	ff000000 			; <UNDEFINED> instruction: 0xff000000
   10c98:	000000ff 	strdeq	r0, [r0], -pc	; <UNPREDICTABLE>
   10c9c:	00000000 	andeq	r0, r0, r0
   10ca0:	ff000000 			; <UNDEFINED> instruction: 0xff000000
   10ca4:	000000ff 	strdeq	r0, [r0], -pc	; <UNPREDICTABLE>
   10ca8:	00ffff00 	rscseq	pc, pc, r0, lsl #30
   10cac:	00000000 	andeq	r0, r0, r0
   10cb0:	ff000000 			; <UNDEFINED> instruction: 0xff000000
   10cb4:	000000ff 	strdeq	r0, [r0], -pc	; <UNPREDICTABLE>
   10cb8:	00ffff00 	rscseq	pc, pc, r0, lsl #30
   10cbc:	00000000 	andeq	r0, r0, r0
   10cc0:	ff000000 			; <UNDEFINED> instruction: 0xff000000
   10cc4:	000000ff 	strdeq	r0, [r0], -pc	; <UNPREDICTABLE>
	...
   10cd0:	ff000000 			; <UNDEFINED> instruction: 0xff000000
   10cd4:	ff0000ff 			; <UNDEFINED> instruction: 0xff0000ff
   10cd8:	ff0000ff 			; <UNDEFINED> instruction: 0xff0000ff
   10cdc:	000000ff 	strdeq	r0, [r0], -pc	; <UNPREDICTABLE>
   10ce0:	ff000000 			; <UNDEFINED> instruction: 0xff000000
   10ce4:	000000ff 	strdeq	r0, [r0], -pc	; <UNPREDICTABLE>
   10ce8:	ffffff00 			; <UNDEFINED> instruction: 0xffffff00
   10cec:	000000ff 	strdeq	r0, [r0], -pc	; <UNPREDICTABLE>
   10cf0:	ff000000 			; <UNDEFINED> instruction: 0xff000000
   10cf4:	000000ff 	strdeq	r0, [r0], -pc	; <UNPREDICTABLE>
   10cf8:	ff000000 			; <UNDEFINED> instruction: 0xff000000
   10cfc:	000000ff 	strdeq	r0, [r0], -pc	; <UNPREDICTABLE>
   10d00:	ff000000 			; <UNDEFINED> instruction: 0xff000000
   10d04:	ff0000ff 			; <UNDEFINED> instruction: 0xff0000ff
   10d08:	ff0000ff 			; <UNDEFINED> instruction: 0xff0000ff
   10d0c:	000000ff 	strdeq	r0, [r0], -pc	; <UNPREDICTABLE>
   10d10:	ff000000 			; <UNDEFINED> instruction: 0xff000000
   10d14:	000000ff 	strdeq	r0, [r0], -pc	; <UNPREDICTABLE>
   10d18:	ff000000 			; <UNDEFINED> instruction: 0xff000000
   10d1c:	000000ff 	strdeq	r0, [r0], -pc	; <UNPREDICTABLE>
   10d20:	ff000000 			; <UNDEFINED> instruction: 0xff000000
   10d24:	000000ff 	strdeq	r0, [r0], -pc	; <UNPREDICTABLE>
   10d28:	ff000000 			; <UNDEFINED> instruction: 0xff000000
   10d2c:	000000ff 	strdeq	r0, [r0], -pc	; <UNPREDICTABLE>
   10d30:	ff000000 			; <UNDEFINED> instruction: 0xff000000
   10d34:	000000ff 	strdeq	r0, [r0], -pc	; <UNPREDICTABLE>
   10d38:	ff000000 			; <UNDEFINED> instruction: 0xff000000
   10d3c:	000000ff 	strdeq	r0, [r0], -pc	; <UNPREDICTABLE>
   10d40:	ff000000 			; <UNDEFINED> instruction: 0xff000000
   10d44:	000000ff 	strdeq	r0, [r0], -pc	; <UNPREDICTABLE>
   10d48:	ff000000 			; <UNDEFINED> instruction: 0xff000000
   10d4c:	000000ff 	strdeq	r0, [r0], -pc	; <UNPREDICTABLE>
   10d50:	ff000000 			; <UNDEFINED> instruction: 0xff000000
   10d54:	000000ff 	strdeq	r0, [r0], -pc	; <UNPREDICTABLE>
	...
   10d60:	ff000000 			; <UNDEFINED> instruction: 0xff000000
   10d64:	000000ff 	strdeq	r0, [r0], -pc	; <UNPREDICTABLE>
	...
   10d70:	ff000000 			; <UNDEFINED> instruction: 0xff000000
   10d74:	000000ff 	strdeq	r0, [r0], -pc	; <UNPREDICTABLE>
   10d78:	ff000000 			; <UNDEFINED> instruction: 0xff000000
   10d7c:	000000ff 	strdeq	r0, [r0], -pc	; <UNPREDICTABLE>
   10d80:	ff000000 			; <UNDEFINED> instruction: 0xff000000
   10d84:	000000ff 	strdeq	r0, [r0], -pc	; <UNPREDICTABLE>
   10d88:	ff000000 			; <UNDEFINED> instruction: 0xff000000
   10d8c:	000000ff 	strdeq	r0, [r0], -pc	; <UNPREDICTABLE>
   10d90:	00000000 	andeq	r0, r0, r0
   10d94:	ff000000 			; <UNDEFINED> instruction: 0xff000000
   10d98:	000000ff 	strdeq	r0, [r0], -pc	; <UNPREDICTABLE>
   10d9c:	00000000 	andeq	r0, r0, r0
   10da0:	ff000000 			; <UNDEFINED> instruction: 0xff000000
   10da4:	000000ff 	strdeq	r0, [r0], -pc	; <UNPREDICTABLE>
   10da8:	00ffff00 	rscseq	pc, pc, r0, lsl #30
   10dac:	00000000 	andeq	r0, r0, r0
   10db0:	ff000000 			; <UNDEFINED> instruction: 0xff000000
   10db4:	000000ff 	strdeq	r0, [r0], -pc	; <UNPREDICTABLE>
   10db8:	00ffff00 	rscseq	pc, pc, r0, lsl #30
   10dbc:	00000000 	andeq	r0, r0, r0
   10dc0:	ff000000 			; <UNDEFINED> instruction: 0xff000000
   10dc4:	000000ff 	strdeq	r0, [r0], -pc	; <UNPREDICTABLE>
	...
   10dd0:	ff000000 			; <UNDEFINED> instruction: 0xff000000
   10dd4:	ff0000ff 			; <UNDEFINED> instruction: 0xff0000ff
   10dd8:	ff0000ff 			; <UNDEFINED> instruction: 0xff0000ff
   10ddc:	000000ff 	strdeq	r0, [r0], -pc	; <UNPREDICTABLE>
   10de0:	ff000000 			; <UNDEFINED> instruction: 0xff000000
   10de4:	000000ff 	strdeq	r0, [r0], -pc	; <UNPREDICTABLE>
   10de8:	ffffff00 			; <UNDEFINED> instruction: 0xffffff00
   10dec:	000000ff 	strdeq	r0, [r0], -pc	; <UNPREDICTABLE>
   10df0:	ff000000 			; <UNDEFINED> instruction: 0xff000000
   10df4:	000000ff 	strdeq	r0, [r0], -pc	; <UNPREDICTABLE>
   10df8:	ff000000 			; <UNDEFINED> instruction: 0xff000000
   10dfc:	000000ff 	strdeq	r0, [r0], -pc	; <UNPREDICTABLE>
   10e00:	ff000000 			; <UNDEFINED> instruction: 0xff000000
   10e04:	ffffffff 			; <UNDEFINED> instruction: 0xffffffff
   10e08:	ffffffff 			; <UNDEFINED> instruction: 0xffffffff
   10e0c:	000000ff 	strdeq	r0, [r0], -pc	; <UNPREDICTABLE>
   10e10:	ff000000 			; <UNDEFINED> instruction: 0xff000000
   10e14:	000000ff 	strdeq	r0, [r0], -pc	; <UNPREDICTABLE>
   10e18:	ff000000 			; <UNDEFINED> instruction: 0xff000000
   10e1c:	000000ff 	strdeq	r0, [r0], -pc	; <UNPREDICTABLE>
   10e20:	ff000000 			; <UNDEFINED> instruction: 0xff000000
   10e24:	ffffffff 			; <UNDEFINED> instruction: 0xffffffff
   10e28:	00ffffff 	ldrshteq	pc, [pc], #255	; <UNPREDICTABLE>
	...
   10e34:	ffffff00 			; <UNDEFINED> instruction: 0xffffff00
   10e38:	00ffffff 	ldrshteq	pc, [pc], #255	; <UNPREDICTABLE>
   10e3c:	00000000 	andeq	r0, r0, r0
   10e40:	ff000000 			; <UNDEFINED> instruction: 0xff000000
   10e44:	ffffffff 			; <UNDEFINED> instruction: 0xffffffff
   10e48:	00ffffff 	ldrshteq	pc, [pc], #255	; <UNPREDICTABLE>
   10e4c:	00000000 	andeq	r0, r0, r0
   10e50:	ff000000 			; <UNDEFINED> instruction: 0xff000000
   10e54:	ffffffff 			; <UNDEFINED> instruction: 0xffffffff
   10e58:	ffffffff 			; <UNDEFINED> instruction: 0xffffffff
   10e5c:	000000ff 	strdeq	r0, [r0], -pc	; <UNPREDICTABLE>
   10e60:	ff000000 			; <UNDEFINED> instruction: 0xff000000
   10e64:	000000ff 	strdeq	r0, [r0], -pc	; <UNPREDICTABLE>
	...
   10e70:	ff000000 			; <UNDEFINED> instruction: 0xff000000
   10e74:	ffffffff 			; <UNDEFINED> instruction: 0xffffffff
   10e78:	ffffffff 			; <UNDEFINED> instruction: 0xffffffff
   10e7c:	000000ff 	strdeq	r0, [r0], -pc	; <UNPREDICTABLE>
   10e80:	ff000000 			; <UNDEFINED> instruction: 0xff000000
   10e84:	000000ff 	strdeq	r0, [r0], -pc	; <UNPREDICTABLE>
   10e88:	ff000000 			; <UNDEFINED> instruction: 0xff000000
   10e8c:	000000ff 	strdeq	r0, [r0], -pc	; <UNPREDICTABLE>
   10e90:	ff000000 			; <UNDEFINED> instruction: 0xff000000
   10e94:	ffffffff 			; <UNDEFINED> instruction: 0xffffffff
   10e98:	00ffffff 	ldrshteq	pc, [pc], #255	; <UNPREDICTABLE>
   10e9c:	00000000 	andeq	r0, r0, r0
   10ea0:	ff000000 			; <UNDEFINED> instruction: 0xff000000
   10ea4:	ffffffff 			; <UNDEFINED> instruction: 0xffffffff
   10ea8:	00ffffff 	ldrshteq	pc, [pc], #255	; <UNPREDICTABLE>
   10eac:	00000000 	andeq	r0, r0, r0
   10eb0:	ff000000 			; <UNDEFINED> instruction: 0xff000000
   10eb4:	000000ff 	strdeq	r0, [r0], -pc	; <UNPREDICTABLE>
   10eb8:	ff000000 			; <UNDEFINED> instruction: 0xff000000
   10ebc:	000000ff 	strdeq	r0, [r0], -pc	; <UNPREDICTABLE>
   10ec0:	ff000000 			; <UNDEFINED> instruction: 0xff000000
   10ec4:	ffffffff 			; <UNDEFINED> instruction: 0xffffffff
   10ec8:	ffffffff 			; <UNDEFINED> instruction: 0xffffffff
   10ecc:	000000ff 	strdeq	r0, [r0], -pc	; <UNPREDICTABLE>
   10ed0:	ff000000 			; <UNDEFINED> instruction: 0xff000000
   10ed4:	ff0000ff 			; <UNDEFINED> instruction: 0xff0000ff
   10ed8:	ff0000ff 			; <UNDEFINED> instruction: 0xff0000ff
   10edc:	000000ff 	strdeq	r0, [r0], -pc	; <UNPREDICTABLE>
   10ee0:	ff000000 			; <UNDEFINED> instruction: 0xff000000
   10ee4:	000000ff 	strdeq	r0, [r0], -pc	; <UNPREDICTABLE>
   10ee8:	ff000000 			; <UNDEFINED> instruction: 0xff000000
   10eec:	000000ff 	strdeq	r0, [r0], -pc	; <UNPREDICTABLE>
   10ef0:	00000000 	andeq	r0, r0, r0
   10ef4:	ffffff00 			; <UNDEFINED> instruction: 0xffffff00
   10ef8:	00ffffff 	ldrshteq	pc, [pc], #255	; <UNPREDICTABLE>
   10efc:	00000000 	andeq	r0, r0, r0
   10f00:	ff000000 			; <UNDEFINED> instruction: 0xff000000
   10f04:	ffffffff 			; <UNDEFINED> instruction: 0xffffffff
   10f08:	ffffffff 			; <UNDEFINED> instruction: 0xffffffff
   10f0c:	000000ff 	strdeq	r0, [r0], -pc	; <UNPREDICTABLE>
   10f10:	ff000000 			; <UNDEFINED> instruction: 0xff000000
   10f14:	000000ff 	strdeq	r0, [r0], -pc	; <UNPREDICTABLE>
   10f18:	ff000000 			; <UNDEFINED> instruction: 0xff000000
   10f1c:	000000ff 	strdeq	r0, [r0], -pc	; <UNPREDICTABLE>
   10f20:	ff000000 			; <UNDEFINED> instruction: 0xff000000
   10f24:	ffffffff 			; <UNDEFINED> instruction: 0xffffffff
   10f28:	00ffffff 	ldrshteq	pc, [pc], #255	; <UNPREDICTABLE>
	...
   10f34:	ffffff00 			; <UNDEFINED> instruction: 0xffffff00
   10f38:	00ffffff 	ldrshteq	pc, [pc], #255	; <UNPREDICTABLE>
   10f3c:	00000000 	andeq	r0, r0, r0
   10f40:	ff000000 			; <UNDEFINED> instruction: 0xff000000
   10f44:	ffffffff 			; <UNDEFINED> instruction: 0xffffffff
   10f48:	00ffffff 	ldrshteq	pc, [pc], #255	; <UNPREDICTABLE>
   10f4c:	00000000 	andeq	r0, r0, r0
   10f50:	ff000000 			; <UNDEFINED> instruction: 0xff000000
   10f54:	ffffffff 			; <UNDEFINED> instruction: 0xffffffff
   10f58:	ffffffff 			; <UNDEFINED> instruction: 0xffffffff
   10f5c:	000000ff 	strdeq	r0, [r0], -pc	; <UNPREDICTABLE>
   10f60:	ff000000 			; <UNDEFINED> instruction: 0xff000000
   10f64:	000000ff 	strdeq	r0, [r0], -pc	; <UNPREDICTABLE>
	...
   10f70:	ff000000 			; <UNDEFINED> instruction: 0xff000000
   10f74:	ffffffff 			; <UNDEFINED> instruction: 0xffffffff
   10f78:	ffffffff 			; <UNDEFINED> instruction: 0xffffffff
   10f7c:	000000ff 	strdeq	r0, [r0], -pc	; <UNPREDICTABLE>
   10f80:	ff000000 			; <UNDEFINED> instruction: 0xff000000
   10f84:	000000ff 	strdeq	r0, [r0], -pc	; <UNPREDICTABLE>
   10f88:	ff000000 			; <UNDEFINED> instruction: 0xff000000
   10f8c:	000000ff 	strdeq	r0, [r0], -pc	; <UNPREDICTABLE>
   10f90:	ff000000 			; <UNDEFINED> instruction: 0xff000000
   10f94:	ffffffff 			; <UNDEFINED> instruction: 0xffffffff
   10f98:	00ffffff 	ldrshteq	pc, [pc], #255	; <UNPREDICTABLE>
   10f9c:	00000000 	andeq	r0, r0, r0
   10fa0:	ff000000 			; <UNDEFINED> instruction: 0xff000000
   10fa4:	ffffffff 			; <UNDEFINED> instruction: 0xffffffff
   10fa8:	00ffffff 	ldrshteq	pc, [pc], #255	; <UNPREDICTABLE>
   10fac:	00000000 	andeq	r0, r0, r0
   10fb0:	ff000000 			; <UNDEFINED> instruction: 0xff000000
   10fb4:	000000ff 	strdeq	r0, [r0], -pc	; <UNPREDICTABLE>
   10fb8:	ff000000 			; <UNDEFINED> instruction: 0xff000000
   10fbc:	000000ff 	strdeq	r0, [r0], -pc	; <UNPREDICTABLE>
   10fc0:	ff000000 			; <UNDEFINED> instruction: 0xff000000
   10fc4:	ffffffff 			; <UNDEFINED> instruction: 0xffffffff
   10fc8:	ffffffff 			; <UNDEFINED> instruction: 0xffffffff
   10fcc:	000000ff 	strdeq	r0, [r0], -pc	; <UNPREDICTABLE>
   10fd0:	ff000000 			; <UNDEFINED> instruction: 0xff000000
   10fd4:	ff0000ff 			; <UNDEFINED> instruction: 0xff0000ff
   10fd8:	ff0000ff 			; <UNDEFINED> instruction: 0xff0000ff
   10fdc:	000000ff 	strdeq	r0, [r0], -pc	; <UNPREDICTABLE>
   10fe0:	ff000000 			; <UNDEFINED> instruction: 0xff000000
   10fe4:	000000ff 	strdeq	r0, [r0], -pc	; <UNPREDICTABLE>
   10fe8:	ff000000 			; <UNDEFINED> instruction: 0xff000000
   10fec:	000000ff 	strdeq	r0, [r0], -pc	; <UNPREDICTABLE>
   10ff0:	00000000 	andeq	r0, r0, r0
   10ff4:	ffffff00 			; <UNDEFINED> instruction: 0xffffff00
   10ff8:	00ffffff 	ldrshteq	pc, [pc], #255	; <UNPREDICTABLE>
	...
   110b0:	ff000000 			; <UNDEFINED> instruction: 0xff000000
   110b4:	ffffffff 			; <UNDEFINED> instruction: 0xffffffff
   110b8:	00ffffff 	ldrshteq	pc, [pc], #255	; <UNPREDICTABLE>
   110bc:	00000000 	andeq	r0, r0, r0
   110c0:	ff000000 			; <UNDEFINED> instruction: 0xff000000
   110c4:	000000ff 	strdeq	r0, [r0], -pc	; <UNPREDICTABLE>
   110c8:	ff000000 			; <UNDEFINED> instruction: 0xff000000
   110cc:	000000ff 	strdeq	r0, [r0], -pc	; <UNPREDICTABLE>
   110d0:	00000000 	andeq	r0, r0, r0
   110d4:	ffffff00 			; <UNDEFINED> instruction: 0xffffff00
   110d8:	ffffffff 			; <UNDEFINED> instruction: 0xffffffff
   110dc:	000000ff 	strdeq	r0, [r0], -pc	; <UNPREDICTABLE>
   110e0:	00000000 	andeq	r0, r0, r0
   110e4:	ff000000 			; <UNDEFINED> instruction: 0xff000000
   110e8:	000000ff 	strdeq	r0, [r0], -pc	; <UNPREDICTABLE>
	...
   111b0:	ff000000 			; <UNDEFINED> instruction: 0xff000000
   111b4:	ffffffff 			; <UNDEFINED> instruction: 0xffffffff
   111b8:	00ffffff 	ldrshteq	pc, [pc], #255	; <UNPREDICTABLE>
   111bc:	00000000 	andeq	r0, r0, r0
   111c0:	ff000000 			; <UNDEFINED> instruction: 0xff000000
   111c4:	000000ff 	strdeq	r0, [r0], -pc	; <UNPREDICTABLE>
   111c8:	ff000000 			; <UNDEFINED> instruction: 0xff000000
   111cc:	000000ff 	strdeq	r0, [r0], -pc	; <UNPREDICTABLE>
   111d0:	00000000 	andeq	r0, r0, r0
   111d4:	ffffff00 			; <UNDEFINED> instruction: 0xffffff00
   111d8:	ffffffff 			; <UNDEFINED> instruction: 0xffffffff
   111dc:	000000ff 	strdeq	r0, [r0], -pc	; <UNPREDICTABLE>
   111e0:	00000000 	andeq	r0, r0, r0
   111e4:	ff000000 			; <UNDEFINED> instruction: 0xff000000
   111e8:	000000ff 	strdeq	r0, [r0], -pc	; <UNPREDICTABLE>
	...
   11200:	ff000000 			; <UNDEFINED> instruction: 0xff000000
   11204:	ffffffff 			; <UNDEFINED> instruction: 0xffffffff
   11208:	00ffffff 	ldrshteq	pc, [pc], #255	; <UNPREDICTABLE>
	...
   11214:	ffffff00 			; <UNDEFINED> instruction: 0xffffff00
   11218:	00ffffff 	ldrshteq	pc, [pc], #255	; <UNPREDICTABLE>
   1121c:	00000000 	andeq	r0, r0, r0
   11220:	ff000000 			; <UNDEFINED> instruction: 0xff000000
   11224:	ffffffff 			; <UNDEFINED> instruction: 0xffffffff
   11228:	00ffffff 	ldrshteq	pc, [pc], #255	; <UNPREDICTABLE>
	...
   11234:	ffffff00 			; <UNDEFINED> instruction: 0xffffff00
   11238:	ffffffff 			; <UNDEFINED> instruction: 0xffffffff
   1123c:	000000ff 	strdeq	r0, [r0], -pc	; <UNPREDICTABLE>
   11240:	ff000000 			; <UNDEFINED> instruction: 0xff000000
   11244:	ffffffff 			; <UNDEFINED> instruction: 0xffffffff
   11248:	ffffffff 			; <UNDEFINED> instruction: 0xffffffff
   1124c:	000000ff 	strdeq	r0, [r0], -pc	; <UNPREDICTABLE>
   11250:	ff000000 			; <UNDEFINED> instruction: 0xff000000
   11254:	000000ff 	strdeq	r0, [r0], -pc	; <UNPREDICTABLE>
   11258:	ff000000 			; <UNDEFINED> instruction: 0xff000000
   1125c:	000000ff 	strdeq	r0, [r0], -pc	; <UNPREDICTABLE>
   11260:	ff000000 			; <UNDEFINED> instruction: 0xff000000
   11264:	000000ff 	strdeq	r0, [r0], -pc	; <UNPREDICTABLE>
   11268:	ff000000 			; <UNDEFINED> instruction: 0xff000000
   1126c:	000000ff 	strdeq	r0, [r0], -pc	; <UNPREDICTABLE>
   11270:	ff000000 			; <UNDEFINED> instruction: 0xff000000
   11274:	000000ff 	strdeq	r0, [r0], -pc	; <UNPREDICTABLE>
   11278:	ff000000 			; <UNDEFINED> instruction: 0xff000000
   1127c:	000000ff 	strdeq	r0, [r0], -pc	; <UNPREDICTABLE>
   11280:	ff000000 			; <UNDEFINED> instruction: 0xff000000
   11284:	000000ff 	strdeq	r0, [r0], -pc	; <UNPREDICTABLE>
   11288:	ff000000 			; <UNDEFINED> instruction: 0xff000000
   1128c:	000000ff 	strdeq	r0, [r0], -pc	; <UNPREDICTABLE>
   11290:	ff000000 			; <UNDEFINED> instruction: 0xff000000
   11294:	000000ff 	strdeq	r0, [r0], -pc	; <UNPREDICTABLE>
   11298:	ff000000 			; <UNDEFINED> instruction: 0xff000000
   1129c:	000000ff 	strdeq	r0, [r0], -pc	; <UNPREDICTABLE>
   112a0:	ff000000 			; <UNDEFINED> instruction: 0xff000000
   112a4:	ffffffff 			; <UNDEFINED> instruction: 0xffffffff
   112a8:	ffffffff 			; <UNDEFINED> instruction: 0xffffffff
   112ac:	000000ff 	strdeq	r0, [r0], -pc	; <UNPREDICTABLE>
   112b0:	ff000000 			; <UNDEFINED> instruction: 0xff000000
   112b4:	000000ff 	strdeq	r0, [r0], -pc	; <UNPREDICTABLE>
	...
   112c4:	00ffff00 	rscseq	pc, pc, r0, lsl #30
   112c8:	00ffff00 	rscseq	pc, pc, r0, lsl #30
	...
   112d8:	ff000000 			; <UNDEFINED> instruction: 0xff000000
   112dc:	000000ff 	strdeq	r0, [r0], -pc	; <UNPREDICTABLE>
   112e0:	00000000 	andeq	r0, r0, r0
   112e4:	00ffff00 	rscseq	pc, pc, r0, lsl #30
   112e8:	00ffff00 	rscseq	pc, pc, r0, lsl #30
	...
   11300:	ff000000 			; <UNDEFINED> instruction: 0xff000000
   11304:	ffffffff 			; <UNDEFINED> instruction: 0xffffffff
   11308:	00ffffff 	ldrshteq	pc, [pc], #255	; <UNPREDICTABLE>
	...
   11314:	ffffff00 			; <UNDEFINED> instruction: 0xffffff00
   11318:	00ffffff 	ldrshteq	pc, [pc], #255	; <UNPREDICTABLE>
   1131c:	00000000 	andeq	r0, r0, r0
   11320:	ff000000 			; <UNDEFINED> instruction: 0xff000000
   11324:	ffffffff 			; <UNDEFINED> instruction: 0xffffffff
   11328:	00ffffff 	ldrshteq	pc, [pc], #255	; <UNPREDICTABLE>
	...
   11334:	ffffff00 			; <UNDEFINED> instruction: 0xffffff00
   11338:	ffffffff 			; <UNDEFINED> instruction: 0xffffffff
   1133c:	000000ff 	strdeq	r0, [r0], -pc	; <UNPREDICTABLE>
   11340:	ff000000 			; <UNDEFINED> instruction: 0xff000000
   11344:	ffffffff 			; <UNDEFINED> instruction: 0xffffffff
   11348:	ffffffff 			; <UNDEFINED> instruction: 0xffffffff
   1134c:	000000ff 	strdeq	r0, [r0], -pc	; <UNPREDICTABLE>
   11350:	ff000000 			; <UNDEFINED> instruction: 0xff000000
   11354:	000000ff 	strdeq	r0, [r0], -pc	; <UNPREDICTABLE>
   11358:	ff000000 			; <UNDEFINED> instruction: 0xff000000
   1135c:	000000ff 	strdeq	r0, [r0], -pc	; <UNPREDICTABLE>
   11360:	ff000000 			; <UNDEFINED> instruction: 0xff000000
   11364:	000000ff 	strdeq	r0, [r0], -pc	; <UNPREDICTABLE>
   11368:	ff000000 			; <UNDEFINED> instruction: 0xff000000
   1136c:	000000ff 	strdeq	r0, [r0], -pc	; <UNPREDICTABLE>
   11370:	ff000000 			; <UNDEFINED> instruction: 0xff000000
   11374:	000000ff 	strdeq	r0, [r0], -pc	; <UNPREDICTABLE>
   11378:	ff000000 			; <UNDEFINED> instruction: 0xff000000
   1137c:	000000ff 	strdeq	r0, [r0], -pc	; <UNPREDICTABLE>
   11380:	ff000000 			; <UNDEFINED> instruction: 0xff000000
   11384:	000000ff 	strdeq	r0, [r0], -pc	; <UNPREDICTABLE>
   11388:	ff000000 			; <UNDEFINED> instruction: 0xff000000
   1138c:	000000ff 	strdeq	r0, [r0], -pc	; <UNPREDICTABLE>
   11390:	ff000000 			; <UNDEFINED> instruction: 0xff000000
   11394:	000000ff 	strdeq	r0, [r0], -pc	; <UNPREDICTABLE>
   11398:	ff000000 			; <UNDEFINED> instruction: 0xff000000
   1139c:	000000ff 	strdeq	r0, [r0], -pc	; <UNPREDICTABLE>
   113a0:	ff000000 			; <UNDEFINED> instruction: 0xff000000
   113a4:	ffffffff 			; <UNDEFINED> instruction: 0xffffffff
   113a8:	ffffffff 			; <UNDEFINED> instruction: 0xffffffff
   113ac:	000000ff 	strdeq	r0, [r0], -pc	; <UNPREDICTABLE>
   113b0:	ff000000 			; <UNDEFINED> instruction: 0xff000000
   113b4:	000000ff 	strdeq	r0, [r0], -pc	; <UNPREDICTABLE>
	...
   113c4:	00ffff00 	rscseq	pc, pc, r0, lsl #30
   113c8:	00ffff00 	rscseq	pc, pc, r0, lsl #30
	...
   113d8:	ff000000 			; <UNDEFINED> instruction: 0xff000000
   113dc:	000000ff 	strdeq	r0, [r0], -pc	; <UNPREDICTABLE>
   113e0:	00000000 	andeq	r0, r0, r0
   113e4:	00ffff00 	rscseq	pc, pc, r0, lsl #30
   113e8:	00ffff00 	rscseq	pc, pc, r0, lsl #30
	...
   11400:	ff000000 			; <UNDEFINED> instruction: 0xff000000
   11404:	000000ff 	strdeq	r0, [r0], -pc	; <UNPREDICTABLE>
   11408:	ff000000 			; <UNDEFINED> instruction: 0xff000000
   1140c:	000000ff 	strdeq	r0, [r0], -pc	; <UNPREDICTABLE>
   11410:	ff000000 			; <UNDEFINED> instruction: 0xff000000
   11414:	000000ff 	strdeq	r0, [r0], -pc	; <UNPREDICTABLE>
   11418:	ff000000 			; <UNDEFINED> instruction: 0xff000000
   1141c:	000000ff 	strdeq	r0, [r0], -pc	; <UNPREDICTABLE>
   11420:	ff000000 			; <UNDEFINED> instruction: 0xff000000
   11424:	000000ff 	strdeq	r0, [r0], -pc	; <UNPREDICTABLE>
   11428:	ff000000 			; <UNDEFINED> instruction: 0xff000000
   1142c:	000000ff 	strdeq	r0, [r0], -pc	; <UNPREDICTABLE>
   11430:	ff000000 			; <UNDEFINED> instruction: 0xff000000
   11434:	000000ff 	strdeq	r0, [r0], -pc	; <UNPREDICTABLE>
	...
   11444:	ff000000 			; <UNDEFINED> instruction: 0xff000000
   11448:	000000ff 	strdeq	r0, [r0], -pc	; <UNPREDICTABLE>
   1144c:	00000000 	andeq	r0, r0, r0
   11450:	ff000000 			; <UNDEFINED> instruction: 0xff000000
   11454:	000000ff 	strdeq	r0, [r0], -pc	; <UNPREDICTABLE>
   11458:	ff000000 			; <UNDEFINED> instruction: 0xff000000
   1145c:	000000ff 	strdeq	r0, [r0], -pc	; <UNPREDICTABLE>
   11460:	ff000000 			; <UNDEFINED> instruction: 0xff000000
   11464:	000000ff 	strdeq	r0, [r0], -pc	; <UNPREDICTABLE>
   11468:	ff000000 			; <UNDEFINED> instruction: 0xff000000
   1146c:	000000ff 	strdeq	r0, [r0], -pc	; <UNPREDICTABLE>
   11470:	ff000000 			; <UNDEFINED> instruction: 0xff000000
   11474:	000000ff 	strdeq	r0, [r0], -pc	; <UNPREDICTABLE>
   11478:	ff000000 			; <UNDEFINED> instruction: 0xff000000
   1147c:	000000ff 	strdeq	r0, [r0], -pc	; <UNPREDICTABLE>
   11480:	ff000000 			; <UNDEFINED> instruction: 0xff000000
   11484:	000000ff 	strdeq	r0, [r0], -pc	; <UNPREDICTABLE>
   11488:	ff000000 			; <UNDEFINED> instruction: 0xff000000
   1148c:	000000ff 	strdeq	r0, [r0], -pc	; <UNPREDICTABLE>
   11490:	ff000000 			; <UNDEFINED> instruction: 0xff000000
   11494:	000000ff 	strdeq	r0, [r0], -pc	; <UNPREDICTABLE>
   11498:	ff000000 			; <UNDEFINED> instruction: 0xff000000
   1149c:	000000ff 	strdeq	r0, [r0], -pc	; <UNPREDICTABLE>
	...
   114a8:	ff000000 			; <UNDEFINED> instruction: 0xff000000
   114ac:	000000ff 	strdeq	r0, [r0], -pc	; <UNPREDICTABLE>
   114b0:	ff000000 			; <UNDEFINED> instruction: 0xff000000
   114b4:	000000ff 	strdeq	r0, [r0], -pc	; <UNPREDICTABLE>
	...
   114c0:	ff000000 			; <UNDEFINED> instruction: 0xff000000
   114c4:	ffffffff 			; <UNDEFINED> instruction: 0xffffffff
   114c8:	ffffffff 			; <UNDEFINED> instruction: 0xffffffff
   114cc:	000000ff 	strdeq	r0, [r0], -pc	; <UNPREDICTABLE>
	...
   114d8:	ff000000 			; <UNDEFINED> instruction: 0xff000000
   114dc:	000000ff 	strdeq	r0, [r0], -pc	; <UNPREDICTABLE>
   114e0:	ff000000 			; <UNDEFINED> instruction: 0xff000000
   114e4:	000000ff 	strdeq	r0, [r0], -pc	; <UNPREDICTABLE>
   114e8:	ff000000 			; <UNDEFINED> instruction: 0xff000000
   114ec:	000000ff 	strdeq	r0, [r0], -pc	; <UNPREDICTABLE>
	...
   11500:	ff000000 			; <UNDEFINED> instruction: 0xff000000
   11504:	000000ff 	strdeq	r0, [r0], -pc	; <UNPREDICTABLE>
   11508:	ff000000 			; <UNDEFINED> instruction: 0xff000000
   1150c:	000000ff 	strdeq	r0, [r0], -pc	; <UNPREDICTABLE>
   11510:	ff000000 			; <UNDEFINED> instruction: 0xff000000
   11514:	000000ff 	strdeq	r0, [r0], -pc	; <UNPREDICTABLE>
   11518:	ff000000 			; <UNDEFINED> instruction: 0xff000000
   1151c:	000000ff 	strdeq	r0, [r0], -pc	; <UNPREDICTABLE>
   11520:	ff000000 			; <UNDEFINED> instruction: 0xff000000
   11524:	000000ff 	strdeq	r0, [r0], -pc	; <UNPREDICTABLE>
   11528:	ff000000 			; <UNDEFINED> instruction: 0xff000000
   1152c:	000000ff 	strdeq	r0, [r0], -pc	; <UNPREDICTABLE>
   11530:	ff000000 			; <UNDEFINED> instruction: 0xff000000
   11534:	000000ff 	strdeq	r0, [r0], -pc	; <UNPREDICTABLE>
	...
   11544:	ff000000 			; <UNDEFINED> instruction: 0xff000000
   11548:	000000ff 	strdeq	r0, [r0], -pc	; <UNPREDICTABLE>
   1154c:	00000000 	andeq	r0, r0, r0
   11550:	ff000000 			; <UNDEFINED> instruction: 0xff000000
   11554:	000000ff 	strdeq	r0, [r0], -pc	; <UNPREDICTABLE>
   11558:	ff000000 			; <UNDEFINED> instruction: 0xff000000
   1155c:	000000ff 	strdeq	r0, [r0], -pc	; <UNPREDICTABLE>
   11560:	ff000000 			; <UNDEFINED> instruction: 0xff000000
   11564:	000000ff 	strdeq	r0, [r0], -pc	; <UNPREDICTABLE>
   11568:	ff000000 			; <UNDEFINED> instruction: 0xff000000
   1156c:	000000ff 	strdeq	r0, [r0], -pc	; <UNPREDICTABLE>
   11570:	ff000000 			; <UNDEFINED> instruction: 0xff000000
   11574:	000000ff 	strdeq	r0, [r0], -pc	; <UNPREDICTABLE>
   11578:	ff000000 			; <UNDEFINED> instruction: 0xff000000
   1157c:	000000ff 	strdeq	r0, [r0], -pc	; <UNPREDICTABLE>
   11580:	ff000000 			; <UNDEFINED> instruction: 0xff000000
   11584:	000000ff 	strdeq	r0, [r0], -pc	; <UNPREDICTABLE>
   11588:	ff000000 			; <UNDEFINED> instruction: 0xff000000
   1158c:	000000ff 	strdeq	r0, [r0], -pc	; <UNPREDICTABLE>
   11590:	ff000000 			; <UNDEFINED> instruction: 0xff000000
   11594:	000000ff 	strdeq	r0, [r0], -pc	; <UNPREDICTABLE>
   11598:	ff000000 			; <UNDEFINED> instruction: 0xff000000
   1159c:	000000ff 	strdeq	r0, [r0], -pc	; <UNPREDICTABLE>
	...
   115a8:	ff000000 			; <UNDEFINED> instruction: 0xff000000
   115ac:	000000ff 	strdeq	r0, [r0], -pc	; <UNPREDICTABLE>
   115b0:	ff000000 			; <UNDEFINED> instruction: 0xff000000
   115b4:	000000ff 	strdeq	r0, [r0], -pc	; <UNPREDICTABLE>
	...
   115c0:	ff000000 			; <UNDEFINED> instruction: 0xff000000
   115c4:	ffffffff 			; <UNDEFINED> instruction: 0xffffffff
   115c8:	ffffffff 			; <UNDEFINED> instruction: 0xffffffff
   115cc:	000000ff 	strdeq	r0, [r0], -pc	; <UNPREDICTABLE>
	...
   115d8:	ff000000 			; <UNDEFINED> instruction: 0xff000000
   115dc:	000000ff 	strdeq	r0, [r0], -pc	; <UNPREDICTABLE>
   115e0:	ff000000 			; <UNDEFINED> instruction: 0xff000000
   115e4:	000000ff 	strdeq	r0, [r0], -pc	; <UNPREDICTABLE>
   115e8:	ff000000 			; <UNDEFINED> instruction: 0xff000000
   115ec:	000000ff 	strdeq	r0, [r0], -pc	; <UNPREDICTABLE>
	...
   11600:	ff000000 			; <UNDEFINED> instruction: 0xff000000
   11604:	000000ff 	strdeq	r0, [r0], -pc	; <UNPREDICTABLE>
   11608:	ff000000 			; <UNDEFINED> instruction: 0xff000000
   1160c:	000000ff 	strdeq	r0, [r0], -pc	; <UNPREDICTABLE>
   11610:	ff000000 			; <UNDEFINED> instruction: 0xff000000
   11614:	000000ff 	strdeq	r0, [r0], -pc	; <UNPREDICTABLE>
   11618:	ff000000 			; <UNDEFINED> instruction: 0xff000000
   1161c:	000000ff 	strdeq	r0, [r0], -pc	; <UNPREDICTABLE>
   11620:	ff000000 			; <UNDEFINED> instruction: 0xff000000
   11624:	000000ff 	strdeq	r0, [r0], -pc	; <UNPREDICTABLE>
   11628:	ff000000 			; <UNDEFINED> instruction: 0xff000000
   1162c:	000000ff 	strdeq	r0, [r0], -pc	; <UNPREDICTABLE>
   11630:	ff000000 			; <UNDEFINED> instruction: 0xff000000
   11634:	000000ff 	strdeq	r0, [r0], -pc	; <UNPREDICTABLE>
	...
   11644:	ff000000 			; <UNDEFINED> instruction: 0xff000000
   11648:	000000ff 	strdeq	r0, [r0], -pc	; <UNPREDICTABLE>
   1164c:	00000000 	andeq	r0, r0, r0
   11650:	ff000000 			; <UNDEFINED> instruction: 0xff000000
   11654:	000000ff 	strdeq	r0, [r0], -pc	; <UNPREDICTABLE>
   11658:	ff000000 			; <UNDEFINED> instruction: 0xff000000
   1165c:	000000ff 	strdeq	r0, [r0], -pc	; <UNPREDICTABLE>
   11660:	ff000000 			; <UNDEFINED> instruction: 0xff000000
   11664:	000000ff 	strdeq	r0, [r0], -pc	; <UNPREDICTABLE>
   11668:	ff000000 			; <UNDEFINED> instruction: 0xff000000
   1166c:	000000ff 	strdeq	r0, [r0], -pc	; <UNPREDICTABLE>
   11670:	ff000000 			; <UNDEFINED> instruction: 0xff000000
   11674:	ff0000ff 			; <UNDEFINED> instruction: 0xff0000ff
   11678:	ff0000ff 			; <UNDEFINED> instruction: 0xff0000ff
   1167c:	000000ff 	strdeq	r0, [r0], -pc	; <UNPREDICTABLE>
   11680:	00000000 	andeq	r0, r0, r0
   11684:	00ffff00 	rscseq	pc, pc, r0, lsl #30
   11688:	00ffff00 	rscseq	pc, pc, r0, lsl #30
   1168c:	00000000 	andeq	r0, r0, r0
   11690:	ff000000 			; <UNDEFINED> instruction: 0xff000000
   11694:	000000ff 	strdeq	r0, [r0], -pc	; <UNPREDICTABLE>
   11698:	ff000000 			; <UNDEFINED> instruction: 0xff000000
   1169c:	000000ff 	strdeq	r0, [r0], -pc	; <UNPREDICTABLE>
	...
   116a8:	00ffff00 	rscseq	pc, pc, r0, lsl #30
   116ac:	00000000 	andeq	r0, r0, r0
   116b0:	ff000000 			; <UNDEFINED> instruction: 0xff000000
   116b4:	000000ff 	strdeq	r0, [r0], -pc	; <UNPREDICTABLE>
	...
   116c4:	ff000000 			; <UNDEFINED> instruction: 0xff000000
   116c8:	000000ff 	strdeq	r0, [r0], -pc	; <UNPREDICTABLE>
	...
   116d8:	ff000000 			; <UNDEFINED> instruction: 0xff000000
   116dc:	000000ff 	strdeq	r0, [r0], -pc	; <UNPREDICTABLE>
	...
   11700:	ff000000 			; <UNDEFINED> instruction: 0xff000000
   11704:	000000ff 	strdeq	r0, [r0], -pc	; <UNPREDICTABLE>
   11708:	ff000000 			; <UNDEFINED> instruction: 0xff000000
   1170c:	000000ff 	strdeq	r0, [r0], -pc	; <UNPREDICTABLE>
   11710:	ff000000 			; <UNDEFINED> instruction: 0xff000000
   11714:	000000ff 	strdeq	r0, [r0], -pc	; <UNPREDICTABLE>
   11718:	ff000000 			; <UNDEFINED> instruction: 0xff000000
   1171c:	000000ff 	strdeq	r0, [r0], -pc	; <UNPREDICTABLE>
   11720:	ff000000 			; <UNDEFINED> instruction: 0xff000000
   11724:	000000ff 	strdeq	r0, [r0], -pc	; <UNPREDICTABLE>
   11728:	ff000000 			; <UNDEFINED> instruction: 0xff000000
   1172c:	000000ff 	strdeq	r0, [r0], -pc	; <UNPREDICTABLE>
   11730:	ff000000 			; <UNDEFINED> instruction: 0xff000000
   11734:	000000ff 	strdeq	r0, [r0], -pc	; <UNPREDICTABLE>
	...
   11744:	ff000000 			; <UNDEFINED> instruction: 0xff000000
   11748:	000000ff 	strdeq	r0, [r0], -pc	; <UNPREDICTABLE>
   1174c:	00000000 	andeq	r0, r0, r0
   11750:	ff000000 			; <UNDEFINED> instruction: 0xff000000
   11754:	000000ff 	strdeq	r0, [r0], -pc	; <UNPREDICTABLE>
   11758:	ff000000 			; <UNDEFINED> instruction: 0xff000000
   1175c:	000000ff 	strdeq	r0, [r0], -pc	; <UNPREDICTABLE>
   11760:	ff000000 			; <UNDEFINED> instruction: 0xff000000
   11764:	000000ff 	strdeq	r0, [r0], -pc	; <UNPREDICTABLE>
   11768:	ff000000 			; <UNDEFINED> instruction: 0xff000000
   1176c:	000000ff 	strdeq	r0, [r0], -pc	; <UNPREDICTABLE>
   11770:	ff000000 			; <UNDEFINED> instruction: 0xff000000
   11774:	ff0000ff 			; <UNDEFINED> instruction: 0xff0000ff
   11778:	ff0000ff 			; <UNDEFINED> instruction: 0xff0000ff
   1177c:	000000ff 	strdeq	r0, [r0], -pc	; <UNPREDICTABLE>
   11780:	00000000 	andeq	r0, r0, r0
   11784:	00ffff00 	rscseq	pc, pc, r0, lsl #30
   11788:	00ffff00 	rscseq	pc, pc, r0, lsl #30
   1178c:	00000000 	andeq	r0, r0, r0
   11790:	ff000000 			; <UNDEFINED> instruction: 0xff000000
   11794:	000000ff 	strdeq	r0, [r0], -pc	; <UNPREDICTABLE>
   11798:	ff000000 			; <UNDEFINED> instruction: 0xff000000
   1179c:	000000ff 	strdeq	r0, [r0], -pc	; <UNPREDICTABLE>
	...
   117a8:	00ffff00 	rscseq	pc, pc, r0, lsl #30
   117ac:	00000000 	andeq	r0, r0, r0
   117b0:	ff000000 			; <UNDEFINED> instruction: 0xff000000
   117b4:	000000ff 	strdeq	r0, [r0], -pc	; <UNPREDICTABLE>
	...
   117c4:	ff000000 			; <UNDEFINED> instruction: 0xff000000
   117c8:	000000ff 	strdeq	r0, [r0], -pc	; <UNPREDICTABLE>
	...
   117d8:	ff000000 			; <UNDEFINED> instruction: 0xff000000
   117dc:	000000ff 	strdeq	r0, [r0], -pc	; <UNPREDICTABLE>
	...
   11800:	ff000000 			; <UNDEFINED> instruction: 0xff000000
   11804:	ffffffff 			; <UNDEFINED> instruction: 0xffffffff
   11808:	00ffffff 	ldrshteq	pc, [pc], #255	; <UNPREDICTABLE>
   1180c:	00000000 	andeq	r0, r0, r0
   11810:	ff000000 			; <UNDEFINED> instruction: 0xff000000
   11814:	000000ff 	strdeq	r0, [r0], -pc	; <UNPREDICTABLE>
   11818:	ff000000 			; <UNDEFINED> instruction: 0xff000000
   1181c:	000000ff 	strdeq	r0, [r0], -pc	; <UNPREDICTABLE>
   11820:	ff000000 			; <UNDEFINED> instruction: 0xff000000
   11824:	ffffffff 			; <UNDEFINED> instruction: 0xffffffff
   11828:	00ffffff 	ldrshteq	pc, [pc], #255	; <UNPREDICTABLE>
	...
   11834:	ffffff00 			; <UNDEFINED> instruction: 0xffffff00
   11838:	00ffffff 	ldrshteq	pc, [pc], #255	; <UNPREDICTABLE>
	...
   11844:	ff000000 			; <UNDEFINED> instruction: 0xff000000
   11848:	000000ff 	strdeq	r0, [r0], -pc	; <UNPREDICTABLE>
   1184c:	00000000 	andeq	r0, r0, r0
   11850:	ff000000 			; <UNDEFINED> instruction: 0xff000000
   11854:	000000ff 	strdeq	r0, [r0], -pc	; <UNPREDICTABLE>
   11858:	ff000000 			; <UNDEFINED> instruction: 0xff000000
   1185c:	000000ff 	strdeq	r0, [r0], -pc	; <UNPREDICTABLE>
   11860:	ff000000 			; <UNDEFINED> instruction: 0xff000000
   11864:	000000ff 	strdeq	r0, [r0], -pc	; <UNPREDICTABLE>
   11868:	ff000000 			; <UNDEFINED> instruction: 0xff000000
   1186c:	000000ff 	strdeq	r0, [r0], -pc	; <UNPREDICTABLE>
   11870:	ff000000 			; <UNDEFINED> instruction: 0xff000000
   11874:	ff0000ff 			; <UNDEFINED> instruction: 0xff0000ff
   11878:	ff0000ff 			; <UNDEFINED> instruction: 0xff0000ff
   1187c:	000000ff 	strdeq	r0, [r0], -pc	; <UNPREDICTABLE>
   11880:	00000000 	andeq	r0, r0, r0
   11884:	ff000000 			; <UNDEFINED> instruction: 0xff000000
   11888:	000000ff 	strdeq	r0, [r0], -pc	; <UNPREDICTABLE>
	...
   11894:	00ffff00 	rscseq	pc, pc, r0, lsl #30
   11898:	00ffff00 	rscseq	pc, pc, r0, lsl #30
	...
   118a4:	ff000000 			; <UNDEFINED> instruction: 0xff000000
   118a8:	000000ff 	strdeq	r0, [r0], -pc	; <UNPREDICTABLE>
   118ac:	00000000 	andeq	r0, r0, r0
   118b0:	ff000000 			; <UNDEFINED> instruction: 0xff000000
   118b4:	000000ff 	strdeq	r0, [r0], -pc	; <UNPREDICTABLE>
	...
   118c0:	ff000000 			; <UNDEFINED> instruction: 0xff000000
   118c4:	ffffffff 			; <UNDEFINED> instruction: 0xffffffff
   118c8:	ffffffff 			; <UNDEFINED> instruction: 0xffffffff
   118cc:	000000ff 	strdeq	r0, [r0], -pc	; <UNPREDICTABLE>
	...
   118d8:	ff000000 			; <UNDEFINED> instruction: 0xff000000
   118dc:	000000ff 	strdeq	r0, [r0], -pc	; <UNPREDICTABLE>
	...
   11900:	ff000000 			; <UNDEFINED> instruction: 0xff000000
   11904:	ffffffff 			; <UNDEFINED> instruction: 0xffffffff
   11908:	00ffffff 	ldrshteq	pc, [pc], #255	; <UNPREDICTABLE>
   1190c:	00000000 	andeq	r0, r0, r0
   11910:	ff000000 			; <UNDEFINED> instruction: 0xff000000
   11914:	000000ff 	strdeq	r0, [r0], -pc	; <UNPREDICTABLE>
   11918:	ff000000 			; <UNDEFINED> instruction: 0xff000000
   1191c:	000000ff 	strdeq	r0, [r0], -pc	; <UNPREDICTABLE>
   11920:	ff000000 			; <UNDEFINED> instruction: 0xff000000
   11924:	ffffffff 			; <UNDEFINED> instruction: 0xffffffff
   11928:	00ffffff 	ldrshteq	pc, [pc], #255	; <UNPREDICTABLE>
	...
   11934:	ffffff00 			; <UNDEFINED> instruction: 0xffffff00
   11938:	00ffffff 	ldrshteq	pc, [pc], #255	; <UNPREDICTABLE>
	...
   11944:	ff000000 			; <UNDEFINED> instruction: 0xff000000
   11948:	000000ff 	strdeq	r0, [r0], -pc	; <UNPREDICTABLE>
   1194c:	00000000 	andeq	r0, r0, r0
   11950:	ff000000 			; <UNDEFINED> instruction: 0xff000000
   11954:	000000ff 	strdeq	r0, [r0], -pc	; <UNPREDICTABLE>
   11958:	ff000000 			; <UNDEFINED> instruction: 0xff000000
   1195c:	000000ff 	strdeq	r0, [r0], -pc	; <UNPREDICTABLE>
   11960:	ff000000 			; <UNDEFINED> instruction: 0xff000000
   11964:	000000ff 	strdeq	r0, [r0], -pc	; <UNPREDICTABLE>
   11968:	ff000000 			; <UNDEFINED> instruction: 0xff000000
   1196c:	000000ff 	strdeq	r0, [r0], -pc	; <UNPREDICTABLE>
   11970:	ff000000 			; <UNDEFINED> instruction: 0xff000000
   11974:	ff0000ff 			; <UNDEFINED> instruction: 0xff0000ff
   11978:	ff0000ff 			; <UNDEFINED> instruction: 0xff0000ff
   1197c:	000000ff 	strdeq	r0, [r0], -pc	; <UNPREDICTABLE>
   11980:	00000000 	andeq	r0, r0, r0
   11984:	ff000000 			; <UNDEFINED> instruction: 0xff000000
   11988:	000000ff 	strdeq	r0, [r0], -pc	; <UNPREDICTABLE>
	...
   11994:	00ffff00 	rscseq	pc, pc, r0, lsl #30
   11998:	00ffff00 	rscseq	pc, pc, r0, lsl #30
	...
   119a4:	ff000000 			; <UNDEFINED> instruction: 0xff000000
   119a8:	000000ff 	strdeq	r0, [r0], -pc	; <UNPREDICTABLE>
   119ac:	00000000 	andeq	r0, r0, r0
   119b0:	ff000000 			; <UNDEFINED> instruction: 0xff000000
   119b4:	000000ff 	strdeq	r0, [r0], -pc	; <UNPREDICTABLE>
	...
   119c0:	ff000000 			; <UNDEFINED> instruction: 0xff000000
   119c4:	ffffffff 			; <UNDEFINED> instruction: 0xffffffff
   119c8:	ffffffff 			; <UNDEFINED> instruction: 0xffffffff
   119cc:	000000ff 	strdeq	r0, [r0], -pc	; <UNPREDICTABLE>
	...
   119d8:	ff000000 			; <UNDEFINED> instruction: 0xff000000
   119dc:	000000ff 	strdeq	r0, [r0], -pc	; <UNPREDICTABLE>
	...
   11a00:	ff000000 			; <UNDEFINED> instruction: 0xff000000
   11a04:	000000ff 	strdeq	r0, [r0], -pc	; <UNPREDICTABLE>
	...
   11a10:	ff000000 			; <UNDEFINED> instruction: 0xff000000
   11a14:	ff0000ff 			; <UNDEFINED> instruction: 0xff0000ff
   11a18:	ff0000ff 			; <UNDEFINED> instruction: 0xff0000ff
   11a1c:	000000ff 	strdeq	r0, [r0], -pc	; <UNPREDICTABLE>
   11a20:	ff000000 			; <UNDEFINED> instruction: 0xff000000
   11a24:	000000ff 	strdeq	r0, [r0], -pc	; <UNPREDICTABLE>
   11a28:	ff000000 			; <UNDEFINED> instruction: 0xff000000
   11a2c:	000000ff 	strdeq	r0, [r0], -pc	; <UNPREDICTABLE>
	...
   11a38:	ff000000 			; <UNDEFINED> instruction: 0xff000000
   11a3c:	000000ff 	strdeq	r0, [r0], -pc	; <UNPREDICTABLE>
   11a40:	00000000 	andeq	r0, r0, r0
   11a44:	ff000000 			; <UNDEFINED> instruction: 0xff000000
   11a48:	000000ff 	strdeq	r0, [r0], -pc	; <UNPREDICTABLE>
   11a4c:	00000000 	andeq	r0, r0, r0
   11a50:	ff000000 			; <UNDEFINED> instruction: 0xff000000
   11a54:	000000ff 	strdeq	r0, [r0], -pc	; <UNPREDICTABLE>
   11a58:	ff000000 			; <UNDEFINED> instruction: 0xff000000
   11a5c:	000000ff 	strdeq	r0, [r0], -pc	; <UNPREDICTABLE>
   11a60:	ff000000 			; <UNDEFINED> instruction: 0xff000000
   11a64:	00ffffff 	ldrshteq	pc, [pc], #255	; <UNPREDICTABLE>
   11a68:	ffffff00 			; <UNDEFINED> instruction: 0xffffff00
   11a6c:	000000ff 	strdeq	r0, [r0], -pc	; <UNPREDICTABLE>
   11a70:	ff000000 			; <UNDEFINED> instruction: 0xff000000
   11a74:	ff0000ff 			; <UNDEFINED> instruction: 0xff0000ff
   11a78:	ff0000ff 			; <UNDEFINED> instruction: 0xff0000ff
   11a7c:	000000ff 	strdeq	r0, [r0], -pc	; <UNPREDICTABLE>
   11a80:	00000000 	andeq	r0, r0, r0
   11a84:	00ffff00 	rscseq	pc, pc, r0, lsl #30
   11a88:	00ffff00 	rscseq	pc, pc, r0, lsl #30
	...
   11a94:	ff000000 			; <UNDEFINED> instruction: 0xff000000
   11a98:	000000ff 	strdeq	r0, [r0], -pc	; <UNPREDICTABLE>
	...
   11aa4:	00ffff00 	rscseq	pc, pc, r0, lsl #30
	...
   11ab0:	ff000000 			; <UNDEFINED> instruction: 0xff000000
   11ab4:	000000ff 	strdeq	r0, [r0], -pc	; <UNPREDICTABLE>
	...
   11ac4:	ff000000 			; <UNDEFINED> instruction: 0xff000000
   11ac8:	000000ff 	strdeq	r0, [r0], -pc	; <UNPREDICTABLE>
	...
   11ad8:	ff000000 			; <UNDEFINED> instruction: 0xff000000
   11adc:	000000ff 	strdeq	r0, [r0], -pc	; <UNPREDICTABLE>
	...
   11b00:	ff000000 			; <UNDEFINED> instruction: 0xff000000
   11b04:	000000ff 	strdeq	r0, [r0], -pc	; <UNPREDICTABLE>
	...
   11b10:	ff000000 			; <UNDEFINED> instruction: 0xff000000
   11b14:	ff0000ff 			; <UNDEFINED> instruction: 0xff0000ff
   11b18:	ff0000ff 			; <UNDEFINED> instruction: 0xff0000ff
   11b1c:	000000ff 	strdeq	r0, [r0], -pc	; <UNPREDICTABLE>
   11b20:	ff000000 			; <UNDEFINED> instruction: 0xff000000
   11b24:	000000ff 	strdeq	r0, [r0], -pc	; <UNPREDICTABLE>
   11b28:	ff000000 			; <UNDEFINED> instruction: 0xff000000
   11b2c:	000000ff 	strdeq	r0, [r0], -pc	; <UNPREDICTABLE>
	...
   11b38:	ff000000 			; <UNDEFINED> instruction: 0xff000000
   11b3c:	000000ff 	strdeq	r0, [r0], -pc	; <UNPREDICTABLE>
   11b40:	00000000 	andeq	r0, r0, r0
   11b44:	ff000000 			; <UNDEFINED> instruction: 0xff000000
   11b48:	000000ff 	strdeq	r0, [r0], -pc	; <UNPREDICTABLE>
   11b4c:	00000000 	andeq	r0, r0, r0
   11b50:	ff000000 			; <UNDEFINED> instruction: 0xff000000
   11b54:	000000ff 	strdeq	r0, [r0], -pc	; <UNPREDICTABLE>
   11b58:	ff000000 			; <UNDEFINED> instruction: 0xff000000
   11b5c:	000000ff 	strdeq	r0, [r0], -pc	; <UNPREDICTABLE>
   11b60:	ff000000 			; <UNDEFINED> instruction: 0xff000000
   11b64:	00ffffff 	ldrshteq	pc, [pc], #255	; <UNPREDICTABLE>
   11b68:	ffffff00 			; <UNDEFINED> instruction: 0xffffff00
   11b6c:	000000ff 	strdeq	r0, [r0], -pc	; <UNPREDICTABLE>
   11b70:	ff000000 			; <UNDEFINED> instruction: 0xff000000
   11b74:	ff0000ff 			; <UNDEFINED> instruction: 0xff0000ff
   11b78:	ff0000ff 			; <UNDEFINED> instruction: 0xff0000ff
   11b7c:	000000ff 	strdeq	r0, [r0], -pc	; <UNPREDICTABLE>
   11b80:	00000000 	andeq	r0, r0, r0
   11b84:	00ffff00 	rscseq	pc, pc, r0, lsl #30
   11b88:	00ffff00 	rscseq	pc, pc, r0, lsl #30
	...
   11b94:	ff000000 			; <UNDEFINED> instruction: 0xff000000
   11b98:	000000ff 	strdeq	r0, [r0], -pc	; <UNPREDICTABLE>
	...
   11ba4:	00ffff00 	rscseq	pc, pc, r0, lsl #30
	...
   11bb0:	ff000000 			; <UNDEFINED> instruction: 0xff000000
   11bb4:	000000ff 	strdeq	r0, [r0], -pc	; <UNPREDICTABLE>
	...
   11bc4:	ff000000 			; <UNDEFINED> instruction: 0xff000000
   11bc8:	000000ff 	strdeq	r0, [r0], -pc	; <UNPREDICTABLE>
	...
   11bd8:	ff000000 			; <UNDEFINED> instruction: 0xff000000
   11bdc:	000000ff 	strdeq	r0, [r0], -pc	; <UNPREDICTABLE>
	...
   11c00:	ff000000 			; <UNDEFINED> instruction: 0xff000000
   11c04:	000000ff 	strdeq	r0, [r0], -pc	; <UNPREDICTABLE>
	...
   11c10:	ff000000 			; <UNDEFINED> instruction: 0xff000000
   11c14:	000000ff 	strdeq	r0, [r0], -pc	; <UNPREDICTABLE>
   11c18:	ffffff00 			; <UNDEFINED> instruction: 0xffffff00
   11c1c:	000000ff 	strdeq	r0, [r0], -pc	; <UNPREDICTABLE>
   11c20:	ff000000 			; <UNDEFINED> instruction: 0xff000000
   11c24:	000000ff 	strdeq	r0, [r0], -pc	; <UNPREDICTABLE>
   11c28:	ff000000 			; <UNDEFINED> instruction: 0xff000000
   11c2c:	000000ff 	strdeq	r0, [r0], -pc	; <UNPREDICTABLE>
	...
   11c38:	ff000000 			; <UNDEFINED> instruction: 0xff000000
   11c3c:	000000ff 	strdeq	r0, [r0], -pc	; <UNPREDICTABLE>
   11c40:	00000000 	andeq	r0, r0, r0
   11c44:	ff000000 			; <UNDEFINED> instruction: 0xff000000
   11c48:	000000ff 	strdeq	r0, [r0], -pc	; <UNPREDICTABLE>
   11c4c:	00000000 	andeq	r0, r0, r0
   11c50:	ff000000 			; <UNDEFINED> instruction: 0xff000000
   11c54:	000000ff 	strdeq	r0, [r0], -pc	; <UNPREDICTABLE>
   11c58:	ff000000 			; <UNDEFINED> instruction: 0xff000000
   11c5c:	000000ff 	strdeq	r0, [r0], -pc	; <UNPREDICTABLE>
   11c60:	00000000 	andeq	r0, r0, r0
   11c64:	ffffff00 			; <UNDEFINED> instruction: 0xffffff00
   11c68:	00ffffff 	ldrshteq	pc, [pc], #255	; <UNPREDICTABLE>
   11c6c:	00000000 	andeq	r0, r0, r0
   11c70:	ff000000 			; <UNDEFINED> instruction: 0xff000000
   11c74:	ff0000ff 			; <UNDEFINED> instruction: 0xff0000ff
   11c78:	ff0000ff 			; <UNDEFINED> instruction: 0xff0000ff
   11c7c:	000000ff 	strdeq	r0, [r0], -pc	; <UNPREDICTABLE>
   11c80:	ff000000 			; <UNDEFINED> instruction: 0xff000000
   11c84:	000000ff 	strdeq	r0, [r0], -pc	; <UNPREDICTABLE>
   11c88:	ff000000 			; <UNDEFINED> instruction: 0xff000000
   11c8c:	000000ff 	strdeq	r0, [r0], -pc	; <UNPREDICTABLE>
   11c90:	00000000 	andeq	r0, r0, r0
   11c94:	ff000000 			; <UNDEFINED> instruction: 0xff000000
   11c98:	000000ff 	strdeq	r0, [r0], -pc	; <UNPREDICTABLE>
   11c9c:	00000000 	andeq	r0, r0, r0
   11ca0:	ff000000 			; <UNDEFINED> instruction: 0xff000000
   11ca4:	000000ff 	strdeq	r0, [r0], -pc	; <UNPREDICTABLE>
	...
   11cb0:	ff000000 			; <UNDEFINED> instruction: 0xff000000
   11cb4:	000000ff 	strdeq	r0, [r0], -pc	; <UNPREDICTABLE>
	...
   11cc4:	ff000000 			; <UNDEFINED> instruction: 0xff000000
   11cc8:	000000ff 	strdeq	r0, [r0], -pc	; <UNPREDICTABLE>
	...
   11cd8:	ff000000 			; <UNDEFINED> instruction: 0xff000000
   11cdc:	000000ff 	strdeq	r0, [r0], -pc	; <UNPREDICTABLE>
	...
   11d00:	ff000000 			; <UNDEFINED> instruction: 0xff000000
   11d04:	000000ff 	strdeq	r0, [r0], -pc	; <UNPREDICTABLE>
	...
   11d10:	ff000000 			; <UNDEFINED> instruction: 0xff000000
   11d14:	000000ff 	strdeq	r0, [r0], -pc	; <UNPREDICTABLE>
   11d18:	ffffff00 			; <UNDEFINED> instruction: 0xffffff00
   11d1c:	000000ff 	strdeq	r0, [r0], -pc	; <UNPREDICTABLE>
   11d20:	ff000000 			; <UNDEFINED> instruction: 0xff000000
   11d24:	000000ff 	strdeq	r0, [r0], -pc	; <UNPREDICTABLE>
   11d28:	ff000000 			; <UNDEFINED> instruction: 0xff000000
   11d2c:	000000ff 	strdeq	r0, [r0], -pc	; <UNPREDICTABLE>
	...
   11d38:	ff000000 			; <UNDEFINED> instruction: 0xff000000
   11d3c:	000000ff 	strdeq	r0, [r0], -pc	; <UNPREDICTABLE>
   11d40:	00000000 	andeq	r0, r0, r0
   11d44:	ff000000 			; <UNDEFINED> instruction: 0xff000000
   11d48:	000000ff 	strdeq	r0, [r0], -pc	; <UNPREDICTABLE>
   11d4c:	00000000 	andeq	r0, r0, r0
   11d50:	ff000000 			; <UNDEFINED> instruction: 0xff000000
   11d54:	000000ff 	strdeq	r0, [r0], -pc	; <UNPREDICTABLE>
   11d58:	ff000000 			; <UNDEFINED> instruction: 0xff000000
   11d5c:	000000ff 	strdeq	r0, [r0], -pc	; <UNPREDICTABLE>
   11d60:	00000000 	andeq	r0, r0, r0
   11d64:	ffffff00 			; <UNDEFINED> instruction: 0xffffff00
   11d68:	00ffffff 	ldrshteq	pc, [pc], #255	; <UNPREDICTABLE>
   11d6c:	00000000 	andeq	r0, r0, r0
   11d70:	ff000000 			; <UNDEFINED> instruction: 0xff000000
   11d74:	ff0000ff 			; <UNDEFINED> instruction: 0xff0000ff
   11d78:	ff0000ff 			; <UNDEFINED> instruction: 0xff0000ff
   11d7c:	000000ff 	strdeq	r0, [r0], -pc	; <UNPREDICTABLE>
   11d80:	ff000000 			; <UNDEFINED> instruction: 0xff000000
   11d84:	000000ff 	strdeq	r0, [r0], -pc	; <UNPREDICTABLE>
   11d88:	ff000000 			; <UNDEFINED> instruction: 0xff000000
   11d8c:	000000ff 	strdeq	r0, [r0], -pc	; <UNPREDICTABLE>
   11d90:	00000000 	andeq	r0, r0, r0
   11d94:	ff000000 			; <UNDEFINED> instruction: 0xff000000
   11d98:	000000ff 	strdeq	r0, [r0], -pc	; <UNPREDICTABLE>
   11d9c:	00000000 	andeq	r0, r0, r0
   11da0:	ff000000 			; <UNDEFINED> instruction: 0xff000000
   11da4:	000000ff 	strdeq	r0, [r0], -pc	; <UNPREDICTABLE>
	...
   11db0:	ff000000 			; <UNDEFINED> instruction: 0xff000000
   11db4:	000000ff 	strdeq	r0, [r0], -pc	; <UNPREDICTABLE>
	...
   11dc4:	ff000000 			; <UNDEFINED> instruction: 0xff000000
   11dc8:	000000ff 	strdeq	r0, [r0], -pc	; <UNPREDICTABLE>
	...
   11dd8:	ff000000 			; <UNDEFINED> instruction: 0xff000000
   11ddc:	000000ff 	strdeq	r0, [r0], -pc	; <UNPREDICTABLE>
	...
   11e00:	ff000000 			; <UNDEFINED> instruction: 0xff000000
   11e04:	000000ff 	strdeq	r0, [r0], -pc	; <UNPREDICTABLE>
	...
   11e14:	ffffff00 			; <UNDEFINED> instruction: 0xffffff00
   11e18:	00ffffff 	ldrshteq	pc, [pc], #255	; <UNPREDICTABLE>
   11e1c:	00000000 	andeq	r0, r0, r0
   11e20:	ff000000 			; <UNDEFINED> instruction: 0xff000000
   11e24:	000000ff 	strdeq	r0, [r0], -pc	; <UNPREDICTABLE>
   11e28:	ff000000 			; <UNDEFINED> instruction: 0xff000000
   11e2c:	000000ff 	strdeq	r0, [r0], -pc	; <UNPREDICTABLE>
   11e30:	ff000000 			; <UNDEFINED> instruction: 0xff000000
   11e34:	ffffffff 			; <UNDEFINED> instruction: 0xffffffff
   11e38:	00ffffff 	ldrshteq	pc, [pc], #255	; <UNPREDICTABLE>
	...
   11e44:	ff000000 			; <UNDEFINED> instruction: 0xff000000
   11e48:	000000ff 	strdeq	r0, [r0], -pc	; <UNPREDICTABLE>
	...
   11e54:	ffffff00 			; <UNDEFINED> instruction: 0xffffff00
   11e58:	00ffffff 	ldrshteq	pc, [pc], #255	; <UNPREDICTABLE>
	...
   11e64:	ff000000 			; <UNDEFINED> instruction: 0xff000000
   11e68:	000000ff 	strdeq	r0, [r0], -pc	; <UNPREDICTABLE>
	...
   11e74:	00ffff00 	rscseq	pc, pc, r0, lsl #30
   11e78:	00ffff00 	rscseq	pc, pc, r0, lsl #30
   11e7c:	00000000 	andeq	r0, r0, r0
   11e80:	ff000000 			; <UNDEFINED> instruction: 0xff000000
   11e84:	000000ff 	strdeq	r0, [r0], -pc	; <UNPREDICTABLE>
   11e88:	ff000000 			; <UNDEFINED> instruction: 0xff000000
   11e8c:	000000ff 	strdeq	r0, [r0], -pc	; <UNPREDICTABLE>
   11e90:	00000000 	andeq	r0, r0, r0
   11e94:	ff000000 			; <UNDEFINED> instruction: 0xff000000
   11e98:	000000ff 	strdeq	r0, [r0], -pc	; <UNPREDICTABLE>
   11e9c:	00000000 	andeq	r0, r0, r0
   11ea0:	ff000000 			; <UNDEFINED> instruction: 0xff000000
   11ea4:	ffffffff 			; <UNDEFINED> instruction: 0xffffffff
   11ea8:	ffffffff 			; <UNDEFINED> instruction: 0xffffffff
   11eac:	000000ff 	strdeq	r0, [r0], -pc	; <UNPREDICTABLE>
   11eb0:	ff000000 			; <UNDEFINED> instruction: 0xff000000
   11eb4:	ffffffff 			; <UNDEFINED> instruction: 0xffffffff
   11eb8:	00ffffff 	ldrshteq	pc, [pc], #255	; <UNPREDICTABLE>
	...
   11ec4:	ff000000 			; <UNDEFINED> instruction: 0xff000000
   11ec8:	000000ff 	strdeq	r0, [r0], -pc	; <UNPREDICTABLE>
	...
   11ed4:	ffffff00 			; <UNDEFINED> instruction: 0xffffff00
   11ed8:	ffffffff 			; <UNDEFINED> instruction: 0xffffffff
   11edc:	000000ff 	strdeq	r0, [r0], -pc	; <UNPREDICTABLE>
	...
   11ef0:	ff000000 			; <UNDEFINED> instruction: 0xff000000
   11ef4:	ffffffff 			; <UNDEFINED> instruction: 0xffffffff
   11ef8:	ffffffff 			; <UNDEFINED> instruction: 0xffffffff
   11efc:	000000ff 	strdeq	r0, [r0], -pc	; <UNPREDICTABLE>
   11f00:	ff000000 			; <UNDEFINED> instruction: 0xff000000
   11f04:	000000ff 	strdeq	r0, [r0], -pc	; <UNPREDICTABLE>
	...
   11f14:	ffffff00 			; <UNDEFINED> instruction: 0xffffff00
   11f18:	00ffffff 	ldrshteq	pc, [pc], #255	; <UNPREDICTABLE>
   11f1c:	00000000 	andeq	r0, r0, r0
   11f20:	ff000000 			; <UNDEFINED> instruction: 0xff000000
   11f24:	000000ff 	strdeq	r0, [r0], -pc	; <UNPREDICTABLE>
   11f28:	ff000000 			; <UNDEFINED> instruction: 0xff000000
   11f2c:	000000ff 	strdeq	r0, [r0], -pc	; <UNPREDICTABLE>
   11f30:	ff000000 			; <UNDEFINED> instruction: 0xff000000
   11f34:	ffffffff 			; <UNDEFINED> instruction: 0xffffffff
   11f38:	00ffffff 	ldrshteq	pc, [pc], #255	; <UNPREDICTABLE>
	...
   11f44:	ff000000 			; <UNDEFINED> instruction: 0xff000000
   11f48:	000000ff 	strdeq	r0, [r0], -pc	; <UNPREDICTABLE>
	...
   11f54:	ffffff00 			; <UNDEFINED> instruction: 0xffffff00
   11f58:	00ffffff 	ldrshteq	pc, [pc], #255	; <UNPREDICTABLE>
	...
   11f64:	ff000000 			; <UNDEFINED> instruction: 0xff000000
   11f68:	000000ff 	strdeq	r0, [r0], -pc	; <UNPREDICTABLE>
	...
   11f74:	00ffff00 	rscseq	pc, pc, r0, lsl #30
   11f78:	00ffff00 	rscseq	pc, pc, r0, lsl #30
   11f7c:	00000000 	andeq	r0, r0, r0
   11f80:	ff000000 			; <UNDEFINED> instruction: 0xff000000
   11f84:	000000ff 	strdeq	r0, [r0], -pc	; <UNPREDICTABLE>
   11f88:	ff000000 			; <UNDEFINED> instruction: 0xff000000
   11f8c:	000000ff 	strdeq	r0, [r0], -pc	; <UNPREDICTABLE>
   11f90:	00000000 	andeq	r0, r0, r0
   11f94:	ff000000 			; <UNDEFINED> instruction: 0xff000000
   11f98:	000000ff 	strdeq	r0, [r0], -pc	; <UNPREDICTABLE>
   11f9c:	00000000 	andeq	r0, r0, r0
   11fa0:	ff000000 			; <UNDEFINED> instruction: 0xff000000
   11fa4:	ffffffff 			; <UNDEFINED> instruction: 0xffffffff
   11fa8:	ffffffff 			; <UNDEFINED> instruction: 0xffffffff
   11fac:	000000ff 	strdeq	r0, [r0], -pc	; <UNPREDICTABLE>
   11fb0:	ff000000 			; <UNDEFINED> instruction: 0xff000000
   11fb4:	ffffffff 			; <UNDEFINED> instruction: 0xffffffff
   11fb8:	00ffffff 	ldrshteq	pc, [pc], #255	; <UNPREDICTABLE>
	...
   11fc4:	ff000000 			; <UNDEFINED> instruction: 0xff000000
   11fc8:	000000ff 	strdeq	r0, [r0], -pc	; <UNPREDICTABLE>
	...
   11fd4:	ffffff00 			; <UNDEFINED> instruction: 0xffffff00
   11fd8:	ffffffff 			; <UNDEFINED> instruction: 0xffffffff
   11fdc:	000000ff 	strdeq	r0, [r0], -pc	; <UNPREDICTABLE>
	...
   11ff0:	ff000000 			; <UNDEFINED> instruction: 0xff000000
   11ff4:	ffffffff 			; <UNDEFINED> instruction: 0xffffffff
   11ff8:	ffffffff 			; <UNDEFINED> instruction: 0xffffffff
   11ffc:	000000ff 	strdeq	r0, [r0], -pc	; <UNPREDICTABLE>
	...
   12410:	ff000000 			; <UNDEFINED> instruction: 0xff000000
   12414:	ffffffff 			; <UNDEFINED> instruction: 0xffffffff
   12418:	00ffffff 	ldrshteq	pc, [pc], #255	; <UNPREDICTABLE>
   1241c:	00000000 	andeq	r0, r0, r0
   12420:	ff000000 			; <UNDEFINED> instruction: 0xff000000
   12424:	000000ff 	strdeq	r0, [r0], -pc	; <UNPREDICTABLE>
	...
   12434:	ffffff00 			; <UNDEFINED> instruction: 0xffffff00
   12438:	00ffffff 	ldrshteq	pc, [pc], #255	; <UNPREDICTABLE>
	...
   12448:	ff000000 			; <UNDEFINED> instruction: 0xff000000
   1244c:	000000ff 	strdeq	r0, [r0], -pc	; <UNPREDICTABLE>
   12450:	00000000 	andeq	r0, r0, r0
   12454:	ffffff00 			; <UNDEFINED> instruction: 0xffffff00
   12458:	00ffffff 	ldrshteq	pc, [pc], #255	; <UNPREDICTABLE>
	...
   12464:	ff000000 			; <UNDEFINED> instruction: 0xff000000
   12468:	ffffffff 			; <UNDEFINED> instruction: 0xffffffff
   1246c:	000000ff 	strdeq	r0, [r0], -pc	; <UNPREDICTABLE>
   12470:	00000000 	andeq	r0, r0, r0
   12474:	ffffff00 			; <UNDEFINED> instruction: 0xffffff00
   12478:	ffffffff 			; <UNDEFINED> instruction: 0xffffffff
   1247c:	000000ff 	strdeq	r0, [r0], -pc	; <UNPREDICTABLE>
   12480:	ff000000 			; <UNDEFINED> instruction: 0xff000000
   12484:	000000ff 	strdeq	r0, [r0], -pc	; <UNPREDICTABLE>
	...
   12494:	ff000000 			; <UNDEFINED> instruction: 0xff000000
   12498:	000000ff 	strdeq	r0, [r0], -pc	; <UNPREDICTABLE>
	...
   124a4:	ff000000 			; <UNDEFINED> instruction: 0xff000000
   124a8:	000000ff 	strdeq	r0, [r0], -pc	; <UNPREDICTABLE>
   124ac:	00000000 	andeq	r0, r0, r0
   124b0:	ff000000 			; <UNDEFINED> instruction: 0xff000000
   124b4:	000000ff 	strdeq	r0, [r0], -pc	; <UNPREDICTABLE>
   124b8:	ff000000 			; <UNDEFINED> instruction: 0xff000000
   124bc:	000000ff 	strdeq	r0, [r0], -pc	; <UNPREDICTABLE>
   124c0:	00000000 	andeq	r0, r0, r0
   124c4:	ff000000 			; <UNDEFINED> instruction: 0xff000000
   124c8:	000000ff 	strdeq	r0, [r0], -pc	; <UNPREDICTABLE>
	...
   12510:	ff000000 			; <UNDEFINED> instruction: 0xff000000
   12514:	ffffffff 			; <UNDEFINED> instruction: 0xffffffff
   12518:	00ffffff 	ldrshteq	pc, [pc], #255	; <UNPREDICTABLE>
   1251c:	00000000 	andeq	r0, r0, r0
   12520:	ff000000 			; <UNDEFINED> instruction: 0xff000000
   12524:	000000ff 	strdeq	r0, [r0], -pc	; <UNPREDICTABLE>
	...
   12534:	ffffff00 			; <UNDEFINED> instruction: 0xffffff00
   12538:	00ffffff 	ldrshteq	pc, [pc], #255	; <UNPREDICTABLE>
	...
   12548:	ff000000 			; <UNDEFINED> instruction: 0xff000000
   1254c:	000000ff 	strdeq	r0, [r0], -pc	; <UNPREDICTABLE>
   12550:	00000000 	andeq	r0, r0, r0
   12554:	ffffff00 			; <UNDEFINED> instruction: 0xffffff00
   12558:	00ffffff 	ldrshteq	pc, [pc], #255	; <UNPREDICTABLE>
	...
   12564:	ff000000 			; <UNDEFINED> instruction: 0xff000000
   12568:	ffffffff 			; <UNDEFINED> instruction: 0xffffffff
   1256c:	000000ff 	strdeq	r0, [r0], -pc	; <UNPREDICTABLE>
   12570:	00000000 	andeq	r0, r0, r0
   12574:	ffffff00 			; <UNDEFINED> instruction: 0xffffff00
   12578:	ffffffff 			; <UNDEFINED> instruction: 0xffffffff
   1257c:	000000ff 	strdeq	r0, [r0], -pc	; <UNPREDICTABLE>
   12580:	ff000000 			; <UNDEFINED> instruction: 0xff000000
   12584:	000000ff 	strdeq	r0, [r0], -pc	; <UNPREDICTABLE>
	...
   12594:	ff000000 			; <UNDEFINED> instruction: 0xff000000
   12598:	000000ff 	strdeq	r0, [r0], -pc	; <UNPREDICTABLE>
	...
   125a4:	ff000000 			; <UNDEFINED> instruction: 0xff000000
   125a8:	000000ff 	strdeq	r0, [r0], -pc	; <UNPREDICTABLE>
   125ac:	00000000 	andeq	r0, r0, r0
   125b0:	ff000000 			; <UNDEFINED> instruction: 0xff000000
   125b4:	000000ff 	strdeq	r0, [r0], -pc	; <UNPREDICTABLE>
   125b8:	ff000000 			; <UNDEFINED> instruction: 0xff000000
   125bc:	000000ff 	strdeq	r0, [r0], -pc	; <UNPREDICTABLE>
   125c0:	00000000 	andeq	r0, r0, r0
   125c4:	ff000000 			; <UNDEFINED> instruction: 0xff000000
   125c8:	000000ff 	strdeq	r0, [r0], -pc	; <UNPREDICTABLE>
	...
   12618:	ff000000 			; <UNDEFINED> instruction: 0xff000000
   1261c:	000000ff 	strdeq	r0, [r0], -pc	; <UNPREDICTABLE>
   12620:	ff000000 			; <UNDEFINED> instruction: 0xff000000
   12624:	000000ff 	strdeq	r0, [r0], -pc	; <UNPREDICTABLE>
	...
   12630:	ff000000 			; <UNDEFINED> instruction: 0xff000000
   12634:	000000ff 	strdeq	r0, [r0], -pc	; <UNPREDICTABLE>
   12638:	ff000000 			; <UNDEFINED> instruction: 0xff000000
   1263c:	000000ff 	strdeq	r0, [r0], -pc	; <UNPREDICTABLE>
	...
   12648:	ff000000 			; <UNDEFINED> instruction: 0xff000000
   1264c:	000000ff 	strdeq	r0, [r0], -pc	; <UNPREDICTABLE>
   12650:	ff000000 			; <UNDEFINED> instruction: 0xff000000
   12654:	000000ff 	strdeq	r0, [r0], -pc	; <UNPREDICTABLE>
   12658:	ff000000 			; <UNDEFINED> instruction: 0xff000000
   1265c:	000000ff 	strdeq	r0, [r0], -pc	; <UNPREDICTABLE>
   12660:	00000000 	andeq	r0, r0, r0
   12664:	ff000000 			; <UNDEFINED> instruction: 0xff000000
   12668:	000000ff 	strdeq	r0, [r0], -pc	; <UNPREDICTABLE>
   1266c:	00000000 	andeq	r0, r0, r0
   12670:	ff000000 			; <UNDEFINED> instruction: 0xff000000
   12674:	000000ff 	strdeq	r0, [r0], -pc	; <UNPREDICTABLE>
   12678:	ff000000 			; <UNDEFINED> instruction: 0xff000000
   1267c:	000000ff 	strdeq	r0, [r0], -pc	; <UNPREDICTABLE>
   12680:	ff000000 			; <UNDEFINED> instruction: 0xff000000
   12684:	000000ff 	strdeq	r0, [r0], -pc	; <UNPREDICTABLE>
	...
   126b0:	ff000000 			; <UNDEFINED> instruction: 0xff000000
   126b4:	000000ff 	strdeq	r0, [r0], -pc	; <UNPREDICTABLE>
   126b8:	00ffff00 	rscseq	pc, pc, r0, lsl #30
	...
   126c4:	ff000000 			; <UNDEFINED> instruction: 0xff000000
   126c8:	000000ff 	strdeq	r0, [r0], -pc	; <UNPREDICTABLE>
   126cc:	00000000 	andeq	r0, r0, r0
   126d0:	ff000000 			; <UNDEFINED> instruction: 0xff000000
   126d4:	ffffffff 			; <UNDEFINED> instruction: 0xffffffff
   126d8:	ffffffff 			; <UNDEFINED> instruction: 0xffffffff
   126dc:	000000ff 	strdeq	r0, [r0], -pc	; <UNPREDICTABLE>
   126e0:	ff000000 			; <UNDEFINED> instruction: 0xff000000
   126e4:	ffffffff 			; <UNDEFINED> instruction: 0xffffffff
   126e8:	ffffffff 			; <UNDEFINED> instruction: 0xffffffff
   126ec:	000000ff 	strdeq	r0, [r0], -pc	; <UNPREDICTABLE>
   126f0:	00000000 	andeq	r0, r0, r0
   126f4:	ffffff00 			; <UNDEFINED> instruction: 0xffffff00
   126f8:	00ffffff 	ldrshteq	pc, [pc], #255	; <UNPREDICTABLE>
	...
   12718:	ff000000 			; <UNDEFINED> instruction: 0xff000000
   1271c:	000000ff 	strdeq	r0, [r0], -pc	; <UNPREDICTABLE>
   12720:	ff000000 			; <UNDEFINED> instruction: 0xff000000
   12724:	000000ff 	strdeq	r0, [r0], -pc	; <UNPREDICTABLE>
	...
   12730:	ff000000 			; <UNDEFINED> instruction: 0xff000000
   12734:	000000ff 	strdeq	r0, [r0], -pc	; <UNPREDICTABLE>
   12738:	ff000000 			; <UNDEFINED> instruction: 0xff000000
   1273c:	000000ff 	strdeq	r0, [r0], -pc	; <UNPREDICTABLE>
	...
   12748:	ff000000 			; <UNDEFINED> instruction: 0xff000000
   1274c:	000000ff 	strdeq	r0, [r0], -pc	; <UNPREDICTABLE>
   12750:	ff000000 			; <UNDEFINED> instruction: 0xff000000
   12754:	000000ff 	strdeq	r0, [r0], -pc	; <UNPREDICTABLE>
   12758:	ff000000 			; <UNDEFINED> instruction: 0xff000000
   1275c:	000000ff 	strdeq	r0, [r0], -pc	; <UNPREDICTABLE>
   12760:	00000000 	andeq	r0, r0, r0
   12764:	ff000000 			; <UNDEFINED> instruction: 0xff000000
   12768:	000000ff 	strdeq	r0, [r0], -pc	; <UNPREDICTABLE>
   1276c:	00000000 	andeq	r0, r0, r0
   12770:	ff000000 			; <UNDEFINED> instruction: 0xff000000
   12774:	000000ff 	strdeq	r0, [r0], -pc	; <UNPREDICTABLE>
   12778:	ff000000 			; <UNDEFINED> instruction: 0xff000000
   1277c:	000000ff 	strdeq	r0, [r0], -pc	; <UNPREDICTABLE>
   12780:	ff000000 			; <UNDEFINED> instruction: 0xff000000
   12784:	000000ff 	strdeq	r0, [r0], -pc	; <UNPREDICTABLE>
	...
   127b0:	ff000000 			; <UNDEFINED> instruction: 0xff000000
   127b4:	000000ff 	strdeq	r0, [r0], -pc	; <UNPREDICTABLE>
   127b8:	00ffff00 	rscseq	pc, pc, r0, lsl #30
	...
   127c4:	ff000000 			; <UNDEFINED> instruction: 0xff000000
   127c8:	000000ff 	strdeq	r0, [r0], -pc	; <UNPREDICTABLE>
   127cc:	00000000 	andeq	r0, r0, r0
   127d0:	ff000000 			; <UNDEFINED> instruction: 0xff000000
   127d4:	ffffffff 			; <UNDEFINED> instruction: 0xffffffff
   127d8:	ffffffff 			; <UNDEFINED> instruction: 0xffffffff
   127dc:	000000ff 	strdeq	r0, [r0], -pc	; <UNPREDICTABLE>
   127e0:	ff000000 			; <UNDEFINED> instruction: 0xff000000
   127e4:	ffffffff 			; <UNDEFINED> instruction: 0xffffffff
   127e8:	ffffffff 			; <UNDEFINED> instruction: 0xffffffff
   127ec:	000000ff 	strdeq	r0, [r0], -pc	; <UNPREDICTABLE>
   127f0:	00000000 	andeq	r0, r0, r0
   127f4:	ffffff00 			; <UNDEFINED> instruction: 0xffffff00
   127f8:	00ffffff 	ldrshteq	pc, [pc], #255	; <UNPREDICTABLE>
	...
   12810:	ff000000 			; <UNDEFINED> instruction: 0xff000000
   12814:	ffffffff 			; <UNDEFINED> instruction: 0xffffffff
   12818:	ffffffff 			; <UNDEFINED> instruction: 0xffffffff
   1281c:	000000ff 	strdeq	r0, [r0], -pc	; <UNPREDICTABLE>
   12820:	ff000000 			; <UNDEFINED> instruction: 0xff000000
   12824:	ffffffff 			; <UNDEFINED> instruction: 0xffffffff
   12828:	ffffffff 			; <UNDEFINED> instruction: 0xffffffff
   1282c:	000000ff 	strdeq	r0, [r0], -pc	; <UNPREDICTABLE>
   12830:	ff000000 			; <UNDEFINED> instruction: 0xff000000
   12834:	000000ff 	strdeq	r0, [r0], -pc	; <UNPREDICTABLE>
	...
   12840:	ff000000 			; <UNDEFINED> instruction: 0xff000000
   12844:	ffffffff 			; <UNDEFINED> instruction: 0xffffffff
   12848:	ffffffff 			; <UNDEFINED> instruction: 0xffffffff
   1284c:	000000ff 	strdeq	r0, [r0], -pc	; <UNPREDICTABLE>
   12850:	ff000000 			; <UNDEFINED> instruction: 0xff000000
   12854:	ffffffff 			; <UNDEFINED> instruction: 0xffffffff
   12858:	ffffffff 			; <UNDEFINED> instruction: 0xffffffff
   1285c:	000000ff 	strdeq	r0, [r0], -pc	; <UNPREDICTABLE>
   12860:	ff000000 			; <UNDEFINED> instruction: 0xff000000
   12864:	ffffffff 			; <UNDEFINED> instruction: 0xffffffff
   12868:	00ffffff 	ldrshteq	pc, [pc], #255	; <UNPREDICTABLE>
	...
   12874:	ffffff00 			; <UNDEFINED> instruction: 0xffffff00
   12878:	ffffffff 			; <UNDEFINED> instruction: 0xffffffff
   1287c:	000000ff 	strdeq	r0, [r0], -pc	; <UNPREDICTABLE>
   12880:	ff000000 			; <UNDEFINED> instruction: 0xff000000
   12884:	ffffffff 			; <UNDEFINED> instruction: 0xffffffff
   12888:	ffffffff 			; <UNDEFINED> instruction: 0xffffffff
   1288c:	000000ff 	strdeq	r0, [r0], -pc	; <UNPREDICTABLE>
   12890:	00000000 	andeq	r0, r0, r0
   12894:	ff000000 			; <UNDEFINED> instruction: 0xff000000
   12898:	000000ff 	strdeq	r0, [r0], -pc	; <UNPREDICTABLE>
	...
   128a4:	ff000000 			; <UNDEFINED> instruction: 0xff000000
   128a8:	000000ff 	strdeq	r0, [r0], -pc	; <UNPREDICTABLE>
   128ac:	00000000 	andeq	r0, r0, r0
   128b0:	ff000000 			; <UNDEFINED> instruction: 0xff000000
   128b4:	ffffffff 			; <UNDEFINED> instruction: 0xffffffff
   128b8:	000000ff 	strdeq	r0, [r0], -pc	; <UNPREDICTABLE>
	...
   128c4:	ff000000 			; <UNDEFINED> instruction: 0xff000000
   128c8:	000000ff 	strdeq	r0, [r0], -pc	; <UNPREDICTABLE>
   128cc:	00000000 	andeq	r0, r0, r0
   128d0:	ff000000 			; <UNDEFINED> instruction: 0xff000000
   128d4:	ff0000ff 			; <UNDEFINED> instruction: 0xff0000ff
   128d8:	ff0000ff 			; <UNDEFINED> instruction: 0xff0000ff
   128dc:	000000ff 	strdeq	r0, [r0], -pc	; <UNPREDICTABLE>
   128e0:	ff000000 			; <UNDEFINED> instruction: 0xff000000
   128e4:	000000ff 	strdeq	r0, [r0], -pc	; <UNPREDICTABLE>
   128e8:	ff000000 			; <UNDEFINED> instruction: 0xff000000
   128ec:	000000ff 	strdeq	r0, [r0], -pc	; <UNPREDICTABLE>
   128f0:	ff000000 			; <UNDEFINED> instruction: 0xff000000
   128f4:	000000ff 	strdeq	r0, [r0], -pc	; <UNPREDICTABLE>
   128f8:	ff000000 			; <UNDEFINED> instruction: 0xff000000
   128fc:	000000ff 	strdeq	r0, [r0], -pc	; <UNPREDICTABLE>
	...
   12910:	ff000000 			; <UNDEFINED> instruction: 0xff000000
   12914:	ffffffff 			; <UNDEFINED> instruction: 0xffffffff
   12918:	ffffffff 			; <UNDEFINED> instruction: 0xffffffff
   1291c:	000000ff 	strdeq	r0, [r0], -pc	; <UNPREDICTABLE>
   12920:	ff000000 			; <UNDEFINED> instruction: 0xff000000
   12924:	ffffffff 			; <UNDEFINED> instruction: 0xffffffff
   12928:	ffffffff 			; <UNDEFINED> instruction: 0xffffffff
   1292c:	000000ff 	strdeq	r0, [r0], -pc	; <UNPREDICTABLE>
   12930:	ff000000 			; <UNDEFINED> instruction: 0xff000000
   12934:	000000ff 	strdeq	r0, [r0], -pc	; <UNPREDICTABLE>
	...
   12940:	ff000000 			; <UNDEFINED> instruction: 0xff000000
   12944:	ffffffff 			; <UNDEFINED> instruction: 0xffffffff
   12948:	ffffffff 			; <UNDEFINED> instruction: 0xffffffff
   1294c:	000000ff 	strdeq	r0, [r0], -pc	; <UNPREDICTABLE>
   12950:	ff000000 			; <UNDEFINED> instruction: 0xff000000
   12954:	ffffffff 			; <UNDEFINED> instruction: 0xffffffff
   12958:	ffffffff 			; <UNDEFINED> instruction: 0xffffffff
   1295c:	000000ff 	strdeq	r0, [r0], -pc	; <UNPREDICTABLE>
   12960:	ff000000 			; <UNDEFINED> instruction: 0xff000000
   12964:	ffffffff 			; <UNDEFINED> instruction: 0xffffffff
   12968:	00ffffff 	ldrshteq	pc, [pc], #255	; <UNPREDICTABLE>
	...
   12974:	ffffff00 			; <UNDEFINED> instruction: 0xffffff00
   12978:	ffffffff 			; <UNDEFINED> instruction: 0xffffffff
   1297c:	000000ff 	strdeq	r0, [r0], -pc	; <UNPREDICTABLE>
   12980:	ff000000 			; <UNDEFINED> instruction: 0xff000000
   12984:	ffffffff 			; <UNDEFINED> instruction: 0xffffffff
   12988:	ffffffff 			; <UNDEFINED> instruction: 0xffffffff
   1298c:	000000ff 	strdeq	r0, [r0], -pc	; <UNPREDICTABLE>
   12990:	00000000 	andeq	r0, r0, r0
   12994:	ff000000 			; <UNDEFINED> instruction: 0xff000000
   12998:	000000ff 	strdeq	r0, [r0], -pc	; <UNPREDICTABLE>
	...
   129a4:	ff000000 			; <UNDEFINED> instruction: 0xff000000
   129a8:	000000ff 	strdeq	r0, [r0], -pc	; <UNPREDICTABLE>
   129ac:	00000000 	andeq	r0, r0, r0
   129b0:	ff000000 			; <UNDEFINED> instruction: 0xff000000
   129b4:	ffffffff 			; <UNDEFINED> instruction: 0xffffffff
   129b8:	000000ff 	strdeq	r0, [r0], -pc	; <UNPREDICTABLE>
	...
   129c4:	ff000000 			; <UNDEFINED> instruction: 0xff000000
   129c8:	000000ff 	strdeq	r0, [r0], -pc	; <UNPREDICTABLE>
   129cc:	00000000 	andeq	r0, r0, r0
   129d0:	ff000000 			; <UNDEFINED> instruction: 0xff000000
   129d4:	ff0000ff 			; <UNDEFINED> instruction: 0xff0000ff
   129d8:	ff0000ff 			; <UNDEFINED> instruction: 0xff0000ff
   129dc:	000000ff 	strdeq	r0, [r0], -pc	; <UNPREDICTABLE>
   129e0:	ff000000 			; <UNDEFINED> instruction: 0xff000000
   129e4:	000000ff 	strdeq	r0, [r0], -pc	; <UNPREDICTABLE>
   129e8:	ff000000 			; <UNDEFINED> instruction: 0xff000000
   129ec:	000000ff 	strdeq	r0, [r0], -pc	; <UNPREDICTABLE>
   129f0:	ff000000 			; <UNDEFINED> instruction: 0xff000000
   129f4:	000000ff 	strdeq	r0, [r0], -pc	; <UNPREDICTABLE>
   129f8:	ff000000 			; <UNDEFINED> instruction: 0xff000000
   129fc:	000000ff 	strdeq	r0, [r0], -pc	; <UNPREDICTABLE>
	...
   12a10:	ff000000 			; <UNDEFINED> instruction: 0xff000000
   12a14:	000000ff 	strdeq	r0, [r0], -pc	; <UNPREDICTABLE>
   12a18:	ff000000 			; <UNDEFINED> instruction: 0xff000000
   12a1c:	000000ff 	strdeq	r0, [r0], -pc	; <UNPREDICTABLE>
   12a20:	ff000000 			; <UNDEFINED> instruction: 0xff000000
   12a24:	000000ff 	strdeq	r0, [r0], -pc	; <UNPREDICTABLE>
   12a28:	ff000000 			; <UNDEFINED> instruction: 0xff000000
   12a2c:	000000ff 	strdeq	r0, [r0], -pc	; <UNPREDICTABLE>
   12a30:	ff000000 			; <UNDEFINED> instruction: 0xff000000
   12a34:	000000ff 	strdeq	r0, [r0], -pc	; <UNPREDICTABLE>
	...
   12a40:	ff000000 			; <UNDEFINED> instruction: 0xff000000
   12a44:	000000ff 	strdeq	r0, [r0], -pc	; <UNPREDICTABLE>
   12a48:	ff000000 			; <UNDEFINED> instruction: 0xff000000
   12a4c:	000000ff 	strdeq	r0, [r0], -pc	; <UNPREDICTABLE>
   12a50:	ff000000 			; <UNDEFINED> instruction: 0xff000000
   12a54:	000000ff 	strdeq	r0, [r0], -pc	; <UNPREDICTABLE>
	...
   12a64:	ff000000 			; <UNDEFINED> instruction: 0xff000000
   12a68:	000000ff 	strdeq	r0, [r0], -pc	; <UNPREDICTABLE>
	...
   12a78:	ff000000 			; <UNDEFINED> instruction: 0xff000000
   12a7c:	000000ff 	strdeq	r0, [r0], -pc	; <UNPREDICTABLE>
   12a80:	ff000000 			; <UNDEFINED> instruction: 0xff000000
   12a84:	000000ff 	strdeq	r0, [r0], -pc	; <UNPREDICTABLE>
   12a88:	ff000000 			; <UNDEFINED> instruction: 0xff000000
   12a8c:	000000ff 	strdeq	r0, [r0], -pc	; <UNPREDICTABLE>
   12a90:	00000000 	andeq	r0, r0, r0
   12a94:	ff000000 			; <UNDEFINED> instruction: 0xff000000
   12a98:	000000ff 	strdeq	r0, [r0], -pc	; <UNPREDICTABLE>
	...
   12aa4:	ff000000 			; <UNDEFINED> instruction: 0xff000000
   12aa8:	000000ff 	strdeq	r0, [r0], -pc	; <UNPREDICTABLE>
   12aac:	00000000 	andeq	r0, r0, r0
   12ab0:	ff000000 			; <UNDEFINED> instruction: 0xff000000
   12ab4:	ff0000ff 			; <UNDEFINED> instruction: 0xff0000ff
   12ab8:	00ffffff 	ldrshteq	pc, [pc], #255	; <UNPREDICTABLE>
	...
   12ac4:	ff000000 			; <UNDEFINED> instruction: 0xff000000
   12ac8:	000000ff 	strdeq	r0, [r0], -pc	; <UNPREDICTABLE>
   12acc:	00000000 	andeq	r0, r0, r0
   12ad0:	ff000000 			; <UNDEFINED> instruction: 0xff000000
   12ad4:	ff0000ff 			; <UNDEFINED> instruction: 0xff0000ff
   12ad8:	ff0000ff 			; <UNDEFINED> instruction: 0xff0000ff
   12adc:	000000ff 	strdeq	r0, [r0], -pc	; <UNPREDICTABLE>
   12ae0:	ff000000 			; <UNDEFINED> instruction: 0xff000000
   12ae4:	000000ff 	strdeq	r0, [r0], -pc	; <UNPREDICTABLE>
   12ae8:	ff000000 			; <UNDEFINED> instruction: 0xff000000
   12aec:	000000ff 	strdeq	r0, [r0], -pc	; <UNPREDICTABLE>
   12af0:	ff000000 			; <UNDEFINED> instruction: 0xff000000
   12af4:	000000ff 	strdeq	r0, [r0], -pc	; <UNPREDICTABLE>
   12af8:	ff000000 			; <UNDEFINED> instruction: 0xff000000
   12afc:	000000ff 	strdeq	r0, [r0], -pc	; <UNPREDICTABLE>
	...
   12b10:	ff000000 			; <UNDEFINED> instruction: 0xff000000
   12b14:	000000ff 	strdeq	r0, [r0], -pc	; <UNPREDICTABLE>
   12b18:	ff000000 			; <UNDEFINED> instruction: 0xff000000
   12b1c:	000000ff 	strdeq	r0, [r0], -pc	; <UNPREDICTABLE>
   12b20:	ff000000 			; <UNDEFINED> instruction: 0xff000000
   12b24:	000000ff 	strdeq	r0, [r0], -pc	; <UNPREDICTABLE>
   12b28:	ff000000 			; <UNDEFINED> instruction: 0xff000000
   12b2c:	000000ff 	strdeq	r0, [r0], -pc	; <UNPREDICTABLE>
   12b30:	ff000000 			; <UNDEFINED> instruction: 0xff000000
   12b34:	000000ff 	strdeq	r0, [r0], -pc	; <UNPREDICTABLE>
	...
   12b40:	ff000000 			; <UNDEFINED> instruction: 0xff000000
   12b44:	000000ff 	strdeq	r0, [r0], -pc	; <UNPREDICTABLE>
   12b48:	ff000000 			; <UNDEFINED> instruction: 0xff000000
   12b4c:	000000ff 	strdeq	r0, [r0], -pc	; <UNPREDICTABLE>
   12b50:	ff000000 			; <UNDEFINED> instruction: 0xff000000
   12b54:	000000ff 	strdeq	r0, [r0], -pc	; <UNPREDICTABLE>
	...
   12b64:	ff000000 			; <UNDEFINED> instruction: 0xff000000
   12b68:	000000ff 	strdeq	r0, [r0], -pc	; <UNPREDICTABLE>
	...
   12b78:	ff000000 			; <UNDEFINED> instruction: 0xff000000
   12b7c:	000000ff 	strdeq	r0, [r0], -pc	; <UNPREDICTABLE>
   12b80:	ff000000 			; <UNDEFINED> instruction: 0xff000000
   12b84:	000000ff 	strdeq	r0, [r0], -pc	; <UNPREDICTABLE>
   12b88:	ff000000 			; <UNDEFINED> instruction: 0xff000000
   12b8c:	000000ff 	strdeq	r0, [r0], -pc	; <UNPREDICTABLE>
   12b90:	00000000 	andeq	r0, r0, r0
   12b94:	ff000000 			; <UNDEFINED> instruction: 0xff000000
   12b98:	000000ff 	strdeq	r0, [r0], -pc	; <UNPREDICTABLE>
	...
   12ba4:	ff000000 			; <UNDEFINED> instruction: 0xff000000
   12ba8:	000000ff 	strdeq	r0, [r0], -pc	; <UNPREDICTABLE>
   12bac:	00000000 	andeq	r0, r0, r0
   12bb0:	ff000000 			; <UNDEFINED> instruction: 0xff000000
   12bb4:	ff0000ff 			; <UNDEFINED> instruction: 0xff0000ff
   12bb8:	00ffffff 	ldrshteq	pc, [pc], #255	; <UNPREDICTABLE>
	...
   12bc4:	ff000000 			; <UNDEFINED> instruction: 0xff000000
   12bc8:	000000ff 	strdeq	r0, [r0], -pc	; <UNPREDICTABLE>
   12bcc:	00000000 	andeq	r0, r0, r0
   12bd0:	ff000000 			; <UNDEFINED> instruction: 0xff000000
   12bd4:	ff0000ff 			; <UNDEFINED> instruction: 0xff0000ff
   12bd8:	ff0000ff 			; <UNDEFINED> instruction: 0xff0000ff
   12bdc:	000000ff 	strdeq	r0, [r0], -pc	; <UNPREDICTABLE>
   12be0:	ff000000 			; <UNDEFINED> instruction: 0xff000000
   12be4:	000000ff 	strdeq	r0, [r0], -pc	; <UNPREDICTABLE>
   12be8:	ff000000 			; <UNDEFINED> instruction: 0xff000000
   12bec:	000000ff 	strdeq	r0, [r0], -pc	; <UNPREDICTABLE>
   12bf0:	ff000000 			; <UNDEFINED> instruction: 0xff000000
   12bf4:	000000ff 	strdeq	r0, [r0], -pc	; <UNPREDICTABLE>
   12bf8:	ff000000 			; <UNDEFINED> instruction: 0xff000000
   12bfc:	000000ff 	strdeq	r0, [r0], -pc	; <UNPREDICTABLE>
	...
   12c10:	ff000000 			; <UNDEFINED> instruction: 0xff000000
   12c14:	000000ff 	strdeq	r0, [r0], -pc	; <UNPREDICTABLE>
   12c18:	ff000000 			; <UNDEFINED> instruction: 0xff000000
   12c1c:	000000ff 	strdeq	r0, [r0], -pc	; <UNPREDICTABLE>
   12c20:	ff000000 			; <UNDEFINED> instruction: 0xff000000
   12c24:	000000ff 	strdeq	r0, [r0], -pc	; <UNPREDICTABLE>
   12c28:	ff000000 			; <UNDEFINED> instruction: 0xff000000
   12c2c:	000000ff 	strdeq	r0, [r0], -pc	; <UNPREDICTABLE>
   12c30:	ff000000 			; <UNDEFINED> instruction: 0xff000000
   12c34:	000000ff 	strdeq	r0, [r0], -pc	; <UNPREDICTABLE>
   12c38:	ff000000 			; <UNDEFINED> instruction: 0xff000000
   12c3c:	000000ff 	strdeq	r0, [r0], -pc	; <UNPREDICTABLE>
   12c40:	ff000000 			; <UNDEFINED> instruction: 0xff000000
   12c44:	000000ff 	strdeq	r0, [r0], -pc	; <UNPREDICTABLE>
   12c48:	ff000000 			; <UNDEFINED> instruction: 0xff000000
   12c4c:	000000ff 	strdeq	r0, [r0], -pc	; <UNPREDICTABLE>
   12c50:	ff000000 			; <UNDEFINED> instruction: 0xff000000
   12c54:	000000ff 	strdeq	r0, [r0], -pc	; <UNPREDICTABLE>
   12c58:	ff000000 			; <UNDEFINED> instruction: 0xff000000
   12c5c:	000000ff 	strdeq	r0, [r0], -pc	; <UNPREDICTABLE>
   12c60:	00000000 	andeq	r0, r0, r0
   12c64:	ff000000 			; <UNDEFINED> instruction: 0xff000000
   12c68:	000000ff 	strdeq	r0, [r0], -pc	; <UNPREDICTABLE>
   12c6c:	00000000 	andeq	r0, r0, r0
   12c70:	ff000000 			; <UNDEFINED> instruction: 0xff000000
   12c74:	000000ff 	strdeq	r0, [r0], -pc	; <UNPREDICTABLE>
   12c78:	ff000000 			; <UNDEFINED> instruction: 0xff000000
   12c7c:	000000ff 	strdeq	r0, [r0], -pc	; <UNPREDICTABLE>
   12c80:	ff000000 			; <UNDEFINED> instruction: 0xff000000
   12c84:	000000ff 	strdeq	r0, [r0], -pc	; <UNPREDICTABLE>
   12c88:	ff000000 			; <UNDEFINED> instruction: 0xff000000
   12c8c:	000000ff 	strdeq	r0, [r0], -pc	; <UNPREDICTABLE>
   12c90:	00000000 	andeq	r0, r0, r0
   12c94:	ff000000 			; <UNDEFINED> instruction: 0xff000000
   12c98:	000000ff 	strdeq	r0, [r0], -pc	; <UNPREDICTABLE>
   12c9c:	00000000 	andeq	r0, r0, r0
   12ca0:	ff000000 			; <UNDEFINED> instruction: 0xff000000
   12ca4:	ff0000ff 			; <UNDEFINED> instruction: 0xff0000ff
   12ca8:	000000ff 	strdeq	r0, [r0], -pc	; <UNPREDICTABLE>
   12cac:	00000000 	andeq	r0, r0, r0
   12cb0:	ff000000 			; <UNDEFINED> instruction: 0xff000000
   12cb4:	000000ff 	strdeq	r0, [r0], -pc	; <UNPREDICTABLE>
   12cb8:	00ffff00 	rscseq	pc, pc, r0, lsl #30
	...
   12cc4:	ff000000 			; <UNDEFINED> instruction: 0xff000000
   12cc8:	000000ff 	strdeq	r0, [r0], -pc	; <UNPREDICTABLE>
   12ccc:	00000000 	andeq	r0, r0, r0
   12cd0:	ff000000 			; <UNDEFINED> instruction: 0xff000000
   12cd4:	ff0000ff 			; <UNDEFINED> instruction: 0xff0000ff
   12cd8:	ff0000ff 			; <UNDEFINED> instruction: 0xff0000ff
   12cdc:	000000ff 	strdeq	r0, [r0], -pc	; <UNPREDICTABLE>
   12ce0:	ff000000 			; <UNDEFINED> instruction: 0xff000000
   12ce4:	000000ff 	strdeq	r0, [r0], -pc	; <UNPREDICTABLE>
   12ce8:	ff000000 			; <UNDEFINED> instruction: 0xff000000
   12cec:	000000ff 	strdeq	r0, [r0], -pc	; <UNPREDICTABLE>
   12cf0:	ff000000 			; <UNDEFINED> instruction: 0xff000000
   12cf4:	000000ff 	strdeq	r0, [r0], -pc	; <UNPREDICTABLE>
   12cf8:	ff000000 			; <UNDEFINED> instruction: 0xff000000
   12cfc:	000000ff 	strdeq	r0, [r0], -pc	; <UNPREDICTABLE>
	...
   12d10:	ff000000 			; <UNDEFINED> instruction: 0xff000000
   12d14:	000000ff 	strdeq	r0, [r0], -pc	; <UNPREDICTABLE>
   12d18:	ff000000 			; <UNDEFINED> instruction: 0xff000000
   12d1c:	000000ff 	strdeq	r0, [r0], -pc	; <UNPREDICTABLE>
   12d20:	ff000000 			; <UNDEFINED> instruction: 0xff000000
   12d24:	000000ff 	strdeq	r0, [r0], -pc	; <UNPREDICTABLE>
   12d28:	ff000000 			; <UNDEFINED> instruction: 0xff000000
   12d2c:	000000ff 	strdeq	r0, [r0], -pc	; <UNPREDICTABLE>
   12d30:	ff000000 			; <UNDEFINED> instruction: 0xff000000
   12d34:	000000ff 	strdeq	r0, [r0], -pc	; <UNPREDICTABLE>
   12d38:	ff000000 			; <UNDEFINED> instruction: 0xff000000
   12d3c:	000000ff 	strdeq	r0, [r0], -pc	; <UNPREDICTABLE>
   12d40:	ff000000 			; <UNDEFINED> instruction: 0xff000000
   12d44:	000000ff 	strdeq	r0, [r0], -pc	; <UNPREDICTABLE>
   12d48:	ff000000 			; <UNDEFINED> instruction: 0xff000000
   12d4c:	000000ff 	strdeq	r0, [r0], -pc	; <UNPREDICTABLE>
   12d50:	ff000000 			; <UNDEFINED> instruction: 0xff000000
   12d54:	000000ff 	strdeq	r0, [r0], -pc	; <UNPREDICTABLE>
   12d58:	ff000000 			; <UNDEFINED> instruction: 0xff000000
   12d5c:	000000ff 	strdeq	r0, [r0], -pc	; <UNPREDICTABLE>
   12d60:	00000000 	andeq	r0, r0, r0
   12d64:	ff000000 			; <UNDEFINED> instruction: 0xff000000
   12d68:	000000ff 	strdeq	r0, [r0], -pc	; <UNPREDICTABLE>
   12d6c:	00000000 	andeq	r0, r0, r0
   12d70:	ff000000 			; <UNDEFINED> instruction: 0xff000000
   12d74:	000000ff 	strdeq	r0, [r0], -pc	; <UNPREDICTABLE>
   12d78:	ff000000 			; <UNDEFINED> instruction: 0xff000000
   12d7c:	000000ff 	strdeq	r0, [r0], -pc	; <UNPREDICTABLE>
   12d80:	ff000000 			; <UNDEFINED> instruction: 0xff000000
   12d84:	000000ff 	strdeq	r0, [r0], -pc	; <UNPREDICTABLE>
   12d88:	ff000000 			; <UNDEFINED> instruction: 0xff000000
   12d8c:	000000ff 	strdeq	r0, [r0], -pc	; <UNPREDICTABLE>
   12d90:	00000000 	andeq	r0, r0, r0
   12d94:	ff000000 			; <UNDEFINED> instruction: 0xff000000
   12d98:	000000ff 	strdeq	r0, [r0], -pc	; <UNPREDICTABLE>
   12d9c:	00000000 	andeq	r0, r0, r0
   12da0:	ff000000 			; <UNDEFINED> instruction: 0xff000000
   12da4:	ff0000ff 			; <UNDEFINED> instruction: 0xff0000ff
   12da8:	000000ff 	strdeq	r0, [r0], -pc	; <UNPREDICTABLE>
   12dac:	00000000 	andeq	r0, r0, r0
   12db0:	ff000000 			; <UNDEFINED> instruction: 0xff000000
   12db4:	000000ff 	strdeq	r0, [r0], -pc	; <UNPREDICTABLE>
   12db8:	00ffff00 	rscseq	pc, pc, r0, lsl #30
	...
   12dc4:	ff000000 			; <UNDEFINED> instruction: 0xff000000
   12dc8:	000000ff 	strdeq	r0, [r0], -pc	; <UNPREDICTABLE>
   12dcc:	00000000 	andeq	r0, r0, r0
   12dd0:	ff000000 			; <UNDEFINED> instruction: 0xff000000
   12dd4:	ff0000ff 			; <UNDEFINED> instruction: 0xff0000ff
   12dd8:	ff0000ff 			; <UNDEFINED> instruction: 0xff0000ff
   12ddc:	000000ff 	strdeq	r0, [r0], -pc	; <UNPREDICTABLE>
   12de0:	ff000000 			; <UNDEFINED> instruction: 0xff000000
   12de4:	000000ff 	strdeq	r0, [r0], -pc	; <UNPREDICTABLE>
   12de8:	ff000000 			; <UNDEFINED> instruction: 0xff000000
   12dec:	000000ff 	strdeq	r0, [r0], -pc	; <UNPREDICTABLE>
   12df0:	ff000000 			; <UNDEFINED> instruction: 0xff000000
   12df4:	000000ff 	strdeq	r0, [r0], -pc	; <UNPREDICTABLE>
   12df8:	ff000000 			; <UNDEFINED> instruction: 0xff000000
   12dfc:	000000ff 	strdeq	r0, [r0], -pc	; <UNPREDICTABLE>
	...
   12e10:	ff000000 			; <UNDEFINED> instruction: 0xff000000
   12e14:	ffffffff 			; <UNDEFINED> instruction: 0xffffffff
   12e18:	ffffffff 			; <UNDEFINED> instruction: 0xffffffff
   12e1c:	000000ff 	strdeq	r0, [r0], -pc	; <UNPREDICTABLE>
   12e20:	ff000000 			; <UNDEFINED> instruction: 0xff000000
   12e24:	ffffffff 			; <UNDEFINED> instruction: 0xffffffff
   12e28:	ffffffff 			; <UNDEFINED> instruction: 0xffffffff
   12e2c:	000000ff 	strdeq	r0, [r0], -pc	; <UNPREDICTABLE>
   12e30:	00000000 	andeq	r0, r0, r0
   12e34:	ffffff00 			; <UNDEFINED> instruction: 0xffffff00
   12e38:	00ffffff 	ldrshteq	pc, [pc], #255	; <UNPREDICTABLE>
   12e3c:	00000000 	andeq	r0, r0, r0
   12e40:	ff000000 			; <UNDEFINED> instruction: 0xff000000
   12e44:	ffffffff 			; <UNDEFINED> instruction: 0xffffffff
   12e48:	ffffffff 			; <UNDEFINED> instruction: 0xffffffff
   12e4c:	000000ff 	strdeq	r0, [r0], -pc	; <UNPREDICTABLE>
   12e50:	00000000 	andeq	r0, r0, r0
   12e54:	ffffff00 			; <UNDEFINED> instruction: 0xffffff00
   12e58:	00ffffff 	ldrshteq	pc, [pc], #255	; <UNPREDICTABLE>
	...
   12e64:	ff000000 			; <UNDEFINED> instruction: 0xff000000
   12e68:	000000ff 	strdeq	r0, [r0], -pc	; <UNPREDICTABLE>
   12e6c:	00000000 	andeq	r0, r0, r0
   12e70:	ff000000 			; <UNDEFINED> instruction: 0xff000000
   12e74:	ffffffff 			; <UNDEFINED> instruction: 0xffffffff
   12e78:	00ffffff 	ldrshteq	pc, [pc], #255	; <UNPREDICTABLE>
   12e7c:	00000000 	andeq	r0, r0, r0
   12e80:	ff000000 			; <UNDEFINED> instruction: 0xff000000
   12e84:	000000ff 	strdeq	r0, [r0], -pc	; <UNPREDICTABLE>
   12e88:	ff000000 			; <UNDEFINED> instruction: 0xff000000
   12e8c:	000000ff 	strdeq	r0, [r0], -pc	; <UNPREDICTABLE>
   12e90:	00000000 	andeq	r0, r0, r0
   12e94:	ff000000 			; <UNDEFINED> instruction: 0xff000000
   12e98:	000000ff 	strdeq	r0, [r0], -pc	; <UNPREDICTABLE>
   12e9c:	00000000 	andeq	r0, r0, r0
   12ea0:	ff000000 			; <UNDEFINED> instruction: 0xff000000
   12ea4:	ffffffff 			; <UNDEFINED> instruction: 0xffffffff
   12ea8:	000000ff 	strdeq	r0, [r0], -pc	; <UNPREDICTABLE>
   12eac:	00000000 	andeq	r0, r0, r0
   12eb0:	ff000000 			; <UNDEFINED> instruction: 0xff000000
   12eb4:	000000ff 	strdeq	r0, [r0], -pc	; <UNPREDICTABLE>
   12eb8:	ff000000 			; <UNDEFINED> instruction: 0xff000000
   12ebc:	000000ff 	strdeq	r0, [r0], -pc	; <UNPREDICTABLE>
   12ec0:	00000000 	andeq	r0, r0, r0
   12ec4:	ff000000 			; <UNDEFINED> instruction: 0xff000000
   12ec8:	000000ff 	strdeq	r0, [r0], -pc	; <UNPREDICTABLE>
   12ecc:	00000000 	andeq	r0, r0, r0
   12ed0:	ff000000 			; <UNDEFINED> instruction: 0xff000000
   12ed4:	ff0000ff 			; <UNDEFINED> instruction: 0xff0000ff
   12ed8:	ff0000ff 			; <UNDEFINED> instruction: 0xff0000ff
   12edc:	000000ff 	strdeq	r0, [r0], -pc	; <UNPREDICTABLE>
   12ee0:	ff000000 			; <UNDEFINED> instruction: 0xff000000
   12ee4:	000000ff 	strdeq	r0, [r0], -pc	; <UNPREDICTABLE>
   12ee8:	ff000000 			; <UNDEFINED> instruction: 0xff000000
   12eec:	000000ff 	strdeq	r0, [r0], -pc	; <UNPREDICTABLE>
   12ef0:	00000000 	andeq	r0, r0, r0
   12ef4:	ffffff00 			; <UNDEFINED> instruction: 0xffffff00
   12ef8:	00ffffff 	ldrshteq	pc, [pc], #255	; <UNPREDICTABLE>
	...
   12f10:	ff000000 			; <UNDEFINED> instruction: 0xff000000
   12f14:	ffffffff 			; <UNDEFINED> instruction: 0xffffffff
   12f18:	ffffffff 			; <UNDEFINED> instruction: 0xffffffff
   12f1c:	000000ff 	strdeq	r0, [r0], -pc	; <UNPREDICTABLE>
   12f20:	ff000000 			; <UNDEFINED> instruction: 0xff000000
   12f24:	ffffffff 			; <UNDEFINED> instruction: 0xffffffff
   12f28:	ffffffff 			; <UNDEFINED> instruction: 0xffffffff
   12f2c:	000000ff 	strdeq	r0, [r0], -pc	; <UNPREDICTABLE>
   12f30:	00000000 	andeq	r0, r0, r0
   12f34:	ffffff00 			; <UNDEFINED> instruction: 0xffffff00
   12f38:	00ffffff 	ldrshteq	pc, [pc], #255	; <UNPREDICTABLE>
   12f3c:	00000000 	andeq	r0, r0, r0
   12f40:	ff000000 			; <UNDEFINED> instruction: 0xff000000
   12f44:	ffffffff 			; <UNDEFINED> instruction: 0xffffffff
   12f48:	ffffffff 			; <UNDEFINED> instruction: 0xffffffff
   12f4c:	000000ff 	strdeq	r0, [r0], -pc	; <UNPREDICTABLE>
   12f50:	00000000 	andeq	r0, r0, r0
   12f54:	ffffff00 			; <UNDEFINED> instruction: 0xffffff00
   12f58:	00ffffff 	ldrshteq	pc, [pc], #255	; <UNPREDICTABLE>
	...
   12f64:	ff000000 			; <UNDEFINED> instruction: 0xff000000
   12f68:	000000ff 	strdeq	r0, [r0], -pc	; <UNPREDICTABLE>
   12f6c:	00000000 	andeq	r0, r0, r0
   12f70:	ff000000 			; <UNDEFINED> instruction: 0xff000000
   12f74:	ffffffff 			; <UNDEFINED> instruction: 0xffffffff
   12f78:	00ffffff 	ldrshteq	pc, [pc], #255	; <UNPREDICTABLE>
   12f7c:	00000000 	andeq	r0, r0, r0
   12f80:	ff000000 			; <UNDEFINED> instruction: 0xff000000
   12f84:	000000ff 	strdeq	r0, [r0], -pc	; <UNPREDICTABLE>
   12f88:	ff000000 			; <UNDEFINED> instruction: 0xff000000
   12f8c:	000000ff 	strdeq	r0, [r0], -pc	; <UNPREDICTABLE>
   12f90:	00000000 	andeq	r0, r0, r0
   12f94:	ff000000 			; <UNDEFINED> instruction: 0xff000000
   12f98:	000000ff 	strdeq	r0, [r0], -pc	; <UNPREDICTABLE>
   12f9c:	00000000 	andeq	r0, r0, r0
   12fa0:	ff000000 			; <UNDEFINED> instruction: 0xff000000
   12fa4:	ffffffff 			; <UNDEFINED> instruction: 0xffffffff
   12fa8:	000000ff 	strdeq	r0, [r0], -pc	; <UNPREDICTABLE>
   12fac:	00000000 	andeq	r0, r0, r0
   12fb0:	ff000000 			; <UNDEFINED> instruction: 0xff000000
   12fb4:	000000ff 	strdeq	r0, [r0], -pc	; <UNPREDICTABLE>
   12fb8:	ff000000 			; <UNDEFINED> instruction: 0xff000000
   12fbc:	000000ff 	strdeq	r0, [r0], -pc	; <UNPREDICTABLE>
   12fc0:	00000000 	andeq	r0, r0, r0
   12fc4:	ff000000 			; <UNDEFINED> instruction: 0xff000000
   12fc8:	000000ff 	strdeq	r0, [r0], -pc	; <UNPREDICTABLE>
   12fcc:	00000000 	andeq	r0, r0, r0
   12fd0:	ff000000 			; <UNDEFINED> instruction: 0xff000000
   12fd4:	ff0000ff 			; <UNDEFINED> instruction: 0xff0000ff
   12fd8:	ff0000ff 			; <UNDEFINED> instruction: 0xff0000ff
   12fdc:	000000ff 	strdeq	r0, [r0], -pc	; <UNPREDICTABLE>
   12fe0:	ff000000 			; <UNDEFINED> instruction: 0xff000000
   12fe4:	000000ff 	strdeq	r0, [r0], -pc	; <UNPREDICTABLE>
   12fe8:	ff000000 			; <UNDEFINED> instruction: 0xff000000
   12fec:	000000ff 	strdeq	r0, [r0], -pc	; <UNPREDICTABLE>
   12ff0:	00000000 	andeq	r0, r0, r0
   12ff4:	ffffff00 			; <UNDEFINED> instruction: 0xffffff00
   12ff8:	00ffffff 	ldrshteq	pc, [pc], #255	; <UNPREDICTABLE>
	...
   130b4:	ff000000 			; <UNDEFINED> instruction: 0xff000000
   130b8:	00ffffff 	ldrshteq	pc, [pc], #255	; <UNPREDICTABLE>
	...
   130c4:	ff000000 			; <UNDEFINED> instruction: 0xff000000
   130c8:	000000ff 	strdeq	r0, [r0], -pc	; <UNPREDICTABLE>
	...
   130d4:	ffffff00 			; <UNDEFINED> instruction: 0xffffff00
   130d8:	000000ff 	strdeq	r0, [r0], -pc	; <UNPREDICTABLE>
   130dc:	00000000 	andeq	r0, r0, r0
   130e0:	ff000000 			; <UNDEFINED> instruction: 0xff000000
   130e4:	00ffffff 	ldrshteq	pc, [pc], #255	; <UNPREDICTABLE>
   130e8:	ff000000 			; <UNDEFINED> instruction: 0xff000000
   130ec:	000000ff 	strdeq	r0, [r0], -pc	; <UNPREDICTABLE>
	...
   131b4:	ff000000 			; <UNDEFINED> instruction: 0xff000000
   131b8:	00ffffff 	ldrshteq	pc, [pc], #255	; <UNPREDICTABLE>
	...
   131c4:	ff000000 			; <UNDEFINED> instruction: 0xff000000
   131c8:	000000ff 	strdeq	r0, [r0], -pc	; <UNPREDICTABLE>
	...
   131d4:	ffffff00 			; <UNDEFINED> instruction: 0xffffff00
   131d8:	000000ff 	strdeq	r0, [r0], -pc	; <UNPREDICTABLE>
   131dc:	00000000 	andeq	r0, r0, r0
   131e0:	ff000000 			; <UNDEFINED> instruction: 0xff000000
   131e4:	00ffffff 	ldrshteq	pc, [pc], #255	; <UNPREDICTABLE>
   131e8:	ff000000 			; <UNDEFINED> instruction: 0xff000000
   131ec:	000000ff 	strdeq	r0, [r0], -pc	; <UNPREDICTABLE>
	...
   132b4:	00ffff00 	rscseq	pc, pc, r0, lsl #30
	...
   132c4:	ff000000 			; <UNDEFINED> instruction: 0xff000000
   132c8:	000000ff 	strdeq	r0, [r0], -pc	; <UNPREDICTABLE>
	...
   132d8:	00ffff00 	rscseq	pc, pc, r0, lsl #30
   132dc:	00000000 	andeq	r0, r0, r0
   132e0:	00ffff00 	rscseq	pc, pc, r0, lsl #30
   132e4:	ff000000 			; <UNDEFINED> instruction: 0xff000000
   132e8:	00ffffff 	ldrshteq	pc, [pc], #255	; <UNPREDICTABLE>
	...
   133b4:	00ffff00 	rscseq	pc, pc, r0, lsl #30
	...
   133c4:	ff000000 			; <UNDEFINED> instruction: 0xff000000
   133c8:	000000ff 	strdeq	r0, [r0], -pc	; <UNPREDICTABLE>
	...
   133d8:	00ffff00 	rscseq	pc, pc, r0, lsl #30
   133dc:	00000000 	andeq	r0, r0, r0
   133e0:	00ffff00 	rscseq	pc, pc, r0, lsl #30
   133e4:	ff000000 			; <UNDEFINED> instruction: 0xff000000
   133e8:	00ffffff 	ldrshteq	pc, [pc], #255	; <UNPREDICTABLE>
	...
   13400:	ff000000 			; <UNDEFINED> instruction: 0xff000000
   13404:	ff0000ff 			; <UNDEFINED> instruction: 0xff0000ff
   13408:	00ffffff 	ldrshteq	pc, [pc], #255	; <UNPREDICTABLE>
	...
   13414:	ffffff00 			; <UNDEFINED> instruction: 0xffffff00
   13418:	ff0000ff 			; <UNDEFINED> instruction: 0xff0000ff
   1341c:	000000ff 	strdeq	r0, [r0], -pc	; <UNPREDICTABLE>
   13420:	ff000000 			; <UNDEFINED> instruction: 0xff000000
   13424:	ff0000ff 			; <UNDEFINED> instruction: 0xff0000ff
   13428:	00ffffff 	ldrshteq	pc, [pc], #255	; <UNPREDICTABLE>
	...
   13434:	ffffff00 			; <UNDEFINED> instruction: 0xffffff00
   13438:	00ffffff 	ldrshteq	pc, [pc], #255	; <UNPREDICTABLE>
	...
   13444:	ff000000 			; <UNDEFINED> instruction: 0xff000000
   13448:	000000ff 	strdeq	r0, [r0], -pc	; <UNPREDICTABLE>
	...
   134b4:	00ffff00 	rscseq	pc, pc, r0, lsl #30
	...
   134c4:	ff000000 			; <UNDEFINED> instruction: 0xff000000
   134c8:	000000ff 	strdeq	r0, [r0], -pc	; <UNPREDICTABLE>
	...
   134d8:	00ffff00 	rscseq	pc, pc, r0, lsl #30
	...
   13500:	ff000000 			; <UNDEFINED> instruction: 0xff000000
   13504:	ff0000ff 			; <UNDEFINED> instruction: 0xff0000ff
   13508:	00ffffff 	ldrshteq	pc, [pc], #255	; <UNPREDICTABLE>
	...
   13514:	ffffff00 			; <UNDEFINED> instruction: 0xffffff00
   13518:	ff0000ff 			; <UNDEFINED> instruction: 0xff0000ff
   1351c:	000000ff 	strdeq	r0, [r0], -pc	; <UNPREDICTABLE>
   13520:	ff000000 			; <UNDEFINED> instruction: 0xff000000
   13524:	ff0000ff 			; <UNDEFINED> instruction: 0xff0000ff
   13528:	00ffffff 	ldrshteq	pc, [pc], #255	; <UNPREDICTABLE>
	...
   13534:	ffffff00 			; <UNDEFINED> instruction: 0xffffff00
   13538:	00ffffff 	ldrshteq	pc, [pc], #255	; <UNPREDICTABLE>
	...
   13544:	ff000000 			; <UNDEFINED> instruction: 0xff000000
   13548:	000000ff 	strdeq	r0, [r0], -pc	; <UNPREDICTABLE>
	...
   135b4:	00ffff00 	rscseq	pc, pc, r0, lsl #30
	...
   135c4:	ff000000 			; <UNDEFINED> instruction: 0xff000000
   135c8:	000000ff 	strdeq	r0, [r0], -pc	; <UNPREDICTABLE>
	...
   135d8:	00ffff00 	rscseq	pc, pc, r0, lsl #30
	...
   13600:	ff000000 			; <UNDEFINED> instruction: 0xff000000
   13604:	00ffffff 	ldrshteq	pc, [pc], #255	; <UNPREDICTABLE>
   13608:	ff000000 			; <UNDEFINED> instruction: 0xff000000
   1360c:	000000ff 	strdeq	r0, [r0], -pc	; <UNPREDICTABLE>
   13610:	ff000000 			; <UNDEFINED> instruction: 0xff000000
   13614:	000000ff 	strdeq	r0, [r0], -pc	; <UNPREDICTABLE>
   13618:	ffffff00 			; <UNDEFINED> instruction: 0xffffff00
   1361c:	000000ff 	strdeq	r0, [r0], -pc	; <UNPREDICTABLE>
   13620:	ff000000 			; <UNDEFINED> instruction: 0xff000000
   13624:	00ffffff 	ldrshteq	pc, [pc], #255	; <UNPREDICTABLE>
   13628:	ff000000 			; <UNDEFINED> instruction: 0xff000000
   1362c:	000000ff 	strdeq	r0, [r0], -pc	; <UNPREDICTABLE>
   13630:	ff000000 			; <UNDEFINED> instruction: 0xff000000
   13634:	000000ff 	strdeq	r0, [r0], -pc	; <UNPREDICTABLE>
   13638:	ff000000 			; <UNDEFINED> instruction: 0xff000000
   1363c:	000000ff 	strdeq	r0, [r0], -pc	; <UNPREDICTABLE>
   13640:	ff000000 			; <UNDEFINED> instruction: 0xff000000
   13644:	ffffffff 			; <UNDEFINED> instruction: 0xffffffff
   13648:	ffffffff 			; <UNDEFINED> instruction: 0xffffffff
   1364c:	000000ff 	strdeq	r0, [r0], -pc	; <UNPREDICTABLE>
   13650:	ff000000 			; <UNDEFINED> instruction: 0xff000000
   13654:	000000ff 	strdeq	r0, [r0], -pc	; <UNPREDICTABLE>
   13658:	ff000000 			; <UNDEFINED> instruction: 0xff000000
   1365c:	000000ff 	strdeq	r0, [r0], -pc	; <UNPREDICTABLE>
   13660:	ff000000 			; <UNDEFINED> instruction: 0xff000000
   13664:	000000ff 	strdeq	r0, [r0], -pc	; <UNPREDICTABLE>
   13668:	ff000000 			; <UNDEFINED> instruction: 0xff000000
   1366c:	000000ff 	strdeq	r0, [r0], -pc	; <UNPREDICTABLE>
   13670:	ff000000 			; <UNDEFINED> instruction: 0xff000000
   13674:	ff0000ff 			; <UNDEFINED> instruction: 0xff0000ff
   13678:	ff0000ff 			; <UNDEFINED> instruction: 0xff0000ff
   1367c:	000000ff 	strdeq	r0, [r0], -pc	; <UNPREDICTABLE>
   13680:	ff000000 			; <UNDEFINED> instruction: 0xff000000
   13684:	000000ff 	strdeq	r0, [r0], -pc	; <UNPREDICTABLE>
   13688:	ff000000 			; <UNDEFINED> instruction: 0xff000000
   1368c:	000000ff 	strdeq	r0, [r0], -pc	; <UNPREDICTABLE>
   13690:	ff000000 			; <UNDEFINED> instruction: 0xff000000
   13694:	000000ff 	strdeq	r0, [r0], -pc	; <UNPREDICTABLE>
   13698:	ff000000 			; <UNDEFINED> instruction: 0xff000000
   1369c:	000000ff 	strdeq	r0, [r0], -pc	; <UNPREDICTABLE>
   136a0:	ff000000 			; <UNDEFINED> instruction: 0xff000000
   136a4:	ffffffff 			; <UNDEFINED> instruction: 0xffffffff
   136a8:	ffffffff 			; <UNDEFINED> instruction: 0xffffffff
   136ac:	000000ff 	strdeq	r0, [r0], -pc	; <UNPREDICTABLE>
   136b0:	ff000000 			; <UNDEFINED> instruction: 0xff000000
   136b4:	000000ff 	strdeq	r0, [r0], -pc	; <UNPREDICTABLE>
	...
   136d8:	ff000000 			; <UNDEFINED> instruction: 0xff000000
   136dc:	000000ff 	strdeq	r0, [r0], -pc	; <UNPREDICTABLE>
	...
   13700:	ff000000 			; <UNDEFINED> instruction: 0xff000000
   13704:	00ffffff 	ldrshteq	pc, [pc], #255	; <UNPREDICTABLE>
   13708:	ff000000 			; <UNDEFINED> instruction: 0xff000000
   1370c:	000000ff 	strdeq	r0, [r0], -pc	; <UNPREDICTABLE>
   13710:	ff000000 			; <UNDEFINED> instruction: 0xff000000
   13714:	000000ff 	strdeq	r0, [r0], -pc	; <UNPREDICTABLE>
   13718:	ffffff00 			; <UNDEFINED> instruction: 0xffffff00
   1371c:	000000ff 	strdeq	r0, [r0], -pc	; <UNPREDICTABLE>
   13720:	ff000000 			; <UNDEFINED> instruction: 0xff000000
   13724:	00ffffff 	ldrshteq	pc, [pc], #255	; <UNPREDICTABLE>
   13728:	ff000000 			; <UNDEFINED> instruction: 0xff000000
   1372c:	000000ff 	strdeq	r0, [r0], -pc	; <UNPREDICTABLE>
   13730:	ff000000 			; <UNDEFINED> instruction: 0xff000000
   13734:	000000ff 	strdeq	r0, [r0], -pc	; <UNPREDICTABLE>
   13738:	ff000000 			; <UNDEFINED> instruction: 0xff000000
   1373c:	000000ff 	strdeq	r0, [r0], -pc	; <UNPREDICTABLE>
   13740:	ff000000 			; <UNDEFINED> instruction: 0xff000000
   13744:	ffffffff 			; <UNDEFINED> instruction: 0xffffffff
   13748:	ffffffff 			; <UNDEFINED> instruction: 0xffffffff
   1374c:	000000ff 	strdeq	r0, [r0], -pc	; <UNPREDICTABLE>
   13750:	ff000000 			; <UNDEFINED> instruction: 0xff000000
   13754:	000000ff 	strdeq	r0, [r0], -pc	; <UNPREDICTABLE>
   13758:	ff000000 			; <UNDEFINED> instruction: 0xff000000
   1375c:	000000ff 	strdeq	r0, [r0], -pc	; <UNPREDICTABLE>
   13760:	ff000000 			; <UNDEFINED> instruction: 0xff000000
   13764:	000000ff 	strdeq	r0, [r0], -pc	; <UNPREDICTABLE>
   13768:	ff000000 			; <UNDEFINED> instruction: 0xff000000
   1376c:	000000ff 	strdeq	r0, [r0], -pc	; <UNPREDICTABLE>
   13770:	ff000000 			; <UNDEFINED> instruction: 0xff000000
   13774:	ff0000ff 			; <UNDEFINED> instruction: 0xff0000ff
   13778:	ff0000ff 			; <UNDEFINED> instruction: 0xff0000ff
   1377c:	000000ff 	strdeq	r0, [r0], -pc	; <UNPREDICTABLE>
   13780:	ff000000 			; <UNDEFINED> instruction: 0xff000000
   13784:	000000ff 	strdeq	r0, [r0], -pc	; <UNPREDICTABLE>
   13788:	ff000000 			; <UNDEFINED> instruction: 0xff000000
   1378c:	000000ff 	strdeq	r0, [r0], -pc	; <UNPREDICTABLE>
   13790:	ff000000 			; <UNDEFINED> instruction: 0xff000000
   13794:	000000ff 	strdeq	r0, [r0], -pc	; <UNPREDICTABLE>
   13798:	ff000000 			; <UNDEFINED> instruction: 0xff000000
   1379c:	000000ff 	strdeq	r0, [r0], -pc	; <UNPREDICTABLE>
   137a0:	ff000000 			; <UNDEFINED> instruction: 0xff000000
   137a4:	ffffffff 			; <UNDEFINED> instruction: 0xffffffff
   137a8:	ffffffff 			; <UNDEFINED> instruction: 0xffffffff
   137ac:	000000ff 	strdeq	r0, [r0], -pc	; <UNPREDICTABLE>
   137b0:	ff000000 			; <UNDEFINED> instruction: 0xff000000
   137b4:	000000ff 	strdeq	r0, [r0], -pc	; <UNPREDICTABLE>
	...
   137d8:	ff000000 			; <UNDEFINED> instruction: 0xff000000
   137dc:	000000ff 	strdeq	r0, [r0], -pc	; <UNPREDICTABLE>
	...
   13800:	ff000000 			; <UNDEFINED> instruction: 0xff000000
   13804:	00ffffff 	ldrshteq	pc, [pc], #255	; <UNPREDICTABLE>
   13808:	ff000000 			; <UNDEFINED> instruction: 0xff000000
   1380c:	000000ff 	strdeq	r0, [r0], -pc	; <UNPREDICTABLE>
   13810:	ff000000 			; <UNDEFINED> instruction: 0xff000000
   13814:	000000ff 	strdeq	r0, [r0], -pc	; <UNPREDICTABLE>
   13818:	ffffff00 			; <UNDEFINED> instruction: 0xffffff00
   1381c:	000000ff 	strdeq	r0, [r0], -pc	; <UNPREDICTABLE>
   13820:	ff000000 			; <UNDEFINED> instruction: 0xff000000
   13824:	000000ff 	strdeq	r0, [r0], -pc	; <UNPREDICTABLE>
	...
   13830:	ff000000 			; <UNDEFINED> instruction: 0xff000000
   13834:	ffffffff 			; <UNDEFINED> instruction: 0xffffffff
   13838:	000000ff 	strdeq	r0, [r0], -pc	; <UNPREDICTABLE>
	...
   13844:	ff000000 			; <UNDEFINED> instruction: 0xff000000
   13848:	000000ff 	strdeq	r0, [r0], -pc	; <UNPREDICTABLE>
   1384c:	00000000 	andeq	r0, r0, r0
   13850:	ff000000 			; <UNDEFINED> instruction: 0xff000000
   13854:	000000ff 	strdeq	r0, [r0], -pc	; <UNPREDICTABLE>
   13858:	ff000000 			; <UNDEFINED> instruction: 0xff000000
   1385c:	000000ff 	strdeq	r0, [r0], -pc	; <UNPREDICTABLE>
   13860:	ff000000 			; <UNDEFINED> instruction: 0xff000000
   13864:	000000ff 	strdeq	r0, [r0], -pc	; <UNPREDICTABLE>
   13868:	ff000000 			; <UNDEFINED> instruction: 0xff000000
   1386c:	000000ff 	strdeq	r0, [r0], -pc	; <UNPREDICTABLE>
   13870:	ff000000 			; <UNDEFINED> instruction: 0xff000000
   13874:	ff0000ff 			; <UNDEFINED> instruction: 0xff0000ff
   13878:	ff0000ff 			; <UNDEFINED> instruction: 0xff0000ff
   1387c:	000000ff 	strdeq	r0, [r0], -pc	; <UNPREDICTABLE>
   13880:	00000000 	andeq	r0, r0, r0
   13884:	00ffff00 	rscseq	pc, pc, r0, lsl #30
   13888:	00ffff00 	rscseq	pc, pc, r0, lsl #30
	...
   13894:	00ffff00 	rscseq	pc, pc, r0, lsl #30
   13898:	00ffff00 	rscseq	pc, pc, r0, lsl #30
	...
   138a8:	00ffff00 	rscseq	pc, pc, r0, lsl #30
	...
   138b4:	00ffff00 	rscseq	pc, pc, r0, lsl #30
	...
   138c4:	ff000000 			; <UNDEFINED> instruction: 0xff000000
   138c8:	000000ff 	strdeq	r0, [r0], -pc	; <UNPREDICTABLE>
	...
   138d8:	00ffff00 	rscseq	pc, pc, r0, lsl #30
	...
   13900:	ff000000 			; <UNDEFINED> instruction: 0xff000000
   13904:	00ffffff 	ldrshteq	pc, [pc], #255	; <UNPREDICTABLE>
   13908:	ff000000 			; <UNDEFINED> instruction: 0xff000000
   1390c:	000000ff 	strdeq	r0, [r0], -pc	; <UNPREDICTABLE>
   13910:	ff000000 			; <UNDEFINED> instruction: 0xff000000
   13914:	000000ff 	strdeq	r0, [r0], -pc	; <UNPREDICTABLE>
   13918:	ffffff00 			; <UNDEFINED> instruction: 0xffffff00
   1391c:	000000ff 	strdeq	r0, [r0], -pc	; <UNPREDICTABLE>
   13920:	ff000000 			; <UNDEFINED> instruction: 0xff000000
   13924:	000000ff 	strdeq	r0, [r0], -pc	; <UNPREDICTABLE>
	...
   13930:	ff000000 			; <UNDEFINED> instruction: 0xff000000
   13934:	ffffffff 			; <UNDEFINED> instruction: 0xffffffff
   13938:	000000ff 	strdeq	r0, [r0], -pc	; <UNPREDICTABLE>
	...
   13944:	ff000000 			; <UNDEFINED> instruction: 0xff000000
   13948:	000000ff 	strdeq	r0, [r0], -pc	; <UNPREDICTABLE>
   1394c:	00000000 	andeq	r0, r0, r0
   13950:	ff000000 			; <UNDEFINED> instruction: 0xff000000
   13954:	000000ff 	strdeq	r0, [r0], -pc	; <UNPREDICTABLE>
   13958:	ff000000 			; <UNDEFINED> instruction: 0xff000000
   1395c:	000000ff 	strdeq	r0, [r0], -pc	; <UNPREDICTABLE>
   13960:	ff000000 			; <UNDEFINED> instruction: 0xff000000
   13964:	000000ff 	strdeq	r0, [r0], -pc	; <UNPREDICTABLE>
   13968:	ff000000 			; <UNDEFINED> instruction: 0xff000000
   1396c:	000000ff 	strdeq	r0, [r0], -pc	; <UNPREDICTABLE>
   13970:	ff000000 			; <UNDEFINED> instruction: 0xff000000
   13974:	ff0000ff 			; <UNDEFINED> instruction: 0xff0000ff
   13978:	ff0000ff 			; <UNDEFINED> instruction: 0xff0000ff
   1397c:	000000ff 	strdeq	r0, [r0], -pc	; <UNPREDICTABLE>
   13980:	00000000 	andeq	r0, r0, r0
   13984:	00ffff00 	rscseq	pc, pc, r0, lsl #30
   13988:	00ffff00 	rscseq	pc, pc, r0, lsl #30
	...
   13994:	00ffff00 	rscseq	pc, pc, r0, lsl #30
   13998:	00ffff00 	rscseq	pc, pc, r0, lsl #30
	...
   139a8:	00ffff00 	rscseq	pc, pc, r0, lsl #30
	...
   139b4:	00ffff00 	rscseq	pc, pc, r0, lsl #30
	...
   139c4:	ff000000 			; <UNDEFINED> instruction: 0xff000000
   139c8:	000000ff 	strdeq	r0, [r0], -pc	; <UNPREDICTABLE>
	...
   139d8:	00ffff00 	rscseq	pc, pc, r0, lsl #30
	...
   13a00:	ff000000 			; <UNDEFINED> instruction: 0xff000000
   13a04:	ff0000ff 			; <UNDEFINED> instruction: 0xff0000ff
   13a08:	00ffffff 	ldrshteq	pc, [pc], #255	; <UNPREDICTABLE>
	...
   13a14:	ffffff00 			; <UNDEFINED> instruction: 0xffffff00
   13a18:	ff0000ff 			; <UNDEFINED> instruction: 0xff0000ff
   13a1c:	000000ff 	strdeq	r0, [r0], -pc	; <UNPREDICTABLE>
   13a20:	ff000000 			; <UNDEFINED> instruction: 0xff000000
   13a24:	000000ff 	strdeq	r0, [r0], -pc	; <UNPREDICTABLE>
	...
   13a34:	ff000000 			; <UNDEFINED> instruction: 0xff000000
   13a38:	ffffffff 			; <UNDEFINED> instruction: 0xffffffff
   13a3c:	000000ff 	strdeq	r0, [r0], -pc	; <UNPREDICTABLE>
   13a40:	00000000 	andeq	r0, r0, r0
   13a44:	ff000000 			; <UNDEFINED> instruction: 0xff000000
   13a48:	000000ff 	strdeq	r0, [r0], -pc	; <UNPREDICTABLE>
   13a4c:	00000000 	andeq	r0, r0, r0
   13a50:	ff000000 			; <UNDEFINED> instruction: 0xff000000
   13a54:	000000ff 	strdeq	r0, [r0], -pc	; <UNPREDICTABLE>
   13a58:	ff000000 			; <UNDEFINED> instruction: 0xff000000
   13a5c:	000000ff 	strdeq	r0, [r0], -pc	; <UNPREDICTABLE>
   13a60:	ff000000 			; <UNDEFINED> instruction: 0xff000000
   13a64:	000000ff 	strdeq	r0, [r0], -pc	; <UNPREDICTABLE>
   13a68:	ff000000 			; <UNDEFINED> instruction: 0xff000000
   13a6c:	000000ff 	strdeq	r0, [r0], -pc	; <UNPREDICTABLE>
   13a70:	ff000000 			; <UNDEFINED> instruction: 0xff000000
   13a74:	ff0000ff 			; <UNDEFINED> instruction: 0xff0000ff
   13a78:	ff0000ff 			; <UNDEFINED> instruction: 0xff0000ff
   13a7c:	000000ff 	strdeq	r0, [r0], -pc	; <UNPREDICTABLE>
   13a80:	00000000 	andeq	r0, r0, r0
   13a84:	ff000000 			; <UNDEFINED> instruction: 0xff000000
   13a88:	000000ff 	strdeq	r0, [r0], -pc	; <UNPREDICTABLE>
	...
   13a94:	ff000000 			; <UNDEFINED> instruction: 0xff000000
   13a98:	000000ff 	strdeq	r0, [r0], -pc	; <UNPREDICTABLE>
	...
   13aa4:	ff000000 			; <UNDEFINED> instruction: 0xff000000
   13aa8:	000000ff 	strdeq	r0, [r0], -pc	; <UNPREDICTABLE>
	...
   13ab4:	00ffff00 	rscseq	pc, pc, r0, lsl #30
	...
   13ac4:	ff000000 			; <UNDEFINED> instruction: 0xff000000
   13ac8:	000000ff 	strdeq	r0, [r0], -pc	; <UNPREDICTABLE>
	...
   13ad8:	00ffff00 	rscseq	pc, pc, r0, lsl #30
	...
   13b00:	ff000000 			; <UNDEFINED> instruction: 0xff000000
   13b04:	ff0000ff 			; <UNDEFINED> instruction: 0xff0000ff
   13b08:	00ffffff 	ldrshteq	pc, [pc], #255	; <UNPREDICTABLE>
	...
   13b14:	ffffff00 			; <UNDEFINED> instruction: 0xffffff00
   13b18:	ff0000ff 			; <UNDEFINED> instruction: 0xff0000ff
   13b1c:	000000ff 	strdeq	r0, [r0], -pc	; <UNPREDICTABLE>
   13b20:	ff000000 			; <UNDEFINED> instruction: 0xff000000
   13b24:	000000ff 	strdeq	r0, [r0], -pc	; <UNPREDICTABLE>
	...
   13b34:	ff000000 			; <UNDEFINED> instruction: 0xff000000
   13b38:	ffffffff 			; <UNDEFINED> instruction: 0xffffffff
   13b3c:	000000ff 	strdeq	r0, [r0], -pc	; <UNPREDICTABLE>
   13b40:	00000000 	andeq	r0, r0, r0
   13b44:	ff000000 			; <UNDEFINED> instruction: 0xff000000
   13b48:	000000ff 	strdeq	r0, [r0], -pc	; <UNPREDICTABLE>
   13b4c:	00000000 	andeq	r0, r0, r0
   13b50:	ff000000 			; <UNDEFINED> instruction: 0xff000000
   13b54:	000000ff 	strdeq	r0, [r0], -pc	; <UNPREDICTABLE>
   13b58:	ff000000 			; <UNDEFINED> instruction: 0xff000000
   13b5c:	000000ff 	strdeq	r0, [r0], -pc	; <UNPREDICTABLE>
   13b60:	ff000000 			; <UNDEFINED> instruction: 0xff000000
   13b64:	000000ff 	strdeq	r0, [r0], -pc	; <UNPREDICTABLE>
   13b68:	ff000000 			; <UNDEFINED> instruction: 0xff000000
   13b6c:	000000ff 	strdeq	r0, [r0], -pc	; <UNPREDICTABLE>
   13b70:	ff000000 			; <UNDEFINED> instruction: 0xff000000
   13b74:	ff0000ff 			; <UNDEFINED> instruction: 0xff0000ff
   13b78:	ff0000ff 			; <UNDEFINED> instruction: 0xff0000ff
   13b7c:	000000ff 	strdeq	r0, [r0], -pc	; <UNPREDICTABLE>
   13b80:	00000000 	andeq	r0, r0, r0
   13b84:	ff000000 			; <UNDEFINED> instruction: 0xff000000
   13b88:	000000ff 	strdeq	r0, [r0], -pc	; <UNPREDICTABLE>
	...
   13b94:	ff000000 			; <UNDEFINED> instruction: 0xff000000
   13b98:	000000ff 	strdeq	r0, [r0], -pc	; <UNPREDICTABLE>
	...
   13ba4:	ff000000 			; <UNDEFINED> instruction: 0xff000000
   13ba8:	000000ff 	strdeq	r0, [r0], -pc	; <UNPREDICTABLE>
	...
   13bb4:	00ffff00 	rscseq	pc, pc, r0, lsl #30
	...
   13bc4:	ff000000 			; <UNDEFINED> instruction: 0xff000000
   13bc8:	000000ff 	strdeq	r0, [r0], -pc	; <UNPREDICTABLE>
	...
   13bd8:	00ffff00 	rscseq	pc, pc, r0, lsl #30
	...
   13c00:	ff000000 			; <UNDEFINED> instruction: 0xff000000
   13c04:	000000ff 	strdeq	r0, [r0], -pc	; <UNPREDICTABLE>
	...
   13c18:	ff000000 			; <UNDEFINED> instruction: 0xff000000
   13c1c:	000000ff 	strdeq	r0, [r0], -pc	; <UNPREDICTABLE>
   13c20:	ff000000 			; <UNDEFINED> instruction: 0xff000000
   13c24:	000000ff 	strdeq	r0, [r0], -pc	; <UNPREDICTABLE>
	...
   13c30:	ff000000 			; <UNDEFINED> instruction: 0xff000000
   13c34:	000000ff 	strdeq	r0, [r0], -pc	; <UNPREDICTABLE>
   13c38:	ff000000 			; <UNDEFINED> instruction: 0xff000000
   13c3c:	000000ff 	strdeq	r0, [r0], -pc	; <UNPREDICTABLE>
   13c40:	00000000 	andeq	r0, r0, r0
   13c44:	ff000000 			; <UNDEFINED> instruction: 0xff000000
   13c48:	000000ff 	strdeq	r0, [r0], -pc	; <UNPREDICTABLE>
   13c4c:	00000000 	andeq	r0, r0, r0
   13c50:	ff000000 			; <UNDEFINED> instruction: 0xff000000
   13c54:	000000ff 	strdeq	r0, [r0], -pc	; <UNPREDICTABLE>
   13c58:	ffffff00 			; <UNDEFINED> instruction: 0xffffff00
   13c5c:	000000ff 	strdeq	r0, [r0], -pc	; <UNPREDICTABLE>
   13c60:	00000000 	andeq	r0, r0, r0
   13c64:	00ffff00 	rscseq	pc, pc, r0, lsl #30
   13c68:	00ffff00 	rscseq	pc, pc, r0, lsl #30
	...
   13c74:	00ffff00 	rscseq	pc, pc, r0, lsl #30
   13c78:	00ffff00 	rscseq	pc, pc, r0, lsl #30
	...
   13c84:	00ffff00 	rscseq	pc, pc, r0, lsl #30
   13c88:	00ffff00 	rscseq	pc, pc, r0, lsl #30
	...
   13c94:	ff000000 			; <UNDEFINED> instruction: 0xff000000
   13c98:	000000ff 	strdeq	r0, [r0], -pc	; <UNPREDICTABLE>
	...
   13ca4:	00ffff00 	rscseq	pc, pc, r0, lsl #30
	...
   13cb4:	00ffff00 	rscseq	pc, pc, r0, lsl #30
	...
   13cc4:	ff000000 			; <UNDEFINED> instruction: 0xff000000
   13cc8:	000000ff 	strdeq	r0, [r0], -pc	; <UNPREDICTABLE>
	...
   13cd8:	00ffff00 	rscseq	pc, pc, r0, lsl #30
	...
   13d00:	ff000000 			; <UNDEFINED> instruction: 0xff000000
   13d04:	000000ff 	strdeq	r0, [r0], -pc	; <UNPREDICTABLE>
	...
   13d18:	ff000000 			; <UNDEFINED> instruction: 0xff000000
   13d1c:	000000ff 	strdeq	r0, [r0], -pc	; <UNPREDICTABLE>
   13d20:	ff000000 			; <UNDEFINED> instruction: 0xff000000
   13d24:	000000ff 	strdeq	r0, [r0], -pc	; <UNPREDICTABLE>
	...
   13d30:	ff000000 			; <UNDEFINED> instruction: 0xff000000
   13d34:	000000ff 	strdeq	r0, [r0], -pc	; <UNPREDICTABLE>
   13d38:	ff000000 			; <UNDEFINED> instruction: 0xff000000
   13d3c:	000000ff 	strdeq	r0, [r0], -pc	; <UNPREDICTABLE>
   13d40:	00000000 	andeq	r0, r0, r0
   13d44:	ff000000 			; <UNDEFINED> instruction: 0xff000000
   13d48:	000000ff 	strdeq	r0, [r0], -pc	; <UNPREDICTABLE>
   13d4c:	00000000 	andeq	r0, r0, r0
   13d50:	ff000000 			; <UNDEFINED> instruction: 0xff000000
   13d54:	000000ff 	strdeq	r0, [r0], -pc	; <UNPREDICTABLE>
   13d58:	ffffff00 			; <UNDEFINED> instruction: 0xffffff00
   13d5c:	000000ff 	strdeq	r0, [r0], -pc	; <UNPREDICTABLE>
   13d60:	00000000 	andeq	r0, r0, r0
   13d64:	00ffff00 	rscseq	pc, pc, r0, lsl #30
   13d68:	00ffff00 	rscseq	pc, pc, r0, lsl #30
	...
   13d74:	00ffff00 	rscseq	pc, pc, r0, lsl #30
   13d78:	00ffff00 	rscseq	pc, pc, r0, lsl #30
	...
   13d84:	00ffff00 	rscseq	pc, pc, r0, lsl #30
   13d88:	00ffff00 	rscseq	pc, pc, r0, lsl #30
	...
   13d94:	ff000000 			; <UNDEFINED> instruction: 0xff000000
   13d98:	000000ff 	strdeq	r0, [r0], -pc	; <UNPREDICTABLE>
	...
   13da4:	00ffff00 	rscseq	pc, pc, r0, lsl #30
	...
   13db4:	00ffff00 	rscseq	pc, pc, r0, lsl #30
	...
   13dc4:	ff000000 			; <UNDEFINED> instruction: 0xff000000
   13dc8:	000000ff 	strdeq	r0, [r0], -pc	; <UNPREDICTABLE>
	...
   13dd8:	00ffff00 	rscseq	pc, pc, r0, lsl #30
	...
   13e00:	ff000000 			; <UNDEFINED> instruction: 0xff000000
   13e04:	000000ff 	strdeq	r0, [r0], -pc	; <UNPREDICTABLE>
	...
   13e18:	ff000000 			; <UNDEFINED> instruction: 0xff000000
   13e1c:	000000ff 	strdeq	r0, [r0], -pc	; <UNPREDICTABLE>
   13e20:	ff000000 			; <UNDEFINED> instruction: 0xff000000
   13e24:	000000ff 	strdeq	r0, [r0], -pc	; <UNPREDICTABLE>
	...
   13e34:	ffffff00 			; <UNDEFINED> instruction: 0xffffff00
   13e38:	00ffffff 	ldrshteq	pc, [pc], #255	; <UNPREDICTABLE>
	...
   13e44:	ff000000 			; <UNDEFINED> instruction: 0xff000000
   13e48:	ffffffff 			; <UNDEFINED> instruction: 0xffffffff
   13e4c:	000000ff 	strdeq	r0, [r0], -pc	; <UNPREDICTABLE>
   13e50:	00000000 	andeq	r0, r0, r0
   13e54:	ffffff00 			; <UNDEFINED> instruction: 0xffffff00
   13e58:	ff0000ff 			; <UNDEFINED> instruction: 0xff0000ff
   13e5c:	000000ff 	strdeq	r0, [r0], -pc	; <UNPREDICTABLE>
   13e60:	00000000 	andeq	r0, r0, r0
   13e64:	ff000000 			; <UNDEFINED> instruction: 0xff000000
   13e68:	000000ff 	strdeq	r0, [r0], -pc	; <UNPREDICTABLE>
	...
   13e74:	00ffff00 	rscseq	pc, pc, r0, lsl #30
   13e78:	00ffff00 	rscseq	pc, pc, r0, lsl #30
   13e7c:	00000000 	andeq	r0, r0, r0
   13e80:	ff000000 			; <UNDEFINED> instruction: 0xff000000
   13e84:	000000ff 	strdeq	r0, [r0], -pc	; <UNPREDICTABLE>
   13e88:	ff000000 			; <UNDEFINED> instruction: 0xff000000
   13e8c:	000000ff 	strdeq	r0, [r0], -pc	; <UNPREDICTABLE>
   13e90:	00000000 	andeq	r0, r0, r0
   13e94:	ff000000 			; <UNDEFINED> instruction: 0xff000000
   13e98:	000000ff 	strdeq	r0, [r0], -pc	; <UNPREDICTABLE>
   13e9c:	00000000 	andeq	r0, r0, r0
   13ea0:	ff000000 			; <UNDEFINED> instruction: 0xff000000
   13ea4:	ffffffff 			; <UNDEFINED> instruction: 0xffffffff
   13ea8:	ffffffff 			; <UNDEFINED> instruction: 0xffffffff
   13eac:	000000ff 	strdeq	r0, [r0], -pc	; <UNPREDICTABLE>
   13eb0:	00000000 	andeq	r0, r0, r0
   13eb4:	ff000000 			; <UNDEFINED> instruction: 0xff000000
   13eb8:	00ffffff 	ldrshteq	pc, [pc], #255	; <UNPREDICTABLE>
	...
   13ec4:	ff000000 			; <UNDEFINED> instruction: 0xff000000
   13ec8:	000000ff 	strdeq	r0, [r0], -pc	; <UNPREDICTABLE>
	...
   13ed4:	ffffff00 			; <UNDEFINED> instruction: 0xffffff00
   13ed8:	000000ff 	strdeq	r0, [r0], -pc	; <UNPREDICTABLE>
	...
   13f00:	ff000000 			; <UNDEFINED> instruction: 0xff000000
   13f04:	000000ff 	strdeq	r0, [r0], -pc	; <UNPREDICTABLE>
	...
   13f18:	ff000000 			; <UNDEFINED> instruction: 0xff000000
   13f1c:	000000ff 	strdeq	r0, [r0], -pc	; <UNPREDICTABLE>
   13f20:	ff000000 			; <UNDEFINED> instruction: 0xff000000
   13f24:	000000ff 	strdeq	r0, [r0], -pc	; <UNPREDICTABLE>
	...
   13f34:	ffffff00 			; <UNDEFINED> instruction: 0xffffff00
   13f38:	00ffffff 	ldrshteq	pc, [pc], #255	; <UNPREDICTABLE>
	...
   13f44:	ff000000 			; <UNDEFINED> instruction: 0xff000000
   13f48:	ffffffff 			; <UNDEFINED> instruction: 0xffffffff
   13f4c:	000000ff 	strdeq	r0, [r0], -pc	; <UNPREDICTABLE>
   13f50:	00000000 	andeq	r0, r0, r0
   13f54:	ffffff00 			; <UNDEFINED> instruction: 0xffffff00
   13f58:	ff0000ff 			; <UNDEFINED> instruction: 0xff0000ff
   13f5c:	000000ff 	strdeq	r0, [r0], -pc	; <UNPREDICTABLE>
   13f60:	00000000 	andeq	r0, r0, r0
   13f64:	ff000000 			; <UNDEFINED> instruction: 0xff000000
   13f68:	000000ff 	strdeq	r0, [r0], -pc	; <UNPREDICTABLE>
	...
   13f74:	00ffff00 	rscseq	pc, pc, r0, lsl #30
   13f78:	00ffff00 	rscseq	pc, pc, r0, lsl #30
   13f7c:	00000000 	andeq	r0, r0, r0
   13f80:	ff000000 			; <UNDEFINED> instruction: 0xff000000
   13f84:	000000ff 	strdeq	r0, [r0], -pc	; <UNPREDICTABLE>
   13f88:	ff000000 			; <UNDEFINED> instruction: 0xff000000
   13f8c:	000000ff 	strdeq	r0, [r0], -pc	; <UNPREDICTABLE>
   13f90:	00000000 	andeq	r0, r0, r0
   13f94:	ff000000 			; <UNDEFINED> instruction: 0xff000000
   13f98:	000000ff 	strdeq	r0, [r0], -pc	; <UNPREDICTABLE>
   13f9c:	00000000 	andeq	r0, r0, r0
   13fa0:	ff000000 			; <UNDEFINED> instruction: 0xff000000
   13fa4:	ffffffff 			; <UNDEFINED> instruction: 0xffffffff
   13fa8:	ffffffff 			; <UNDEFINED> instruction: 0xffffffff
   13fac:	000000ff 	strdeq	r0, [r0], -pc	; <UNPREDICTABLE>
   13fb0:	00000000 	andeq	r0, r0, r0
   13fb4:	ff000000 			; <UNDEFINED> instruction: 0xff000000
   13fb8:	00ffffff 	ldrshteq	pc, [pc], #255	; <UNPREDICTABLE>
	...
   13fc4:	ff000000 			; <UNDEFINED> instruction: 0xff000000
   13fc8:	000000ff 	strdeq	r0, [r0], -pc	; <UNPREDICTABLE>
	...
   13fd4:	ffffff00 			; <UNDEFINED> instruction: 0xffffff00
   13fd8:	000000ff 	strdeq	r0, [r0], -pc	; <UNPREDICTABLE>
	...

0001c000 <basic_shader>:
   1c000:	958e0dbf 	strls	r0, [lr, #3519]	; 0xdbf
   1c004:	d1724823 	cmnle	r2, r3, lsr #16
   1c008:	818e7176 	orrhi	r7, lr, r6, ror r1
   1c00c:	40024821 	andmi	r4, r2, r1, lsr #16
   1c010:	818e7376 	orrhi	r7, lr, r6, ror r3
   1c014:	10024862 	andne	r4, r2, r2, ror #16
   1c018:	819e7540 	orrshi	r7, lr, r0, asr #10
   1c01c:	114248a3 	smlaltbne	r4, r2, r3, r8
   1c020:	809e7009 	addshi	r7, lr, r9
   1c024:	115049e3 	cmpne	r0, r3, ror #19
   1c028:	809e7012 	addshi	r7, lr, r2, lsl r0
   1c02c:	116049e3 	cmnne	r0, r3, ror #19
   1c030:	159e76c0 	ldrne	r7, [lr, #1728]	; 0x6c0
   1c034:	30020ba7 	andcc	r0, r2, r7, lsr #23
   1c038:	009e7000 	addseq	r7, lr, r0
   1c03c:	100009e7 	andne	r0, r0, r7, ror #19
   1c040:	009e7000 	addseq	r7, lr, r0
   1c044:	500009e7 	andpl	r0, r0, r7, ror #19

Disassembly of section .rodata.str1.4:

0001c048 <.rodata.str1.4>:
   1c048:	45524f43 	ldrbmi	r4, [r2, #-3907]	; 0xf43
   1c04c:	45522031 	ldrbmi	r2, [r2, #-49]	; 0x31
   1c050:	0a594441 	beq	166d15c <__bss_end+0xdfd15c>
   1c054:	00000000 	andeq	r0, r0, r0
   1c058:	2d2d2d2d 	stccs	13, cr2, [sp, #-180]!	; 0xffffff4c
   1c05c:	2d2d2d2d 	stccs	13, cr2, [sp, #-180]!	; 0xffffff4c
   1c060:	2d2d2d2d 	stccs	13, cr2, [sp, #-180]!	; 0xffffff4c
   1c064:	2d2d2d2d 	stccs	13, cr2, [sp, #-180]!	; 0xffffff4c
   1c068:	2d2d2d2d 	stccs	13, cr2, [sp, #-180]!	; 0xffffff4c
   1c06c:	2d2d2d2d 	stccs	13, cr2, [sp, #-180]!	; 0xffffff4c
   1c070:	2d2d2d2d 	stccs	13, cr2, [sp, #-180]!	; 0xffffff4c
   1c074:	2d2d2d2d 	stccs	13, cr2, [sp, #-180]!	; 0xffffff4c
   1c078:	2d2d2d2d 	stccs	13, cr2, [sp, #-180]!	; 0xffffff4c
   1c07c:	2d2d2d2d 	stccs	13, cr2, [sp, #-180]!	; 0xffffff4c
   1c080:	2d2d2d2d 	stccs	13, cr2, [sp, #-180]!	; 0xffffff4c
   1c084:	2d2d2d2d 	stccs	13, cr2, [sp, #-180]!	; 0xffffff4c
   1c088:	00000a2d 	andeq	r0, r0, sp, lsr #20
   1c08c:	45524f43 	ldrbmi	r4, [r2, #-3907]	; 0xf43
   1c090:	45522030 	ldrbmi	r2, [r2, #-48]	; 0x30
   1c094:	0a594441 	beq	166d1a0 <__bss_end+0xdfd1a0>
   1c098:	00000000 	andeq	r0, r0, r0
   1c09c:	44335620 	ldrtmi	r5, [r3], #-1568	; 0x620
   1c0a0:	53455420 	movtpl	r5, #21536	; 0x5420
   1c0a4:	00000a54 	andeq	r0, r0, r4, asr sl
   1c0a8:	214b4f20 	cmpcs	fp, r0, lsr #30
   1c0ac:	494c4220 	stmdbmi	ip, {r5, r9, lr}^
   1c0b0:	53204b4e 	teqpl	r0, #79872	; 0x13800
   1c0b4:	55544154 	ldrbpl	r4, [r4, #-340]	; 0x154
   1c0b8:	454c2053 	strbmi	r2, [ip, #-83]	; 0x53
   1c0bc:	00000a44 	andeq	r0, r0, r4, asr #20
   1c0c0:	0a474e20 	beq	11ef948 <__bss_end+0x97f948>
   1c0c4:	00000000 	andeq	r0, r0, r0
   1c0c8:	20544547 	subscs	r4, r4, r7, asr #10
   1c0cc:	4d415246 	sfmmi	f5, 2, [r1, #-280]	; 0xfffffee8
   1c0d0:	46554245 	ldrbmi	r4, [r5], -r5, asr #4
   1c0d4:	0a524546 	beq	14ad5f4 <__bss_end+0xc3d5f4>
   1c0d8:	00000000 	andeq	r0, r0, r0
   1c0dc:	3e2d6266 	cdpcc	2, 2, cr6, cr13, cr6, {3}
   1c0e0:	74646977 	strbtvc	r6, [r4], #-2423	; 0x977
   1c0e4:	3d202068 	stccc	0, cr2, [r0, #-416]!	; 0xfffffe60
   1c0e8:	0000000a 	andeq	r0, r0, sl
   1c0ec:	3e2d6266 	cdpcc	2, 2, cr6, cr13, cr6, {3}
   1c0f0:	67696568 	strbvs	r6, [r9, -r8, ror #10]!
   1c0f4:	3d207468 	cfstrscc	mvf7, [r0, #-416]!	; 0xfffffe60
   1c0f8:	0000000a 	andeq	r0, r0, sl
   1c0fc:	3e2d6266 	cdpcc	2, 2, cr6, cr13, cr6, {3}
   1c100:	657a6973 	ldrbvs	r6, [sl, #-2419]!	; 0x973
   1c104:	3d202020 	stccc	0, cr2, [r0, #-128]!	; 0xffffff80
   1c108:	0000000a 	andeq	r0, r0, sl
   1c10c:	3e2d6266 	cdpcc	2, 2, cr6, cr13, cr6, {3}
   1c110:	6e696f70 	mcrvs	15, 3, r6, cr9, cr0, {3}
   1c114:	3d726574 	cfldr64cc	mvdx6, [r2, #-464]!	; 0xfffffe30
   1c118:	0000000a 	andeq	r0, r0, sl
   1c11c:	54534554 	ldrbpl	r4, [r3], #-1364	; 0x554
   1c120:	54414820 	strbpl	r4, [r1], #-2080	; 0x820
   1c124:	0a2e4843 	beq	bae238 <__bss_end+0x33e238>
   1c128:	00000000 	andeq	r0, r0, r0
   1c12c:	206e7572 	rsbcs	r7, lr, r2, ror r5
   1c130:	74736574 	ldrbtvc	r6, [r3], #-1396	; 0x574
   1c134:	69726420 	ldmdbvs	r2!, {r5, sl, sp, lr}^
   1c138:	2e726576 	mrccs	5, 3, r6, cr2, cr6, {3}
   1c13c:	0000000a 	andeq	r0, r0, sl
   1c140:	6c69616d 	stfvse	f6, [r9], #-436	; 0xfffffe4c
   1c144:	5f786f62 	svcpl	0x00786f62
   1c148:	5f757071 	svcpl	0x00757071
   1c14c:	62616e65 	rsbvs	r6, r1, #1616	; 0x650
   1c150:	4620656c 	strtmi	r6, [r0], -ip, ror #10
   1c154:	454c4941 	strbmi	r4, [ip, #-2369]	; 0x941
   1c158:	5b702044 	blpl	1c24270 <__bss_end+0x13b4270>
   1c15c:	0a3d5d31 	beq	f73628 <__bss_end+0x703628>
   1c160:	00000000 	andeq	r0, r0, r0
   1c164:	6c69616d 	stfvse	f6, [r9], #-436	; 0xfffffe4c
   1c168:	5f786f62 	svcpl	0x00786f62
   1c16c:	5f757071 	svcpl	0x00757071
   1c170:	62616e65 	rsbvs	r6, r1, #1616	; 0x650
   1c174:	4f20656c 	svcmi	0x0020656c
   1c178:	000a204b 	andeq	r2, sl, fp, asr #32
   1c17c:	6c69616d 	stfvse	f6, [r9], #-436	; 0xfffffe4c
   1c180:	5f786f62 	svcpl	0x00786f62
   1c184:	6f6c6e75 	svcvs	0x006c6e75
   1c188:	6d5f6b63 	vldrvs	d22, [pc, #-396]	; 1c004 <basic_shader+0x4>
   1c18c:	726f6d65 	rsbvc	r6, pc, #6464	; 0x1940
   1c190:	41462079 	hvcmi	25097	; 0x6209
   1c194:	44454c49 	strbmi	r4, [r5], #-3145	; 0xc49
   1c198:	315b7020 	cmpcc	fp, r0, lsr #32
   1c19c:	000a3d5d 	andeq	r3, sl, sp, asr sp
   1c1a0:	6c69616d 	stfvse	f6, [r9], #-436	; 0xfffffe4c
   1c1a4:	5f786f62 	svcpl	0x00786f62
   1c1a8:	6f6c6c61 	svcvs	0x006c6c61
   1c1ac:	65746163 	ldrbvs	r6, [r4, #-355]!	; 0x163
   1c1b0:	6d656d5f 	stclvs	13, cr6, [r5, #-380]!	; 0xfffffe84
   1c1b4:	2079726f 	rsbscs	r7, r9, pc, ror #4
   1c1b8:	646e6168 	strbtvs	r6, [lr], #-360	; 0x168
   1c1bc:	0a3d656c 	beq	f75774 <__bss_end+0x705774>
   1c1c0:	00000000 	andeq	r0, r0, r0
   1c1c4:	6c69616d 	stfvse	f6, [r9], #-436	; 0xfffffe4c
   1c1c8:	5f786f62 	svcpl	0x00786f62
   1c1cc:	6b636f6c 	blvs	18f7f84 <__bss_end+0x1087f84>
   1c1d0:	6d656d5f 	stclvs	13, cr6, [r5, #-380]!	; 0xfffffe84
   1c1d4:	2079726f 	rsbscs	r7, r9, pc, ror #4
   1c1d8:	4c494146 	stfmie	f4, [r9], {70}	; 0x46
   1c1dc:	70204445 	eorvc	r4, r0, r5, asr #8
   1c1e0:	3d5d315b 	ldfcce	f3, [sp, #-364]	; 0xfffffe94
   1c1e4:	0000000a 	andeq	r0, r0, sl
   1c1e8:	4c49414d 	stfmie	f4, [r9], {77}	; 0x4d
   1c1ec:	5f584f42 	svcpl	0x00584f42
   1c1f0:	4d415246 	sfmmi	f5, 2, [r1, #-280]	; 0xfffffee8
   1c1f4:	46554245 	ldrbmi	r4, [r5], -r5, asr #4
   1c1f8:	20524546 	subscs	r4, r2, r6, asr #10
   1c1fc:	6e756f63 	cdpvs	15, 7, cr6, cr5, cr3, {3}
   1c200:	000a3d74 	andeq	r3, sl, r4, ror sp
   1c204:	20535046 	subscs	r5, r3, r6, asr #32
   1c208:	000a203a 	andeq	r2, sl, sl, lsr r0
   1c20c:	00203a20 	eoreq	r3, r0, r0, lsr #20
   1c210:	2d2d2d2d 	stccs	13, cr2, [sp, #-180]!	; 0xffffff4c
   1c214:	2d2d2d2d 	stccs	13, cr2, [sp, #-180]!	; 0xffffff4c
   1c218:	2d2d2d2d 	stccs	13, cr2, [sp, #-180]!	; 0xffffff4c
   1c21c:	2d2d2d2d 	stccs	13, cr2, [sp, #-180]!	; 0xffffff4c
   1c220:	2d2d2d2d 	stccs	13, cr2, [sp, #-180]!	; 0xffffff4c
   1c224:	2d2d2d2d 	stccs	13, cr2, [sp, #-180]!	; 0xffffff4c
   1c228:	2d2d2d2d 	stccs	13, cr2, [sp, #-180]!	; 0xffffff4c
   1c22c:	2d2d2d2d 	stccs	13, cr2, [sp, #-180]!	; 0xffffff4c
   1c230:	2d2d2d2d 	stccs	13, cr2, [sp, #-180]!	; 0xffffff4c
   1c234:	2d2d2d2d 	stccs	13, cr2, [sp, #-180]!	; 0xffffff4c
   1c238:	2d2d2d2d 	stccs	13, cr2, [sp, #-180]!	; 0xffffff4c
   1c23c:	2d2d2d2d 	stccs	13, cr2, [sp, #-180]!	; 0xffffff4c
   1c240:	2d2d2d2d 	stccs	13, cr2, [sp, #-180]!	; 0xffffff4c
   1c244:	000a2d2d 	andeq	r2, sl, sp, lsr #26
   1c248:	525f4f49 	subspl	r4, pc, #292	; 0x124
   1c24c:	28444145 	stmdacs	r4, {r0, r2, r6, r8, lr}^
   1c250:	5f443356 	svcpl	0x00443356
   1c254:	43305443 	teqmi	r0, #1124073472	; 0x43000000
   1c258:	20202953 	eorcs	r2, r0, r3, asr r9
   1c25c:	0a3d2020 	beq	f642e4 <__bss_end+0x6f42e4>
   1c260:	00000000 	andeq	r0, r0, r0
   1c264:	525f4f49 	subspl	r4, pc, #292	; 0x124
   1c268:	28444145 	stmdacs	r4, {r0, r2, r6, r8, lr}^
   1c26c:	5f443356 	svcpl	0x00443356
   1c270:	43315443 	teqmi	r1, #1124073472	; 0x43000000
   1c274:	20202953 	eorcs	r2, r0, r3, asr r9
   1c278:	0a3d2020 	beq	f64300 <__bss_end+0x6f4300>
   1c27c:	00000000 	andeq	r0, r0, r0
   1c280:	525f4f49 	subspl	r4, pc, #292	; 0x124
   1c284:	28444145 	stmdacs	r4, {r0, r2, r6, r8, lr}^
   1c288:	5f443356 	svcpl	0x00443356
   1c28c:	53525245 	cmppl	r2, #1342177284	; 0x50000004
   1c290:	29544154 	ldmdbcs	r4, {r2, r4, r6, r8, lr}^
   1c294:	0a3d2020 	beq	f6431c <__bss_end+0x6f431c>
   1c298:	00000000 	andeq	r0, r0, r0
   1c29c:	525f4f49 	subspl	r4, pc, #292	; 0x124
   1c2a0:	28444145 	stmdacs	r4, {r0, r2, r6, r8, lr}^
   1c2a4:	5f443356 	svcpl	0x00443356
   1c2a8:	29434642 	stmdbcs	r3, {r1, r6, r9, sl, lr}^
   1c2ac:	20202020 	eorcs	r2, r0, r0, lsr #32
   1c2b0:	0a3d2020 	beq	f64338 <__bss_end+0x6f4338>
   1c2b4:	00000000 	andeq	r0, r0, r0
   1c2b8:	525f4f49 	subspl	r4, pc, #292	; 0x124
   1c2bc:	28444145 	stmdacs	r4, {r0, r2, r6, r8, lr}^
   1c2c0:	5f443356 	svcpl	0x00443356
   1c2c4:	29434652 	stmdbcs	r3, {r1, r4, r6, r9, sl, lr}^
   1c2c8:	20202020 	eorcs	r2, r0, r0, lsr #32
   1c2cc:	0a3d2020 	beq	f64354 <__bss_end+0x6f4354>
   1c2d0:	00000000 	andeq	r0, r0, r0
   1c2d4:	525f4f49 	subspl	r4, pc, #292	; 0x124
   1c2d8:	28444145 	stmdacs	r4, {r0, r2, r6, r8, lr}^
   1c2dc:	5f443356 	svcpl	0x00443356
   1c2e0:	29534350 	ldmdbcs	r3, {r4, r6, r8, r9, lr}^
   1c2e4:	20202020 	eorcs	r2, r0, r0, lsr #32
   1c2e8:	0a3d2020 	beq	f64370 <__bss_end+0x6f4370>
   1c2ec:	00000000 	andeq	r0, r0, r0
   1c2f0:	525f4f49 	subspl	r4, pc, #292	; 0x124
   1c2f4:	28444145 	stmdacs	r4, {r0, r2, r6, r8, lr}^
   1c2f8:	5f443356 	svcpl	0x00443356
   1c2fc:	47424446 	strbmi	r4, [r2, -r6, asr #8]
   1c300:	2020294f 	eorcs	r2, r0, pc, asr #18
   1c304:	0a3d2020 	beq	f6438c <__bss_end+0x6f438c>
   1c308:	00000000 	andeq	r0, r0, r0
   1c30c:	525f4f49 	subspl	r4, pc, #292	; 0x124
   1c310:	28444145 	stmdacs	r4, {r0, r2, r6, r8, lr}^
   1c314:	5f443356 	svcpl	0x00443356
   1c318:	43544e49 	cmpmi	r4, #1168	; 0x490
   1c31c:	20294c54 	eorcs	r4, r9, r4, asr ip
   1c320:	0a3d2020 	beq	f643a8 <__bss_end+0x6f43a8>
   1c324:	00000000 	andeq	r0, r0, r0
   1c328:	525f4f49 	subspl	r4, pc, #292	; 0x124
   1c32c:	28444145 	stmdacs	r4, {r0, r2, r6, r8, lr}^
   1c330:	5f443356 	svcpl	0x00443356
   1c334:	43415056 	movtmi	r5, #4182	; 0x1056
   1c338:	294c544e 	stmdbcs	ip, {r1, r2, r3, r6, sl, ip, lr}^
   1c33c:	0a3d2020 	beq	f643c4 <__bss_end+0x6f43c4>
   1c340:	00000000 	andeq	r0, r0, r0
   1c344:	525f4f49 	subspl	r4, pc, #292	; 0x124
   1c348:	28444145 	stmdacs	r4, {r0, r2, r6, r8, lr}^
   1c34c:	5f443356 	svcpl	0x00443356
   1c350:	534f5042 	movtpl	r5, #61506	; 0xf042
   1c354:	20202029 	eorcs	r2, r0, r9, lsr #32
   1c358:	0a3d2020 	beq	f643e0 <__bss_end+0x6f43e0>
   1c35c:	00000000 	andeq	r0, r0, r0
   1c360:	525f4f49 	subspl	r4, pc, #292	; 0x124
   1c364:	28444145 	stmdacs	r4, {r0, r2, r6, r8, lr}^
   1c368:	5f443356 	svcpl	0x00443356
   1c36c:	414f5042 	cmpmi	pc, r2, asr #32
   1c370:	20202029 	eorcs	r2, r0, r9, lsr #32
   1c374:	0a3d2020 	beq	f643fc <__bss_end+0x6f43fc>
   1c378:	00000000 	andeq	r0, r0, r0
   1c37c:	525f4f49 	subspl	r4, pc, #292	; 0x124
   1c380:	28444145 	stmdacs	r4, {r0, r2, r6, r8, lr}^
   1c384:	5f443356 	svcpl	0x00443356
   1c388:	53435042 	movtpl	r5, #12354	; 0x3042
   1c38c:	20202029 	eorcs	r2, r0, r9, lsr #32
   1c390:	0a3d2020 	beq	f64418 <__bss_end+0x6f4418>
   1c394:	00000000 	andeq	r0, r0, r0
   1c398:	525f4f49 	subspl	r4, pc, #292	; 0x124
   1c39c:	28444145 	stmdacs	r4, {r0, r2, r6, r8, lr}^
   1c3a0:	5f443356 	svcpl	0x00443356
   1c3a4:	4e454449 	cdpmi	4, 4, cr4, cr5, cr9, {2}
   1c3a8:	20293254 	eorcs	r3, r9, r4, asr r2
   1c3ac:	0a3d2020 	beq	f64434 <__bss_end+0x6f4434>
   1c3b0:	00000000 	andeq	r0, r0, r0

Disassembly of section .data:

0001d000 <__data_start>:
   1d000:	00826900 	addeq	r6, r2, r0, lsl #18

0001d004 <CHAR_COLOR>:
   1d004:	ffffffff 			; <UNDEFINED> instruction: 0xffffffff

0001d008 <fsintable>:
   1d008:	00000000 	andeq	r0, r0, r0
   1d00c:	3a491080 	bcc	1261214 <__bss_end+0x9f1214>
   1d010:	3ac91080 	bcc	ff261218 <__bss_end+0xfe9f1218>
   1d014:	3b16cc60 	blcc	5d019c <renderchunk_buffer0+0x5a989c>
   1d018:	3b491080 	blcc	1261220 <__bss_end+0x9f1220>
   1d01c:	3b7b54a0 	blcc	1ef22a4 <__bss_end+0x16822a4>
   1d020:	3b96cc60 	blcc	fe5d01a8 <__bss_end+0xfdd601a8>
   1d024:	3bafee70 	blcc	fec189ec <__bss_end+0xfe3a89ec>
   1d028:	3bc91080 	blcc	ff261230 <__bss_end+0xfe9f1230>
   1d02c:	3be23290 	blcc	ff8a9a74 <__bss_end+0xff039a74>
   1d030:	3bfb54a0 	blcc	ffef22b8 <__bss_end+0xff6822b8>
   1d034:	3c0a3b58 	stccc	11, cr3, [sl], {88}	; 0x58
   1d038:	3c16cc60 	ldccc	12, cr12, [r6], {96}	; 0x60
   1d03c:	3c235d68 	stccc	13, cr5, [r3], #-416	; 0xfffffe60
   1d040:	3c2fee70 	stccc	14, cr14, [pc], #-448	; 1ce88 <basic_shader+0xe88>
   1d044:	3c3c7f78 	ldccc	15, cr7, [ip], #-480	; 0xfffffe20
   1d048:	3c491080 	mcrrcc	0, 8, r1, r9, cr0
   1d04c:	3c559d56 	mrrccc	13, 5, r9, r5, cr6
   1d050:	3c622e5e 	stclcc	14, cr2, [r2], #-376	; 0xfffffe88
   1d054:	3c6ebf66 	stclcc	15, cr11, [lr], #-408	; 0xfffffe68
   1d058:	3c7b506e 	ldclcc	0, cr5, [fp], #-440	; 0xfffffe48
   1d05c:	3c83f0bb 	stccc	0, cr15, [r3], {187}	; 0xbb
   1d060:	3c8a393f 	stccc	9, cr3, [sl], {63}	; 0x3f
   1d064:	3c9081c3 	ldfccd	f0, [r0], {195}	; 0xc3
   1d068:	3c96ca47 	vldmiacc	r6, {s24-s94}
   1d06c:	3c9d12cb 	lfmcc	f1, 4, [sp], {203}	; 0xcb
   1d070:	3ca35936 	stccc	9, cr5, [r3], #216	; 0xd8
   1d074:	3ca9a1ba 	stfccd	f2, [r9], #744	; 0x2e8
   1d078:	3cafea3e 	vstmiacc	pc!, {s28-s89}
   1d07c:	3cb632c2 	lfmcc	f3, 4, [r6], #776	; 0x308
   1d080:	3cbc7b46 	vldmiacc	ip!, {d7-<overflow reg d41>}
   1d084:	3cc2c1b1 	stfccp	f4, [r2], {177}	; 0xb1
   1d088:	3cc90a35 	vstmiacc	r9, {s1-s53}
   1d08c:	3ccf52b9 	sfmcc	f5, 2, [pc], {185}	; 0xb9
   1d090:	3cd59b3d 	fldmiaxcc	r5, {d25-d54}	;@ Deprecated
   1d094:	3cdbe1a8 	ldfccp	f6, [fp], {168}	; 0xa8
   1d098:	3ce22a2c 	vstmiacc	r2!, {s5-s48}
   1d09c:	3ce872b0 	sfmcc	f7, 2, [r8], #704	; 0x2c0
   1d0a0:	3ceebb34 	vstmiacc	lr!, {d27-<overflow reg d52>}
   1d0a4:	3cf5019f 	ldfcce	f0, [r5], #636	; 0x27c
   1d0a8:	3cfb4a23 	vldmiacc	fp!, {s9-s43}
   1d0ac:	3d00c847 	stccc	8, cr12, [r0, #-284]	; 0xfffffee4
   1d0b0:	3d03ec89 	stccc	12, cr14, [r3, #-548]	; 0xfffffddc
   1d0b4:	3d0710cb 	stccc	0, cr1, [r7, #-812]	; 0xfffffcd4
   1d0b8:	3d0a3401 	cfstrscc	mvf3, [sl, #-4]
   1d0bc:	3d0d5843 	stccc	8, cr5, [sp, #-268]	; 0xfffffef4
   1d0c0:	3d107b78 	vldrcc	d7, [r0, #-480]	; 0xfffffe20
   1d0c4:	3d139fba 	ldccc	15, cr9, [r3, #-744]	; 0xfffffd18
   1d0c8:	3d16c2f0 	lfmcc	f4, 1, [r6, #-960]	; 0xfffffc40
   1d0cc:	3d19e732 	ldccc	7, cr14, [r9, #-200]	; 0xffffff38
   1d0d0:	3d1d0a67 	vldrcc	s0, [sp, #-412]	; 0xfffffe64
   1d0d4:	3d202ea9 	stccc	14, cr2, [r0, #-676]!	; 0xfffffd5c
   1d0d8:	3d2351df 	stfccs	f5, [r3, #-892]!	; 0xfffffc84
   1d0dc:	3d267514 	cfstr32cc	mvfx7, [r6, #-80]!	; 0xffffffb0
   1d0e0:	3d299956 	stccc	9, cr9, [r9, #-344]!	; 0xfffffea8
   1d0e4:	3d2cbc8c 	stccc	12, cr11, [ip, #-560]!	; 0xfffffdd0
   1d0e8:	3d2fdfc2 	stccc	15, cr13, [pc, #-776]!	; 1cde8 <basic_shader+0xde8>
   1d0ec:	3d330404 	cfldrscc	mvf0, [r3, #-16]!
   1d0f0:	3d362739 	ldccc	7, cr2, [r6, #-228]!	; 0xffffff1c
   1d0f4:	3d394a6f 	vldmdbcc	r9!, {s8-s118}
   1d0f8:	3d3c6da4 	ldccc	13, cr6, [ip, #-656]!	; 0xfffffd70
   1d0fc:	3d3f90da 	ldccc	0, cr9, [pc, #-872]!	; 1cd9c <basic_shader+0xd9c>
   1d100:	3d42b40f 	cfstrdcc	mvd11, [r2, #-60]	; 0xffffffc4
   1d104:	3d45d851 	stclcc	8, cr13, [r5, #-324]	; 0xfffffebc
   1d108:	3d48fb87 	vstrcc	d31, [r8, #-540]	; 0xfffffde4
   1d10c:	3d4c1ebd 	stclcc	14, cr1, [ip, #-756]	; 0xfffffd0c
   1d110:	3d4f41f2 	stfcce	f4, [pc, #-968]	; 1cd50 <basic_shader+0xd50>
   1d114:	3d526528 	cfldr64cc	mvdx6, [r2, #-160]	; 0xffffff60
   1d118:	3d55885d 	ldclcc	8, cr8, [r5, #-372]	; 0xfffffe8c
   1d11c:	3d58ab93 	vldrcc	d26, [r8, #-588]	; 0xfffffdb4
   1d120:	3d5bcec8 	ldclcc	14, cr12, [fp, #-800]	; 0xfffffce0
   1d124:	3d5ef0f1 	ldclcc	0, cr15, [lr, #-964]	; 0xfffffc3c
   1d128:	3d621427 	cfstrdcc	mvd1, [r2, #-156]!	; 0xffffff64
   1d12c:	3d65375d 	stclcc	7, cr3, [r5, #-372]!	; 0xfffffe8c
   1d130:	3d685a92 	vstmdbcc	r8!, {s11-s156}
   1d134:	3d6b7dc8 	stclcc	13, cr7, [fp, #-800]!	; 0xfffffce0
   1d138:	3d6e9ff1 	stclcc	15, cr9, [lr, #-964]!	; 0xfffffc3c
   1d13c:	3d71c326 	ldclcc	3, cr12, [r1, #-152]!	; 0xffffff68
   1d140:	3d74e65c 	ldclcc	6, cr14, [r4, #-368]!	; 0xfffffe90
   1d144:	3d780885 	ldclcc	8, cr0, [r8, #-532]!	; 0xfffffdec
   1d148:	3d7b2bbb 	fldmdbxcc	fp!, {d18-d110}	;@ Deprecated
   1d14c:	3d7e4de4 	ldclcc	13, cr4, [lr, #-912]!	; 0xfffffc70
   1d150:	3d80b88d 	stccc	8, cr11, [r0, #564]	; 0x234
   1d154:	3d8249a1 	stccc	9, cr4, [r2, #644]	; 0x284
   1d158:	3d83db3c 	vstrcc	d13, [r3, #240]	; 0xf0
   1d15c:	3d856c51 	stccc	12, cr6, [r5, #324]	; 0x144
   1d160:	3d86fd65 	stccc	13, cr15, [r6, #404]	; 0x194
   1d164:	3d888f00 	stccc	15, cr8, [r8]
   1d168:	3d8a2014 	stccc	0, cr2, [sl, #80]	; 0x50
   1d16c:	3d8bb129 	stfccd	f3, [fp, #164]	; 0xa4
   1d170:	3d8d423e 	sfmcc	f4, 4, [sp, #248]	; 0xf8
   1d174:	3d8ed352 	stccc	3, cr13, [lr, #328]	; 0x148
   1d178:	3d9064ed 	cfldrscc	mvf6, [r0, #948]	; 0x3b4
   1d17c:	3d91f601 	ldccc	6, cr15, [r1, #4]
   1d180:	3d938716 	ldccc	7, cr8, [r3, #88]	; 0x58
   1d184:	3d95182b 	ldccc	8, cr1, [r5, #172]	; 0xac
   1d188:	3d96a93f 	ldccc	9, cr10, [r6, #252]	; 0xfc
   1d18c:	3d9839ce 	ldccc	9, cr3, [r8, #824]	; 0x338
   1d190:	3d99cae2 	vldrcc	s24, [r9, #904]	; 0x388
   1d194:	3d9b5bf7 	vldrcc	d5, [fp, #988]	; 0x3dc
   1d198:	3d9ced0b 	ldccc	13, cr14, [ip, #44]	; 0x2c
   1d19c:	3d9e7e20 	ldccc	14, cr7, [lr, #128]	; 0x80
   1d1a0:	3da00eae 	stccc	14, cr0, [r0, #696]!	; 0x2b8
   1d1a4:	3da19fc3 	stccc	15, cr9, [r1, #780]!	; 0x30c
   1d1a8:	3da33051 	stccc	0, cr3, [r3, #324]!	; 0x144
   1d1ac:	3da4c166 	stfccd	f4, [r4, #408]!	; 0x198
   1d1b0:	3da651f4 	stfccs	f5, [r6, #976]!	; 0x3d0
   1d1b4:	3da7e308 	stccc	3, cr14, [r7, #32]!
   1d1b8:	3da97397 	stccc	3, cr7, [r9, #604]!	; 0x25c
   1d1bc:	3dab04ab 	cfstrscc	mvf0, [fp, #684]!	; 0x2ac
   1d1c0:	3dac953a 	cfstr32cc	mvfx9, [ip, #232]!	; 0xe8
   1d1c4:	3dae25c8 	cfstr32cc	mvfx2, [lr, #800]!	; 0x320
   1d1c8:	3dafb656 	stccc	6, cr11, [pc, #344]!	; 1d328 <fsintable+0x320>
   1d1cc:	3db146e5 	ldccc	6, cr4, [r1, #916]!	; 0x394
   1d1d0:	3db2d7f9 	ldccc	7, cr13, [r2, #996]!	; 0x3e4
   1d1d4:	3db46888 	ldccc	8, cr6, [r4, #544]!	; 0x220
   1d1d8:	3db5f916 	ldccc	9, cr15, [r5, #88]!	; 0x58
   1d1dc:	3db7891e 	ldccc	9, cr8, [r7, #120]!	; 0x78
   1d1e0:	3db919ac 	ldccc	9, cr1, [r9, #688]!	; 0x2b0
   1d1e4:	3dbaaa3b 	ldccc	10, cr10, [sl, #236]!	; 0xec
   1d1e8:	3dbc3ac9 	ldccc	10, cr3, [ip, #804]!	; 0x324
   1d1ec:	3dbdcb58 	ldccc	11, cr12, [sp, #352]!	; 0x160
   1d1f0:	3dbf5b60 	ldccc	11, cr5, [pc, #384]!	; 1d378 <fsintable+0x370>
   1d1f4:	3dc0ebee 	vstrcc	d30, [r0, #952]	; 0x3b8
   1d1f8:	3dc27bf6 	vstrcc	d23, [r2, #984]	; 0x3d8
   1d1fc:	3dc40c84 	stclcc	12, cr0, [r4, #528]	; 0x210
   1d200:	3dc59c8d 	stclcc	12, cr9, [r5, #564]	; 0x234
   1d204:	3dc72d1b 	stclcc	13, cr2, [r7, #108]	; 0x6c
   1d208:	3dc8bd23 	stclcc	13, cr11, [r8, #140]	; 0x8c
   1d20c:	3dca4d2b 	stclcc	13, cr4, [sl, #172]	; 0xac
   1d210:	3dcbddba 	stclcc	13, cr13, [fp, #744]	; 0x2e8
   1d214:	3dcd6dc2 	stclcc	13, cr6, [sp, #776]	; 0x308
   1d218:	3dcefdca 	stclcc	13, cr15, [lr, #808]	; 0x328
   1d21c:	3dd08dd2 	ldclcc	13, cr8, [r0, #840]	; 0x348
   1d220:	3dd21dda 	ldclcc	13, cr1, [r2, #872]	; 0x368
   1d224:	3dd3ade2 	ldclcc	13, cr10, [r3, #904]	; 0x388
   1d228:	3dd53dea 	ldclcc	13, cr3, [r5, #936]	; 0x3a8
   1d22c:	3dd6cd6c 	ldclcc	13, cr12, [r6, #432]	; 0x1b0
   1d230:	3dd85d74 	ldclcc	13, cr5, [r8, #464]	; 0x1d0
   1d234:	3dd9ed7c 	ldclcc	13, cr14, [r9, #496]	; 0x1f0
   1d238:	3ddb7cfe 	ldclcc	12, cr7, [fp, #1016]	; 0x3f8
   1d23c:	3ddd0d06 	ldclcc	13, cr0, [sp, #24]
   1d240:	3dde9c88 	ldclcc	12, cr9, [lr, #544]	; 0x220
   1d244:	3de02c91 	stclcc	12, cr2, [r0, #580]!	; 0x244
   1d248:	3de1bc12 	stclcc	12, cr11, [r1, #72]!	; 0x48
   1d24c:	3de34b94 	stclcc	11, cr4, [r3, #592]!	; 0x250
   1d250:	3de4db9c 	stclcc	11, cr13, [r4, #624]!	; 0x270
   1d254:	3de66b1e 	stclcc	11, cr6, [r6, #120]!	; 0x78
   1d258:	3de7faa0 	stclcc	10, cr15, [r7, #640]!	; 0x280
   1d25c:	3de98a22 	stclcc	10, cr8, [r9, #136]!	; 0x88
   1d260:	3deb19a4 	stclcc	9, cr1, [fp, #656]!	; 0x290
   1d264:	3deca926 	stclcc	9, cr10, [ip, #152]!	; 0x98
   1d268:	3dee38a8 	stclcc	8, cr3, [lr, #672]!	; 0x2a0
   1d26c:	3defc7a4 	stclcc	7, cr12, [pc, #656]!	; 1d504 <fsintable+0x4fc>
   1d270:	3df15726 	ldclcc	7, cr5, [r1, #152]!	; 0x98
   1d274:	3df2e6a7 	ldclcc	6, cr14, [r2, #668]!	; 0x29c
   1d278:	3df475a3 	cfldr64cc	mvdx7, [r4, #652]!	; 0x28c
   1d27c:	3df60525 	cfldr64cc	mvdx0, [r6, #148]!	; 0x94
   1d280:	3df79421 	cfldrdcc	mvd9, [r7, #132]!	; 0x84
   1d284:	3df9231c 	ldclcc	3, cr2, [r9, #112]!	; 0x70
   1d288:	3dfab29e 	lfmcc	f3, 3, [sl, #632]!	; 0x278
   1d28c:	3dfc419a 	ldfcce	f4, [ip, #616]!	; 0x268
   1d290:	3dfdd096 	ldclcc	0, cr13, [sp, #600]!	; 0x258
   1d294:	3dff5f91 	ldclcc	15, cr5, [pc, #580]!	; 1d4e0 <fsintable+0x4d8>
   1d298:	3e007747 	cdpcc	7, 0, cr7, cr0, cr7, {2}
   1d29c:	3e013ec4 	cdpcc	14, 0, cr3, cr1, cr4, {6}
   1d2a0:	3e020642 	cfmadd32cc	mvax2, mvfx0, mvfx2, mvfx2
   1d2a4:	3e02cd7d 	mcrcc	13, 0, ip, cr2, cr13, {3}
   1d2a8:	3e0394fb 	mcrcc	4, 0, r9, cr3, cr11, {7}
   1d2ac:	3e045c79 	mcrcc	12, 0, r5, cr4, cr9, {3}
   1d2b0:	3e0523b3 	mcrcc	3, 0, r2, cr5, cr3, {5}
   1d2b4:	3e05eb31 	vmovcc.16	d5[0], lr
   1d2b8:	3e06b26c 	cdpcc	2, 0, cr11, cr6, cr12, {3}
   1d2bc:	3e0779a7 	cdpcc	9, 0, cr7, cr7, cr7, {5}
   1d2c0:	3e084125 	adfccep	f4, f0, f5
   1d2c4:	3e09085f 	mcrcc	8, 0, r0, cr9, cr15, {2}
   1d2c8:	3e09cf9a 	mcrcc	15, 0, ip, cr9, cr10, {4}
   1d2cc:	3e0a96d5 	mcrcc	6, 0, r9, cr10, cr5, {6}
   1d2d0:	3e0b5e0f 	cdpcc	14, 0, cr5, cr11, cr15, {0}
   1d2d4:	3e0c2507 	cfsh32cc	mvfx2, mvfx12, #7
   1d2d8:	3e0cec42 	cdpcc	12, 0, cr14, cr12, cr2, {2}
   1d2dc:	3e0db37d 	mcrcc	3, 0, fp, cr13, cr13, {3}
   1d2e0:	3e0e7a74 	mcrcc	10, 0, r7, cr14, cr4, {3}
   1d2e4:	3e0f41af 	adfcc<illegal precision>p	f4, f7, #10.0
   1d2e8:	3e1008a7 	cdpcc	8, 1, cr0, cr0, cr7, {5}
   1d2ec:	3e10cfe1 	cdpcc	15, 1, cr12, cr0, cr1, {7}
   1d2f0:	3e1196d9 	mrccc	6, 0, r9, cr1, cr9, {6}
   1d2f4:	3e125dd1 	mrccc	13, 0, r5, cr2, cr1, {6}
   1d2f8:	3e1324c8 	cdpcc	4, 1, cr2, cr3, cr8, {6}
   1d2fc:	3e13ebc0 	vnmlacc.f64	d14, d19, d0
   1d300:	3e14b2b7 	mrccc	2, 0, fp, cr4, cr7, {5}
   1d304:	3e1579af 	cdpcc	9, 1, cr7, cr5, cr15, {5}
   1d308:	3e164064 	cdpcc	0, 1, cr4, cr6, cr4, {3}
   1d30c:	3e17075b 	mrccc	7, 0, r0, cr7, cr11, {2}
   1d310:	3e17ce53 	mrccc	14, 0, ip, cr7, cr3, {2}
   1d314:	3e189507 	cfmul32cc	mvfx9, mvfx8, mvfx7
   1d318:	3e195bff 	vmovcc.s16	r5, d25[1]
   1d31c:	3e1a22b4 	mrccc	2, 0, r2, cr10, cr4, {5}
   1d320:	3e1ae968 	cdpcc	9, 1, cr14, cr10, cr8, {3}
   1d324:	3e1bb01d 	mrccc	0, 0, fp, cr11, cr13, {0}
   1d328:	3e1c76d1 	mrccc	6, 0, r7, cr12, cr1, {6}
   1d32c:	3e1d3d86 	cdpcc	13, 1, cr3, cr13, cr6, {4}
   1d330:	3e1e043a 	mrccc	4, 0, r0, cr14, cr10, {1}
   1d334:	3e1ecaef 	vnmlacc.f32	s24, s29, s31
   1d338:	3e1f9160 	mnfccez	f1, f0
   1d33c:	3e205815 	mcrcc	8, 1, r5, cr0, cr5, {0}
   1d340:	3e211e86 	cdpcc	14, 2, cr1, cr1, cr6, {4}
   1d344:	3e21e53b 	mcrcc	5, 1, lr, cr1, cr11, {1}
   1d348:	3e22abac 	vmulcc.f64	d10, d18, d28
   1d34c:	3e23721d 	mcrcc	2, 1, r7, cr3, cr13, {0}
   1d350:	3e24388f 	cdpcc	8, 2, cr3, cr4, cr15, {4}
   1d354:	3e24ff00 	cdpcc	15, 2, cr15, cr4, cr0, {0}
   1d358:	3e25c572 	mcrcc	5, 1, ip, cr5, cr2, {3}
   1d35c:	3e268be3 	vnmulcc.f64	d8, d22, d19
   1d360:	3e275254 	mcrcc	2, 1, r5, cr7, cr4, {2}
   1d364:	3e2818c6 	cdpcc	8, 2, cr1, cr8, cr6, {6}
   1d368:	3e28def4 	mcrcc	14, 1, sp, cr8, cr4, {7}
   1d36c:	3e29a565 	cfsh64cc	mvdx10, mvdx9, #53
   1d370:	3e2a6b94 	vmovcc.32	d26[1], r6
   1d374:	3e2b31c2 	sufcc<illegal precision>m	f3, f3, f2
   1d378:	3e2bf7f0 	mcrcc	7, 1, pc, cr11, cr0, {7}	; <UNPREDICTABLE>
   1d37c:	3e2cbe1f 	mcrcc	14, 1, fp, cr12, cr15, {0}
   1d380:	3e2d844d 	cdpcc	4, 2, cr8, cr13, cr13, {2}
   1d384:	3e2e4a7b 	mcrcc	10, 1, r4, cr14, cr11, {3}
   1d388:	3e2f10aa 	cdpcc	0, 2, cr1, cr15, cr10, {5}
   1d38c:	3e2fd6d8 	mcrcc	6, 1, sp, cr15, cr8, {6}
   1d390:	3e309cc3 	cdpcc	12, 3, cr9, cr0, cr3, {6}
   1d394:	3e3162f1 	mrccc	2, 1, r6, cr1, cr1, {7}
   1d398:	3e3228dd 	mrccc	8, 1, r2, cr2, cr13, {6}
   1d39c:	3e32eec8 	cdpcc	14, 3, cr14, cr2, cr8, {6}
   1d3a0:	3e33b4b3 	mrccc	4, 1, fp, cr3, cr3, {5}
   1d3a4:	3e347a9e 	mrccc	10, 1, r7, cr4, cr14, {4}
   1d3a8:	3e354089 	cdpcc	0, 3, cr4, cr5, cr9, {4}
   1d3ac:	3e360675 	mrccc	6, 1, r0, cr6, cr5, {3}
   1d3b0:	3e36cc60 	cdpcc	12, 3, cr12, cr6, cr0, {3}
   1d3b4:	3e379208 	cdpcc	2, 3, cr9, cr7, cr8, {0}
   1d3b8:	3e3857f3 	mrccc	7, 1, r5, cr8, cr3, {7}
   1d3bc:	3e391d9b 	mrccc	13, 1, r1, cr9, cr11, {4}
   1d3c0:	3e39e386 	cdpcc	3, 3, cr14, cr9, cr6, {4}
   1d3c4:	3e3aa92e 	cdpcc	9, 3, cr10, cr10, cr14, {1}
   1d3c8:	3e3b6ed6 	mrccc	14, 1, r6, cr11, cr6, {6}
   1d3cc:	3e3c347f 	mrccc	4, 1, r3, cr12, cr15, {3}
   1d3d0:	3e3cfa27 	vaddcc.f32	s30, s24, s15
   1d3d4:	3e3dbf8c 	cdpcc	15, 3, cr11, cr13, cr12, {4}
   1d3d8:	3e3e8534 	mrccc	5, 1, r8, cr14, cr4, {1}
   1d3dc:	3e3f4adc 	mrccc	10, 1, r4, cr15, cr12, {6}
   1d3e0:	3e401041 	cdpcc	0, 4, cr1, cr0, cr1, {2}
   1d3e4:	3e40d5a6 	cdpcc	5, 4, cr13, cr0, cr6, {5}
   1d3e8:	3e419b4e 	vmlscc.f64	d25, d1, d14
   1d3ec:	3e4260b3 	mcrcc	0, 2, r6, cr2, cr3, {5}
   1d3f0:	3e432618 	mcrcc	6, 2, r2, cr3, cr8, {0}
   1d3f4:	3e43eb7d 	vmovcc.8	d3[3], lr
   1d3f8:	3e44b09f 	mcrcc	0, 2, fp, cr4, cr15, {4}
   1d3fc:	3e457604 	cdpcc	6, 4, cr7, cr5, cr4, {0}
   1d400:	3e463b69 	vmlscc.f64	d19, d6, d25
   1d404:	3e47008a 	cdpcc	0, 4, cr0, cr7, cr10, {4}
   1d408:	3e47c5ac 	cdpcc	5, 4, cr12, cr7, cr12, {5}
   1d40c:	3e488b11 	vmovcc.8	d8[0], r8
   1d410:	3e495033 	mcrcc	0, 2, r5, cr9, cr3, {1}
   1d414:	3e4a1555 	mcrcc	5, 2, r1, cr10, cr5, {2}
   1d418:	3e4ada34 	mcrcc	10, 2, sp, cr10, cr4, {1}
   1d41c:	3e4b9f56 	mcrcc	15, 2, r9, cr11, cr6, {2}
   1d420:	3e4c6477 	mcrcc	4, 2, r6, cr12, cr7, {3}
   1d424:	3e4d2956 	mcrcc	9, 2, r2, cr13, cr6, {2}
   1d428:	3e4dee78 	mcrcc	14, 2, lr, cr13, cr8, {3}
   1d42c:	3e4eb357 	mcrcc	3, 2, fp, cr14, cr7, {2}
   1d430:	3e4f7836 	mcrcc	8, 2, r7, cr15, cr6, {1}
   1d434:	3e503d14 	mrccc	13, 2, r3, cr0, cr4, {0}
   1d438:	3e5101f3 	mrccc	1, 2, r0, cr1, cr3, {7}
   1d43c:	3e51c6d2 	mrccc	6, 2, ip, cr1, cr2, {6}
   1d440:	3e528b6e 	vnmlacc.f64	d24, d2, d30
   1d444:	3e53504c 	cdpcc	0, 5, cr5, cr3, cr12, {2}
   1d448:	3e5414e8 	cdpcc	4, 5, cr1, cr4, cr8, {7}
   1d44c:	3e54d9c7 	cdpcc	9, 5, cr13, cr4, cr7, {6}
   1d450:	3e559e62 	cdpcc	14, 5, cr9, cr5, cr2, {3}
   1d454:	3e5662fe 	mrccc	2, 2, r6, cr6, cr14, {7}
   1d458:	3e57279a 	mrccc	7, 2, r2, cr7, cr10, {4}
   1d45c:	3e57ec35 	mrccc	12, 2, lr, cr7, cr5, {1}
   1d460:	3e58b08e 	cdpcc	0, 5, cr11, cr8, cr14, {4}
   1d464:	3e597529 	cdpcc	5, 5, cr7, cr9, cr9, {1}
   1d468:	3e5a3982 	cdpcc	9, 5, cr3, cr10, cr2, {4}
   1d46c:	3e5afe1e 	mrccc	14, 2, APSR_nzcv, cr10, cr14, {0}
   1d470:	3e5bc276 	mrccc	2, 2, ip, cr11, cr6, {3}
   1d474:	3e5c86cf 	cdpcc	6, 5, cr8, cr12, cr15, {6}
   1d478:	3e5d4b27 	vnmlscc.f64	d20, d13, d23
   1d47c:	3e5e0f80 	cdpcc	15, 5, cr0, cr14, cr0, {4}
   1d480:	3e5ed395 	mrccc	3, 2, sp, cr14, cr5, {4}
   1d484:	3e5f97ee 	cdpcc	7, 5, cr9, cr15, cr14, {7}
   1d488:	3e605c03 	cdpcc	12, 6, cr5, cr0, cr3, {0}
   1d48c:	3e61205c 	mcrcc	0, 3, r2, cr1, cr12, {2}
   1d490:	3e61e471 	mcrcc	4, 3, lr, cr1, cr1, {3}
   1d494:	3e62a887 	cdpcc	8, 6, cr10, cr2, cr7, {4}
   1d498:	3e636c9c 	mcrcc	12, 3, r6, cr3, cr12, {4}
   1d49c:	3e64306e 	cdpcc	0, 6, cr3, cr4, cr14, {3}
   1d4a0:	3e64f484 	cdpcc	4, 6, cr15, cr4, cr4, {4}
   1d4a4:	3e65b899 	mcrcc	8, 3, fp, cr5, cr9, {4}
   1d4a8:	3e667c6c 	cdpcc	12, 6, cr7, cr6, cr12, {3}
   1d4ac:	3e67403e 	mcrcc	0, 3, r4, cr7, cr14, {1}
   1d4b0:	3e680410 	mcrcc	4, 3, r0, cr8, cr0, {0}
   1d4b4:	3e68c7e3 	cdpcc	7, 6, cr12, cr8, cr3, {7}
   1d4b8:	3e698bb5 	vmovcc.8	d25[5], r8
   1d4bc:	3e6a4f87 	cdpcc	15, 6, cr4, cr10, cr7, {4}
   1d4c0:	3e6b1316 	mcrcc	3, 3, r1, cr11, cr6, {0}
   1d4c4:	3e6bd6e9 	cdpcc	6, 6, cr13, cr11, cr9, {7}
   1d4c8:	3e6c9a78 	mcrcc	10, 3, r9, cr12, cr8, {3}
   1d4cc:	3e6d5e07 	cdpcc	14, 6, cr5, cr13, cr7, {0}
   1d4d0:	3e6e2196 	mcrcc	1, 3, r2, cr14, cr6, {4}
   1d4d4:	3e6ee526 	cdpcc	5, 6, cr14, cr14, cr6, {1}
   1d4d8:	3e6fa8b5 	mcrcc	8, 3, sl, cr15, cr5, {5}
   1d4dc:	3e706c44 	cdpcc	12, 7, cr6, cr0, cr4, {2}
   1d4e0:	3e712f90 	mrccc	15, 3, r2, cr1, cr0, {4}
   1d4e4:	3e71f2dc 	mrccc	2, 3, APSR_nzcv, cr1, cr12, {6}
   1d4e8:	3e72b66b 	cdpcc	6, 7, cr11, cr2, cr11, {3}
   1d4ec:	3e7379b7 	mrccc	9, 3, r7, cr3, cr7, {5}
   1d4f0:	3e743d04 	cdpcc	13, 7, cr3, cr4, cr4, {0}
   1d4f4:	3e75000d 	cdpcc	0, 7, cr0, cr5, cr13, {0}
   1d4f8:	3e75c359 	mrccc	3, 3, ip, cr5, cr9, {2}
   1d4fc:	3e7686a5 	cdpcc	6, 7, cr8, cr6, cr5, {5}
   1d500:	3e7749ae 	cdpcc	9, 7, cr4, cr7, cr14, {5}
   1d504:	3e780cb7 	mrccc	12, 3, r0, cr8, cr7, {5}
   1d508:	3e78cfc0 	cdpcc	15, 7, cr12, cr8, cr0, {6}
   1d50c:	3e7992c9 	cdpcc	2, 7, cr9, cr9, cr9, {6}
   1d510:	3e7a55d2 	mrccc	5, 3, r5, cr10, cr2, {6}
   1d514:	3e7b18db 	mrccc	8, 3, r1, cr11, cr11, {6}
   1d518:	3e7bdba1 	vaddcc.f64	d29, d27, d17
   1d51c:	3e7c9e67 	cdpcc	14, 7, cr9, cr12, cr7, {3}
   1d520:	3e7d6170 	mrccc	1, 3, r6, cr13, cr0, {3}
   1d524:	3e7e2435 	mrccc	4, 3, r2, cr14, cr5, {1}
   1d528:	3e7ee6fb 	mrccc	6, 3, lr, cr14, cr11, {7}
   1d52c:	3e7fa97e 	mrccc	9, 3, sl, cr15, cr14, {3}
   1d530:	3e803622 	cdpcc	6, 8, cr3, cr0, cr2, {1}
   1d534:	3e809763 	cdpcc	7, 8, cr9, cr0, cr3, {3}
   1d538:	3e80f8c6 	cdpcc	8, 8, cr15, cr0, cr6, {6}
   1d53c:	3e815a08 	vdivcc.f32	s10, s2, s16
   1d540:	3e81bb49 	cdpcc	11, 8, cr11, cr1, cr9, {2}
   1d544:	3e821c8a 	cdpcc	12, 8, cr1, cr2, cr10, {4}
   1d548:	3e827dcc 	cdpcc	13, 8, cr7, cr2, cr12, {6}
   1d54c:	3e82deec 	cdpcc	14, 8, cr13, cr2, cr12, {7}
   1d550:	3e83402d 	cdpcc	0, 8, cr4, cr3, cr13, {1}
   1d554:	3e83a14d 	sinccsm	f2, #5.0
   1d558:	3e84026d 	cdpcc	2, 8, cr0, cr4, cr13, {3}
   1d55c:	3e84638d 	cdpcc	3, 8, cr6, cr4, cr13, {4}
   1d560:	3e84c4ac 	cdpcc	4, 8, cr12, cr4, cr12, {5}
   1d564:	3e8525cc 	cdpcc	5, 8, cr2, cr5, cr12, {6}
   1d568:	3e8586cb 	cdpcc	6, 8, cr8, cr5, cr11, {6}
   1d56c:	3e85e7c9 	cdpcc	7, 8, cr14, cr5, cr9, {6}
   1d570:	3e8648e9 	cdpcc	8, 8, cr4, cr6, cr9, {7}
   1d574:	3e86a9e7 	cdpcc	9, 8, cr10, cr6, cr7, {7}
   1d578:	3e870ae5 	cdpcc	10, 8, cr0, cr7, cr5, {7}
   1d57c:	3e876bc2 	cdpcc	11, 8, cr6, cr7, cr2, {6}
   1d580:	3e87ccc0 	cdpcc	12, 8, cr12, cr7, cr0, {6}
   1d584:	3e882d9d 	mcrcc	13, 4, r2, cr8, cr13, {4}
   1d588:	3e888e9b 	mcrcc	14, 4, r8, cr8, cr11, {4}
   1d58c:	3e88ef78 	mcrcc	15, 4, lr, cr8, cr8, {3}
   1d590:	3e895055 	mcrcc	0, 4, r5, cr9, cr5, {2}
   1d594:	3e89b131 	mcrcc	1, 4, fp, cr9, cr1, {1}
   1d598:	3e8a11ed 	rmfcc<illegal precision>z	f1, f2, #5.0
   1d59c:	3e8a72c9 	cdpcc	2, 8, cr7, cr10, cr9, {6}
   1d5a0:	3e8ad384 	cdpcc	3, 8, cr13, cr10, cr4, {4}
   1d5a4:	3e8b3440 	cdpcc	4, 8, cr3, cr11, cr0, {2}
   1d5a8:	3e8b94fb 	mcrcc	4, 4, r9, cr11, cr11, {7}
   1d5ac:	3e8bf5b6 	mcrcc	5, 4, pc, cr11, cr6, {5}	; <UNPREDICTABLE>
   1d5b0:	3e8c5671 	mcrcc	6, 4, r5, cr12, cr1, {3}
   1d5b4:	3e8cb70b 	cdpcc	7, 8, cr11, cr12, cr11, {0}
   1d5b8:	3e8d17c6 	cdpcc	7, 8, cr1, cr13, cr6, {6}
   1d5bc:	3e8d7860 	cdpcc	8, 8, cr7, cr13, cr0, {3}
   1d5c0:	3e8dd8f9 	mcrcc	8, 4, sp, cr13, cr9, {7}
   1d5c4:	3e8e3993 	mcrcc	9, 4, r3, cr14, cr3, {4}
   1d5c8:	3e8e9a2c 	vdivcc.f32	s18, s28, s25
   1d5cc:	3e8efaa4 	vdivcc.f32	s30, s29, s9
   1d5d0:	3e8f5b3e 	vdupcc.16	d15, r5
   1d5d4:	3e8fbbb6 	vdupcc.16	d31, fp
   1d5d8:	3e901c2e 	cdpcc	12, 9, cr1, cr0, cr14, {1}
   1d5dc:	3e907ca6 	cdpcc	12, 9, cr7, cr0, cr6, {5}
   1d5e0:	3e90dd1e 	mrccc	13, 4, sp, cr0, cr14, {0}
   1d5e4:	3e913d75 	mrccc	13, 4, r3, cr1, cr5, {3}
   1d5e8:	3e919ded 	cdpcc	13, 9, cr9, cr1, cr13, {7}
   1d5ec:	3e91fe43 	cdpcc	14, 9, cr15, cr1, cr3, {2}
   1d5f0:	3e925e9a 	mrccc	14, 4, r5, cr2, cr10, {4}
   1d5f4:	3e92bef0 	mrccc	14, 4, fp, cr2, cr0, {7}
   1d5f8:	3e931f25 	cdpcc	15, 9, cr1, cr3, cr5, {1}
   1d5fc:	3e937f7c 	mrccc	15, 4, r7, cr3, cr12, {3}
   1d600:	3e93dfb1 	mrccc	15, 4, sp, cr3, cr1, {5}
   1d604:	3e944007 	cdpcc	0, 9, cr4, cr4, cr7, {0}
   1d608:	3e94a03c 	mrccc	0, 4, sl, cr4, cr12, {1}
   1d60c:	3e950071 	mrccc	0, 4, r0, cr5, cr1, {3}
   1d610:	3e956085 	cdpcc	0, 9, cr6, cr5, cr5, {4}
   1d614:	3e95c0ba 	mrccc	0, 4, ip, cr5, cr10, {5}
   1d618:	3e9620cd 	cdpcc	0, 9, cr2, cr6, cr13, {6}
   1d61c:	3e9680e0 	cdpcc	0, 9, cr8, cr6, cr0, {7}
   1d620:	3e96e0f4 	mrccc	0, 4, lr, cr6, cr4, {7}
   1d624:	3e974107 	fmlccs	f4, f7, f7
   1d628:	3e97a11b 	mrccc	1, 4, sl, cr7, cr11, {0}
   1d62c:	3e98010c 	fmlcce	f0, f0, #4.0
   1d630:	3e986120 	fmlccep	f6, f0, f0
   1d634:	3e98c112 	mrccc	1, 4, ip, cr8, cr2, {0}
   1d638:	3e992104 	fmlcce	f2, f1, f4
   1d63c:	3e9980f5 	mrccc	0, 4, r8, cr9, cr5, {7}
   1d640:	3e99e0c6 	cdpcc	0, 9, cr14, cr9, cr6, {6}
   1d644:	3e9a40b8 	mrccc	0, 4, r4, cr10, cr8, {5}
   1d648:	3e9aa088 	cdpcc	0, 9, cr10, cr10, cr8, {4}
   1d64c:	3e9b0058 	mrccc	0, 4, r0, cr11, cr8, {2}
   1d650:	3e9b6028 	cdpcc	0, 9, cr6, cr11, cr8, {1}
   1d654:	3e9bbff9 	mrccc	15, 4, fp, cr11, cr9, {7}
   1d658:	3e9c1fa7 	cdpcc	15, 9, cr1, cr12, cr7, {5}
   1d65c:	3e9c7f78 	mrccc	15, 4, r7, cr12, cr8, {3}
   1d660:	3e9cdf26 	cdpcc	15, 9, cr13, cr12, cr6, {1}
   1d664:	3e9d3ed5 	mrccc	14, 4, r3, cr13, cr5, {6}
   1d668:	3e9d9e84 	cdpcc	14, 9, cr9, cr13, cr4, {4}
   1d66c:	3e9dfe11 	mrccc	14, 4, APSR_nzcv, cr13, cr1, {0}
   1d670:	3e9e5dc0 	cdpcc	13, 9, cr5, cr14, cr0, {6}
   1d674:	3e9ebd4d 	cdpcc	13, 9, cr11, cr14, cr13, {2}
   1d678:	3e9f1cda 	mrccc	12, 4, r1, cr15, cr10, {6}
   1d67c:	3e9f7c67 	cdpcc	12, 9, cr7, cr15, cr7, {3}
   1d680:	3e9fdbf5 	vmovcc.u16	sp, d31[1]
   1d684:	3ea03b60 	vfmscc.f64	d3, d0, d16
   1d688:	3ea09aed 	vfmscc.f32	s18, s1, s27
   1d68c:	3ea0fa59 	mcrcc	10, 5, pc, cr0, cr9, {2}	; <UNPREDICTABLE>
   1d690:	3ea159c5 	cdpcc	9, 10, cr5, cr1, cr5, {6}
   1d694:	3ea1b930 	mcrcc	9, 5, fp, cr1, cr0, {1}
   1d698:	3ea2187a 	mcrcc	8, 5, r1, cr2, cr10, {3}
   1d69c:	3ea277e6 	cdpcc	7, 10, cr7, cr2, cr6, {7}
   1d6a0:	3ea2d730 	mcrcc	7, 5, sp, cr2, cr0, {1}
   1d6a4:	3ea3367a 	mcrcc	6, 5, r3, cr3, cr10, {3}
   1d6a8:	3ea395c4 	cdpcc	5, 10, cr9, cr3, cr4, {6}
   1d6ac:	3ea3f50e 	cdpcc	5, 10, cr15, cr3, cr14, {0}
   1d6b0:	3ea45437 	mcrcc	4, 5, r5, cr4, cr7, {1}
   1d6b4:	3ea4b381 	cdpcc	3, 10, cr11, cr4, cr1, {4}
   1d6b8:	3ea512a9 	cdpcc	2, 10, cr1, cr5, cr9, {5}
   1d6bc:	3ea571d2 	mcrcc	1, 5, r7, cr5, cr2, {6}
   1d6c0:	3ea5d0d9 	mcrcc	0, 5, sp, cr5, cr9, {6}
   1d6c4:	3ea63001 	cdpcc	0, 10, cr3, cr6, cr1, {0}
   1d6c8:	3ea68f08 	cdpcc	15, 10, cr8, cr6, cr8, {0}
   1d6cc:	3ea6ee0f 	cdpcc	14, 10, cr14, cr6, cr15, {0}
   1d6d0:	3ea74d16 	mcrcc	13, 5, r4, cr7, cr6, {0}
   1d6d4:	3ea7ac1d 	mcrcc	12, 5, sl, cr7, cr13, {0}
   1d6d8:	3ea80b24 	vfmacc.f64	d0, d8, d20
   1d6dc:	3ea86a0a 	vfmacc.f32	s12, s16, s20
   1d6e0:	3ea8c8ef 	cdpcc	8, 10, cr12, cr8, cr15, {7}
   1d6e4:	3ea927d4 	mcrcc	7, 5, r2, cr9, cr4, {6}
   1d6e8:	3ea986ba 	mcrcc	6, 5, r8, cr9, cr10, {5}
   1d6ec:	3ea9e59f 	mcrcc	5, 5, lr, cr9, cr15, {4}
   1d6f0:	3eaa4463 	cdpcc	4, 10, cr4, cr10, cr3, {3}
   1d6f4:	3eaaa348 	cdpcc	3, 10, cr10, cr10, cr8, {2}
   1d6f8:	3eab020c 	cdpcc	2, 10, cr0, cr11, cr12, {0}
   1d6fc:	3eab60af 	cdpcc	0, 10, cr6, cr11, cr15, {5}
   1d700:	3eabbf72 	mcrcc	15, 5, fp, cr11, cr2, {3}
   1d704:	3eac1e36 	mcrcc	14, 5, r1, cr12, cr6, {1}
   1d708:	3eac7cd9 	mcrcc	12, 5, r7, cr12, cr9, {6}
   1d70c:	3eacdb7b 	mcrcc	11, 5, sp, cr12, cr11, {3}
   1d710:	3ead3a1d 	mcrcc	10, 5, r3, cr13, cr13, {0}
   1d714:	3ead989e 	mcrcc	8, 5, r9, cr13, cr14, {4}
   1d718:	3eadf740 	cdpcc	7, 10, cr15, cr13, cr0, {2}
   1d71c:	3eae55c1 	cdpcc	5, 10, cr5, cr14, cr1, {6}
   1d720:	3eaeb442 	cdpcc	4, 10, cr11, cr14, cr2, {2}
   1d724:	3eaf12c2 	cdpcc	2, 10, cr1, cr15, cr2, {6}
   1d728:	3eaf7143 	fdvccem	f7, f7, f3
   1d72c:	3eafcfa2 	cdpcc	15, 10, cr12, cr15, cr2, {5}
   1d730:	3eb02e02 	cdpcc	14, 11, cr2, cr0, cr2, {0}
   1d734:	3eb08c61 	cdpcc	12, 11, cr8, cr0, cr1, {3}
   1d738:	3eb0eac0 	vabscc.f32	s28, s0
   1d73c:	3eb1491f 	mrccc	9, 5, r4, cr1, cr15, {0}
   1d740:	3eb1a75d 	mrccc	7, 5, sl, cr1, cr13, {2}
   1d744:	3eb205bc 	mrccc	5, 5, r0, cr2, cr12, {5}
   1d748:	3eb263fa 	mrccc	3, 5, r6, cr2, cr10, {7}
   1d74c:	3eb2c237 	mrccc	2, 5, ip, cr2, cr7, {1}
   1d750:	3eb32053 	mrccc	0, 5, r2, cr3, cr3, {2}
   1d754:	3eb37e91 	mrccc	14, 5, r7, cr3, cr1, {4}
   1d758:	3eb3dcad 	cdpcc	12, 11, cr13, cr3, cr13, {5}
   1d75c:	3eb43ac9 	vcmpecc.f32	s6, s18
   1d760:	3eb498e5 	cdpcc	8, 11, cr9, cr4, cr5, {7}
   1d764:	3eb4f6e0 	cdpcc	6, 11, cr15, cr4, cr0, {7}
   1d768:	3eb554fc 	mrccc	4, 5, r5, cr5, cr12, {7}
   1d76c:	3eb5b2f6 	mrccc	2, 5, fp, cr5, cr6, {7}
   1d770:	3eb610f1 	mrccc	0, 5, r1, cr6, cr1, {7}
   1d774:	3eb66eca 	cdpcc	14, 11, cr6, cr6, cr10, {6}
   1d778:	3eb6ccc4 	cdpcc	12, 11, cr12, cr6, cr4, {6}
   1d77c:	3eb72a9d 	mrccc	10, 5, r2, cr7, cr13, {4}
   1d780:	3eb78876 	mrccc	8, 5, r8, cr7, cr6, {3}
   1d784:	3eb7e64f 	cdpcc	6, 11, cr14, cr7, cr15, {2}
   1d788:	3eb84428 	cdpcc	4, 11, cr4, cr8, cr8, {1}
   1d78c:	3eb8a201 	cdpcc	2, 11, cr10, cr8, cr1, {0}
   1d790:	3eb8ffb9 	mrccc	15, 5, APSR_nzcv, cr8, cr9, {5}
   1d794:	3eb95d70 	mrccc	13, 5, r5, cr9, cr0, {3}
   1d798:	3eb9bb28 	cdpcc	11, 11, cr11, cr9, cr8, {1}
   1d79c:	3eba18bd 	mrccc	8, 5, r1, cr10, cr13, {5}
   1d7a0:	3eba7675 	mrccc	6, 5, r7, cr10, cr5, {3}
   1d7a4:	3ebad40b 	cdpcc	4, 11, cr13, cr10, cr11, {0}
   1d7a8:	3ebb31a1 	frdcc<illegal precision>p	f3, f3, f1
   1d7ac:	3ebb8f36 	mrccc	15, 5, r8, cr11, cr6, {1}
   1d7b0:	3ebbecab 	cdpcc	12, 11, cr14, cr11, cr11, {5}
   1d7b4:	3ebc4a41 	vcvtrcc.u32.f32	s8, s2
   1d7b8:	3ebca7b5 	mrccc	7, 5, sl, cr12, cr5, {5}
   1d7bc:	3ebd0529 	cdpcc	5, 11, cr0, cr13, cr9, {1}
   1d7c0:	3ebd627c 	mrccc	2, 5, r6, cr13, cr12, {3}
   1d7c4:	3ebdbff0 	mrccc	15, 5, fp, cr13, cr0, {7}
   1d7c8:	3ebe1d43 	cdpcc	13, 11, cr1, cr14, cr3, {2}
   1d7cc:	3ebe7a96 	mrccc	10, 5, r7, cr14, cr6, {4}
   1d7d0:	3ebed7e9 	cdpcc	7, 11, cr13, cr14, cr9, {7}
   1d7d4:	3ebf353b 	mrccc	5, 5, r3, cr15, cr11, {1}
   1d7d8:	3ebf926c 	cdpcc	2, 11, cr9, cr15, cr12, {3}
   1d7dc:	3ebfef9e 	mrccc	15, 5, lr, cr15, cr14, {4}
   1d7e0:	3ec04ccf 	cdpcc	12, 12, cr4, cr0, cr15, {6}
   1d7e4:	3ec0aa00 	vdivcc.f32	s21, s0, s0
   1d7e8:	3ec10710 	mcrcc	7, 6, r0, cr1, cr0, {0}
   1d7ec:	3ec16441 	cdpcc	4, 12, cr6, cr1, cr1, {2}
   1d7f0:	3ec1c151 	mcrcc	1, 6, ip, cr1, cr1, {2}
   1d7f4:	3ec21e60 	cdpcc	14, 12, cr1, cr2, cr0, {3}
   1d7f8:	3ec27b4e 	cdpcc	11, 12, cr7, cr2, cr14, {2}
   1d7fc:	3ec2d85e 	mcrcc	8, 6, sp, cr2, cr14, {2}
   1d800:	3ec3354c 	cdpcc	5, 12, cr3, cr3, cr12, {2}
   1d804:	3ec3923a 	mcrcc	2, 6, r9, cr3, cr10, {1}
   1d808:	3ec3ef07 	cdpcc	15, 12, cr14, cr3, cr7, {0}
   1d80c:	3ec44bf5 	mcrcc	11, 6, r4, cr4, cr5, {7}
   1d810:	3ec4a8c1 	cdpcc	8, 12, cr10, cr4, cr1, {6}
   1d814:	3ec5058e 	cdpcc	5, 12, cr0, cr5, cr14, {4}
   1d818:	3ec5625a 	mcrcc	2, 6, r6, cr5, cr10, {2}
   1d81c:	3ec5bf27 	cdpcc	15, 12, cr11, cr5, cr7, {1}
   1d820:	3ec61bd2 	mcrcc	11, 6, r1, cr6, cr2, {6}
   1d824:	3ec6787d 	mcrcc	8, 6, r7, cr6, cr13, {3}
   1d828:	3ec6d528 	cdpcc	5, 12, cr13, cr6, cr8, {1}
   1d82c:	3ec731d3 	mcrcc	1, 6, r3, cr7, cr3, {6}
   1d830:	3ec78e5c 	mcrcc	14, 6, r8, cr7, cr12, {2}
   1d834:	3ec7eae6 	cdpcc	10, 12, cr14, cr7, cr6, {7}
   1d838:	3ec8476f 	cdpcc	7, 12, cr4, cr8, cr15, {3}
   1d83c:	3ec8a3f9 	mcrcc	3, 6, sl, cr8, cr9, {7}
   1d840:	3ec90082 	cdpcc	0, 12, cr0, cr9, cr2, {4}
   1d844:	3ec95cea 	cdpcc	12, 12, cr5, cr9, cr10, {7}
   1d848:	3ec9b952 	mcrcc	9, 6, fp, cr9, cr2, {2}
   1d84c:	3eca15ba 	mcrcc	5, 6, r1, cr10, cr10, {5}
   1d850:	3eca7200 	cdpcc	2, 12, cr7, cr10, cr0, {0}
   1d854:	3ecace68 	cdpcc	14, 12, cr12, cr10, cr8, {3}
   1d858:	3ecb2aae 	vdivcc.f32	s5, s23, s29
   1d85c:	3ecb86f4 	mcrcc	6, 6, r8, cr11, cr4, {7}
   1d860:	3ecbe33b 	mcrcc	3, 6, lr, cr11, cr11, {1}
   1d864:	3ecc3f60 	cdpcc	15, 12, cr3, cr12, cr0, {3}
   1d868:	3ecc9b84 	vdivcc.f64	d25, d28, d4
   1d86c:	3eccf7a9 	cdpcc	7, 12, cr15, cr12, cr9, {5}
   1d870:	3ecd53ce 	cdpcc	3, 12, cr5, cr13, cr14, {6}
   1d874:	3ecdafd1 	mcrcc	15, 6, sl, cr13, cr1, {6}
   1d878:	3ece0bf6 	mcrcc	11, 6, r0, cr14, cr6, {7}
   1d87c:	3ece67f9 	mcrcc	7, 6, r6, cr14, cr9, {7}
   1d880:	3ecec3db 	mcrcc	3, 6, ip, cr14, cr11, {6}
   1d884:	3ecf1fde 	mcrcc	15, 6, r1, cr15, cr14, {6}
   1d888:	3ecf7bc0 	cdpcc	11, 12, cr7, cr15, cr0, {6}
   1d88c:	3ecfd7a1 	cdpcc	7, 12, cr13, cr15, cr1, {5}
   1d890:	3ed03383 	cdpcc	3, 13, cr3, cr0, cr3, {4}
   1d894:	3ed08f65 	cdpcc	15, 13, cr8, cr0, cr5, {3}
   1d898:	3ed0eb25 	vfnmscc.f64	d30, d0, d21
   1d89c:	3ed146e5 	cdpcc	6, 13, cr4, cr1, cr5, {7}
   1d8a0:	3ed1a2a5 	cdpcc	2, 13, cr10, cr1, cr5, {5}
   1d8a4:	3ed1fe65 	cdpcc	14, 13, cr15, cr1, cr5, {3}
   1d8a8:	3ed25a04 	vfnmscc.f32	s11, s4, s8
   1d8ac:	3ed2b5a2 	cdpcc	5, 13, cr11, cr2, cr2, {5}
   1d8b0:	3ed31141 	cdpcc	1, 13, cr1, cr3, cr1, {2}
   1d8b4:	3ed36cdf 	mrccc	12, 6, r6, cr3, cr15, {6}
   1d8b8:	3ed3c85c 	mrccc	8, 6, ip, cr3, cr12, {2}
   1d8bc:	3ed423d9 	mrccc	3, 6, r2, cr4, cr9, {6}
   1d8c0:	3ed47f56 	mrccc	15, 6, r7, cr4, cr6, {2}
   1d8c4:	3ed4dad3 	mrccc	10, 6, sp, cr4, cr3, {6}
   1d8c8:	3ed53650 	mrccc	6, 6, r3, cr5, cr0, {2}
   1d8cc:	3ed591ac 	atnccdp	f1, #4.0
   1d8d0:	3ed5ed07 	cdpcc	13, 13, cr14, cr5, cr7, {0}
   1d8d4:	3ed64841 	cdpcc	8, 13, cr4, cr6, cr1, {2}
   1d8d8:	3ed6a39c 	mrccc	3, 6, sl, cr6, cr12, {4}
   1d8dc:	3ed6fed6 	mrccc	14, 6, APSR_nzcv, cr6, cr6, {6}
   1d8e0:	3ed75a10 	mrccc	10, 6, r5, cr7, cr0, {0}
   1d8e4:	3ed7b54a 	cdpcc	5, 13, cr11, cr7, cr10, {2}
   1d8e8:	3ed81062 	cdpcc	0, 13, cr1, cr8, cr2, {3}
   1d8ec:	3ed86b7b 	vmovcc.u8	r6, d8[3]
   1d8f0:	3ed8c693 	mrccc	6, 6, ip, cr8, cr3, {4}
   1d8f4:	3ed921ab 	cdpcc	1, 13, cr2, cr9, cr11, {5}
   1d8f8:	3ed97cc4 	cdpcc	12, 13, cr7, cr9, cr4, {6}
   1d8fc:	3ed9d7ba 	mrccc	7, 6, sp, cr9, cr10, {5}
   1d900:	3eda32b1 	mrccc	2, 6, r3, cr10, cr1, {5}
   1d904:	3eda8da8 	cdpcc	13, 13, cr8, cr10, cr8, {5}
   1d908:	3edae87d 	mrccc	8, 6, lr, cr10, cr13, {3}
   1d90c:	3edb4352 	mrccc	3, 6, r4, cr11, cr2, {2}
   1d910:	3edb9e28 	cdpcc	14, 13, cr9, cr11, cr8, {1}
   1d914:	3edbf8fd 	mrccc	8, 6, APSR_nzcv, cr11, cr13, {7}
   1d918:	3edc53b1 	mrccc	3, 6, r5, cr12, cr1, {5}
   1d91c:	3edcae86 	cdpcc	14, 13, cr10, cr12, cr6, {4}
   1d920:	3edd0939 	mrccc	9, 6, r0, cr13, cr9, {1}
   1d924:	3edd63cc 	cdpcc	3, 13, cr6, cr13, cr12, {6}
   1d928:	3eddbe7f 	mrccc	14, 6, fp, cr13, cr15, {3}
   1d92c:	3ede1911 	mrccc	9, 6, r1, cr14, cr1, {0}
   1d930:	3ede73a3 	cdpcc	3, 13, cr7, cr14, cr3, {5}
   1d934:	3edece36 	mrccc	14, 6, ip, cr14, cr6, {1}
   1d938:	3edf28a6 	cdpcc	8, 13, cr2, cr15, cr6, {5}
   1d93c:	3edf8317 	mrccc	3, 6, r8, cr15, cr7, {0}
   1d940:	3edfdd87 	cdpcc	13, 13, cr13, cr15, cr7, {4}
   1d944:	3ee037f8 	mcrcc	7, 7, r3, cr0, cr8, {7}
   1d948:	3ee09247 	cdpcc	2, 14, cr9, cr0, cr7, {2}
   1d94c:	3ee0ec96 	mcrcc	12, 7, lr, cr0, cr6, {4}
   1d950:	3ee146e5 	cdpcc	6, 14, cr4, cr1, cr5, {7}
   1d954:	3ee1a134 	mcrcc	1, 7, sl, cr1, cr4, {1}
   1d958:	3ee1fb61 	vfmscc.f64	d31, d1, d17
   1d95c:	3ee2558f 	cdpcc	5, 14, cr5, cr2, cr15, {4}
   1d960:	3ee2afbc 	mcrcc	15, 7, sl, cr2, cr12, {5}
   1d964:	3ee309ea 	cdpcc	9, 14, cr0, cr3, cr10, {7}
   1d968:	3ee363f5 	mcrcc	3, 7, r6, cr3, cr5, {7}
   1d96c:	3ee3be01 	cdpcc	14, 14, cr11, cr3, cr1, {0}
   1d970:	3ee4180d 	cdpcc	8, 14, cr1, cr4, cr13, {0}
   1d974:	3ee47219 	mcrcc	2, 7, r7, cr4, cr9, {0}
   1d978:	3ee4cc03 	cdpcc	12, 14, cr12, cr4, cr3, {0}
   1d97c:	3ee525ee 	cdpcc	5, 14, cr2, cr5, cr14, {7}
   1d980:	3ee57fd8 	mcrcc	15, 7, r7, cr5, cr8, {6}
   1d984:	3ee5d9a1 	cdpcc	9, 14, cr13, cr5, cr1, {5}
   1d988:	3ee6336a 	cdpcc	3, 14, cr3, cr6, cr10, {3}
   1d98c:	3ee68d33 	mcrcc	13, 7, r8, cr6, cr3, {1}
   1d990:	3ee6e6fb 	mcrcc	6, 7, lr, cr6, cr11, {7}
   1d994:	3ee740a3 	cdpcc	0, 14, cr4, cr7, cr3, {5}
   1d998:	3ee79a6b 	vfmscc.f32	s19, s14, s23
   1d99c:	3ee7f3f1 	mcrcc	3, 7, pc, cr7, cr1, {7}	; <UNPREDICTABLE>
   1d9a0:	3ee84d98 	mcrcc	13, 7, r4, cr8, cr8, {4}
   1d9a4:	3ee8a71e 	mcrcc	7, 7, sl, cr8, cr14, {0}
   1d9a8:	3ee900c5 	cdpcc	0, 14, cr0, cr9, cr5, {6}
   1d9ac:	3ee95a29 	vfmacc.f32	s11, s18, s19
   1d9b0:	3ee9b3af 	cdpcc	3, 14, cr11, cr9, cr15, {5}
   1d9b4:	3eea0d13 	mcrcc	13, 7, r0, cr10, cr3, {0}
   1d9b8:	3eea6677 	mcrcc	6, 7, r6, cr10, cr7, {3}
   1d9bc:	3eeabfdb 	mcrcc	15, 7, fp, cr10, cr11, {6}
   1d9c0:	3eeb193f 	mcrcc	9, 7, r1, cr11, cr15, {1}
   1d9c4:	3eeb7282 	cdpcc	2, 14, cr7, cr11, cr2, {4}
   1d9c8:	3eebcbc5 	vfmscc.f64	d28, d27, d5
   1d9cc:	3eec24e6 	cdpcc	4, 14, cr2, cr12, cr6, {7}
   1d9d0:	3eec7e28 	cdpcc	14, 14, cr7, cr12, cr8, {1}
   1d9d4:	3eecd749 	cdpcc	7, 14, cr13, cr12, cr9, {2}
   1d9d8:	3eed306a 	cdpcc	0, 14, cr3, cr13, cr10, {3}
   1d9dc:	3eed896a 	cdpcc	9, 14, cr8, cr13, cr10, {3}
   1d9e0:	3eede28b 	cdpcc	2, 14, cr14, cr13, cr11, {4}
   1d9e4:	3eee3b8a 	vfmacc.f64	d19, d30, d10
   1d9e8:	3eee9468 	cdpcc	4, 14, cr9, cr14, cr8, {3}
   1d9ec:	3eeeed67 	cdpcc	13, 14, cr14, cr14, cr7, {3}
   1d9f0:	3eef4645 	cdpcc	6, 14, cr4, cr15, cr5, {2}
   1d9f4:	3eef9f23 	cdpcc	15, 14, cr9, cr15, cr3, {1}
   1d9f8:	3eeff801 	cdpcc	8, 14, cr15, cr15, cr1, {0}
   1d9fc:	3ef050be 	mrccc	0, 7, r5, cr0, cr14, {5}
   1da00:	3ef0a97a 	mrccc	9, 7, sl, cr0, cr10, {3}
   1da04:	3ef10236 	mrccc	2, 7, r0, cr1, cr6, {1}
   1da08:	3ef15af3 	mrccc	10, 7, r5, cr1, cr3, {7}
   1da0c:	3ef1b38d 	cdpcc	3, 15, cr11, cr1, cr13, {4}
   1da10:	3ef20c28 	cdpcc	12, 15, cr0, cr2, cr8, {1}
   1da14:	3ef264c3 	cdpcc	4, 15, cr6, cr2, cr3, {6}
   1da18:	3ef2bd3c 	mrccc	13, 7, fp, cr2, cr12, {1}
   1da1c:	3ef315b5 	mrccc	5, 7, r1, cr3, cr5, {5}
   1da20:	3ef36e2f 	cdpcc	14, 15, cr6, cr3, cr15, {1}
   1da24:	3ef3c6a8 	cdpcc	6, 15, cr12, cr3, cr8, {5}
   1da28:	3ef41f00 	cdpcc	15, 15, cr1, cr4, cr0, {0}
   1da2c:	3ef47757 	mrccc	7, 7, r7, cr4, cr7, {2}
   1da30:	3ef4cfaf 	cdpcc	15, 15, cr12, cr4, cr15, {5}
   1da34:	3ef52807 	cdpcc	8, 15, cr2, cr5, cr7, {0}
   1da38:	3ef5803d 	mrccc	0, 7, r8, cr5, cr13, {1}
   1da3c:	3ef5d873 	mrccc	8, 7, sp, cr5, cr3, {3}
   1da40:	3ef63088 	cdpcc	0, 15, cr3, cr6, cr8, {4}
   1da44:	3ef688be 	mrccc	8, 7, r8, cr6, cr14, {5}
   1da48:	3ef6e0d2 	mrccc	0, 7, lr, cr6, cr2, {6}
   1da4c:	3ef738e7 	cdpcc	8, 15, cr3, cr7, cr7, {7}
   1da50:	3ef790da 	mrccc	0, 7, r9, cr7, cr10, {6}
   1da54:	3ef7e8cd 	cdpcc	8, 15, cr14, cr7, cr13, {6}
   1da58:	3ef840c0 	cdpcc	0, 15, cr4, cr8, cr0, {6}
   1da5c:	3ef898b3 	mrccc	8, 7, r9, cr8, cr3, {5}
   1da60:	3ef8f084 	cdpcc	0, 15, cr15, cr8, cr4, {4}
   1da64:	3ef94856 	mrccc	8, 7, r4, cr9, cr6, {2}
   1da68:	3ef9a027 	cdpcc	0, 15, cr10, cr9, cr7, {1}
   1da6c:	3ef9f7f9 	mrccc	7, 7, APSR_nzcv, cr9, cr9, {7}
   1da70:	3efa4fa9 	cdpcc	15, 15, cr4, cr10, cr9, {5}
   1da74:	3efaa759 	mrccc	7, 7, sl, cr10, cr9, {2}
   1da78:	3efafee7 	cdpcc	14, 15, cr15, cr10, cr7, {7}
   1da7c:	3efb5697 	mrccc	6, 7, r5, cr11, cr7, {4}
   1da80:	3efbae25 	cdpcc	14, 15, cr10, cr11, cr5, {1}
   1da84:	3efc05b4 	mrccc	5, 7, r0, cr12, cr4, {5}
   1da88:	3efc5d20 	cdpcc	13, 15, cr5, cr12, cr0, {1}
   1da8c:	3efcb48d 	cdpcc	4, 15, cr11, cr12, cr13, {4}
   1da90:	3efd0bfa 	vmovcc.u8	r0, d29[7]
   1da94:	3efd6367 	cdpcc	3, 15, cr6, cr13, cr7, {3}
   1da98:	3efdbab2 	mrccc	10, 7, fp, cr13, cr2, {5}
   1da9c:	3efe11fd 	mrccc	1, 7, r1, cr14, cr13, {7}
   1daa0:	3efe6949 	cdpcc	9, 15, cr6, cr14, cr9, {2}
   1daa4:	3efec094 	mrccc	0, 7, ip, cr14, cr4, {4}
   1daa8:	3eff17be 	mrccc	7, 7, r1, cr15, cr14, {5}
   1daac:	3eff6ee7 	cdpcc	14, 15, cr6, cr15, cr7, {7}
   1dab0:	3effc5ef 	cdpcc	5, 15, cr12, cr15, cr15, {7}
   1dab4:	3f000e7c 	svccc	0x00000e7c
   1dab8:	3f003a00 	svccc	0x00003a00
   1dabc:	3f006584 	svccc	0x00006584
   1dac0:	3f0090f7 	svccc	0x000090f7
   1dac4:	3f00bc7b 	svccc	0x0000bc7b
   1dac8:	3f00e7de 	svccc	0x0000e7de
   1dacc:	3f011351 	svccc	0x00011351
   1dad0:	3f013eb4 	svccc	0x00013eb4
   1dad4:	3f016a16 	svccc	0x00016a16
   1dad8:	3f019579 	svccc	0x00019579
   1dadc:	3f01c0ca 	svccc	0x0001c0ca
   1dae0:	3f01ec1c 	svccc	0x0001ec1c
   1dae4:	3f02176e 	svccc	0x0002176e
   1dae8:	3f0242af 	svccc	0x000242af
   1daec:	3f026df0 	svccc	0x00026df0
   1daf0:	3f029931 	svccc	0x00029931
   1daf4:	3f02c472 	svccc	0x0002c472
   1daf8:	3f02efa2 	svccc	0x0002efa2
   1dafc:	3f031ad2 	svccc	0x00031ad2
   1db00:	3f0345f1 	svccc	0x000345f1
   1db04:	3f037122 	svccc	0x00037122
   1db08:	3f039c41 	svccc	0x00039c41
   1db0c:	3f03c750 	svccc	0x0003c750
   1db10:	3f03f26f 	svccc	0x0003f26f
   1db14:	3f041d7e 	svccc	0x00041d7e
   1db18:	3f04488c 	svccc	0x0004488c
   1db1c:	3f04738a 	svccc	0x0004738a
   1db20:	3f049e99 	svccc	0x00049e99
   1db24:	3f04c986 	svccc	0x0004c986
   1db28:	3f04f484 	svccc	0x0004f484
   1db2c:	3f051f71 	svccc	0x00051f71
   1db30:	3f054a5e 	svccc	0x00054a5e
   1db34:	3f05754b 	svccc	0x0005754b
   1db38:	3f05a027 	svccc	0x0005a027
   1db3c:	3f05cb04 	svccc	0x0005cb04
   1db40:	3f05f5e0 	svccc	0x0005f5e0
   1db44:	3f0620bc 	svccc	0x000620bc
   1db48:	3f064b88 	svccc	0x00064b88
   1db4c:	3f067653 	svccc	0x00067653
   1db50:	3f06a10e 	svccc	0x0006a10e
   1db54:	3f06cbc9 	svccc	0x0006cbc9
   1db58:	3f06f683 	svccc	0x0006f683
   1db5c:	3f07213e 	svccc	0x0007213e
   1db60:	3f074be8 	svccc	0x00074be8
   1db64:	3f077692 	svccc	0x00077692
   1db68:	3f07a13c 	svccc	0x0007a13c
   1db6c:	3f07cbd5 	svccc	0x0007cbd5
   1db70:	3f07f66f 	svccc	0x0007f66f
   1db74:	3f082108 	svccc	0x00082108
   1db78:	3f084b90 	svccc	0x00084b90
   1db7c:	3f087619 	svccc	0x00087619
   1db80:	3f08a0a1 	svccc	0x0008a0a1
   1db84:	3f08cb19 	svccc	0x0008cb19
   1db88:	3f08f5a1 	svccc	0x0008f5a1
   1db8c:	3f092008 	svccc	0x00092008
   1db90:	3f094a80 	svccc	0x00094a80
   1db94:	3f0974e6 	svccc	0x000974e6
   1db98:	3f099f4d 	svccc	0x00099f4d
   1db9c:	3f09c9b4 	svccc	0x0009c9b4
   1dba0:	3f09f40a 	svccc	0x0009f40a
   1dba4:	3f0a1e60 	svccc	0x000a1e60
   1dba8:	3f0a48a6 	svccc	0x000a48a6
   1dbac:	3f0a72fc 	svccc	0x000a72fc
   1dbb0:	3f0a9d41 	svccc	0x000a9d41
   1dbb4:	3f0ac775 	svccc	0x000ac775
   1dbb8:	3f0af1bb 	svccc	0x000af1bb
   1dbbc:	3f0b1bef 	svccc	0x000b1bef
   1dbc0:	3f0b4624 	svccc	0x000b4624
   1dbc4:	3f0b7048 	svccc	0x000b7048
   1dbc8:	3f0b9a6b 	svccc	0x000b9a6b
   1dbcc:	3f0bc48f 	svccc	0x000bc48f
   1dbd0:	3f0beea2 	svccc	0x000beea2
   1dbd4:	3f0c18b5 	svccc	0x000c18b5
   1dbd8:	3f0c42c8 	svccc	0x000c42c8
   1dbdc:	3f0c6cdb 	svccc	0x000c6cdb
   1dbe0:	3f0c96dd 	svccc	0x000c96dd
   1dbe4:	3f0cc0cf 	svccc	0x000cc0cf
   1dbe8:	3f0cead1 	svccc	0x000cead1
   1dbec:	3f0d14c2 	svccc	0x000d14c2
   1dbf0:	3f0d3eb4 	svccc	0x000d3eb4
   1dbf4:	3f0d68a5 	svccc	0x000d68a5
   1dbf8:	3f0d9286 	svccc	0x000d9286
   1dbfc:	3f0dbc66 	svccc	0x000dbc66
   1dc00:	3f0de636 	svccc	0x000de636
   1dc04:	3f0e1006 	svccc	0x000e1006
   1dc08:	3f0e39d6 	svccc	0x000e39d6
   1dc0c:	3f0e63a6 	svccc	0x000e63a6
   1dc10:	3f0e8d65 	svccc	0x000e8d65
   1dc14:	3f0eb724 	svccc	0x000eb724
   1dc18:	3f0ee0e3 	svccc	0x000ee0e3
   1dc1c:	3f0f0a91 	svccc	0x000f0a91
   1dc20:	3f0f3440 	svccc	0x000f3440
   1dc24:	3f0f5ddd 	svccc	0x000f5ddd
   1dc28:	3f0f878b 	svccc	0x000f878b
   1dc2c:	3f0fb129 	svccc	0x000fb129
   1dc30:	3f0fdab6 	svccc	0x000fdab6
   1dc34:	3f100443 	svccc	0x00100443
   1dc38:	3f102dcf 	svccc	0x00102dcf
   1dc3c:	3f10575c 	svccc	0x0010575c
   1dc40:	3f1080d8 	svccc	0x001080d8
   1dc44:	3f10aa54 	svccc	0x0010aa54
   1dc48:	3f10d3d0 	svccc	0x0010d3d0
   1dc4c:	3f10fd3b 	svccc	0x0010fd3b
   1dc50:	3f1126a6 	svccc	0x001126a6
   1dc54:	3f115012 	svccc	0x00115012
   1dc58:	3f11796c 	svccc	0x0011796c
   1dc5c:	3f11a2c6 	svccc	0x0011a2c6
   1dc60:	3f11cc21 	svccc	0x0011cc21
   1dc64:	3f11f56a 	svccc	0x0011f56a
   1dc68:	3f121eb4 	svccc	0x00121eb4
   1dc6c:	3f1247ed 	svccc	0x001247ed
   1dc70:	3f127137 	svccc	0x00127137
   1dc74:	3f129a70 	svccc	0x00129a70
   1dc78:	3f12c398 	svccc	0x0012c398
   1dc7c:	3f12ecc0 	svccc	0x0012ecc0
   1dc80:	3f1315e8 	svccc	0x001315e8
   1dc84:	3f133f10 	svccc	0x00133f10
   1dc88:	3f136827 	svccc	0x00136827
   1dc8c:	3f13913f 	svccc	0x0013913f
   1dc90:	3f13ba56 	svccc	0x0013ba56
   1dc94:	3f13e35c 	svccc	0x0013e35c
   1dc98:	3f140c63 	svccc	0x00140c63
   1dc9c:	3f143559 	svccc	0x00143559
   1dca0:	3f145e5f 	svccc	0x00145e5f
   1dca4:	3f148744 	svccc	0x00148744
   1dca8:	3f14b03a 	svccc	0x0014b03a
   1dcac:	3f14d91f 	svccc	0x0014d91f
   1dcb0:	3f150204 	svccc	0x00150204
   1dcb4:	3f152ad8 	svccc	0x00152ad8
   1dcb8:	3f1553bd 	svccc	0x001553bd
   1dcbc:	3f157c81 	svccc	0x00157c81
   1dcc0:	3f15a555 	svccc	0x0015a555
   1dcc4:	3f15ce18 	svccc	0x0015ce18
   1dcc8:	3f15f6dc 	svccc	0x0015f6dc
   1dccc:	3f161f8e 	svccc	0x00161f8e
   1dcd0:	3f164841 	svccc	0x00164841
   1dcd4:	3f1670f4 	svccc	0x001670f4
   1dcd8:	3f1699a6 	svccc	0x001699a6
   1dcdc:	3f16c248 	svccc	0x0016c248
   1dce0:	3f16ead9 	svccc	0x0016ead9
   1dce4:	3f17137b 	svccc	0x0017137b
   1dce8:	3f173c0c 	svccc	0x00173c0c
   1dcec:	3f17648c 	svccc	0x0017648c
   1dcf0:	3f178d1e 	svccc	0x00178d1e
   1dcf4:	3f17b59e 	svccc	0x0017b59e
   1dcf8:	3f17de0d 	svccc	0x0017de0d
   1dcfc:	3f18068e 	svccc	0x0018068e
   1dd00:	3f182eec 	svccc	0x00182eec
   1dd04:	3f18575c 	svccc	0x0018575c
   1dd08:	3f187fbb 	svccc	0x00187fbb
   1dd0c:	3f18a81a 	svccc	0x0018a81a
   1dd10:	3f18d078 	svccc	0x0018d078
   1dd14:	3f18f8c6 	svccc	0x0018f8c6
   1dd18:	3f192114 	svccc	0x00192114
   1dd1c:	3f194952 	svccc	0x00194952
   1dd20:	3f19718f 	svccc	0x0019718f
   1dd24:	3f1999cc 	svccc	0x001999cc
   1dd28:	3f19c1f8 	svccc	0x0019c1f8
   1dd2c:	3f19ea36 	svccc	0x0019ea36
   1dd30:	3f1a1251 	svccc	0x001a1251
   1dd34:	3f1a3a7e 	svccc	0x001a3a7e
   1dd38:	3f1a6299 	svccc	0x001a6299
   1dd3c:	3f1a8aa4 	svccc	0x001a8aa4
   1dd40:	3f1ab2c0 	svccc	0x001ab2c0
   1dd44:	3f1adaba 	svccc	0x001adaba
   1dd48:	3f1b02c5 	svccc	0x001b02c5
   1dd4c:	3f1b2abf 	svccc	0x001b2abf
   1dd50:	3f1b52b9 	svccc	0x001b52b9
   1dd54:	3f1b7ab3 	svccc	0x001b7ab3
   1dd58:	3f1ba29c 	svccc	0x001ba29c
   1dd5c:	3f1bca86 	svccc	0x001bca86
   1dd60:	3f1bf25e 	svccc	0x001bf25e
   1dd64:	3f1c1a37 	svccc	0x001c1a37
   1dd68:	3f1c420f 	svccc	0x001c420f
   1dd6c:	3f1c69d7 	svccc	0x001c69d7
   1dd70:	3f1c919f 	svccc	0x001c919f
   1dd74:	3f1cb967 	svccc	0x001cb967
   1dd78:	3f1ce11e 	svccc	0x001ce11e
   1dd7c:	3f1d08d5 	svccc	0x001d08d5
   1dd80:	3f1d308c 	svccc	0x001d308c
   1dd84:	3f1d5832 	svccc	0x001d5832
   1dd88:	3f1d7fd8 	svccc	0x001d7fd8
   1dd8c:	3f1da76e 	svccc	0x001da76e
   1dd90:	3f1dcf03 	svccc	0x001dcf03
   1dd94:	3f1df698 	svccc	0x001df698
   1dd98:	3f1e1e1d 	svccc	0x001e1e1d
   1dd9c:	3f1e45a2 	svccc	0x001e45a2
   1dda0:	3f1e6d26 	svccc	0x001e6d26
   1dda4:	3f1e949a 	svccc	0x001e949a
   1dda8:	3f1ebc0e 	svccc	0x001ebc0e
   1ddac:	3f1ee382 	svccc	0x001ee382
   1ddb0:	3f1f0ae5 	svccc	0x001f0ae5
   1ddb4:	3f1f3248 	svccc	0x001f3248
   1ddb8:	3f1f599b 	svccc	0x001f599b
   1ddbc:	3f1f80ed 	svccc	0x001f80ed
   1ddc0:	3f1fa83f 	svccc	0x001fa83f
   1ddc4:	3f1fcf81 	svccc	0x001fcf81
   1ddc8:	3f1ff6c2 	svccc	0x001ff6c2
   1ddcc:	3f201e04 	svccc	0x00201e04
   1ddd0:	3f204535 	svccc	0x00204535
   1ddd4:	3f206c66 	svccc	0x00206c66
   1ddd8:	3f209396 	svccc	0x00209396
   1dddc:	3f20bab6 	svccc	0x0020bab6
   1dde0:	3f20e1d6 	svccc	0x0020e1d6
   1dde4:	3f2108e6 	svccc	0x002108e6
   1dde8:	3f212ff5 	svccc	0x00212ff5
   1ddec:	3f215704 	svccc	0x00215704
   1ddf0:	3f217e02 	svccc	0x00217e02
   1ddf4:	3f21a501 	svccc	0x0021a501
   1ddf8:	3f21cbff 	svccc	0x0021cbff
   1ddfc:	3f21f2ed 	svccc	0x0021f2ed
   1de00:	3f2219db 	svccc	0x002219db
   1de04:	3f2240b8 	svccc	0x002240b8
   1de08:	3f226794 	svccc	0x00226794
   1de0c:	3f228e71 	svccc	0x00228e71
   1de10:	3f22b53d 	svccc	0x0022b53d
   1de14:	3f22dc0a 	svccc	0x0022dc0a
   1de18:	3f2302d6 	svccc	0x002302d6
   1de1c:	3f232991 	svccc	0x00232991
   1de20:	3f23504c 	svccc	0x0023504c
   1de24:	3f2376f7 	svccc	0x002376f7
   1de28:	3f239da1 	svccc	0x00239da1
   1de2c:	3f23c44c 	svccc	0x0023c44c
   1de30:	3f23eae6 	svccc	0x0023eae6
   1de34:	3f241180 	svccc	0x00241180
   1de38:	3f243819 	svccc	0x00243819
   1de3c:	3f245ea2 	svccc	0x00245ea2
   1de40:	3f24852b 	svccc	0x0024852b
   1de44:	3f24aba4 	svccc	0x0024aba4
   1de48:	3f24d22d 	svccc	0x0024d22d
   1de4c:	3f24f894 	svccc	0x0024f894
   1de50:	3f251f0c 	svccc	0x00251f0c
   1de54:	3f254563 	svccc	0x00254563
   1de58:	3f256bca 	svccc	0x00256bca
   1de5c:	3f259221 	svccc	0x00259221
   1de60:	3f25b878 	svccc	0x0025b878
   1de64:	3f25debe 	svccc	0x0025debe
   1de68:	3f260503 	svccc	0x00260503
   1de6c:	3f262b49 	svccc	0x00262b49
   1de70:	3f26517e 	svccc	0x0026517e
   1de74:	3f2677b4 	svccc	0x002677b4
   1de78:	3f269de9 	svccc	0x00269de9
   1de7c:	3f26c40d 	svccc	0x0026c40d
   1de80:	3f26ea31 	svccc	0x0026ea31
   1de84:	3f271045 	svccc	0x00271045
   1de88:	3f273659 	svccc	0x00273659
   1de8c:	3f275c5b 	svccc	0x00275c5b
   1de90:	3f27826f 	svccc	0x0027826f
   1de94:	3f27a861 	svccc	0x0027a861
   1de98:	3f27ce64 	svccc	0x0027ce64
   1de9c:	3f27f456 	svccc	0x0027f456
   1dea0:	3f281a48 	svccc	0x00281a48
   1dea4:	3f284029 	svccc	0x00284029
   1dea8:	3f28660a 	svccc	0x0028660a
   1deac:	3f288bdb 	svccc	0x00288bdb
   1deb0:	3f28b1ab 	svccc	0x0028b1ab
   1deb4:	3f28d77b 	svccc	0x0028d77b
   1deb8:	3f28fd3b 	svccc	0x0028fd3b
   1debc:	3f2922fb 	svccc	0x002922fb
   1dec0:	3f2948bb 	svccc	0x002948bb
   1dec4:	3f296e69 	svccc	0x00296e69
   1dec8:	3f299418 	svccc	0x00299418
   1decc:	3f29b9b6 	svccc	0x0029b9b6
   1ded0:	3f29df55 	svccc	0x0029df55
   1ded4:	3f2a04f3 	svccc	0x002a04f3
   1ded8:	3f2a2a80 	svccc	0x002a2a80
   1dedc:	3f2a500d 	svccc	0x002a500d
   1dee0:	3f2a758a 	svccc	0x002a758a
   1dee4:	3f2a9b07 	svccc	0x002a9b07
   1dee8:	3f2ac083 	svccc	0x002ac083
   1deec:	3f2ae5ef 	svccc	0x002ae5ef
   1def0:	3f2b0b5b 	svccc	0x002b0b5b
   1def4:	3f2b30c6 	svccc	0x002b30c6
   1def8:	3f2b5621 	svccc	0x002b5621
   1defc:	3f2b7b6c 	svccc	0x002b7b6c
   1df00:	3f2ba0c7 	svccc	0x002ba0c7
   1df04:	3f2bc600 	svccc	0x002bc600
   1df08:	3f2beb4a 	svccc	0x002beb4a
   1df0c:	3f2c1084 	svccc	0x002c1084
   1df10:	3f2c35bd 	svccc	0x002c35bd
   1df14:	3f2c5ae6 	svccc	0x002c5ae6
   1df18:	3f2c800f 	svccc	0x002c800f
   1df1c:	3f2ca537 	svccc	0x002ca537
   1df20:	3f2cca4f 	svccc	0x002cca4f
   1df24:	3f2cef56 	svccc	0x002cef56
   1df28:	3f2d146e 	svccc	0x002d146e
   1df2c:	3f2d3975 	svccc	0x002d3975
   1df30:	3f2d5e6c 	svccc	0x002d5e6c
   1df34:	3f2d8362 	svccc	0x002d8362
   1df38:	3f2da858 	svccc	0x002da858
   1df3c:	3f2dcd3e 	svccc	0x002dcd3e
   1df40:	3f2df224 	svccc	0x002df224
   1df44:	3f2e1709 	svccc	0x002e1709
   1df48:	3f2e3bde 	svccc	0x002e3bde
   1df4c:	3f2e60b3 	svccc	0x002e60b3
   1df50:	3f2e8577 	svccc	0x002e8577
   1df54:	3f2eaa3b 	svccc	0x002eaa3b
   1df58:	3f2eceff 	svccc	0x002eceff
   1df5c:	3f2ef3b2 	svccc	0x002ef3b2
   1df60:	3f2f1855 	svccc	0x002f1855
   1df64:	3f2f3d08 	svccc	0x002f3d08
   1df68:	3f2f61aa 	svccc	0x002f61aa
   1df6c:	3f2f863c 	svccc	0x002f863c
   1df70:	3f2faace 	svccc	0x002faace
   1df74:	3f2fcf5f 	svccc	0x002fcf5f
   1df78:	3f2ff3e0 	svccc	0x002ff3e0
   1df7c:	3f301861 	svccc	0x00301861
   1df80:	3f303ce2 	svccc	0x00303ce2
   1df84:	3f306152 	svccc	0x00306152
   1df88:	3f3085c2 	svccc	0x003085c2
   1df8c:	3f30aa22 	svccc	0x0030aa22
   1df90:	3f30ce81 	svccc	0x0030ce81
   1df94:	3f30f2d0 	svccc	0x0030f2d0
   1df98:	3f31171e 	svccc	0x0031171e
   1df9c:	3f313b6d 	svccc	0x00313b6d
   1dfa0:	3f315fab 	svccc	0x00315fab
   1dfa4:	3f3183e8 	svccc	0x003183e8
   1dfa8:	3f31a815 	svccc	0x0031a815
   1dfac:	3f31cc42 	svccc	0x0031cc42
   1dfb0:	3f31f06f 	svccc	0x0031f06f
   1dfb4:	3f32148c 	svccc	0x0032148c
   1dfb8:	3f3238a8 	svccc	0x003238a8
   1dfbc:	3f325cc4 	svccc	0x00325cc4
   1dfc0:	3f3280d0 	svccc	0x003280d0
   1dfc4:	3f32a4ca 	svccc	0x0032a4ca
   1dfc8:	3f32c8c5 	svccc	0x0032c8c5
   1dfcc:	3f32ecc0 	svccc	0x0032ecc0
   1dfd0:	3f3310aa 	svccc	0x003310aa
   1dfd4:	3f333494 	svccc	0x00333494
   1dfd8:	3f33587d 	svccc	0x0033587d
   1dfdc:	3f337c57 	svccc	0x00337c57
   1dfe0:	3f33a030 	svccc	0x0033a030
   1dfe4:	3f33c3f8 	svccc	0x0033c3f8
   1dfe8:	3f33e7c0 	svccc	0x0033e7c0
   1dfec:	3f340b78 	svccc	0x00340b78
   1dff0:	3f342f30 	svccc	0x00342f30
   1dff4:	3f3452e7 	svccc	0x003452e7
   1dff8:	3f34768e 	svccc	0x0034768e
   1dffc:	3f349a35 	svccc	0x00349a35
   1e000:	3f34bdcb 	svccc	0x0034bdcb
   1e004:	3f34e161 	svccc	0x0034e161
   1e008:	3f3504f7 	svccc	0x003504f7
   1e00c:	3f35287c 	svccc	0x0035287c
   1e010:	3f354c01 	svccc	0x00354c01
   1e014:	3f356f76 	svccc	0x00356f76
   1e018:	3f3592ea 	svccc	0x003592ea
   1e01c:	3f35b64e 	svccc	0x0035b64e
   1e020:	3f35d9b2 	svccc	0x0035d9b2
   1e024:	3f35fd15 	svccc	0x0035fd15
   1e028:	3f362068 	svccc	0x00362068
   1e02c:	3f3643bb 	svccc	0x003643bb
   1e030:	3f3666fd 	svccc	0x003666fd
   1e034:	3f368a40 	svccc	0x00368a40
   1e038:	3f36ad82 	svccc	0x0036ad82
   1e03c:	3f36d0b3 	svccc	0x0036d0b3
   1e040:	3f36f3e4 	svccc	0x0036f3e4
   1e044:	3f371705 	svccc	0x00371705
   1e048:	3f373a26 	svccc	0x00373a26
   1e04c:	3f375d35 	svccc	0x00375d35
   1e050:	3f378045 	svccc	0x00378045
   1e054:	3f37a355 	svccc	0x0037a355
   1e058:	3f37c654 	svccc	0x0037c654
   1e05c:	3f37e953 	svccc	0x0037e953
   1e060:	3f380c41 	svccc	0x00380c41
   1e064:	3f382f30 	svccc	0x00382f30
   1e068:	3f38521e 	svccc	0x0038521e
   1e06c:	3f3874fb 	svccc	0x003874fb
   1e070:	3f3897c8 	svccc	0x003897c8
   1e074:	3f38ba95 	svccc	0x0038ba95
   1e078:	3f38dd61 	svccc	0x0038dd61
   1e07c:	3f39002e 	svccc	0x0039002e
   1e080:	3f3922d9 	svccc	0x003922d9
   1e084:	3f394595 	svccc	0x00394595
   1e088:	3f396840 	svccc	0x00396840
   1e08c:	3f398aec 	svccc	0x00398aec
   1e090:	3f39ad86 	svccc	0x0039ad86
   1e094:	3f39d020 	svccc	0x0039d020
   1e098:	3f39f2aa 	svccc	0x0039f2aa
   1e09c:	3f3a1533 	svccc	0x003a1533
   1e0a0:	3f3a37bd 	svccc	0x003a37bd
   1e0a4:	3f3a5a36 	svccc	0x003a5a36
   1e0a8:	3f3a7c9e 	svccc	0x003a7c9e
   1e0ac:	3f3a9f17 	svccc	0x003a9f17
   1e0b0:	3f3ac16e 	svccc	0x003ac16e
   1e0b4:	3f3ae3d6 	svccc	0x003ae3d6
   1e0b8:	3f3b062d 	svccc	0x003b062d
   1e0bc:	3f3b2874 	svccc	0x003b2874
   1e0c0:	3f3b4aba 	svccc	0x003b4aba
   1e0c4:	3f3b6d01 	svccc	0x003b6d01
   1e0c8:	3f3b8f36 	svccc	0x003b8f36
   1e0cc:	3f3bb16c 	svccc	0x003bb16c
   1e0d0:	3f3bd391 	svccc	0x003bd391
   1e0d4:	3f3bf5b6 	svccc	0x003bf5b6
   1e0d8:	3f3c17db 	svccc	0x003c17db
   1e0dc:	3f3c39ef 	svccc	0x003c39ef
   1e0e0:	3f3c5c03 	svccc	0x003c5c03
   1e0e4:	3f3c7e07 	svccc	0x003c7e07
   1e0e8:	3f3ca00a 	svccc	0x003ca00a
   1e0ec:	3f3cc1fd 	svccc	0x003cc1fd
   1e0f0:	3f3ce3ef 	svccc	0x003ce3ef
   1e0f4:	3f3d05d1 	svccc	0x003d05d1
   1e0f8:	3f3d27b3 	svccc	0x003d27b3
   1e0fc:	3f3d4995 	svccc	0x003d4995
   1e100:	3f3d6b66 	svccc	0x003d6b66
   1e104:	3f3d8d37 	svccc	0x003d8d37
   1e108:	3f3daef7 	svccc	0x003daef7
   1e10c:	3f3dd0b7 	svccc	0x003dd0b7
   1e110:	3f3df267 	svccc	0x003df267
   1e114:	3f3e1416 	svccc	0x003e1416
   1e118:	3f3e35c6 	svccc	0x003e35c6
   1e11c:	3f3e5764 	svccc	0x003e5764
   1e120:	3f3e7903 	svccc	0x003e7903
   1e124:	3f3e9a91 	svccc	0x003e9a91
   1e128:	3f3ebc1f 	svccc	0x003ebc1f
   1e12c:	3f3edd9c 	svccc	0x003edd9c
   1e130:	3f3eff19 	svccc	0x003eff19
   1e134:	3f3f2096 	svccc	0x003f2096
   1e138:	3f3f4203 	svccc	0x003f4203
   1e13c:	3f3f635e 	svccc	0x003f635e
   1e140:	3f3f84ba 	svccc	0x003f84ba
   1e144:	3f3fa616 	svccc	0x003fa616
   1e148:	3f3fc760 	svccc	0x003fc760
   1e14c:	3f3fe8ab 	svccc	0x003fe8ab
   1e150:	3f4009f6 	svccc	0x004009f6
   1e154:	3f402b30 	svccc	0x00402b30
   1e158:	3f404c59 	svccc	0x00404c59
   1e15c:	3f406d83 	svccc	0x00406d83
   1e160:	3f408eac 	svccc	0x00408eac
   1e164:	3f40afc4 	svccc	0x0040afc4
   1e168:	3f40d0dd 	svccc	0x0040d0dd
   1e16c:	3f40f1e5 	svccc	0x0040f1e5
   1e170:	3f4112ec 	svccc	0x004112ec
   1e174:	3f4133e3 	svccc	0x004133e3
   1e178:	3f4154da 	svccc	0x004154da
   1e17c:	3f4175d1 	svccc	0x004175d1
   1e180:	3f4196b7 	svccc	0x004196b7
   1e184:	3f41b79e 	svccc	0x0041b79e
   1e188:	3f41d873 	svccc	0x0041d873
   1e18c:	3f41f948 	svccc	0x0041f948
   1e190:	3f421a0d 	svccc	0x00421a0d
   1e194:	3f423ad2 	svccc	0x00423ad2
   1e198:	3f425b85 	svccc	0x00425b85
   1e19c:	3f427c39 	svccc	0x00427c39
   1e1a0:	3f429ced 	svccc	0x00429ced
   1e1a4:	3f42bd90 	svccc	0x0042bd90
   1e1a8:	3f42de22 	svccc	0x0042de22
   1e1ac:	3f42fec5 	svccc	0x0042fec5
   1e1b0:	3f431f47 	svccc	0x00431f47
   1e1b4:	3f433fd9 	svccc	0x00433fd9
   1e1b8:	3f43604a 	svccc	0x0043604a
   1e1bc:	3f4380cb 	svccc	0x004380cb
   1e1c0:	3f43a13c 	svccc	0x0043a13c
   1e1c4:	3f43c19c 	svccc	0x0043c19c
   1e1c8:	3f43e1fc 	svccc	0x0043e1fc
   1e1cc:	3f44025c 	svccc	0x0044025c
   1e1d0:	3f4422ab 	svccc	0x004422ab
   1e1d4:	3f4442fa 	svccc	0x004442fa
   1e1d8:	3f446339 	svccc	0x00446339
   1e1dc:	3f448377 	svccc	0x00448377
   1e1e0:	3f44a3a5 	svccc	0x0044a3a5
   1e1e4:	3f44c3d2 	svccc	0x0044c3d2
   1e1e8:	3f44e3ef 	svccc	0x0044e3ef
   1e1ec:	3f45040c 	svccc	0x0045040c
   1e1f0:	3f452429 	svccc	0x00452429
   1e1f4:	3f454435 	svccc	0x00454435
   1e1f8:	3f456441 	svccc	0x00456441
   1e1fc:	3f45843c 	svccc	0x0045843c
   1e200:	3f45a427 	svccc	0x0045a427
   1e204:	3f45c422 	svccc	0x0045c422
   1e208:	3f45e3fc 	svccc	0x0045e3fc
   1e20c:	3f4603e6 	svccc	0x004603e6
   1e210:	3f4623c0 	svccc	0x004623c0
   1e214:	3f464389 	svccc	0x00464389
   1e218:	3f466352 	svccc	0x00466352
   1e21c:	3f46831b 	svccc	0x0046831b
   1e220:	3f46a2d3 	svccc	0x0046a2d3
   1e224:	3f46c27a 	svccc	0x0046c27a
   1e228:	3f46e222 	svccc	0x0046e222
   1e22c:	3f4701c9 	svccc	0x004701c9
   1e230:	3f472160 	svccc	0x00472160
   1e234:	3f4740f6 	svccc	0x004740f6
   1e238:	3f47608d 	svccc	0x0047608d
   1e23c:	3f478002 	svccc	0x00478002
   1e240:	3f479f88 	svccc	0x00479f88
   1e244:	3f47befd 	svccc	0x0047befd
   1e248:	3f47de61 	svccc	0x0047de61
   1e24c:	3f47fdc6 	svccc	0x0047fdc6
   1e250:	3f481d2a 	svccc	0x00481d2a
   1e254:	3f483c7d 	svccc	0x00483c7d
   1e258:	3f485bd1 	svccc	0x00485bd1
   1e25c:	3f487b14 	svccc	0x00487b14
   1e260:	3f489a56 	svccc	0x00489a56
   1e264:	3f48b988 	svccc	0x0048b988
   1e268:	3f48d8ba 	svccc	0x0048d8ba
   1e26c:	3f48f7db 	svccc	0x0048f7db
   1e270:	3f4916fd 	svccc	0x004916fd
   1e274:	3f49360d 	svccc	0x0049360d
   1e278:	3f49551d 	svccc	0x0049551d
   1e27c:	3f49742e 	svccc	0x0049742e
   1e280:	3f49932d 	svccc	0x0049932d
   1e284:	3f49b21c 	svccc	0x0049b21c
   1e288:	3f49d10b 	svccc	0x0049d10b
   1e28c:	3f49effa 	svccc	0x0049effa
   1e290:	3f4a0ed8 	svccc	0x004a0ed8
   1e294:	3f4a2db6 	svccc	0x004a2db6
   1e298:	3f4a4c83 	svccc	0x004a4c83
   1e29c:	3f4a6b51 	svccc	0x004a6b51
   1e2a0:	3f4a8a0d 	svccc	0x004a8a0d
   1e2a4:	3f4aa8ca 	svccc	0x004aa8ca
   1e2a8:	3f4ac786 	svccc	0x004ac786
   1e2ac:	3f4ae632 	svccc	0x004ae632
   1e2b0:	3f4b04cd 	svccc	0x004b04cd
   1e2b4:	3f4b2368 	svccc	0x004b2368
   1e2b8:	3f4b41f2 	svccc	0x004b41f2
   1e2bc:	3f4b608d 	svccc	0x004b608d
   1e2c0:	3f4b7f06 	svccc	0x004b7f06
   1e2c4:	3f4b9d80 	svccc	0x004b9d80
   1e2c8:	3f4bbbf9 	svccc	0x004bbbf9
   1e2cc:	3f4bda62 	svccc	0x004bda62
   1e2d0:	3f4bf8cb 	svccc	0x004bf8cb
   1e2d4:	3f4c1722 	svccc	0x004c1722
   1e2d8:	3f4c357a 	svccc	0x004c357a
   1e2dc:	3f4c53c1 	svccc	0x004c53c1
   1e2e0:	3f4c7208 	svccc	0x004c7208
   1e2e4:	3f4c903f 	svccc	0x004c903f
   1e2e8:	3f4cae75 	svccc	0x004cae75
   1e2ec:	3f4cccab 	svccc	0x004cccab
   1e2f0:	3f4cead1 	svccc	0x004cead1
   1e2f4:	3f4d08e6 	svccc	0x004d08e6
   1e2f8:	3f4d26fa 	svccc	0x004d26fa
   1e2fc:	3f4d450f 	svccc	0x004d450f
   1e300:	3f4d6313 	svccc	0x004d6313
   1e304:	3f4d8106 	svccc	0x004d8106
   1e308:	3f4d9f0a 	svccc	0x004d9f0a
   1e30c:	3f4dbced 	svccc	0x004dbced
   1e310:	3f4ddacf 	svccc	0x004ddacf
   1e314:	3f4df8b1 	svccc	0x004df8b1
   1e318:	3f4e1683 	svccc	0x004e1683
   1e31c:	3f4e3455 	svccc	0x004e3455
   1e320:	3f4e5215 	svccc	0x004e5215
   1e324:	3f4e6fd6 	svccc	0x004e6fd6
   1e328:	3f4e8d97 	svccc	0x004e8d97
   1e32c:	3f4eab36 	svccc	0x004eab36
   1e330:	3f4ec8e7 	svccc	0x004ec8e7
   1e334:	3f4ee686 	svccc	0x004ee686
   1e338:	3f4f0414 	svccc	0x004f0414
   1e33c:	3f4f21a3 	svccc	0x004f21a3
   1e340:	3f4f3f31 	svccc	0x004f3f31
   1e344:	3f4f5caf 	svccc	0x004f5caf
   1e348:	3f4f7a1c 	svccc	0x004f7a1c
   1e34c:	3f4f9789 	svccc	0x004f9789
   1e350:	3f4fb4f6 	svccc	0x004fb4f6
   1e354:	3f4fd252 	svccc	0x004fd252
   1e358:	3f4fefae 	svccc	0x004fefae
   1e35c:	3f500cfa 	svccc	0x00500cfa
   1e360:	3f502a35 	svccc	0x00502a35
   1e364:	3f504780 	svccc	0x00504780
   1e368:	3f5064aa 	svccc	0x005064aa
   1e36c:	3f5081e4 	svccc	0x005081e4
   1e370:	3f509efe 	svccc	0x00509efe
   1e374:	3f50bc27 	svccc	0x0050bc27
   1e378:	3f50d930 	svccc	0x0050d930
   1e37c:	3f50f649 	svccc	0x0050f649
   1e380:	3f511351 	svccc	0x00511351
   1e384:	3f513049 	svccc	0x00513049
   1e388:	3f514d40 	svccc	0x00514d40
   1e38c:	3f516a27 	svccc	0x00516a27
   1e390:	3f51870e 	svccc	0x0051870e
   1e394:	3f51a3f4 	svccc	0x0051a3f4
   1e398:	3f51c0ca 	svccc	0x0051c0ca
   1e39c:	3f51dd90 	svccc	0x0051dd90
   1e3a0:	3f51fa55 	svccc	0x0051fa55
   1e3a4:	3f521709 	svccc	0x00521709
   1e3a8:	3f5233ce 	svccc	0x005233ce
   1e3ac:	3f525072 	svccc	0x00525072
   1e3b0:	3f526d16 	svccc	0x00526d16
   1e3b4:	3f5289b9 	svccc	0x005289b9
   1e3b8:	3f52a64c 	svccc	0x0052a64c
   1e3bc:	3f52c2ce 	svccc	0x0052c2ce
   1e3c0:	3f52df61 	svccc	0x0052df61
   1e3c4:	3f52fbd2 	svccc	0x0052fbd2
   1e3c8:	3f531844 	svccc	0x00531844
   1e3cc:	3f5334b5 	svccc	0x005334b5
   1e3d0:	3f535116 	svccc	0x00535116
   1e3d4:	3f536d76 	svccc	0x00536d76
   1e3d8:	3f5389c6 	svccc	0x005389c6
   1e3dc:	3f53a616 	svccc	0x0053a616
   1e3e0:	3f53c255 	svccc	0x0053c255
   1e3e4:	3f53de94 	svccc	0x0053de94
   1e3e8:	3f53fac2 	svccc	0x0053fac2
   1e3ec:	3f5416f0 	svccc	0x005416f0
   1e3f0:	3f54330d 	svccc	0x0054330d
   1e3f4:	3f544f2b 	svccc	0x00544f2b
   1e3f8:	3f546b38 	svccc	0x00546b38
   1e3fc:	3f548744 	svccc	0x00548744
   1e400:	3f54a340 	svccc	0x0054a340
   1e404:	3f54bf3c 	svccc	0x0054bf3c
   1e408:	3f54db38 	svccc	0x0054db38
   1e40c:	3f54f712 	svccc	0x0054f712
   1e410:	3f5512fd 	svccc	0x005512fd
   1e414:	3f552ed8 	svccc	0x00552ed8
   1e418:	3f554aa1 	svccc	0x00554aa1
   1e41c:	3f55666b 	svccc	0x0055666b
   1e420:	3f558234 	svccc	0x00558234
   1e424:	3f559ddc 	svccc	0x00559ddc
   1e428:	3f55b995 	svccc	0x0055b995
   1e42c:	3f55d53d 	svccc	0x0055d53d
   1e430:	3f55f0d4 	svccc	0x0055f0d4
   1e434:	3f560c6b 	svccc	0x00560c6b
   1e438:	3f562802 	svccc	0x00562802
   1e43c:	3f564389 	svccc	0x00564389
   1e440:	3f565eff 	svccc	0x00565eff
   1e444:	3f567a74 	svccc	0x00567a74
   1e448:	3f5695ea 	svccc	0x005695ea
   1e44c:	3f56b14f 	svccc	0x0056b14f
   1e450:	3f56cca3 	svccc	0x0056cca3
   1e454:	3f56e7f7 	svccc	0x0056e7f7
   1e458:	3f57034b 	svccc	0x0057034b
   1e45c:	3f571e8e 	svccc	0x00571e8e
   1e460:	3f5739c1 	svccc	0x005739c1
   1e464:	3f5754f3 	svccc	0x005754f3
   1e468:	3f577026 	svccc	0x00577026
   1e46c:	3f578b48 	svccc	0x00578b48
   1e470:	3f57a66a 	svccc	0x0057a66a
   1e474:	3f57c17b 	svccc	0x0057c17b
   1e478:	3f57dc7b 	svccc	0x0057dc7b
   1e47c:	3f57f77b 	svccc	0x0057f77b
   1e480:	3f58127b 	svccc	0x0058127b
   1e484:	3f582d6b 	svccc	0x00582d6b
   1e488:	3f58485a 	svccc	0x0058485a
   1e48c:	3f586339 	svccc	0x00586339
   1e490:	3f587e07 	svccc	0x00587e07
   1e494:	3f5898d4 	svccc	0x005898d4
   1e498:	3f58b3a2 	svccc	0x0058b3a2
   1e49c:	3f58ce5f 	svccc	0x0058ce5f
   1e4a0:	3f58e91d 	svccc	0x0058e91d
   1e4a4:	3f5903c9 	svccc	0x005903c9
   1e4a8:	3f591e64 	svccc	0x00591e64
   1e4ac:	3f593900 	svccc	0x00593900
   1e4b0:	3f59539c 	svccc	0x0059539c
   1e4b4:	3f596e26 	svccc	0x00596e26
   1e4b8:	3f5988b1 	svccc	0x005988b1
   1e4bc:	3f59a32b 	svccc	0x0059a32b
   1e4c0:	3f59bd94 	svccc	0x0059bd94
   1e4c4:	3f59d80e 	svccc	0x0059d80e
   1e4c8:	3f59f267 	svccc	0x0059f267
   1e4cc:	3f5a0cbf 	svccc	0x005a0cbf
   1e4d0:	3f5a2718 	svccc	0x005a2718
   1e4d4:	3f5a415f 	svccc	0x005a415f
   1e4d8:	3f5a5ba7 	svccc	0x005a5ba7
   1e4dc:	3f5a75de 	svccc	0x005a75de
   1e4e0:	3f5a9004 	svccc	0x005a9004
   1e4e4:	3f5aaa2a 	svccc	0x005aaa2a
   1e4e8:	3f5ac450 	svccc	0x005ac450
   1e4ec:	3f5ade65 	svccc	0x005ade65
   1e4f0:	3f5af87b 	svccc	0x005af87b
   1e4f4:	3f5b127f 	svccc	0x005b127f
   1e4f8:	3f5b2c73 	svccc	0x005b2c73
   1e4fc:	3f5b4667 	svccc	0x005b4667
   1e500:	3f5b605b 	svccc	0x005b605b
   1e504:	3f5b7a3e 	svccc	0x005b7a3e
   1e508:	3f5b9421 	svccc	0x005b9421
   1e50c:	3f5badf3 	svccc	0x005badf3
   1e510:	3f5bc7b4 	svccc	0x005bc7b4
   1e514:	3f5be176 	svccc	0x005be176
   1e518:	3f5bfb37 	svccc	0x005bfb37
   1e51c:	3f5c14e8 	svccc	0x005c14e8
   1e520:	3f5c2e88 	svccc	0x005c2e88
   1e524:	3f5c4828 	svccc	0x005c4828
   1e528:	3f5c61c8 	svccc	0x005c61c8
   1e52c:	3f5c7b57 	svccc	0x005c7b57
   1e530:	3f5c94d5 	svccc	0x005c94d5
   1e534:	3f5cae53 	svccc	0x005cae53
   1e538:	3f5cc7d2 	svccc	0x005cc7d2
   1e53c:	3f5ce13f 	svccc	0x005ce13f
   1e540:	3f5cfa9c 	svccc	0x005cfa9c
   1e544:	3f5d13f9 	svccc	0x005d13f9
   1e548:	3f5d2d56 	svccc	0x005d2d56
   1e54c:	3f5d46a2 	svccc	0x005d46a2
   1e550:	3f5d5fdd 	svccc	0x005d5fdd
   1e554:	3f5d7918 	svccc	0x005d7918
   1e558:	3f5d9253 	svccc	0x005d9253
   1e55c:	3f5dab7e 	svccc	0x005dab7e
   1e560:	3f5dc497 	svccc	0x005dc497
   1e564:	3f5dddb1 	svccc	0x005dddb1
   1e568:	3f5df6ba 	svccc	0x005df6ba
   1e56c:	3f5e0fc3 	svccc	0x005e0fc3
   1e570:	3f5e28bb 	svccc	0x005e28bb
   1e574:	3f5e41b3 	svccc	0x005e41b3
   1e578:	3f5e5aab 	svccc	0x005e5aab
   1e57c:	3f5e7393 	svccc	0x005e7393
   1e580:	3f5e8c69 	svccc	0x005e8c69
   1e584:	3f5ea540 	svccc	0x005ea540
   1e588:	3f5ebe06 	svccc	0x005ebe06
   1e58c:	3f5ed6cb 	svccc	0x005ed6cb
   1e590:	3f5eef80 	svccc	0x005eef80
   1e594:	3f5f0835 	svccc	0x005f0835
   1e598:	3f5f20da 	svccc	0x005f20da
   1e59c:	3f5f397e 	svccc	0x005f397e
   1e5a0:	3f5f5211 	svccc	0x005f5211
   1e5a4:	3f5f6aa5 	svccc	0x005f6aa5
   1e5a8:	3f5f8327 	svccc	0x005f8327
   1e5ac:	3f5f9baa 	svccc	0x005f9baa
   1e5b0:	3f5fb41c 	svccc	0x005fb41c
   1e5b4:	3f5fcc8e 	svccc	0x005fcc8e
   1e5b8:	3f5fe4ef 	svccc	0x005fe4ef
   1e5bc:	3f5ffd3f 	svccc	0x005ffd3f
   1e5c0:	3f601590 	svccc	0x00601590
   1e5c4:	3f602de0 	svccc	0x00602de0
   1e5c8:	3f604620 	svccc	0x00604620
   1e5cc:	3f605e5f 	svccc	0x00605e5f
   1e5d0:	3f60768e 	svccc	0x0060768e
   1e5d4:	3f608eac 	svccc	0x00608eac
   1e5d8:	3f60a6ca 	svccc	0x0060a6ca
   1e5dc:	3f60bee8 	svccc	0x0060bee8
   1e5e0:	3f60d6f5 	svccc	0x0060d6f5
   1e5e4:	3f60eef2 	svccc	0x0060eef2
   1e5e8:	3f6106ee 	svccc	0x006106ee
   1e5ec:	3f611eeb 	svccc	0x00611eeb
   1e5f0:	3f6136d6 	svccc	0x006136d6
   1e5f4:	3f614eb1 	svccc	0x00614eb1
   1e5f8:	3f61668c 	svccc	0x0061668c
   1e5fc:	3f617e56 	svccc	0x00617e56
   1e600:	3f619620 	svccc	0x00619620
   1e604:	3f61adda 	svccc	0x0061adda
   1e608:	3f61c593 	svccc	0x0061c593
   1e60c:	3f61dd4c 	svccc	0x0061dd4c
   1e610:	3f61f4e4 	svccc	0x0061f4e4
   1e614:	3f620c8d 	svccc	0x00620c8d
   1e618:	3f622414 	svccc	0x00622414
   1e61c:	3f623bac 	svccc	0x00623bac
   1e620:	3f625322 	svccc	0x00625322
   1e624:	3f626a98 	svccc	0x00626a98
   1e628:	3f62820e 	svccc	0x0062820e
   1e62c:	3f629974 	svccc	0x00629974
   1e630:	3f62b0d9 	svccc	0x0062b0d9
   1e634:	3f62c82e 	svccc	0x0062c82e
   1e638:	3f62df83 	svccc	0x0062df83
   1e63c:	3f62f6c7 	svccc	0x0062f6c7
   1e640:	3f630dfa 	svccc	0x00630dfa
   1e644:	3f63252d 	svccc	0x0063252d
   1e648:	3f633c60 	svccc	0x00633c60
   1e64c:	3f635382 	svccc	0x00635382
   1e650:	3f636a94 	svccc	0x00636a94
   1e654:	3f6381a6 	svccc	0x006381a6
   1e658:	3f6398a6 	svccc	0x006398a6
   1e65c:	3f63afa7 	svccc	0x0063afa7
   1e660:	3f63c6a8 	svccc	0x0063c6a8
   1e664:	3f63dd87 	svccc	0x0063dd87
   1e668:	3f63f477 	svccc	0x0063f477
   1e66c:	3f640b56 	svccc	0x00640b56
   1e670:	3f642225 	svccc	0x00642225
   1e674:	3f6438e3 	svccc	0x006438e3
   1e678:	3f644fb1 	svccc	0x00644fb1
   1e67c:	3f64665e 	svccc	0x0064665e
   1e680:	3f647d1c 	svccc	0x00647d1c
   1e684:	3f6493b8 	svccc	0x006493b8
   1e688:	3f64aa54 	svccc	0x0064aa54
   1e68c:	3f64c0f0 	svccc	0x0064c0f0
   1e690:	3f64d77b 	svccc	0x0064d77b
   1e694:	3f64edf6 	svccc	0x0064edf6
   1e698:	3f650471 	svccc	0x00650471
   1e69c:	3f651aeb 	svccc	0x00651aeb
   1e6a0:	3f653155 	svccc	0x00653155
   1e6a4:	3f6547ae 	svccc	0x006547ae
   1e6a8:	3f655e07 	svccc	0x00655e07
   1e6ac:	3f657460 	svccc	0x00657460
   1e6b0:	3f658a98 	svccc	0x00658a98
   1e6b4:	3f65a0e0 	svccc	0x0065a0e0
   1e6b8:	3f65b717 	svccc	0x0065b717
   1e6bc:	3f65cd3e 	svccc	0x0065cd3e
   1e6c0:	3f65e365 	svccc	0x0065e365
   1e6c4:	3f65f97b 	svccc	0x0065f97b
   1e6c8:	3f660f80 	svccc	0x00660f80
   1e6cc:	3f662596 	svccc	0x00662596
   1e6d0:	3f663b8a 	svccc	0x00663b8a
   1e6d4:	3f66517e 	svccc	0x0066517e
   1e6d8:	3f666773 	svccc	0x00666773
   1e6dc:	3f667d56 	svccc	0x00667d56
   1e6e0:	3f669329 	svccc	0x00669329
   1e6e4:	3f66a8fc 	svccc	0x0066a8fc
   1e6e8:	3f66becf 	svccc	0x0066becf
   1e6ec:	3f66d491 	svccc	0x0066d491
   1e6f0:	3f66ea42 	svccc	0x0066ea42
   1e6f4:	3f66fff3 	svccc	0x0066fff3
   1e6f8:	3f671594 	svccc	0x00671594
   1e6fc:	3f672b34 	svccc	0x00672b34
   1e700:	3f6740c4 	svccc	0x006740c4
   1e704:	3f675654 	svccc	0x00675654
   1e708:	3f676bd3 	svccc	0x00676bd3
   1e70c:	3f678152 	svccc	0x00678152
   1e710:	3f6796c0 	svccc	0x006796c0
   1e714:	3f67ac2e 	svccc	0x0067ac2e
   1e718:	3f67c18b 	svccc	0x0067c18b
   1e71c:	3f67d6d8 	svccc	0x0067d6d8
   1e720:	3f67ec25 	svccc	0x0067ec25
   1e724:	3f680171 	svccc	0x00680171
   1e728:	3f6816ad 	svccc	0x006816ad
   1e72c:	3f682bd8 	svccc	0x00682bd8
   1e730:	3f684103 	svccc	0x00684103
   1e734:	3f68561d 	svccc	0x0068561d
   1e738:	3f686b38 	svccc	0x00686b38
   1e73c:	3f688041 	svccc	0x00688041
   1e740:	3f68954a 	svccc	0x0068954a
   1e744:	3f68aa43 	svccc	0x0068aa43
   1e748:	3f68bf3c 	svccc	0x0068bf3c
   1e74c:	3f68d424 	svccc	0x0068d424
   1e750:	3f68e90c 	svccc	0x0068e90c
   1e754:	3f68fde3 	svccc	0x0068fde3
   1e758:	3f6912a9 	svccc	0x006912a9
   1e75c:	3f692770 	svccc	0x00692770
   1e760:	3f693c36 	svccc	0x00693c36
   1e764:	3f6950ec 	svccc	0x006950ec
   1e768:	3f696590 	svccc	0x00696590
   1e76c:	3f697a35 	svccc	0x00697a35
   1e770:	3f698ec9 	svccc	0x00698ec9
   1e774:	3f69a35d 	svccc	0x0069a35d
   1e778:	3f69b7e1 	svccc	0x0069b7e1
   1e77c:	3f69cc64 	svccc	0x0069cc64
   1e780:	3f69e0d6 	svccc	0x0069e0d6
   1e784:	3f69f549 	svccc	0x0069f549
   1e788:	3f6a09ab 	svccc	0x006a09ab
   1e78c:	3f6a1dfc 	svccc	0x006a1dfc
   1e790:	3f6a324d 	svccc	0x006a324d
   1e794:	3f6a469d 	svccc	0x006a469d
   1e798:	3f6a5ade 	svccc	0x006a5ade
   1e79c:	3f6a6f0d 	svccc	0x006a6f0d
   1e7a0:	3f6a833c 	svccc	0x006a833c
   1e7a4:	3f6a975b 	svccc	0x006a975b
   1e7a8:	3f6aab7a 	svccc	0x006aab7a
   1e7ac:	3f6abf87 	svccc	0x006abf87
   1e7b0:	3f6ad395 	svccc	0x006ad395
   1e7b4:	3f6ae792 	svccc	0x006ae792
   1e7b8:	3f6afb8f 	svccc	0x006afb8f
   1e7bc:	3f6b0f7c 	svccc	0x006b0f7c
   1e7c0:	3f6b2357 	svccc	0x006b2357
   1e7c4:	3f6b3733 	svccc	0x006b3733
   1e7c8:	3f6b4b0e 	svccc	0x006b4b0e
   1e7cc:	3f6b5ed9 	svccc	0x006b5ed9
   1e7d0:	3f6b7293 	svccc	0x006b7293
   1e7d4:	3f6b864d 	svccc	0x006b864d
   1e7d8:	3f6b99f6 	svccc	0x006b99f6
   1e7dc:	3f6bad9f 	svccc	0x006bad9f
   1e7e0:	3f6bc137 	svccc	0x006bc137
   1e7e4:	3f6bd4d0 	svccc	0x006bd4d0
   1e7e8:	3f6be857 	svccc	0x006be857
   1e7ec:	3f6bfbdf 	svccc	0x006bfbdf
   1e7f0:	3f6c0f56 	svccc	0x006c0f56
   1e7f4:	3f6c22bc 	svccc	0x006c22bc
   1e7f8:	3f6c3622 	svccc	0x006c3622
   1e7fc:	3f6c4988 	svccc	0x006c4988
   1e800:	3f6c5ccd 	svccc	0x006c5ccd
   1e804:	3f6c7022 	svccc	0x006c7022
   1e808:	3f6c8366 	svccc	0x006c8366
   1e80c:	3f6c969a 	svccc	0x006c969a
   1e810:	3f6ca9bd 	svccc	0x006ca9bd
   1e814:	3f6cbcf1 	svccc	0x006cbcf1
   1e818:	3f6cd003 	svccc	0x006cd003
   1e81c:	3f6ce315 	svccc	0x006ce315
   1e820:	3f6cf627 	svccc	0x006cf627
   1e824:	3f6d0929 	svccc	0x006d0929
   1e828:	3f6d1c19 	svccc	0x006d1c19
   1e82c:	3f6d2f0a 	svccc	0x006d2f0a
   1e830:	3f6d41ea 	svccc	0x006d41ea
   1e834:	3f6d54ca 	svccc	0x006d54ca
   1e838:	3f6d67a9 	svccc	0x006d67a9
   1e83c:	3f6d7a68 	svccc	0x006d7a68
   1e840:	3f6d8d26 	svccc	0x006d8d26
   1e844:	3f6d9fe4 	svccc	0x006d9fe4
   1e848:	3f6db292 	svccc	0x006db292
   1e84c:	3f6dc53f 	svccc	0x006dc53f
   1e850:	3f6dd7dc 	svccc	0x006dd7dc
   1e854:	3f6dea68 	svccc	0x006dea68
   1e858:	3f6dfcf4 	svccc	0x006dfcf4
   1e85c:	3f6e0f6f 	svccc	0x006e0f6f
   1e860:	3f6e21ea 	svccc	0x006e21ea
   1e864:	3f6e3455 	svccc	0x006e3455
   1e868:	3f6e46bf 	svccc	0x006e46bf
   1e86c:	3f6e5919 	svccc	0x006e5919
   1e870:	3f6e6b72 	svccc	0x006e6b72
   1e874:	3f6e7dbb 	svccc	0x006e7dbb
   1e878:	3f6e8ff3 	svccc	0x006e8ff3
   1e87c:	3f6ea22b 	svccc	0x006ea22b
   1e880:	3f6eb463 	svccc	0x006eb463
   1e884:	3f6ec67a 	svccc	0x006ec67a
   1e888:	3f6ed8a1 	svccc	0x006ed8a1
   1e88c:	3f6eeab8 	svccc	0x006eeab8
   1e890:	3f6efcbd 	svccc	0x006efcbd
   1e894:	3f6f0eb2 	svccc	0x006f0eb2
   1e898:	3f6f20b8 	svccc	0x006f20b8
   1e89c:	3f6f329c 	svccc	0x006f329c
   1e8a0:	3f6f4480 	svccc	0x006f4480
   1e8a4:	3f6f5665 	svccc	0x006f5665
   1e8a8:	3f6f6838 	svccc	0x006f6838
   1e8ac:	3f6f79fb 	svccc	0x006f79fb
   1e8b0:	3f6f8bbd 	svccc	0x006f8bbd
   1e8b4:	3f6f9d6f 	svccc	0x006f9d6f
   1e8b8:	3f6faf21 	svccc	0x006faf21
   1e8bc:	3f6fc0c2 	svccc	0x006fc0c2
   1e8c0:	3f6fd252 	svccc	0x006fd252
   1e8c4:	3f6fe3f3 	svccc	0x006fe3f3
   1e8c8:	3f6ff573 	svccc	0x006ff573
   1e8cc:	3f7006f2 	svccc	0x007006f2
   1e8d0:	3f701861 	svccc	0x00701861
   1e8d4:	3f7029d0 	svccc	0x007029d0
   1e8d8:	3f703b3f 	svccc	0x00703b3f
   1e8dc:	3f704c8c 	svccc	0x00704c8c
   1e8e0:	3f705dd9 	svccc	0x00705dd9
   1e8e4:	3f706f26 	svccc	0x00706f26
   1e8e8:	3f708063 	svccc	0x00708063
   1e8ec:	3f70919f 	svccc	0x0070919f
   1e8f0:	3f70a2cb 	svccc	0x0070a2cb
   1e8f4:	3f70b3e5 	svccc	0x0070b3e5
   1e8f8:	3f70c500 	svccc	0x0070c500
   1e8fc:	3f70d60a 	svccc	0x0070d60a
   1e900:	3f70e714 	svccc	0x0070e714
   1e904:	3f70f80e 	svccc	0x0070f80e
   1e908:	3f710907 	svccc	0x00710907
   1e90c:	3f7119f0 	svccc	0x007119f0
   1e910:	3f712ad8 	svccc	0x00712ad8
   1e914:	3f713bb0 	svccc	0x00713bb0
   1e918:	3f714c77 	svccc	0x00714c77
   1e91c:	3f715d3e 	svccc	0x00715d3e
   1e920:	3f716df4 	svccc	0x00716df4
   1e924:	3f717eaa 	svccc	0x00717eaa
   1e928:	3f718f50 	svccc	0x00718f50
   1e92c:	3f719ff5 	svccc	0x00719ff5
   1e930:	3f71b08a 	svccc	0x0071b08a
   1e934:	3f71c11e 	svccc	0x0071c11e
   1e938:	3f71d1a2 	svccc	0x0071d1a2
   1e93c:	3f71e215 	svccc	0x0071e215
   1e940:	3f71f288 	svccc	0x0071f288
   1e944:	3f7202fb 	svccc	0x007202fb
   1e948:	3f72134d 	svccc	0x0072134d
   1e94c:	3f7223af 	svccc	0x007223af
   1e950:	3f7233f0 	svccc	0x007233f0
   1e954:	3f724431 	svccc	0x00724431
   1e958:	3f725471 	svccc	0x00725471
   1e95c:	3f7264a1 	svccc	0x007264a1
   1e960:	3f7274c1 	svccc	0x007274c1
   1e964:	3f7284e0 	svccc	0x007284e0
   1e968:	3f7294ff 	svccc	0x007294ff
   1e96c:	3f72a4fd 	svccc	0x0072a4fd
   1e970:	3f72b50b 	svccc	0x0072b50b
   1e974:	3f72c4f8 	svccc	0x0072c4f8
   1e978:	3f72d4e5 	svccc	0x0072d4e5
   1e97c:	3f72e4d2 	svccc	0x0072e4d2
   1e980:	3f72f4ae 	svccc	0x0072f4ae
   1e984:	3f730479 	svccc	0x00730479
   1e988:	3f731444 	svccc	0x00731444
   1e98c:	3f7323ff 	svccc	0x007323ff
   1e990:	3f7333b9 	svccc	0x007333b9
   1e994:	3f734363 	svccc	0x00734363
   1e998:	3f73530d 	svccc	0x0073530d
   1e99c:	3f7362a6 	svccc	0x007362a6
   1e9a0:	3f73723f 	svccc	0x0073723f
   1e9a4:	3f7381c7 	svccc	0x007381c7
   1e9a8:	3f73913f 	svccc	0x0073913f
   1e9ac:	3f73a0b6 	svccc	0x0073a0b6
   1e9b0:	3f73b01d 	svccc	0x0073b01d
   1e9b4:	3f73bf83 	svccc	0x0073bf83
   1e9b8:	3f73ced9 	svccc	0x0073ced9
   1e9bc:	3f73de2f 	svccc	0x0073de2f
   1e9c0:	3f73ed74 	svccc	0x0073ed74
   1e9c4:	3f73fca8 	svccc	0x0073fca8
   1e9c8:	3f740bdd 	svccc	0x00740bdd
   1e9cc:	3f741b00 	svccc	0x00741b00
   1e9d0:	3f742a24 	svccc	0x00742a24
   1e9d4:	3f743937 	svccc	0x00743937
   1e9d8:	3f744849 	svccc	0x00744849
   1e9dc:	3f74574b 	svccc	0x0074574b
   1e9e0:	3f74664d 	svccc	0x0074664d
   1e9e4:	3f74753e 	svccc	0x0074753e
   1e9e8:	3f74841f 	svccc	0x0074841f
   1e9ec:	3f7492ff 	svccc	0x007492ff
   1e9f0:	3f74a1cf 	svccc	0x0074a1cf
   1e9f4:	3f74b09f 	svccc	0x0074b09f
   1e9f8:	3f74bf5d 	svccc	0x0074bf5d
   1e9fc:	3f74ce1c 	svccc	0x0074ce1c
   1ea00:	3f74dcca 	svccc	0x0074dcca
   1ea04:	3f74eb68 	svccc	0x0074eb68
   1ea08:	3f74fa05 	svccc	0x0074fa05
   1ea0c:	3f7508a2 	svccc	0x007508a2
   1ea10:	3f75172f 	svccc	0x0075172f
   1ea14:	3f7525ab 	svccc	0x007525ab
   1ea18:	3f753416 	svccc	0x00753416
   1ea1c:	3f754291 	svccc	0x00754291
   1ea20:	3f7550ec 	svccc	0x007550ec
   1ea24:	3f755f46 	svccc	0x00755f46
   1ea28:	3f756d8f 	svccc	0x00756d8f
   1ea2c:	3f757bd9 	svccc	0x00757bd9
   1ea30:	3f758a22 	svccc	0x00758a22
   1ea34:	3f75984a 	svccc	0x0075984a
   1ea38:	3f75a683 	svccc	0x0075a683
   1ea3c:	3f75b49a 	svccc	0x0075b49a
   1ea40:	3f75c2b1 	svccc	0x0075c2b1
   1ea44:	3f75d0c8 	svccc	0x0075d0c8
   1ea48:	3f75dece 	svccc	0x0075dece
   1ea4c:	3f75ecc4 	svccc	0x0075ecc4
   1ea50:	3f75fab9 	svccc	0x0075fab9
   1ea54:	3f76089e 	svccc	0x0076089e
   1ea58:	3f761672 	svccc	0x00761672
   1ea5c:	3f762457 	svccc	0x00762457
   1ea60:	3f76321a 	svccc	0x0076321a
   1ea64:	3f763fdd 	svccc	0x00763fdd
   1ea68:	3f764d90 	svccc	0x00764d90
   1ea6c:	3f765b42 	svccc	0x00765b42
   1ea70:	3f7668e4 	svccc	0x007668e4
   1ea74:	3f767686 	svccc	0x00767686
   1ea78:	3f768416 	svccc	0x00768416
   1ea7c:	3f7691a7 	svccc	0x007691a7
   1ea80:	3f769f27 	svccc	0x00769f27
   1ea84:	3f76ac97 	svccc	0x0076ac97
   1ea88:	3f76ba06 	svccc	0x0076ba06
   1ea8c:	3f76c765 	svccc	0x0076c765
   1ea90:	3f76d4c3 	svccc	0x0076d4c3
   1ea94:	3f76e211 	svccc	0x0076e211
   1ea98:	3f76ef5f 	svccc	0x0076ef5f
   1ea9c:	3f76fc9c 	svccc	0x0076fc9c
   1eaa0:	3f7709c8 	svccc	0x007709c8
   1eaa4:	3f7716f4 	svccc	0x007716f4
   1eaa8:	3f772410 	svccc	0x00772410
   1eaac:	3f77312b 	svccc	0x0077312b
   1eab0:	3f773e36 	svccc	0x00773e36
   1eab4:	3f774b40 	svccc	0x00774b40
   1eab8:	3f77583a 	svccc	0x0077583a
   1eabc:	3f776523 	svccc	0x00776523
   1eac0:	3f77720d 	svccc	0x0077720d
   1eac4:	3f777ef6 	svccc	0x00777ef6
   1eac8:	3f778bbd 	svccc	0x00778bbd
   1eacc:	3f779896 	svccc	0x00779896
   1ead0:	3f77a54c 	svccc	0x0077a54c
   1ead4:	3f77b203 	svccc	0x0077b203
   1ead8:	3f77beba 	svccc	0x0077beba
   1eadc:	3f77cb60 	svccc	0x0077cb60
   1eae0:	3f77d7f5 	svccc	0x0077d7f5
   1eae4:	3f77e48a 	svccc	0x0077e48a
   1eae8:	3f77f10f 	svccc	0x0077f10f
   1eaec:	3f77fd93 	svccc	0x0077fd93
   1eaf0:	3f780a07 	svccc	0x00780a07
   1eaf4:	3f78166a 	svccc	0x0078166a
   1eaf8:	3f7822cd 	svccc	0x007822cd
   1eafc:	3f782f30 	svccc	0x00782f30
   1eb00:	3f783b71 	svccc	0x00783b71
   1eb04:	3f7847c3 	svccc	0x007847c3
   1eb08:	3f7853f4 	svccc	0x007853f4
   1eb0c:	3f786024 	svccc	0x00786024
   1eb10:	3f786c55 	svccc	0x00786c55
   1eb14:	3f787875 	svccc	0x00787875
   1eb18:	3f788484 	svccc	0x00788484
   1eb1c:	3f789093 	svccc	0x00789093
   1eb20:	3f789c91 	svccc	0x00789c91
   1eb24:	3f78a88f 	svccc	0x0078a88f
   1eb28:	3f78b47c 	svccc	0x0078b47c
   1eb2c:	3f78c059 	svccc	0x0078c059
   1eb30:	3f78cc36 	svccc	0x0078cc36
   1eb34:	3f78d812 	svccc	0x0078d812
   1eb38:	3f78e3ce 	svccc	0x0078e3ce
   1eb3c:	3f78ef9a 	svccc	0x0078ef9a
   1eb40:	3f78fb44 	svccc	0x0078fb44
   1eb44:	3f7906ee 	svccc	0x007906ee
   1eb48:	3f791299 	svccc	0x00791299
   1eb4c:	3f791e32 	svccc	0x00791e32
   1eb50:	3f7929bb 	svccc	0x007929bb
   1eb54:	3f793544 	svccc	0x00793544
   1eb58:	3f7940bc 	svccc	0x007940bc
   1eb5c:	3f794c34 	svccc	0x00794c34
   1eb60:	3f79579b 	svccc	0x0079579b
   1eb64:	3f7962f1 	svccc	0x007962f1
   1eb68:	3f796e48 	svccc	0x00796e48
   1eb6c:	3f79799e 	svccc	0x0079799e
   1eb70:	3f7984e4 	svccc	0x007984e4
   1eb74:	3f799019 	svccc	0x00799019
   1eb78:	3f799b3d 	svccc	0x00799b3d
   1eb7c:	3f79a661 	svccc	0x0079a661
   1eb80:	3f79b185 	svccc	0x0079b185
   1eb84:	3f79bc99 	svccc	0x0079bc99
   1eb88:	3f79c79b 	svccc	0x0079c79b
   1eb8c:	3f79d29e 	svccc	0x0079d29e
   1eb90:	3f79dd90 	svccc	0x0079dd90
   1eb94:	3f79e881 	svccc	0x0079e881
   1eb98:	3f79f362 	svccc	0x0079f362
   1eb9c:	3f79fe33 	svccc	0x0079fe33
   1eba0:	3f7a0903 	svccc	0x007a0903
   1eba4:	3f7a13c2 	svccc	0x007a13c2
   1eba8:	3f7a1e82 	svccc	0x007a1e82
   1ebac:	3f7a2930 	svccc	0x007a2930
   1ebb0:	3f7a33df 	svccc	0x007a33df
   1ebb4:	3f7a3e7d 	svccc	0x007a3e7d
   1ebb8:	3f7a490a 	svccc	0x007a490a
   1ebbc:	3f7a5397 	svccc	0x007a5397
   1ebc0:	3f7a5e24 	svccc	0x007a5e24
   1ebc4:	3f7a6890 	svccc	0x007a6890
   1ebc8:	3f7a72fc 	svccc	0x007a72fc
   1ebcc:	3f7a7d67 	svccc	0x007a7d67
   1ebd0:	3f7a87c2 	svccc	0x007a87c2
   1ebd4:	3f7a920c 	svccc	0x007a920c
   1ebd8:	3f7a9c56 	svccc	0x007a9c56
   1ebdc:	3f7aa68f 	svccc	0x007aa68f
   1ebe0:	3f7ab0c9 	svccc	0x007ab0c9
   1ebe4:	3f7abaf1 	svccc	0x007abaf1
   1ebe8:	3f7ac519 	svccc	0x007ac519
   1ebec:	3f7acf31 	svccc	0x007acf31
   1ebf0:	3f7ad938 	svccc	0x007ad938
   1ebf4:	3f7ae33f 	svccc	0x007ae33f
   1ebf8:	3f7aed35 	svccc	0x007aed35
   1ebfc:	3f7af72b 	svccc	0x007af72b
   1ec00:	3f7b0111 	svccc	0x007b0111
   1ec04:	3f7b0ae5 	svccc	0x007b0ae5
   1ec08:	3f7b14ba 	svccc	0x007b14ba
   1ec0c:	3f7b1e8e 	svccc	0x007b1e8e
   1ec10:	3f7b2841 	svccc	0x007b2841
   1ec14:	3f7b3205 	svccc	0x007b3205
   1ec18:	3f7b3ba7 	svccc	0x007b3ba7
   1ec1c:	3f7b454a 	svccc	0x007b454a
   1ec20:	3f7b4eec 	svccc	0x007b4eec
   1ec24:	3f7b587d 	svccc	0x007b587d
   1ec28:	3f7b61fe 	svccc	0x007b61fe
   1ec2c:	3f7b6b7f 	svccc	0x007b6b7f
   1ec30:	3f7b74ef 	svccc	0x007b74ef
   1ec34:	3f7b7e4e 	svccc	0x007b7e4e
   1ec38:	3f7b87ad 	svccc	0x007b87ad
   1ec3c:	3f7b910c 	svccc	0x007b910c
   1ec40:	3f7b9a5b 	svccc	0x007b9a5b
   1ec44:	3f7ba398 	svccc	0x007ba398
   1ec48:	3f7bacc5 	svccc	0x007bacc5
   1ec4c:	3f7bb603 	svccc	0x007bb603
   1ec50:	3f7bbf1f 	svccc	0x007bbf1f
   1ec54:	3f7bc83b 	svccc	0x007bc83b
   1ec58:	3f7bd146 	svccc	0x007bd146
   1ec5c:	3f7bda51 	svccc	0x007bda51
   1ec60:	3f7be34c 	svccc	0x007be34c
   1ec64:	3f7bec46 	svccc	0x007bec46
   1ec68:	3f7bf530 	svccc	0x007bf530
   1ec6c:	3f7bfe19 	svccc	0x007bfe19
   1ec70:	3f7c06e2 	svccc	0x007c06e2
   1ec74:	3f7c0fbb 	svccc	0x007c0fbb
   1ec78:	3f7c1883 	svccc	0x007c1883
   1ec7c:	3f7c213a 	svccc	0x007c213a
   1ec80:	3f7c29e1 	svccc	0x007c29e1
   1ec84:	3f7c3287 	svccc	0x007c3287
   1ec88:	3f7c3b2e 	svccc	0x007c3b2e
   1ec8c:	3f7c43b3 	svccc	0x007c43b3
   1ec90:	3f7c4c49 	svccc	0x007c4c49
   1ec94:	3f7c54bd 	svccc	0x007c54bd
   1ec98:	3f7c5d42 	svccc	0x007c5d42
   1ec9c:	3f7c65a5 	svccc	0x007c65a5
   1eca0:	3f7c6e09 	svccc	0x007c6e09
   1eca4:	3f7c765c 	svccc	0x007c765c
   1eca8:	3f7c7eae 	svccc	0x007c7eae
   1ecac:	3f7c86f0 	svccc	0x007c86f0
   1ecb0:	3f7c8f32 	svccc	0x007c8f32
   1ecb4:	3f7c9763 	svccc	0x007c9763
   1ecb8:	3f7c9f84 	svccc	0x007c9f84
   1ecbc:	3f7ca7a4 	svccc	0x007ca7a4
   1ecc0:	3f7cafc4 	svccc	0x007cafc4
   1ecc4:	3f7cb7c3 	svccc	0x007cb7c3
   1ecc8:	3f7cbfc2 	svccc	0x007cbfc2
   1eccc:	3f7cc7c1 	svccc	0x007cc7c1
   1ecd0:	3f7ccfaf 	svccc	0x007ccfaf
   1ecd4:	3f7cd78c 	svccc	0x007cd78c
   1ecd8:	3f7cdf6a 	svccc	0x007cdf6a
   1ecdc:	3f7ce736 	svccc	0x007ce736
   1ece0:	3f7cef03 	svccc	0x007cef03
   1ece4:	3f7cf6be 	svccc	0x007cf6be
   1ece8:	3f7cfe7a 	svccc	0x007cfe7a
   1ecec:	3f7d0614 	svccc	0x007d0614
   1ecf0:	3f7d0dbf 	svccc	0x007d0dbf
   1ecf4:	3f7d1559 	svccc	0x007d1559
   1ecf8:	3f7d1ce3 	svccc	0x007d1ce3
   1ecfc:	3f7d245b 	svccc	0x007d245b
   1ed00:	3f7d2bd4 	svccc	0x007d2bd4
   1ed04:	3f7d334c 	svccc	0x007d334c
   1ed08:	3f7d3ab4 	svccc	0x007d3ab4
   1ed0c:	3f7d420b 	svccc	0x007d420b
   1ed10:	3f7d4952 	svccc	0x007d4952
   1ed14:	3f7d50a9 	svccc	0x007d50a9
   1ed18:	3f7d57de 	svccc	0x007d57de
   1ed1c:	3f7d5f14 	svccc	0x007d5f14
   1ed20:	3f7d6638 	svccc	0x007d6638
   1ed24:	3f7d6d5d 	svccc	0x007d6d5d
   1ed28:	3f7d7471 	svccc	0x007d7471
   1ed2c:	3f7d7b85 	svccc	0x007d7b85
   1ed30:	3f7d8288 	svccc	0x007d8288
   1ed34:	3f7d897a 	svccc	0x007d897a
   1ed38:	3f7d906d 	svccc	0x007d906d
   1ed3c:	3f7d974e 	svccc	0x007d974e
   1ed40:	3f7d9e30 	svccc	0x007d9e30
   1ed44:	3f7da501 	svccc	0x007da501
   1ed48:	3f7dabd2 	svccc	0x007dabd2
   1ed4c:	3f7db292 	svccc	0x007db292
   1ed50:	3f7db941 	svccc	0x007db941
   1ed54:	3f7dbff0 	svccc	0x007dbff0
   1ed58:	3f7dc68f 	svccc	0x007dc68f
   1ed5c:	3f7dcd1c 	svccc	0x007dcd1c
   1ed60:	3f7dd3aa 	svccc	0x007dd3aa
   1ed64:	3f7dda38 	svccc	0x007dda38
   1ed68:	3f7de0b5 	svccc	0x007de0b5
   1ed6c:	3f7de721 	svccc	0x007de721
   1ed70:	3f7ded8d 	svccc	0x007ded8d
   1ed74:	3f7df3e9 	svccc	0x007df3e9
   1ed78:	3f7dfa33 	svccc	0x007dfa33
   1ed7c:	3f7e007e 	svccc	0x007e007e
   1ed80:	3f7e06c8 	svccc	0x007e06c8
   1ed84:	3f7e0cf2 	svccc	0x007e0cf2
   1ed88:	3f7e132b 	svccc	0x007e132b
   1ed8c:	3f7e1944 	svccc	0x007e1944
   1ed90:	3f7e1f5c 	svccc	0x007e1f5c
   1ed94:	3f7e2574 	svccc	0x007e2574
   1ed98:	3f7e2b6b 	svccc	0x007e2b6b
   1ed9c:	3f7e3172 	svccc	0x007e3172
   1eda0:	3f7e3758 	svccc	0x007e3758
   1eda4:	3f7e3d3e 	svccc	0x007e3d3e
   1eda8:	3f7e4324 	svccc	0x007e4324
   1edac:	3f7e48f9 	svccc	0x007e48f9
   1edb0:	3f7e4ebe 	svccc	0x007e4ebe
   1edb4:	3f7e5482 	svccc	0x007e5482
   1edb8:	3f7e5a36 	svccc	0x007e5a36
   1edbc:	3f7e5fe9 	svccc	0x007e5fe9
   1edc0:	3f7e658c 	svccc	0x007e658c
   1edc4:	3f7e6b1e 	svccc	0x007e6b1e
   1edc8:	3f7e70b0 	svccc	0x007e70b0
   1edcc:	3f7e7632 	svccc	0x007e7632
   1edd0:	3f7e7bb3 	svccc	0x007e7bb3
   1edd4:	3f7e8124 	svccc	0x007e8124
   1edd8:	3f7e8683 	svccc	0x007e8683
   1eddc:	3f7e8be3 	svccc	0x007e8be3
   1ede0:	3f7e9143 	svccc	0x007e9143
   1ede4:	3f7e9681 	svccc	0x007e9681
   1ede8:	3f7e9bd0 	svccc	0x007e9bd0
   1edec:	3f7ea0fd 	svccc	0x007ea0fd
   1edf0:	3f7ea62b 	svccc	0x007ea62b
   1edf4:	3f7eab58 	svccc	0x007eab58
   1edf8:	3f7eb064 	svccc	0x007eb064
   1edfc:	3f7eb580 	svccc	0x007eb580
   1ee00:	3f7eba7c 	svccc	0x007eba7c
   1ee04:	3f7ebf77 	svccc	0x007ebf77
   1ee08:	3f7ec472 	svccc	0x007ec472
   1ee0c:	3f7ec95c 	svccc	0x007ec95c
   1ee10:	3f7ece36 	svccc	0x007ece36
   1ee14:	3f7ed30f 	svccc	0x007ed30f
   1ee18:	3f7ed7d8 	svccc	0x007ed7d8
   1ee1c:	3f7edc90 	svccc	0x007edc90
   1ee20:	3f7ee148 	svccc	0x007ee148
   1ee24:	3f7ee600 	svccc	0x007ee600
   1ee28:	3f7eea96 	svccc	0x007eea96
   1ee2c:	3f7eef3d 	svccc	0x007eef3d
   1ee30:	3f7ef3c3 	svccc	0x007ef3c3
   1ee34:	3f7ef848 	svccc	0x007ef848
   1ee38:	3f7efcce 	svccc	0x007efcce
   1ee3c:	3f7f0143 	svccc	0x007f0143
   1ee40:	3f7f05a7 	svccc	0x007f05a7
   1ee44:	3f7f0a0b 	svccc	0x007f0a0b
   1ee48:	3f7f0e5e 	svccc	0x007f0e5e
   1ee4c:	3f7f12a1 	svccc	0x007f12a1
   1ee50:	3f7f16e3 	svccc	0x007f16e3
   1ee54:	3f7f1b15 	svccc	0x007f1b15
   1ee58:	3f7f1f47 	svccc	0x007f1f47
   1ee5c:	3f7f2368 	svccc	0x007f2368
   1ee60:	3f7f2789 	svccc	0x007f2789
   1ee64:	3f7f2b99 	svccc	0x007f2b99
   1ee68:	3f7f2f98 	svccc	0x007f2f98
   1ee6c:	3f7f3398 	svccc	0x007f3398
   1ee70:	3f7f3786 	svccc	0x007f3786
   1ee74:	3f7f3b75 	svccc	0x007f3b75
   1ee78:	3f7f3f53 	svccc	0x007f3f53
   1ee7c:	3f7f4331 	svccc	0x007f4331
   1ee80:	3f7f46ed 	svccc	0x007f46ed
   1ee84:	3f7f4aba 	svccc	0x007f4aba
   1ee88:	3f7f4e66 	svccc	0x007f4e66
   1ee8c:	3f7f5222 	svccc	0x007f5222
   1ee90:	3f7f55bd 	svccc	0x007f55bd
   1ee94:	3f7f5958 	svccc	0x007f5958
   1ee98:	3f7f5ce2 	svccc	0x007f5ce2
   1ee9c:	3f7f606b 	svccc	0x007f606b
   1eea0:	3f7f63e5 	svccc	0x007f63e5
   1eea4:	3f7f675e 	svccc	0x007f675e
   1eea8:	3f7f6ac6 	svccc	0x007f6ac6
   1eeac:	3f7f6e2f 	svccc	0x007f6e2f
   1eeb0:	3f7f7176 	svccc	0x007f7176
   1eeb4:	3f7f74cd 	svccc	0x007f74cd
   1eeb8:	3f7f7803 	svccc	0x007f7803
   1eebc:	3f7f7b39 	svccc	0x007f7b39
   1eec0:	3f7f7e6f 	svccc	0x007f7e6f
   1eec4:	3f7f8195 	svccc	0x007f8195
   1eec8:	3f7f84a9 	svccc	0x007f84a9
   1eecc:	3f7f87be 	svccc	0x007f87be
   1eed0:	3f7f8ac2 	svccc	0x007f8ac2
   1eed4:	3f7f8dc5 	svccc	0x007f8dc5
   1eed8:	3f7f90b8 	svccc	0x007f90b8
   1eedc:	3f7f939a 	svccc	0x007f939a
   1eee0:	3f7f967d 	svccc	0x007f967d
   1eee4:	3f7f994e 	svccc	0x007f994e
   1eee8:	3f7f9c20 	svccc	0x007f9c20
   1eeec:	3f7f9ee0 	svccc	0x007f9ee0
   1eef0:	3f7fa190 	svccc	0x007fa190
   1eef4:	3f7fa440 	svccc	0x007fa440
   1eef8:	3f7fa6df 	svccc	0x007fa6df
   1eefc:	3f7fa97e 	svccc	0x007fa97e
   1ef00:	3f7fac0c 	svccc	0x007fac0c
   1ef04:	3f7fae9b 	svccc	0x007fae9b
   1ef08:	3f7fb107 	svccc	0x007fb107
   1ef0c:	3f7fb385 	svccc	0x007fb385
   1ef10:	3f7fb5f2 	svccc	0x007fb5f2
   1ef14:	3f7fb84e 	svccc	0x007fb84e
   1ef18:	3f7fba99 	svccc	0x007fba99
   1ef1c:	3f7fbce4 	svccc	0x007fbce4
   1ef20:	3f7fbf2f 	svccc	0x007fbf2f
   1ef24:	3f7fc16a 	svccc	0x007fc16a
   1ef28:	3f7fc393 	svccc	0x007fc393
   1ef2c:	3f7fc5ac 	svccc	0x007fc5ac
   1ef30:	3f7fc7c5 	svccc	0x007fc7c5
   1ef34:	3f7fc9de 	svccc	0x007fc9de
   1ef38:	3f7fcbe6 	svccc	0x007fcbe6
   1ef3c:	3f7fcddd 	svccc	0x007fcddd
   1ef40:	3f7fcfd5 	svccc	0x007fcfd5
   1ef44:	3f7fd1bb 	svccc	0x007fd1bb
   1ef48:	3f7fd391 	svccc	0x007fd391
   1ef4c:	3f7fd567 	svccc	0x007fd567
   1ef50:	3f7fd73d 	svccc	0x007fd73d
   1ef54:	3f7fd8f1 	svccc	0x007fd8f1
   1ef58:	3f7fdab6 	svccc	0x007fdab6
   1ef5c:	3f7fdc59 	svccc	0x007fdc59
   1ef60:	3f7fddfd 	svccc	0x007fddfd
   1ef64:	3f7fdfa0 	svccc	0x007fdfa0
   1ef68:	3f7fe122 	svccc	0x007fe122
   1ef6c:	3f7fe2b5 	svccc	0x007fe2b5
   1ef70:	3f7fe426 	svccc	0x007fe426
   1ef74:	3f7fe597 	svccc	0x007fe597
   1ef78:	3f7fe708 	svccc	0x007fe708
   1ef7c:	3f7fe868 	svccc	0x007fe868
   1ef80:	3f7fe9b8 	svccc	0x007fe9b8
   1ef84:	3f7feb07 	svccc	0x007feb07
   1ef88:	3f7fec46 	svccc	0x007fec46
   1ef8c:	3f7fed74 	svccc	0x007fed74
   1ef90:	3f7feea2 	svccc	0x007feea2
   1ef94:	3f7fefd0 	svccc	0x007fefd0
   1ef98:	3f7ff0dc 	svccc	0x007ff0dc
   1ef9c:	3f7ff1fa 	svccc	0x007ff1fa
   1efa0:	3f7ff2f5 	svccc	0x007ff2f5
   1efa4:	3f7ff3f1 	svccc	0x007ff3f1
   1efa8:	3f7ff4ed 	svccc	0x007ff4ed
   1efac:	3f7ff5c7 	svccc	0x007ff5c7
   1efb0:	3f7ff6b2 	svccc	0x007ff6b2
   1efb4:	3f7ff77b 	svccc	0x007ff77b
   1efb8:	3f7ff844 	svccc	0x007ff844
   1efbc:	3f7ff90e 	svccc	0x007ff90e
   1efc0:	3f7ff9c6 	svccc	0x007ff9c6
   1efc4:	3f7ffa6e 	svccc	0x007ffa6e
   1efc8:	3f7ffb16 	svccc	0x007ffb16
   1efcc:	3f7ffbad 	svccc	0x007ffbad
   1efd0:	3f7ffc33 	svccc	0x007ffc33
   1efd4:	3f7ffcb9 	svccc	0x007ffcb9
   1efd8:	3f7ffd3f 	svccc	0x007ffd3f
   1efdc:	3f7ffda4 	svccc	0x007ffda4
   1efe0:	3f7ffe19 	svccc	0x007ffe19
   1efe4:	3f7ffe6d 	svccc	0x007ffe6d
   1efe8:	3f7ffec1 	svccc	0x007ffec1
   1efec:	3f7fff15 	svccc	0x007fff15
   1eff0:	3f7fff47 	svccc	0x007fff47
   1eff4:	3f7fff8b 	svccc	0x007fff8b
   1eff8:	3f7fffac 	svccc	0x007fffac
   1effc:	3f7fffce 	svccc	0x007fffce
   1f000:	3f7fffef 	svccc	0x007fffef
   1f004:	3f800000 	svccc	0x00800000
   1f008:	3f800000 	svccc	0x00800000
   1f00c:	3f800000 	svccc	0x00800000
   1f010:	3f7fffef 	svccc	0x007fffef
   1f014:	3f7fffce 	svccc	0x007fffce
   1f018:	3f7fffac 	svccc	0x007fffac
   1f01c:	3f7fff8b 	svccc	0x007fff8b
   1f020:	3f7fff47 	svccc	0x007fff47
   1f024:	3f7fff15 	svccc	0x007fff15
   1f028:	3f7ffec1 	svccc	0x007ffec1
   1f02c:	3f7ffe6d 	svccc	0x007ffe6d
   1f030:	3f7ffe19 	svccc	0x007ffe19
   1f034:	3f7ffda4 	svccc	0x007ffda4
   1f038:	3f7ffd3f 	svccc	0x007ffd3f
   1f03c:	3f7ffcb9 	svccc	0x007ffcb9
   1f040:	3f7ffc33 	svccc	0x007ffc33
   1f044:	3f7ffbad 	svccc	0x007ffbad
   1f048:	3f7ffb16 	svccc	0x007ffb16
   1f04c:	3f7ffa6e 	svccc	0x007ffa6e
   1f050:	3f7ff9c6 	svccc	0x007ff9c6
   1f054:	3f7ff90e 	svccc	0x007ff90e
   1f058:	3f7ff844 	svccc	0x007ff844
   1f05c:	3f7ff77b 	svccc	0x007ff77b
   1f060:	3f7ff6b2 	svccc	0x007ff6b2
   1f064:	3f7ff5c7 	svccc	0x007ff5c7
   1f068:	3f7ff4ed 	svccc	0x007ff4ed
   1f06c:	3f7ff3f1 	svccc	0x007ff3f1
   1f070:	3f7ff2f5 	svccc	0x007ff2f5
   1f074:	3f7ff1fa 	svccc	0x007ff1fa
   1f078:	3f7ff0dc 	svccc	0x007ff0dc
   1f07c:	3f7fefd0 	svccc	0x007fefd0
   1f080:	3f7feea2 	svccc	0x007feea2
   1f084:	3f7fed74 	svccc	0x007fed74
   1f088:	3f7fec46 	svccc	0x007fec46
   1f08c:	3f7feb07 	svccc	0x007feb07
   1f090:	3f7fe9b8 	svccc	0x007fe9b8
   1f094:	3f7fe868 	svccc	0x007fe868
   1f098:	3f7fe708 	svccc	0x007fe708
   1f09c:	3f7fe597 	svccc	0x007fe597
   1f0a0:	3f7fe426 	svccc	0x007fe426
   1f0a4:	3f7fe2b5 	svccc	0x007fe2b5
   1f0a8:	3f7fe122 	svccc	0x007fe122
   1f0ac:	3f7fdfa0 	svccc	0x007fdfa0
   1f0b0:	3f7fddfd 	svccc	0x007fddfd
   1f0b4:	3f7fdc59 	svccc	0x007fdc59
   1f0b8:	3f7fdab6 	svccc	0x007fdab6
   1f0bc:	3f7fd8f1 	svccc	0x007fd8f1
   1f0c0:	3f7fd73d 	svccc	0x007fd73d
   1f0c4:	3f7fd567 	svccc	0x007fd567
   1f0c8:	3f7fd391 	svccc	0x007fd391
   1f0cc:	3f7fd1bb 	svccc	0x007fd1bb
   1f0d0:	3f7fcfd5 	svccc	0x007fcfd5
   1f0d4:	3f7fcddd 	svccc	0x007fcddd
   1f0d8:	3f7fcbe6 	svccc	0x007fcbe6
   1f0dc:	3f7fc9de 	svccc	0x007fc9de
   1f0e0:	3f7fc7c5 	svccc	0x007fc7c5
   1f0e4:	3f7fc5ac 	svccc	0x007fc5ac
   1f0e8:	3f7fc393 	svccc	0x007fc393
   1f0ec:	3f7fc16a 	svccc	0x007fc16a
   1f0f0:	3f7fbf2f 	svccc	0x007fbf2f
   1f0f4:	3f7fbce4 	svccc	0x007fbce4
   1f0f8:	3f7fba99 	svccc	0x007fba99
   1f0fc:	3f7fb84e 	svccc	0x007fb84e
   1f100:	3f7fb5f2 	svccc	0x007fb5f2
   1f104:	3f7fb385 	svccc	0x007fb385
   1f108:	3f7fb107 	svccc	0x007fb107
   1f10c:	3f7fae9b 	svccc	0x007fae9b
   1f110:	3f7fac0c 	svccc	0x007fac0c
   1f114:	3f7fa97e 	svccc	0x007fa97e
   1f118:	3f7fa6df 	svccc	0x007fa6df
   1f11c:	3f7fa440 	svccc	0x007fa440
   1f120:	3f7fa190 	svccc	0x007fa190
   1f124:	3f7f9ee0 	svccc	0x007f9ee0
   1f128:	3f7f9c20 	svccc	0x007f9c20
   1f12c:	3f7f994e 	svccc	0x007f994e
   1f130:	3f7f967d 	svccc	0x007f967d
   1f134:	3f7f939a 	svccc	0x007f939a
   1f138:	3f7f90b8 	svccc	0x007f90b8
   1f13c:	3f7f8dc5 	svccc	0x007f8dc5
   1f140:	3f7f8ac2 	svccc	0x007f8ac2
   1f144:	3f7f87be 	svccc	0x007f87be
   1f148:	3f7f84a9 	svccc	0x007f84a9
   1f14c:	3f7f8195 	svccc	0x007f8195
   1f150:	3f7f7e6f 	svccc	0x007f7e6f
   1f154:	3f7f7b39 	svccc	0x007f7b39
   1f158:	3f7f7803 	svccc	0x007f7803
   1f15c:	3f7f74cd 	svccc	0x007f74cd
   1f160:	3f7f7176 	svccc	0x007f7176
   1f164:	3f7f6e2f 	svccc	0x007f6e2f
   1f168:	3f7f6ac6 	svccc	0x007f6ac6
   1f16c:	3f7f675e 	svccc	0x007f675e
   1f170:	3f7f63e5 	svccc	0x007f63e5
   1f174:	3f7f606b 	svccc	0x007f606b
   1f178:	3f7f5ce2 	svccc	0x007f5ce2
   1f17c:	3f7f5958 	svccc	0x007f5958
   1f180:	3f7f55bd 	svccc	0x007f55bd
   1f184:	3f7f5222 	svccc	0x007f5222
   1f188:	3f7f4e66 	svccc	0x007f4e66
   1f18c:	3f7f4aba 	svccc	0x007f4aba
   1f190:	3f7f46ed 	svccc	0x007f46ed
   1f194:	3f7f4331 	svccc	0x007f4331
   1f198:	3f7f3f53 	svccc	0x007f3f53
   1f19c:	3f7f3b75 	svccc	0x007f3b75
   1f1a0:	3f7f3786 	svccc	0x007f3786
   1f1a4:	3f7f3398 	svccc	0x007f3398
   1f1a8:	3f7f2f98 	svccc	0x007f2f98
   1f1ac:	3f7f2b99 	svccc	0x007f2b99
   1f1b0:	3f7f2789 	svccc	0x007f2789
   1f1b4:	3f7f2368 	svccc	0x007f2368
   1f1b8:	3f7f1f47 	svccc	0x007f1f47
   1f1bc:	3f7f1b15 	svccc	0x007f1b15
   1f1c0:	3f7f16e3 	svccc	0x007f16e3
   1f1c4:	3f7f12a1 	svccc	0x007f12a1
   1f1c8:	3f7f0e5e 	svccc	0x007f0e5e
   1f1cc:	3f7f0a0b 	svccc	0x007f0a0b
   1f1d0:	3f7f05a7 	svccc	0x007f05a7
   1f1d4:	3f7f0143 	svccc	0x007f0143
   1f1d8:	3f7efcce 	svccc	0x007efcce
   1f1dc:	3f7ef848 	svccc	0x007ef848
   1f1e0:	3f7ef3c3 	svccc	0x007ef3c3
   1f1e4:	3f7eef3d 	svccc	0x007eef3d
   1f1e8:	3f7eea96 	svccc	0x007eea96
   1f1ec:	3f7ee600 	svccc	0x007ee600
   1f1f0:	3f7ee148 	svccc	0x007ee148
   1f1f4:	3f7edc90 	svccc	0x007edc90
   1f1f8:	3f7ed7d8 	svccc	0x007ed7d8
   1f1fc:	3f7ed30f 	svccc	0x007ed30f
   1f200:	3f7ece36 	svccc	0x007ece36
   1f204:	3f7ec95c 	svccc	0x007ec95c
   1f208:	3f7ec472 	svccc	0x007ec472
   1f20c:	3f7ebf77 	svccc	0x007ebf77
   1f210:	3f7eba7c 	svccc	0x007eba7c
   1f214:	3f7eb580 	svccc	0x007eb580
   1f218:	3f7eb064 	svccc	0x007eb064
   1f21c:	3f7eab58 	svccc	0x007eab58
   1f220:	3f7ea62b 	svccc	0x007ea62b
   1f224:	3f7ea0fd 	svccc	0x007ea0fd
   1f228:	3f7e9bd0 	svccc	0x007e9bd0
   1f22c:	3f7e9681 	svccc	0x007e9681
   1f230:	3f7e9143 	svccc	0x007e9143
   1f234:	3f7e8be3 	svccc	0x007e8be3
   1f238:	3f7e8683 	svccc	0x007e8683
   1f23c:	3f7e8124 	svccc	0x007e8124
   1f240:	3f7e7bb3 	svccc	0x007e7bb3
   1f244:	3f7e7632 	svccc	0x007e7632
   1f248:	3f7e70b0 	svccc	0x007e70b0
   1f24c:	3f7e6b1e 	svccc	0x007e6b1e
   1f250:	3f7e658c 	svccc	0x007e658c
   1f254:	3f7e5fe9 	svccc	0x007e5fe9
   1f258:	3f7e5a36 	svccc	0x007e5a36
   1f25c:	3f7e5482 	svccc	0x007e5482
   1f260:	3f7e4ebe 	svccc	0x007e4ebe
   1f264:	3f7e48f9 	svccc	0x007e48f9
   1f268:	3f7e4324 	svccc	0x007e4324
   1f26c:	3f7e3d3e 	svccc	0x007e3d3e
   1f270:	3f7e3758 	svccc	0x007e3758
   1f274:	3f7e3172 	svccc	0x007e3172
   1f278:	3f7e2b6b 	svccc	0x007e2b6b
   1f27c:	3f7e2574 	svccc	0x007e2574
   1f280:	3f7e1f5c 	svccc	0x007e1f5c
   1f284:	3f7e1944 	svccc	0x007e1944
   1f288:	3f7e132b 	svccc	0x007e132b
   1f28c:	3f7e0cf2 	svccc	0x007e0cf2
   1f290:	3f7e06c8 	svccc	0x007e06c8
   1f294:	3f7e007e 	svccc	0x007e007e
   1f298:	3f7dfa33 	svccc	0x007dfa33
   1f29c:	3f7df3e9 	svccc	0x007df3e9
   1f2a0:	3f7ded8d 	svccc	0x007ded8d
   1f2a4:	3f7de721 	svccc	0x007de721
   1f2a8:	3f7de0b5 	svccc	0x007de0b5
   1f2ac:	3f7dda38 	svccc	0x007dda38
   1f2b0:	3f7dd3aa 	svccc	0x007dd3aa
   1f2b4:	3f7dcd1c 	svccc	0x007dcd1c
   1f2b8:	3f7dc68f 	svccc	0x007dc68f
   1f2bc:	3f7dbff0 	svccc	0x007dbff0
   1f2c0:	3f7db941 	svccc	0x007db941
   1f2c4:	3f7db292 	svccc	0x007db292
   1f2c8:	3f7dabd2 	svccc	0x007dabd2
   1f2cc:	3f7da501 	svccc	0x007da501
   1f2d0:	3f7d9e30 	svccc	0x007d9e30
   1f2d4:	3f7d974e 	svccc	0x007d974e
   1f2d8:	3f7d906d 	svccc	0x007d906d
   1f2dc:	3f7d897a 	svccc	0x007d897a
   1f2e0:	3f7d8288 	svccc	0x007d8288
   1f2e4:	3f7d7b85 	svccc	0x007d7b85
   1f2e8:	3f7d7471 	svccc	0x007d7471
   1f2ec:	3f7d6d5d 	svccc	0x007d6d5d
   1f2f0:	3f7d6638 	svccc	0x007d6638
   1f2f4:	3f7d5f14 	svccc	0x007d5f14
   1f2f8:	3f7d57de 	svccc	0x007d57de
   1f2fc:	3f7d50a9 	svccc	0x007d50a9
   1f300:	3f7d4952 	svccc	0x007d4952
   1f304:	3f7d420b 	svccc	0x007d420b
   1f308:	3f7d3ab4 	svccc	0x007d3ab4
   1f30c:	3f7d334c 	svccc	0x007d334c
   1f310:	3f7d2bd4 	svccc	0x007d2bd4
   1f314:	3f7d245b 	svccc	0x007d245b
   1f318:	3f7d1ce3 	svccc	0x007d1ce3
   1f31c:	3f7d1559 	svccc	0x007d1559
   1f320:	3f7d0dbf 	svccc	0x007d0dbf
   1f324:	3f7d0614 	svccc	0x007d0614
   1f328:	3f7cfe7a 	svccc	0x007cfe7a
   1f32c:	3f7cf6be 	svccc	0x007cf6be
   1f330:	3f7cef03 	svccc	0x007cef03
   1f334:	3f7ce736 	svccc	0x007ce736
   1f338:	3f7cdf6a 	svccc	0x007cdf6a
   1f33c:	3f7cd78c 	svccc	0x007cd78c
   1f340:	3f7ccfaf 	svccc	0x007ccfaf
   1f344:	3f7cc7c1 	svccc	0x007cc7c1
   1f348:	3f7cbfc2 	svccc	0x007cbfc2
   1f34c:	3f7cb7c3 	svccc	0x007cb7c3
   1f350:	3f7cafc4 	svccc	0x007cafc4
   1f354:	3f7ca7a4 	svccc	0x007ca7a4
   1f358:	3f7c9f84 	svccc	0x007c9f84
   1f35c:	3f7c9763 	svccc	0x007c9763
   1f360:	3f7c8f32 	svccc	0x007c8f32
   1f364:	3f7c86f0 	svccc	0x007c86f0
   1f368:	3f7c7eae 	svccc	0x007c7eae
   1f36c:	3f7c765c 	svccc	0x007c765c
   1f370:	3f7c6e09 	svccc	0x007c6e09
   1f374:	3f7c65a5 	svccc	0x007c65a5
   1f378:	3f7c5d42 	svccc	0x007c5d42
   1f37c:	3f7c54bd 	svccc	0x007c54bd
   1f380:	3f7c4c49 	svccc	0x007c4c49
   1f384:	3f7c43b3 	svccc	0x007c43b3
   1f388:	3f7c3b2e 	svccc	0x007c3b2e
   1f38c:	3f7c3287 	svccc	0x007c3287
   1f390:	3f7c29e1 	svccc	0x007c29e1
   1f394:	3f7c213a 	svccc	0x007c213a
   1f398:	3f7c1883 	svccc	0x007c1883
   1f39c:	3f7c0fbb 	svccc	0x007c0fbb
   1f3a0:	3f7c06e2 	svccc	0x007c06e2
   1f3a4:	3f7bfe19 	svccc	0x007bfe19
   1f3a8:	3f7bf530 	svccc	0x007bf530
   1f3ac:	3f7bec46 	svccc	0x007bec46
   1f3b0:	3f7be34c 	svccc	0x007be34c
   1f3b4:	3f7bda51 	svccc	0x007bda51
   1f3b8:	3f7bd146 	svccc	0x007bd146
   1f3bc:	3f7bc83b 	svccc	0x007bc83b
   1f3c0:	3f7bbf1f 	svccc	0x007bbf1f
   1f3c4:	3f7bb603 	svccc	0x007bb603
   1f3c8:	3f7bacc5 	svccc	0x007bacc5
   1f3cc:	3f7ba398 	svccc	0x007ba398
   1f3d0:	3f7b9a5b 	svccc	0x007b9a5b
   1f3d4:	3f7b910c 	svccc	0x007b910c
   1f3d8:	3f7b87ad 	svccc	0x007b87ad
   1f3dc:	3f7b7e4e 	svccc	0x007b7e4e
   1f3e0:	3f7b74ef 	svccc	0x007b74ef
   1f3e4:	3f7b6b7f 	svccc	0x007b6b7f
   1f3e8:	3f7b61fe 	svccc	0x007b61fe
   1f3ec:	3f7b587d 	svccc	0x007b587d
   1f3f0:	3f7b4eec 	svccc	0x007b4eec
   1f3f4:	3f7b454a 	svccc	0x007b454a
   1f3f8:	3f7b3ba7 	svccc	0x007b3ba7
   1f3fc:	3f7b3205 	svccc	0x007b3205
   1f400:	3f7b2841 	svccc	0x007b2841
   1f404:	3f7b1e8e 	svccc	0x007b1e8e
   1f408:	3f7b14ba 	svccc	0x007b14ba
   1f40c:	3f7b0ae5 	svccc	0x007b0ae5
   1f410:	3f7b0111 	svccc	0x007b0111
   1f414:	3f7af72b 	svccc	0x007af72b
   1f418:	3f7aed35 	svccc	0x007aed35
   1f41c:	3f7ae33f 	svccc	0x007ae33f
   1f420:	3f7ad938 	svccc	0x007ad938
   1f424:	3f7acf31 	svccc	0x007acf31
   1f428:	3f7ac519 	svccc	0x007ac519
   1f42c:	3f7abaf1 	svccc	0x007abaf1
   1f430:	3f7ab0c9 	svccc	0x007ab0c9
   1f434:	3f7aa68f 	svccc	0x007aa68f
   1f438:	3f7a9c56 	svccc	0x007a9c56
   1f43c:	3f7a920c 	svccc	0x007a920c
   1f440:	3f7a87c2 	svccc	0x007a87c2
   1f444:	3f7a7d67 	svccc	0x007a7d67
   1f448:	3f7a72fc 	svccc	0x007a72fc
   1f44c:	3f7a6890 	svccc	0x007a6890
   1f450:	3f7a5e24 	svccc	0x007a5e24
   1f454:	3f7a5397 	svccc	0x007a5397
   1f458:	3f7a490a 	svccc	0x007a490a
   1f45c:	3f7a3e7d 	svccc	0x007a3e7d
   1f460:	3f7a33df 	svccc	0x007a33df
   1f464:	3f7a2930 	svccc	0x007a2930
   1f468:	3f7a1e82 	svccc	0x007a1e82
   1f46c:	3f7a13c2 	svccc	0x007a13c2
   1f470:	3f7a0903 	svccc	0x007a0903
   1f474:	3f79fe33 	svccc	0x0079fe33
   1f478:	3f79f362 	svccc	0x0079f362
   1f47c:	3f79e881 	svccc	0x0079e881
   1f480:	3f79dd90 	svccc	0x0079dd90
   1f484:	3f79d29e 	svccc	0x0079d29e
   1f488:	3f79c79b 	svccc	0x0079c79b
   1f48c:	3f79bc99 	svccc	0x0079bc99
   1f490:	3f79b185 	svccc	0x0079b185
   1f494:	3f79a661 	svccc	0x0079a661
   1f498:	3f799b3d 	svccc	0x00799b3d
   1f49c:	3f799019 	svccc	0x00799019
   1f4a0:	3f7984e4 	svccc	0x007984e4
   1f4a4:	3f79799e 	svccc	0x0079799e
   1f4a8:	3f796e48 	svccc	0x00796e48
   1f4ac:	3f7962f1 	svccc	0x007962f1
   1f4b0:	3f79579b 	svccc	0x0079579b
   1f4b4:	3f794c34 	svccc	0x00794c34
   1f4b8:	3f7940bc 	svccc	0x007940bc
   1f4bc:	3f793544 	svccc	0x00793544
   1f4c0:	3f7929bb 	svccc	0x007929bb
   1f4c4:	3f791e32 	svccc	0x00791e32
   1f4c8:	3f791299 	svccc	0x00791299
   1f4cc:	3f7906ee 	svccc	0x007906ee
   1f4d0:	3f78fb44 	svccc	0x0078fb44
   1f4d4:	3f78ef9a 	svccc	0x0078ef9a
   1f4d8:	3f78e3ce 	svccc	0x0078e3ce
   1f4dc:	3f78d812 	svccc	0x0078d812
   1f4e0:	3f78cc36 	svccc	0x0078cc36
   1f4e4:	3f78c059 	svccc	0x0078c059
   1f4e8:	3f78b47c 	svccc	0x0078b47c
   1f4ec:	3f78a88f 	svccc	0x0078a88f
   1f4f0:	3f789c91 	svccc	0x00789c91
   1f4f4:	3f789093 	svccc	0x00789093
   1f4f8:	3f788484 	svccc	0x00788484
   1f4fc:	3f787875 	svccc	0x00787875
   1f500:	3f786c55 	svccc	0x00786c55
   1f504:	3f786024 	svccc	0x00786024
   1f508:	3f7853f4 	svccc	0x007853f4
   1f50c:	3f7847c3 	svccc	0x007847c3
   1f510:	3f783b71 	svccc	0x00783b71
   1f514:	3f782f30 	svccc	0x00782f30
   1f518:	3f7822cd 	svccc	0x007822cd
   1f51c:	3f78166a 	svccc	0x0078166a
   1f520:	3f780a07 	svccc	0x00780a07
   1f524:	3f77fd93 	svccc	0x0077fd93
   1f528:	3f77f10f 	svccc	0x0077f10f
   1f52c:	3f77e48a 	svccc	0x0077e48a
   1f530:	3f77d7f5 	svccc	0x0077d7f5
   1f534:	3f77cb60 	svccc	0x0077cb60
   1f538:	3f77beba 	svccc	0x0077beba
   1f53c:	3f77b203 	svccc	0x0077b203
   1f540:	3f77a54c 	svccc	0x0077a54c
   1f544:	3f779896 	svccc	0x00779896
   1f548:	3f778bbd 	svccc	0x00778bbd
   1f54c:	3f777ef6 	svccc	0x00777ef6
   1f550:	3f77720d 	svccc	0x0077720d
   1f554:	3f776523 	svccc	0x00776523
   1f558:	3f77583a 	svccc	0x0077583a
   1f55c:	3f774b40 	svccc	0x00774b40
   1f560:	3f773e36 	svccc	0x00773e36
   1f564:	3f77312b 	svccc	0x0077312b
   1f568:	3f772410 	svccc	0x00772410
   1f56c:	3f7716f4 	svccc	0x007716f4
   1f570:	3f7709c8 	svccc	0x007709c8
   1f574:	3f76fc9c 	svccc	0x0076fc9c
   1f578:	3f76ef5f 	svccc	0x0076ef5f
   1f57c:	3f76e211 	svccc	0x0076e211
   1f580:	3f76d4c3 	svccc	0x0076d4c3
   1f584:	3f76c765 	svccc	0x0076c765
   1f588:	3f76ba06 	svccc	0x0076ba06
   1f58c:	3f76ac97 	svccc	0x0076ac97
   1f590:	3f769f27 	svccc	0x00769f27
   1f594:	3f7691a7 	svccc	0x007691a7
   1f598:	3f768416 	svccc	0x00768416
   1f59c:	3f767686 	svccc	0x00767686
   1f5a0:	3f7668e4 	svccc	0x007668e4
   1f5a4:	3f765b42 	svccc	0x00765b42
   1f5a8:	3f764d90 	svccc	0x00764d90
   1f5ac:	3f763fdd 	svccc	0x00763fdd
   1f5b0:	3f76321a 	svccc	0x0076321a
   1f5b4:	3f762457 	svccc	0x00762457
   1f5b8:	3f761672 	svccc	0x00761672
   1f5bc:	3f76089e 	svccc	0x0076089e
   1f5c0:	3f75fab9 	svccc	0x0075fab9
   1f5c4:	3f75ecc4 	svccc	0x0075ecc4
   1f5c8:	3f75dece 	svccc	0x0075dece
   1f5cc:	3f75d0c8 	svccc	0x0075d0c8
   1f5d0:	3f75c2b1 	svccc	0x0075c2b1
   1f5d4:	3f75b49a 	svccc	0x0075b49a
   1f5d8:	3f75a683 	svccc	0x0075a683
   1f5dc:	3f75984a 	svccc	0x0075984a
   1f5e0:	3f758a22 	svccc	0x00758a22
   1f5e4:	3f757bd9 	svccc	0x00757bd9
   1f5e8:	3f756d8f 	svccc	0x00756d8f
   1f5ec:	3f755f46 	svccc	0x00755f46
   1f5f0:	3f7550ec 	svccc	0x007550ec
   1f5f4:	3f754291 	svccc	0x00754291
   1f5f8:	3f753416 	svccc	0x00753416
   1f5fc:	3f7525ab 	svccc	0x007525ab
   1f600:	3f75172f 	svccc	0x0075172f
   1f604:	3f7508a2 	svccc	0x007508a2
   1f608:	3f74fa05 	svccc	0x0074fa05
   1f60c:	3f74eb68 	svccc	0x0074eb68
   1f610:	3f74dcca 	svccc	0x0074dcca
   1f614:	3f74ce1c 	svccc	0x0074ce1c
   1f618:	3f74bf5d 	svccc	0x0074bf5d
   1f61c:	3f74b09f 	svccc	0x0074b09f
   1f620:	3f74a1cf 	svccc	0x0074a1cf
   1f624:	3f7492ff 	svccc	0x007492ff
   1f628:	3f74841f 	svccc	0x0074841f
   1f62c:	3f74753e 	svccc	0x0074753e
   1f630:	3f74664d 	svccc	0x0074664d
   1f634:	3f74574b 	svccc	0x0074574b
   1f638:	3f744849 	svccc	0x00744849
   1f63c:	3f743937 	svccc	0x00743937
   1f640:	3f742a24 	svccc	0x00742a24
   1f644:	3f741b00 	svccc	0x00741b00
   1f648:	3f740bdd 	svccc	0x00740bdd
   1f64c:	3f73fca8 	svccc	0x0073fca8
   1f650:	3f73ed74 	svccc	0x0073ed74
   1f654:	3f73de2f 	svccc	0x0073de2f
   1f658:	3f73ced9 	svccc	0x0073ced9
   1f65c:	3f73bf83 	svccc	0x0073bf83
   1f660:	3f73b01d 	svccc	0x0073b01d
   1f664:	3f73a0b6 	svccc	0x0073a0b6
   1f668:	3f73913f 	svccc	0x0073913f
   1f66c:	3f7381c7 	svccc	0x007381c7
   1f670:	3f73723f 	svccc	0x0073723f
   1f674:	3f7362a6 	svccc	0x007362a6
   1f678:	3f73530d 	svccc	0x0073530d
   1f67c:	3f734363 	svccc	0x00734363
   1f680:	3f7333b9 	svccc	0x007333b9
   1f684:	3f7323ff 	svccc	0x007323ff
   1f688:	3f731444 	svccc	0x00731444
   1f68c:	3f730479 	svccc	0x00730479
   1f690:	3f72f4ae 	svccc	0x0072f4ae
   1f694:	3f72e4d2 	svccc	0x0072e4d2
   1f698:	3f72d4e5 	svccc	0x0072d4e5
   1f69c:	3f72c4f8 	svccc	0x0072c4f8
   1f6a0:	3f72b50b 	svccc	0x0072b50b
   1f6a4:	3f72a4fd 	svccc	0x0072a4fd
   1f6a8:	3f7294ff 	svccc	0x007294ff
   1f6ac:	3f7284e0 	svccc	0x007284e0
   1f6b0:	3f7274c1 	svccc	0x007274c1
   1f6b4:	3f7264a1 	svccc	0x007264a1
   1f6b8:	3f725471 	svccc	0x00725471
   1f6bc:	3f724431 	svccc	0x00724431
   1f6c0:	3f7233f0 	svccc	0x007233f0
   1f6c4:	3f7223af 	svccc	0x007223af
   1f6c8:	3f72134d 	svccc	0x0072134d
   1f6cc:	3f7202fb 	svccc	0x007202fb
   1f6d0:	3f71f288 	svccc	0x0071f288
   1f6d4:	3f71e215 	svccc	0x0071e215
   1f6d8:	3f71d1a2 	svccc	0x0071d1a2
   1f6dc:	3f71c11e 	svccc	0x0071c11e
   1f6e0:	3f71b08a 	svccc	0x0071b08a
   1f6e4:	3f719ff5 	svccc	0x00719ff5
   1f6e8:	3f718f50 	svccc	0x00718f50
   1f6ec:	3f717eaa 	svccc	0x00717eaa
   1f6f0:	3f716df4 	svccc	0x00716df4
   1f6f4:	3f715d3e 	svccc	0x00715d3e
   1f6f8:	3f714c77 	svccc	0x00714c77
   1f6fc:	3f713bb0 	svccc	0x00713bb0
   1f700:	3f712ad8 	svccc	0x00712ad8
   1f704:	3f7119f0 	svccc	0x007119f0
   1f708:	3f710907 	svccc	0x00710907
   1f70c:	3f70f80e 	svccc	0x0070f80e
   1f710:	3f70e714 	svccc	0x0070e714
   1f714:	3f70d60a 	svccc	0x0070d60a
   1f718:	3f70c500 	svccc	0x0070c500
   1f71c:	3f70b3e5 	svccc	0x0070b3e5
   1f720:	3f70a2cb 	svccc	0x0070a2cb
   1f724:	3f70919f 	svccc	0x0070919f
   1f728:	3f708063 	svccc	0x00708063
   1f72c:	3f706f26 	svccc	0x00706f26
   1f730:	3f705dd9 	svccc	0x00705dd9
   1f734:	3f704c8c 	svccc	0x00704c8c
   1f738:	3f703b3f 	svccc	0x00703b3f
   1f73c:	3f7029d0 	svccc	0x007029d0
   1f740:	3f701861 	svccc	0x00701861
   1f744:	3f7006f2 	svccc	0x007006f2
   1f748:	3f6ff573 	svccc	0x006ff573
   1f74c:	3f6fe3f3 	svccc	0x006fe3f3
   1f750:	3f6fd252 	svccc	0x006fd252
   1f754:	3f6fc0c2 	svccc	0x006fc0c2
   1f758:	3f6faf21 	svccc	0x006faf21
   1f75c:	3f6f9d6f 	svccc	0x006f9d6f
   1f760:	3f6f8bbd 	svccc	0x006f8bbd
   1f764:	3f6f79fb 	svccc	0x006f79fb
   1f768:	3f6f6838 	svccc	0x006f6838
   1f76c:	3f6f5665 	svccc	0x006f5665
   1f770:	3f6f4480 	svccc	0x006f4480
   1f774:	3f6f329c 	svccc	0x006f329c
   1f778:	3f6f20b8 	svccc	0x006f20b8
   1f77c:	3f6f0eb2 	svccc	0x006f0eb2
   1f780:	3f6efcbd 	svccc	0x006efcbd
   1f784:	3f6eeab8 	svccc	0x006eeab8
   1f788:	3f6ed8a1 	svccc	0x006ed8a1
   1f78c:	3f6ec67a 	svccc	0x006ec67a
   1f790:	3f6eb463 	svccc	0x006eb463
   1f794:	3f6ea22b 	svccc	0x006ea22b
   1f798:	3f6e8ff3 	svccc	0x006e8ff3
   1f79c:	3f6e7dbb 	svccc	0x006e7dbb
   1f7a0:	3f6e6b72 	svccc	0x006e6b72
   1f7a4:	3f6e5919 	svccc	0x006e5919
   1f7a8:	3f6e46bf 	svccc	0x006e46bf
   1f7ac:	3f6e3455 	svccc	0x006e3455
   1f7b0:	3f6e21ea 	svccc	0x006e21ea
   1f7b4:	3f6e0f6f 	svccc	0x006e0f6f
   1f7b8:	3f6dfcf4 	svccc	0x006dfcf4
   1f7bc:	3f6dea68 	svccc	0x006dea68
   1f7c0:	3f6dd7dc 	svccc	0x006dd7dc
   1f7c4:	3f6dc53f 	svccc	0x006dc53f
   1f7c8:	3f6db292 	svccc	0x006db292
   1f7cc:	3f6d9fe4 	svccc	0x006d9fe4
   1f7d0:	3f6d8d26 	svccc	0x006d8d26
   1f7d4:	3f6d7a68 	svccc	0x006d7a68
   1f7d8:	3f6d67a9 	svccc	0x006d67a9
   1f7dc:	3f6d54ca 	svccc	0x006d54ca
   1f7e0:	3f6d41ea 	svccc	0x006d41ea
   1f7e4:	3f6d2f0a 	svccc	0x006d2f0a
   1f7e8:	3f6d1c19 	svccc	0x006d1c19
   1f7ec:	3f6d0929 	svccc	0x006d0929
   1f7f0:	3f6cf627 	svccc	0x006cf627
   1f7f4:	3f6ce315 	svccc	0x006ce315
   1f7f8:	3f6cd003 	svccc	0x006cd003
   1f7fc:	3f6cbcf1 	svccc	0x006cbcf1
   1f800:	3f6ca9bd 	svccc	0x006ca9bd
   1f804:	3f6c969a 	svccc	0x006c969a
   1f808:	3f6c8366 	svccc	0x006c8366
   1f80c:	3f6c7022 	svccc	0x006c7022
   1f810:	3f6c5ccd 	svccc	0x006c5ccd
   1f814:	3f6c4988 	svccc	0x006c4988
   1f818:	3f6c3622 	svccc	0x006c3622
   1f81c:	3f6c22bc 	svccc	0x006c22bc
   1f820:	3f6c0f56 	svccc	0x006c0f56
   1f824:	3f6bfbdf 	svccc	0x006bfbdf
   1f828:	3f6be857 	svccc	0x006be857
   1f82c:	3f6bd4d0 	svccc	0x006bd4d0
   1f830:	3f6bc137 	svccc	0x006bc137
   1f834:	3f6bad9f 	svccc	0x006bad9f
   1f838:	3f6b99f6 	svccc	0x006b99f6
   1f83c:	3f6b864d 	svccc	0x006b864d
   1f840:	3f6b7293 	svccc	0x006b7293
   1f844:	3f6b5ed9 	svccc	0x006b5ed9
   1f848:	3f6b4b0e 	svccc	0x006b4b0e
   1f84c:	3f6b3733 	svccc	0x006b3733
   1f850:	3f6b2357 	svccc	0x006b2357
   1f854:	3f6b0f7c 	svccc	0x006b0f7c
   1f858:	3f6afb8f 	svccc	0x006afb8f
   1f85c:	3f6ae792 	svccc	0x006ae792
   1f860:	3f6ad395 	svccc	0x006ad395
   1f864:	3f6abf87 	svccc	0x006abf87
   1f868:	3f6aab7a 	svccc	0x006aab7a
   1f86c:	3f6a975b 	svccc	0x006a975b
   1f870:	3f6a833c 	svccc	0x006a833c
   1f874:	3f6a6f0d 	svccc	0x006a6f0d
   1f878:	3f6a5ade 	svccc	0x006a5ade
   1f87c:	3f6a469d 	svccc	0x006a469d
   1f880:	3f6a324d 	svccc	0x006a324d
   1f884:	3f6a1dfc 	svccc	0x006a1dfc
   1f888:	3f6a09ab 	svccc	0x006a09ab
   1f88c:	3f69f549 	svccc	0x0069f549
   1f890:	3f69e0d6 	svccc	0x0069e0d6
   1f894:	3f69cc64 	svccc	0x0069cc64
   1f898:	3f69b7e1 	svccc	0x0069b7e1
   1f89c:	3f69a35d 	svccc	0x0069a35d
   1f8a0:	3f698ec9 	svccc	0x00698ec9
   1f8a4:	3f697a35 	svccc	0x00697a35
   1f8a8:	3f696590 	svccc	0x00696590
   1f8ac:	3f6950ec 	svccc	0x006950ec
   1f8b0:	3f693c36 	svccc	0x00693c36
   1f8b4:	3f692770 	svccc	0x00692770
   1f8b8:	3f6912a9 	svccc	0x006912a9
   1f8bc:	3f68fde3 	svccc	0x0068fde3
   1f8c0:	3f68e90c 	svccc	0x0068e90c
   1f8c4:	3f68d424 	svccc	0x0068d424
   1f8c8:	3f68bf3c 	svccc	0x0068bf3c
   1f8cc:	3f68aa43 	svccc	0x0068aa43
   1f8d0:	3f68954a 	svccc	0x0068954a
   1f8d4:	3f688041 	svccc	0x00688041
   1f8d8:	3f686b38 	svccc	0x00686b38
   1f8dc:	3f68561d 	svccc	0x0068561d
   1f8e0:	3f684103 	svccc	0x00684103
   1f8e4:	3f682bd8 	svccc	0x00682bd8
   1f8e8:	3f6816ad 	svccc	0x006816ad
   1f8ec:	3f680171 	svccc	0x00680171
   1f8f0:	3f67ec25 	svccc	0x0067ec25
   1f8f4:	3f67d6d8 	svccc	0x0067d6d8
   1f8f8:	3f67c18b 	svccc	0x0067c18b
   1f8fc:	3f67ac2e 	svccc	0x0067ac2e
   1f900:	3f6796c0 	svccc	0x006796c0
   1f904:	3f678152 	svccc	0x00678152
   1f908:	3f676bd3 	svccc	0x00676bd3
   1f90c:	3f675654 	svccc	0x00675654
   1f910:	3f6740c4 	svccc	0x006740c4
   1f914:	3f672b34 	svccc	0x00672b34
   1f918:	3f671594 	svccc	0x00671594
   1f91c:	3f66fff3 	svccc	0x0066fff3
   1f920:	3f66ea42 	svccc	0x0066ea42
   1f924:	3f66d491 	svccc	0x0066d491
   1f928:	3f66becf 	svccc	0x0066becf
   1f92c:	3f66a8fc 	svccc	0x0066a8fc
   1f930:	3f669329 	svccc	0x00669329
   1f934:	3f667d56 	svccc	0x00667d56
   1f938:	3f666773 	svccc	0x00666773
   1f93c:	3f66517e 	svccc	0x0066517e
   1f940:	3f663b8a 	svccc	0x00663b8a
   1f944:	3f662596 	svccc	0x00662596
   1f948:	3f660f80 	svccc	0x00660f80
   1f94c:	3f65f97b 	svccc	0x0065f97b
   1f950:	3f65e365 	svccc	0x0065e365
   1f954:	3f65cd3e 	svccc	0x0065cd3e
   1f958:	3f65b717 	svccc	0x0065b717
   1f95c:	3f65a0e0 	svccc	0x0065a0e0
   1f960:	3f658a98 	svccc	0x00658a98
   1f964:	3f657460 	svccc	0x00657460
   1f968:	3f655e07 	svccc	0x00655e07
   1f96c:	3f6547ae 	svccc	0x006547ae
   1f970:	3f653155 	svccc	0x00653155
   1f974:	3f651aeb 	svccc	0x00651aeb
   1f978:	3f650471 	svccc	0x00650471
   1f97c:	3f64edf6 	svccc	0x0064edf6
   1f980:	3f64d77b 	svccc	0x0064d77b
   1f984:	3f64c0f0 	svccc	0x0064c0f0
   1f988:	3f64aa54 	svccc	0x0064aa54
   1f98c:	3f6493b8 	svccc	0x006493b8
   1f990:	3f647d1c 	svccc	0x00647d1c
   1f994:	3f64665e 	svccc	0x0064665e
   1f998:	3f644fb1 	svccc	0x00644fb1
   1f99c:	3f6438e3 	svccc	0x006438e3
   1f9a0:	3f642225 	svccc	0x00642225
   1f9a4:	3f640b56 	svccc	0x00640b56
   1f9a8:	3f63f477 	svccc	0x0063f477
   1f9ac:	3f63dd87 	svccc	0x0063dd87
   1f9b0:	3f63c6a8 	svccc	0x0063c6a8
   1f9b4:	3f63afa7 	svccc	0x0063afa7
   1f9b8:	3f6398a6 	svccc	0x006398a6
   1f9bc:	3f6381a6 	svccc	0x006381a6
   1f9c0:	3f636a94 	svccc	0x00636a94
   1f9c4:	3f635382 	svccc	0x00635382
   1f9c8:	3f633c60 	svccc	0x00633c60
   1f9cc:	3f63252d 	svccc	0x0063252d
   1f9d0:	3f630dfa 	svccc	0x00630dfa
   1f9d4:	3f62f6c7 	svccc	0x0062f6c7
   1f9d8:	3f62df83 	svccc	0x0062df83
   1f9dc:	3f62c82e 	svccc	0x0062c82e
   1f9e0:	3f62b0d9 	svccc	0x0062b0d9
   1f9e4:	3f629974 	svccc	0x00629974
   1f9e8:	3f62820e 	svccc	0x0062820e
   1f9ec:	3f626a98 	svccc	0x00626a98
   1f9f0:	3f625322 	svccc	0x00625322
   1f9f4:	3f623bac 	svccc	0x00623bac
   1f9f8:	3f622414 	svccc	0x00622414
   1f9fc:	3f620c8d 	svccc	0x00620c8d
   1fa00:	3f61f4e4 	svccc	0x0061f4e4
   1fa04:	3f61dd4c 	svccc	0x0061dd4c
   1fa08:	3f61c593 	svccc	0x0061c593
   1fa0c:	3f61adda 	svccc	0x0061adda
   1fa10:	3f619620 	svccc	0x00619620
   1fa14:	3f617e56 	svccc	0x00617e56
   1fa18:	3f61668c 	svccc	0x0061668c
   1fa1c:	3f614eb1 	svccc	0x00614eb1
   1fa20:	3f6136d6 	svccc	0x006136d6
   1fa24:	3f611eeb 	svccc	0x00611eeb
   1fa28:	3f6106ee 	svccc	0x006106ee
   1fa2c:	3f60eef2 	svccc	0x0060eef2
   1fa30:	3f60d6f5 	svccc	0x0060d6f5
   1fa34:	3f60bee8 	svccc	0x0060bee8
   1fa38:	3f60a6ca 	svccc	0x0060a6ca
   1fa3c:	3f608eac 	svccc	0x00608eac
   1fa40:	3f60768e 	svccc	0x0060768e
   1fa44:	3f605e5f 	svccc	0x00605e5f
   1fa48:	3f604620 	svccc	0x00604620
   1fa4c:	3f602de0 	svccc	0x00602de0
   1fa50:	3f601590 	svccc	0x00601590
   1fa54:	3f5ffd3f 	svccc	0x005ffd3f
   1fa58:	3f5fe4ef 	svccc	0x005fe4ef
   1fa5c:	3f5fcc8e 	svccc	0x005fcc8e
   1fa60:	3f5fb41c 	svccc	0x005fb41c
   1fa64:	3f5f9baa 	svccc	0x005f9baa
   1fa68:	3f5f8327 	svccc	0x005f8327
   1fa6c:	3f5f6aa5 	svccc	0x005f6aa5
   1fa70:	3f5f5211 	svccc	0x005f5211
   1fa74:	3f5f397e 	svccc	0x005f397e
   1fa78:	3f5f20da 	svccc	0x005f20da
   1fa7c:	3f5f0835 	svccc	0x005f0835
   1fa80:	3f5eef80 	svccc	0x005eef80
   1fa84:	3f5ed6cb 	svccc	0x005ed6cb
   1fa88:	3f5ebe06 	svccc	0x005ebe06
   1fa8c:	3f5ea540 	svccc	0x005ea540
   1fa90:	3f5e8c69 	svccc	0x005e8c69
   1fa94:	3f5e7393 	svccc	0x005e7393
   1fa98:	3f5e5aab 	svccc	0x005e5aab
   1fa9c:	3f5e41b3 	svccc	0x005e41b3
   1faa0:	3f5e28bb 	svccc	0x005e28bb
   1faa4:	3f5e0fc3 	svccc	0x005e0fc3
   1faa8:	3f5df6ba 	svccc	0x005df6ba
   1faac:	3f5dddb1 	svccc	0x005dddb1
   1fab0:	3f5dc497 	svccc	0x005dc497
   1fab4:	3f5dab7e 	svccc	0x005dab7e
   1fab8:	3f5d9253 	svccc	0x005d9253
   1fabc:	3f5d7918 	svccc	0x005d7918
   1fac0:	3f5d5fdd 	svccc	0x005d5fdd
   1fac4:	3f5d46a2 	svccc	0x005d46a2
   1fac8:	3f5d2d56 	svccc	0x005d2d56
   1facc:	3f5d13f9 	svccc	0x005d13f9
   1fad0:	3f5cfa9c 	svccc	0x005cfa9c
   1fad4:	3f5ce13f 	svccc	0x005ce13f
   1fad8:	3f5cc7d2 	svccc	0x005cc7d2
   1fadc:	3f5cae53 	svccc	0x005cae53
   1fae0:	3f5c94d5 	svccc	0x005c94d5
   1fae4:	3f5c7b57 	svccc	0x005c7b57
   1fae8:	3f5c61c8 	svccc	0x005c61c8
   1faec:	3f5c4828 	svccc	0x005c4828
   1faf0:	3f5c2e88 	svccc	0x005c2e88
   1faf4:	3f5c14e8 	svccc	0x005c14e8
   1faf8:	3f5bfb37 	svccc	0x005bfb37
   1fafc:	3f5be176 	svccc	0x005be176
   1fb00:	3f5bc7b4 	svccc	0x005bc7b4
   1fb04:	3f5badf3 	svccc	0x005badf3
   1fb08:	3f5b9421 	svccc	0x005b9421
   1fb0c:	3f5b7a3e 	svccc	0x005b7a3e
   1fb10:	3f5b605b 	svccc	0x005b605b
   1fb14:	3f5b4667 	svccc	0x005b4667
   1fb18:	3f5b2c73 	svccc	0x005b2c73
   1fb1c:	3f5b127f 	svccc	0x005b127f
   1fb20:	3f5af87b 	svccc	0x005af87b
   1fb24:	3f5ade65 	svccc	0x005ade65
   1fb28:	3f5ac450 	svccc	0x005ac450
   1fb2c:	3f5aaa2a 	svccc	0x005aaa2a
   1fb30:	3f5a9004 	svccc	0x005a9004
   1fb34:	3f5a75de 	svccc	0x005a75de
   1fb38:	3f5a5ba7 	svccc	0x005a5ba7
   1fb3c:	3f5a415f 	svccc	0x005a415f
   1fb40:	3f5a2718 	svccc	0x005a2718
   1fb44:	3f5a0cbf 	svccc	0x005a0cbf
   1fb48:	3f59f267 	svccc	0x0059f267
   1fb4c:	3f59d80e 	svccc	0x0059d80e
   1fb50:	3f59bd94 	svccc	0x0059bd94
   1fb54:	3f59a32b 	svccc	0x0059a32b
   1fb58:	3f5988b1 	svccc	0x005988b1
   1fb5c:	3f596e26 	svccc	0x00596e26
   1fb60:	3f59539c 	svccc	0x0059539c
   1fb64:	3f593900 	svccc	0x00593900
   1fb68:	3f591e64 	svccc	0x00591e64
   1fb6c:	3f5903c9 	svccc	0x005903c9
   1fb70:	3f58e91d 	svccc	0x0058e91d
   1fb74:	3f58ce5f 	svccc	0x0058ce5f
   1fb78:	3f58b3a2 	svccc	0x0058b3a2
   1fb7c:	3f5898d4 	svccc	0x005898d4
   1fb80:	3f587e07 	svccc	0x00587e07
   1fb84:	3f586339 	svccc	0x00586339
   1fb88:	3f58485a 	svccc	0x0058485a
   1fb8c:	3f582d6b 	svccc	0x00582d6b
   1fb90:	3f58127b 	svccc	0x0058127b
   1fb94:	3f57f77b 	svccc	0x0057f77b
   1fb98:	3f57dc7b 	svccc	0x0057dc7b
   1fb9c:	3f57c17b 	svccc	0x0057c17b
   1fba0:	3f57a66a 	svccc	0x0057a66a
   1fba4:	3f578b48 	svccc	0x00578b48
   1fba8:	3f577026 	svccc	0x00577026
   1fbac:	3f5754f3 	svccc	0x005754f3
   1fbb0:	3f5739c1 	svccc	0x005739c1
   1fbb4:	3f571e8e 	svccc	0x00571e8e
   1fbb8:	3f57034b 	svccc	0x0057034b
   1fbbc:	3f56e7f7 	svccc	0x0056e7f7
   1fbc0:	3f56cca3 	svccc	0x0056cca3
   1fbc4:	3f56b14f 	svccc	0x0056b14f
   1fbc8:	3f5695ea 	svccc	0x005695ea
   1fbcc:	3f567a74 	svccc	0x00567a74
   1fbd0:	3f565eff 	svccc	0x00565eff
   1fbd4:	3f564389 	svccc	0x00564389
   1fbd8:	3f562802 	svccc	0x00562802
   1fbdc:	3f560c6b 	svccc	0x00560c6b
   1fbe0:	3f55f0d4 	svccc	0x0055f0d4
   1fbe4:	3f55d53d 	svccc	0x0055d53d
   1fbe8:	3f55b995 	svccc	0x0055b995
   1fbec:	3f559ddc 	svccc	0x00559ddc
   1fbf0:	3f558234 	svccc	0x00558234
   1fbf4:	3f55666b 	svccc	0x0055666b
   1fbf8:	3f554aa1 	svccc	0x00554aa1
   1fbfc:	3f552ed8 	svccc	0x00552ed8
   1fc00:	3f5512fd 	svccc	0x005512fd
   1fc04:	3f54f712 	svccc	0x0054f712
   1fc08:	3f54db38 	svccc	0x0054db38
   1fc0c:	3f54bf3c 	svccc	0x0054bf3c
   1fc10:	3f54a340 	svccc	0x0054a340
   1fc14:	3f548744 	svccc	0x00548744
   1fc18:	3f546b38 	svccc	0x00546b38
   1fc1c:	3f544f2b 	svccc	0x00544f2b
   1fc20:	3f54330d 	svccc	0x0054330d
   1fc24:	3f5416f0 	svccc	0x005416f0
   1fc28:	3f53fac2 	svccc	0x0053fac2
   1fc2c:	3f53de94 	svccc	0x0053de94
   1fc30:	3f53c255 	svccc	0x0053c255
   1fc34:	3f53a616 	svccc	0x0053a616
   1fc38:	3f5389c6 	svccc	0x005389c6
   1fc3c:	3f536d76 	svccc	0x00536d76
   1fc40:	3f535116 	svccc	0x00535116
   1fc44:	3f5334b5 	svccc	0x005334b5
   1fc48:	3f531844 	svccc	0x00531844
   1fc4c:	3f52fbd2 	svccc	0x0052fbd2
   1fc50:	3f52df61 	svccc	0x0052df61
   1fc54:	3f52c2ce 	svccc	0x0052c2ce
   1fc58:	3f52a64c 	svccc	0x0052a64c
   1fc5c:	3f5289b9 	svccc	0x005289b9
   1fc60:	3f526d16 	svccc	0x00526d16
   1fc64:	3f525072 	svccc	0x00525072
   1fc68:	3f5233ce 	svccc	0x005233ce
   1fc6c:	3f521709 	svccc	0x00521709
   1fc70:	3f51fa55 	svccc	0x0051fa55
   1fc74:	3f51dd90 	svccc	0x0051dd90
   1fc78:	3f51c0ca 	svccc	0x0051c0ca
   1fc7c:	3f51a3f4 	svccc	0x0051a3f4
   1fc80:	3f51870e 	svccc	0x0051870e
   1fc84:	3f516a27 	svccc	0x00516a27
   1fc88:	3f514d40 	svccc	0x00514d40
   1fc8c:	3f513049 	svccc	0x00513049
   1fc90:	3f511351 	svccc	0x00511351
   1fc94:	3f50f649 	svccc	0x0050f649
   1fc98:	3f50d930 	svccc	0x0050d930
   1fc9c:	3f50bc27 	svccc	0x0050bc27
   1fca0:	3f509efe 	svccc	0x00509efe
   1fca4:	3f5081e4 	svccc	0x005081e4
   1fca8:	3f5064aa 	svccc	0x005064aa
   1fcac:	3f504780 	svccc	0x00504780
   1fcb0:	3f502a35 	svccc	0x00502a35
   1fcb4:	3f500cfa 	svccc	0x00500cfa
   1fcb8:	3f4fefae 	svccc	0x004fefae
   1fcbc:	3f4fd252 	svccc	0x004fd252
   1fcc0:	3f4fb4f6 	svccc	0x004fb4f6
   1fcc4:	3f4f9789 	svccc	0x004f9789
   1fcc8:	3f4f7a1c 	svccc	0x004f7a1c
   1fccc:	3f4f5caf 	svccc	0x004f5caf
   1fcd0:	3f4f3f31 	svccc	0x004f3f31
   1fcd4:	3f4f21a3 	svccc	0x004f21a3
   1fcd8:	3f4f0414 	svccc	0x004f0414
   1fcdc:	3f4ee686 	svccc	0x004ee686
   1fce0:	3f4ec8e7 	svccc	0x004ec8e7
   1fce4:	3f4eab36 	svccc	0x004eab36
   1fce8:	3f4e8d97 	svccc	0x004e8d97
   1fcec:	3f4e6fd6 	svccc	0x004e6fd6
   1fcf0:	3f4e5215 	svccc	0x004e5215
   1fcf4:	3f4e3455 	svccc	0x004e3455
   1fcf8:	3f4e1683 	svccc	0x004e1683
   1fcfc:	3f4df8b1 	svccc	0x004df8b1
   1fd00:	3f4ddacf 	svccc	0x004ddacf
   1fd04:	3f4dbced 	svccc	0x004dbced
   1fd08:	3f4d9f0a 	svccc	0x004d9f0a
   1fd0c:	3f4d8106 	svccc	0x004d8106
   1fd10:	3f4d6313 	svccc	0x004d6313
   1fd14:	3f4d450f 	svccc	0x004d450f
   1fd18:	3f4d26fa 	svccc	0x004d26fa
   1fd1c:	3f4d08e6 	svccc	0x004d08e6
   1fd20:	3f4cead1 	svccc	0x004cead1
   1fd24:	3f4cccab 	svccc	0x004cccab
   1fd28:	3f4cae75 	svccc	0x004cae75
   1fd2c:	3f4c903f 	svccc	0x004c903f
   1fd30:	3f4c7208 	svccc	0x004c7208
   1fd34:	3f4c53c1 	svccc	0x004c53c1
   1fd38:	3f4c357a 	svccc	0x004c357a
   1fd3c:	3f4c1722 	svccc	0x004c1722
   1fd40:	3f4bf8cb 	svccc	0x004bf8cb
   1fd44:	3f4bda62 	svccc	0x004bda62
   1fd48:	3f4bbbf9 	svccc	0x004bbbf9
   1fd4c:	3f4b9d80 	svccc	0x004b9d80
   1fd50:	3f4b7f06 	svccc	0x004b7f06
   1fd54:	3f4b608d 	svccc	0x004b608d
   1fd58:	3f4b41f2 	svccc	0x004b41f2
   1fd5c:	3f4b2368 	svccc	0x004b2368
   1fd60:	3f4b04cd 	svccc	0x004b04cd
   1fd64:	3f4ae632 	svccc	0x004ae632
   1fd68:	3f4ac786 	svccc	0x004ac786
   1fd6c:	3f4aa8ca 	svccc	0x004aa8ca
   1fd70:	3f4a8a0d 	svccc	0x004a8a0d
   1fd74:	3f4a6b51 	svccc	0x004a6b51
   1fd78:	3f4a4c83 	svccc	0x004a4c83
   1fd7c:	3f4a2db6 	svccc	0x004a2db6
   1fd80:	3f4a0ed8 	svccc	0x004a0ed8
   1fd84:	3f49effa 	svccc	0x0049effa
   1fd88:	3f49d10b 	svccc	0x0049d10b
   1fd8c:	3f49b21c 	svccc	0x0049b21c
   1fd90:	3f49932d 	svccc	0x0049932d
   1fd94:	3f49742e 	svccc	0x0049742e
   1fd98:	3f49551d 	svccc	0x0049551d
   1fd9c:	3f49360d 	svccc	0x0049360d
   1fda0:	3f4916fd 	svccc	0x004916fd
   1fda4:	3f48f7db 	svccc	0x0048f7db
   1fda8:	3f48d8ba 	svccc	0x0048d8ba
   1fdac:	3f48b988 	svccc	0x0048b988
   1fdb0:	3f489a56 	svccc	0x00489a56
   1fdb4:	3f487b14 	svccc	0x00487b14
   1fdb8:	3f485bd1 	svccc	0x00485bd1
   1fdbc:	3f483c7d 	svccc	0x00483c7d
   1fdc0:	3f481d2a 	svccc	0x00481d2a
   1fdc4:	3f47fdc6 	svccc	0x0047fdc6
   1fdc8:	3f47de61 	svccc	0x0047de61
   1fdcc:	3f47befd 	svccc	0x0047befd
   1fdd0:	3f479f88 	svccc	0x00479f88
   1fdd4:	3f478002 	svccc	0x00478002
   1fdd8:	3f47608d 	svccc	0x0047608d
   1fddc:	3f4740f6 	svccc	0x004740f6
   1fde0:	3f472160 	svccc	0x00472160
   1fde4:	3f4701c9 	svccc	0x004701c9
   1fde8:	3f46e222 	svccc	0x0046e222
   1fdec:	3f46c27a 	svccc	0x0046c27a
   1fdf0:	3f46a2d3 	svccc	0x0046a2d3
   1fdf4:	3f46831b 	svccc	0x0046831b
   1fdf8:	3f466352 	svccc	0x00466352
   1fdfc:	3f464389 	svccc	0x00464389
   1fe00:	3f4623c0 	svccc	0x004623c0
   1fe04:	3f4603e6 	svccc	0x004603e6
   1fe08:	3f45e3fc 	svccc	0x0045e3fc
   1fe0c:	3f45c422 	svccc	0x0045c422
   1fe10:	3f45a427 	svccc	0x0045a427
   1fe14:	3f45843c 	svccc	0x0045843c
   1fe18:	3f456441 	svccc	0x00456441
   1fe1c:	3f454435 	svccc	0x00454435
   1fe20:	3f452429 	svccc	0x00452429
   1fe24:	3f45040c 	svccc	0x0045040c
   1fe28:	3f44e3ef 	svccc	0x0044e3ef
   1fe2c:	3f44c3d2 	svccc	0x0044c3d2
   1fe30:	3f44a3a5 	svccc	0x0044a3a5
   1fe34:	3f448377 	svccc	0x00448377
   1fe38:	3f446339 	svccc	0x00446339
   1fe3c:	3f4442fa 	svccc	0x004442fa
   1fe40:	3f4422ab 	svccc	0x004422ab
   1fe44:	3f44025c 	svccc	0x0044025c
   1fe48:	3f43e1fc 	svccc	0x0043e1fc
   1fe4c:	3f43c19c 	svccc	0x0043c19c
   1fe50:	3f43a13c 	svccc	0x0043a13c
   1fe54:	3f4380cb 	svccc	0x004380cb
   1fe58:	3f43604a 	svccc	0x0043604a
   1fe5c:	3f433fd9 	svccc	0x00433fd9
   1fe60:	3f431f47 	svccc	0x00431f47
   1fe64:	3f42fec5 	svccc	0x0042fec5
   1fe68:	3f42de22 	svccc	0x0042de22
   1fe6c:	3f42bd90 	svccc	0x0042bd90
   1fe70:	3f429ced 	svccc	0x00429ced
   1fe74:	3f427c39 	svccc	0x00427c39
   1fe78:	3f425b85 	svccc	0x00425b85
   1fe7c:	3f423ad2 	svccc	0x00423ad2
   1fe80:	3f421a0d 	svccc	0x00421a0d
   1fe84:	3f41f948 	svccc	0x0041f948
   1fe88:	3f41d873 	svccc	0x0041d873
   1fe8c:	3f41b79e 	svccc	0x0041b79e
   1fe90:	3f4196b7 	svccc	0x004196b7
   1fe94:	3f4175d1 	svccc	0x004175d1
   1fe98:	3f4154da 	svccc	0x004154da
   1fe9c:	3f4133e3 	svccc	0x004133e3
   1fea0:	3f4112ec 	svccc	0x004112ec
   1fea4:	3f40f1e5 	svccc	0x0040f1e5
   1fea8:	3f40d0dd 	svccc	0x0040d0dd
   1feac:	3f40afc4 	svccc	0x0040afc4
   1feb0:	3f408eac 	svccc	0x00408eac
   1feb4:	3f406d83 	svccc	0x00406d83
   1feb8:	3f404c59 	svccc	0x00404c59
   1febc:	3f402b30 	svccc	0x00402b30
   1fec0:	3f4009f6 	svccc	0x004009f6
   1fec4:	3f3fe8ab 	svccc	0x003fe8ab
   1fec8:	3f3fc760 	svccc	0x003fc760
   1fecc:	3f3fa616 	svccc	0x003fa616
   1fed0:	3f3f84ba 	svccc	0x003f84ba
   1fed4:	3f3f635e 	svccc	0x003f635e
   1fed8:	3f3f4203 	svccc	0x003f4203
   1fedc:	3f3f2096 	svccc	0x003f2096
   1fee0:	3f3eff19 	svccc	0x003eff19
   1fee4:	3f3edd9c 	svccc	0x003edd9c
   1fee8:	3f3ebc1f 	svccc	0x003ebc1f
   1feec:	3f3e9a91 	svccc	0x003e9a91
   1fef0:	3f3e7903 	svccc	0x003e7903
   1fef4:	3f3e5764 	svccc	0x003e5764
   1fef8:	3f3e35c6 	svccc	0x003e35c6
   1fefc:	3f3e1416 	svccc	0x003e1416
   1ff00:	3f3df267 	svccc	0x003df267
   1ff04:	3f3dd0b7 	svccc	0x003dd0b7
   1ff08:	3f3daef7 	svccc	0x003daef7
   1ff0c:	3f3d8d37 	svccc	0x003d8d37
   1ff10:	3f3d6b66 	svccc	0x003d6b66
   1ff14:	3f3d4995 	svccc	0x003d4995
   1ff18:	3f3d27b3 	svccc	0x003d27b3
   1ff1c:	3f3d05d1 	svccc	0x003d05d1
   1ff20:	3f3ce3ef 	svccc	0x003ce3ef
   1ff24:	3f3cc1fd 	svccc	0x003cc1fd
   1ff28:	3f3ca00a 	svccc	0x003ca00a
   1ff2c:	3f3c7e07 	svccc	0x003c7e07
   1ff30:	3f3c5c03 	svccc	0x003c5c03
   1ff34:	3f3c39ef 	svccc	0x003c39ef
   1ff38:	3f3c17db 	svccc	0x003c17db
   1ff3c:	3f3bf5b6 	svccc	0x003bf5b6
   1ff40:	3f3bd391 	svccc	0x003bd391
   1ff44:	3f3bb16c 	svccc	0x003bb16c
   1ff48:	3f3b8f36 	svccc	0x003b8f36
   1ff4c:	3f3b6d01 	svccc	0x003b6d01
   1ff50:	3f3b4aba 	svccc	0x003b4aba
   1ff54:	3f3b2874 	svccc	0x003b2874
   1ff58:	3f3b062d 	svccc	0x003b062d
   1ff5c:	3f3ae3d6 	svccc	0x003ae3d6
   1ff60:	3f3ac16e 	svccc	0x003ac16e
   1ff64:	3f3a9f17 	svccc	0x003a9f17
   1ff68:	3f3a7c9e 	svccc	0x003a7c9e
   1ff6c:	3f3a5a36 	svccc	0x003a5a36
   1ff70:	3f3a37bd 	svccc	0x003a37bd
   1ff74:	3f3a1533 	svccc	0x003a1533
   1ff78:	3f39f2aa 	svccc	0x0039f2aa
   1ff7c:	3f39d020 	svccc	0x0039d020
   1ff80:	3f39ad86 	svccc	0x0039ad86
   1ff84:	3f398aec 	svccc	0x00398aec
   1ff88:	3f396840 	svccc	0x00396840
   1ff8c:	3f394595 	svccc	0x00394595
   1ff90:	3f3922d9 	svccc	0x003922d9
   1ff94:	3f39002e 	svccc	0x0039002e
   1ff98:	3f38dd61 	svccc	0x0038dd61
   1ff9c:	3f38ba95 	svccc	0x0038ba95
   1ffa0:	3f3897c8 	svccc	0x003897c8
   1ffa4:	3f3874fb 	svccc	0x003874fb
   1ffa8:	3f38521e 	svccc	0x0038521e
   1ffac:	3f382f30 	svccc	0x00382f30
   1ffb0:	3f380c41 	svccc	0x00380c41
   1ffb4:	3f37e953 	svccc	0x0037e953
   1ffb8:	3f37c654 	svccc	0x0037c654
   1ffbc:	3f37a355 	svccc	0x0037a355
   1ffc0:	3f378045 	svccc	0x00378045
   1ffc4:	3f375d35 	svccc	0x00375d35
   1ffc8:	3f373a26 	svccc	0x00373a26
   1ffcc:	3f371705 	svccc	0x00371705
   1ffd0:	3f36f3e4 	svccc	0x0036f3e4
   1ffd4:	3f36d0b3 	svccc	0x0036d0b3
   1ffd8:	3f36ad82 	svccc	0x0036ad82
   1ffdc:	3f368a40 	svccc	0x00368a40
   1ffe0:	3f3666fd 	svccc	0x003666fd
   1ffe4:	3f3643bb 	svccc	0x003643bb
   1ffe8:	3f362068 	svccc	0x00362068
   1ffec:	3f35fd15 	svccc	0x0035fd15
   1fff0:	3f35d9b2 	svccc	0x0035d9b2
   1fff4:	3f35b64e 	svccc	0x0035b64e
   1fff8:	3f3592ea 	svccc	0x003592ea
   1fffc:	3f356f76 	svccc	0x00356f76
   20000:	3f354c01 	svccc	0x00354c01
   20004:	3f35287c 	svccc	0x0035287c
   20008:	3f3504f7 	svccc	0x003504f7
   2000c:	3f34e161 	svccc	0x0034e161
   20010:	3f34bdcb 	svccc	0x0034bdcb
   20014:	3f349a35 	svccc	0x00349a35
   20018:	3f34768e 	svccc	0x0034768e
   2001c:	3f3452e7 	svccc	0x003452e7
   20020:	3f342f30 	svccc	0x00342f30
   20024:	3f340b78 	svccc	0x00340b78
   20028:	3f33e7c0 	svccc	0x0033e7c0
   2002c:	3f33c3f8 	svccc	0x0033c3f8
   20030:	3f33a030 	svccc	0x0033a030
   20034:	3f337c57 	svccc	0x00337c57
   20038:	3f33587d 	svccc	0x0033587d
   2003c:	3f333494 	svccc	0x00333494
   20040:	3f3310aa 	svccc	0x003310aa
   20044:	3f32ecc0 	svccc	0x0032ecc0
   20048:	3f32c8c5 	svccc	0x0032c8c5
   2004c:	3f32a4ca 	svccc	0x0032a4ca
   20050:	3f3280d0 	svccc	0x003280d0
   20054:	3f325cc4 	svccc	0x00325cc4
   20058:	3f3238a8 	svccc	0x003238a8
   2005c:	3f32148c 	svccc	0x0032148c
   20060:	3f31f06f 	svccc	0x0031f06f
   20064:	3f31cc42 	svccc	0x0031cc42
   20068:	3f31a815 	svccc	0x0031a815
   2006c:	3f3183e8 	svccc	0x003183e8
   20070:	3f315fab 	svccc	0x00315fab
   20074:	3f313b6d 	svccc	0x00313b6d
   20078:	3f31171e 	svccc	0x0031171e
   2007c:	3f30f2d0 	svccc	0x0030f2d0
   20080:	3f30ce81 	svccc	0x0030ce81
   20084:	3f30aa22 	svccc	0x0030aa22
   20088:	3f3085c2 	svccc	0x003085c2
   2008c:	3f306152 	svccc	0x00306152
   20090:	3f303ce2 	svccc	0x00303ce2
   20094:	3f301861 	svccc	0x00301861
   20098:	3f2ff3e0 	svccc	0x002ff3e0
   2009c:	3f2fcf5f 	svccc	0x002fcf5f
   200a0:	3f2faace 	svccc	0x002faace
   200a4:	3f2f863c 	svccc	0x002f863c
   200a8:	3f2f61aa 	svccc	0x002f61aa
   200ac:	3f2f3d08 	svccc	0x002f3d08
   200b0:	3f2f1855 	svccc	0x002f1855
   200b4:	3f2ef3b2 	svccc	0x002ef3b2
   200b8:	3f2eceff 	svccc	0x002eceff
   200bc:	3f2eaa3b 	svccc	0x002eaa3b
   200c0:	3f2e8577 	svccc	0x002e8577
   200c4:	3f2e60b3 	svccc	0x002e60b3
   200c8:	3f2e3bde 	svccc	0x002e3bde
   200cc:	3f2e1709 	svccc	0x002e1709
   200d0:	3f2df224 	svccc	0x002df224
   200d4:	3f2dcd3e 	svccc	0x002dcd3e
   200d8:	3f2da858 	svccc	0x002da858
   200dc:	3f2d8362 	svccc	0x002d8362
   200e0:	3f2d5e6c 	svccc	0x002d5e6c
   200e4:	3f2d3975 	svccc	0x002d3975
   200e8:	3f2d146e 	svccc	0x002d146e
   200ec:	3f2cef56 	svccc	0x002cef56
   200f0:	3f2cca4f 	svccc	0x002cca4f
   200f4:	3f2ca537 	svccc	0x002ca537
   200f8:	3f2c800f 	svccc	0x002c800f
   200fc:	3f2c5ae6 	svccc	0x002c5ae6
   20100:	3f2c35bd 	svccc	0x002c35bd
   20104:	3f2c1084 	svccc	0x002c1084
   20108:	3f2beb4a 	svccc	0x002beb4a
   2010c:	3f2bc600 	svccc	0x002bc600
   20110:	3f2ba0c7 	svccc	0x002ba0c7
   20114:	3f2b7b6c 	svccc	0x002b7b6c
   20118:	3f2b5621 	svccc	0x002b5621
   2011c:	3f2b30c6 	svccc	0x002b30c6
   20120:	3f2b0b5b 	svccc	0x002b0b5b
   20124:	3f2ae5ef 	svccc	0x002ae5ef
   20128:	3f2ac083 	svccc	0x002ac083
   2012c:	3f2a9b07 	svccc	0x002a9b07
   20130:	3f2a758a 	svccc	0x002a758a
   20134:	3f2a500d 	svccc	0x002a500d
   20138:	3f2a2a80 	svccc	0x002a2a80
   2013c:	3f2a04f3 	svccc	0x002a04f3
   20140:	3f29df55 	svccc	0x0029df55
   20144:	3f29b9b6 	svccc	0x0029b9b6
   20148:	3f299418 	svccc	0x00299418
   2014c:	3f296e69 	svccc	0x00296e69
   20150:	3f2948bb 	svccc	0x002948bb
   20154:	3f2922fb 	svccc	0x002922fb
   20158:	3f28fd3b 	svccc	0x0028fd3b
   2015c:	3f28d77b 	svccc	0x0028d77b
   20160:	3f28b1ab 	svccc	0x0028b1ab
   20164:	3f288bdb 	svccc	0x00288bdb
   20168:	3f28660a 	svccc	0x0028660a
   2016c:	3f284029 	svccc	0x00284029
   20170:	3f281a48 	svccc	0x00281a48
   20174:	3f27f456 	svccc	0x0027f456
   20178:	3f27ce64 	svccc	0x0027ce64
   2017c:	3f27a861 	svccc	0x0027a861
   20180:	3f27826f 	svccc	0x0027826f
   20184:	3f275c5b 	svccc	0x00275c5b
   20188:	3f273659 	svccc	0x00273659
   2018c:	3f271045 	svccc	0x00271045
   20190:	3f26ea31 	svccc	0x0026ea31
   20194:	3f26c40d 	svccc	0x0026c40d
   20198:	3f269de9 	svccc	0x00269de9
   2019c:	3f2677b4 	svccc	0x002677b4
   201a0:	3f26517e 	svccc	0x0026517e
   201a4:	3f262b49 	svccc	0x00262b49
   201a8:	3f260503 	svccc	0x00260503
   201ac:	3f25debe 	svccc	0x0025debe
   201b0:	3f25b878 	svccc	0x0025b878
   201b4:	3f259221 	svccc	0x00259221
   201b8:	3f256bca 	svccc	0x00256bca
   201bc:	3f254563 	svccc	0x00254563
   201c0:	3f251f0c 	svccc	0x00251f0c
   201c4:	3f24f894 	svccc	0x0024f894
   201c8:	3f24d22d 	svccc	0x0024d22d
   201cc:	3f24aba4 	svccc	0x0024aba4
   201d0:	3f24852b 	svccc	0x0024852b
   201d4:	3f245ea2 	svccc	0x00245ea2
   201d8:	3f243819 	svccc	0x00243819
   201dc:	3f241180 	svccc	0x00241180
   201e0:	3f23eae6 	svccc	0x0023eae6
   201e4:	3f23c44c 	svccc	0x0023c44c
   201e8:	3f239da1 	svccc	0x00239da1
   201ec:	3f2376f7 	svccc	0x002376f7
   201f0:	3f23504c 	svccc	0x0023504c
   201f4:	3f232991 	svccc	0x00232991
   201f8:	3f2302d6 	svccc	0x002302d6
   201fc:	3f22dc0a 	svccc	0x0022dc0a
   20200:	3f22b53d 	svccc	0x0022b53d
   20204:	3f228e71 	svccc	0x00228e71
   20208:	3f226794 	svccc	0x00226794
   2020c:	3f2240b8 	svccc	0x002240b8
   20210:	3f2219db 	svccc	0x002219db
   20214:	3f21f2ed 	svccc	0x0021f2ed
   20218:	3f21cbff 	svccc	0x0021cbff
   2021c:	3f21a501 	svccc	0x0021a501
   20220:	3f217e02 	svccc	0x00217e02
   20224:	3f215704 	svccc	0x00215704
   20228:	3f212ff5 	svccc	0x00212ff5
   2022c:	3f2108e6 	svccc	0x002108e6
   20230:	3f20e1d6 	svccc	0x0020e1d6
   20234:	3f20bab6 	svccc	0x0020bab6
   20238:	3f209396 	svccc	0x00209396
   2023c:	3f206c66 	svccc	0x00206c66
   20240:	3f204535 	svccc	0x00204535
   20244:	3f201e04 	svccc	0x00201e04
   20248:	3f1ff6c2 	svccc	0x001ff6c2
   2024c:	3f1fcf81 	svccc	0x001fcf81
   20250:	3f1fa83f 	svccc	0x001fa83f
   20254:	3f1f80ed 	svccc	0x001f80ed
   20258:	3f1f599b 	svccc	0x001f599b
   2025c:	3f1f3248 	svccc	0x001f3248
   20260:	3f1f0ae5 	svccc	0x001f0ae5
   20264:	3f1ee382 	svccc	0x001ee382
   20268:	3f1ebc0e 	svccc	0x001ebc0e
   2026c:	3f1e949a 	svccc	0x001e949a
   20270:	3f1e6d26 	svccc	0x001e6d26
   20274:	3f1e45a2 	svccc	0x001e45a2
   20278:	3f1e1e1d 	svccc	0x001e1e1d
   2027c:	3f1df698 	svccc	0x001df698
   20280:	3f1dcf03 	svccc	0x001dcf03
   20284:	3f1da76e 	svccc	0x001da76e
   20288:	3f1d7fd8 	svccc	0x001d7fd8
   2028c:	3f1d5832 	svccc	0x001d5832
   20290:	3f1d308c 	svccc	0x001d308c
   20294:	3f1d08d5 	svccc	0x001d08d5
   20298:	3f1ce11e 	svccc	0x001ce11e
   2029c:	3f1cb967 	svccc	0x001cb967
   202a0:	3f1c919f 	svccc	0x001c919f
   202a4:	3f1c69d7 	svccc	0x001c69d7
   202a8:	3f1c420f 	svccc	0x001c420f
   202ac:	3f1c1a37 	svccc	0x001c1a37
   202b0:	3f1bf25e 	svccc	0x001bf25e
   202b4:	3f1bca86 	svccc	0x001bca86
   202b8:	3f1ba29c 	svccc	0x001ba29c
   202bc:	3f1b7ab3 	svccc	0x001b7ab3
   202c0:	3f1b52b9 	svccc	0x001b52b9
   202c4:	3f1b2abf 	svccc	0x001b2abf
   202c8:	3f1b02c5 	svccc	0x001b02c5
   202cc:	3f1adaba 	svccc	0x001adaba
   202d0:	3f1ab2c0 	svccc	0x001ab2c0
   202d4:	3f1a8aa4 	svccc	0x001a8aa4
   202d8:	3f1a6299 	svccc	0x001a6299
   202dc:	3f1a3a7e 	svccc	0x001a3a7e
   202e0:	3f1a1251 	svccc	0x001a1251
   202e4:	3f19ea36 	svccc	0x0019ea36
   202e8:	3f19c1f8 	svccc	0x0019c1f8
   202ec:	3f1999cc 	svccc	0x001999cc
   202f0:	3f19718f 	svccc	0x0019718f
   202f4:	3f194952 	svccc	0x00194952
   202f8:	3f192114 	svccc	0x00192114
   202fc:	3f18f8c6 	svccc	0x0018f8c6
   20300:	3f18d078 	svccc	0x0018d078
   20304:	3f18a81a 	svccc	0x0018a81a
   20308:	3f187fbb 	svccc	0x00187fbb
   2030c:	3f18575c 	svccc	0x0018575c
   20310:	3f182eec 	svccc	0x00182eec
   20314:	3f18068e 	svccc	0x0018068e
   20318:	3f17de0d 	svccc	0x0017de0d
   2031c:	3f17b59e 	svccc	0x0017b59e
   20320:	3f178d1e 	svccc	0x00178d1e
   20324:	3f17648c 	svccc	0x0017648c
   20328:	3f173c0c 	svccc	0x00173c0c
   2032c:	3f17137b 	svccc	0x0017137b
   20330:	3f16ead9 	svccc	0x0016ead9
   20334:	3f16c248 	svccc	0x0016c248
   20338:	3f1699a6 	svccc	0x001699a6
   2033c:	3f1670f4 	svccc	0x001670f4
   20340:	3f164841 	svccc	0x00164841
   20344:	3f161f8e 	svccc	0x00161f8e
   20348:	3f15f6dc 	svccc	0x0015f6dc
   2034c:	3f15ce18 	svccc	0x0015ce18
   20350:	3f15a555 	svccc	0x0015a555
   20354:	3f157c81 	svccc	0x00157c81
   20358:	3f1553bd 	svccc	0x001553bd
   2035c:	3f152ad8 	svccc	0x00152ad8
   20360:	3f150204 	svccc	0x00150204
   20364:	3f14d91f 	svccc	0x0014d91f
   20368:	3f14b03a 	svccc	0x0014b03a
   2036c:	3f148744 	svccc	0x00148744
   20370:	3f145e5f 	svccc	0x00145e5f
   20374:	3f143559 	svccc	0x00143559
   20378:	3f140c63 	svccc	0x00140c63
   2037c:	3f13e35c 	svccc	0x0013e35c
   20380:	3f13ba56 	svccc	0x0013ba56
   20384:	3f13913f 	svccc	0x0013913f
   20388:	3f136827 	svccc	0x00136827
   2038c:	3f133f10 	svccc	0x00133f10
   20390:	3f1315e8 	svccc	0x001315e8
   20394:	3f12ecc0 	svccc	0x0012ecc0
   20398:	3f12c398 	svccc	0x0012c398
   2039c:	3f129a70 	svccc	0x00129a70
   203a0:	3f127137 	svccc	0x00127137
   203a4:	3f1247ed 	svccc	0x001247ed
   203a8:	3f121eb4 	svccc	0x00121eb4
   203ac:	3f11f56a 	svccc	0x0011f56a
   203b0:	3f11cc21 	svccc	0x0011cc21
   203b4:	3f11a2c6 	svccc	0x0011a2c6
   203b8:	3f11796c 	svccc	0x0011796c
   203bc:	3f115012 	svccc	0x00115012
   203c0:	3f1126a6 	svccc	0x001126a6
   203c4:	3f10fd3b 	svccc	0x0010fd3b
   203c8:	3f10d3d0 	svccc	0x0010d3d0
   203cc:	3f10aa54 	svccc	0x0010aa54
   203d0:	3f1080d8 	svccc	0x001080d8
   203d4:	3f10575c 	svccc	0x0010575c
   203d8:	3f102dcf 	svccc	0x00102dcf
   203dc:	3f100443 	svccc	0x00100443
   203e0:	3f0fdab6 	svccc	0x000fdab6
   203e4:	3f0fb129 	svccc	0x000fb129
   203e8:	3f0f878b 	svccc	0x000f878b
   203ec:	3f0f5ddd 	svccc	0x000f5ddd
   203f0:	3f0f3440 	svccc	0x000f3440
   203f4:	3f0f0a91 	svccc	0x000f0a91
   203f8:	3f0ee0e3 	svccc	0x000ee0e3
   203fc:	3f0eb724 	svccc	0x000eb724
   20400:	3f0e8d65 	svccc	0x000e8d65
   20404:	3f0e63a6 	svccc	0x000e63a6
   20408:	3f0e39d6 	svccc	0x000e39d6
   2040c:	3f0e1006 	svccc	0x000e1006
   20410:	3f0de636 	svccc	0x000de636
   20414:	3f0dbc66 	svccc	0x000dbc66
   20418:	3f0d9286 	svccc	0x000d9286
   2041c:	3f0d68a5 	svccc	0x000d68a5
   20420:	3f0d3eb4 	svccc	0x000d3eb4
   20424:	3f0d14c2 	svccc	0x000d14c2
   20428:	3f0cead1 	svccc	0x000cead1
   2042c:	3f0cc0cf 	svccc	0x000cc0cf
   20430:	3f0c96dd 	svccc	0x000c96dd
   20434:	3f0c6cdb 	svccc	0x000c6cdb
   20438:	3f0c42c8 	svccc	0x000c42c8
   2043c:	3f0c18b5 	svccc	0x000c18b5
   20440:	3f0beea2 	svccc	0x000beea2
   20444:	3f0bc48f 	svccc	0x000bc48f
   20448:	3f0b9a6b 	svccc	0x000b9a6b
   2044c:	3f0b7048 	svccc	0x000b7048
   20450:	3f0b4624 	svccc	0x000b4624
   20454:	3f0b1bef 	svccc	0x000b1bef
   20458:	3f0af1bb 	svccc	0x000af1bb
   2045c:	3f0ac775 	svccc	0x000ac775
   20460:	3f0a9d41 	svccc	0x000a9d41
   20464:	3f0a72fc 	svccc	0x000a72fc
   20468:	3f0a48a6 	svccc	0x000a48a6
   2046c:	3f0a1e60 	svccc	0x000a1e60
   20470:	3f09f40a 	svccc	0x0009f40a
   20474:	3f09c9b4 	svccc	0x0009c9b4
   20478:	3f099f4d 	svccc	0x00099f4d
   2047c:	3f0974e6 	svccc	0x000974e6
   20480:	3f094a80 	svccc	0x00094a80
   20484:	3f092008 	svccc	0x00092008
   20488:	3f08f5a1 	svccc	0x0008f5a1
   2048c:	3f08cb19 	svccc	0x0008cb19
   20490:	3f08a0a1 	svccc	0x0008a0a1
   20494:	3f087619 	svccc	0x00087619
   20498:	3f084b90 	svccc	0x00084b90
   2049c:	3f082108 	svccc	0x00082108
   204a0:	3f07f66f 	svccc	0x0007f66f
   204a4:	3f07cbd5 	svccc	0x0007cbd5
   204a8:	3f07a13c 	svccc	0x0007a13c
   204ac:	3f077692 	svccc	0x00077692
   204b0:	3f074be8 	svccc	0x00074be8
   204b4:	3f07213e 	svccc	0x0007213e
   204b8:	3f06f683 	svccc	0x0006f683
   204bc:	3f06cbc9 	svccc	0x0006cbc9
   204c0:	3f06a10e 	svccc	0x0006a10e
   204c4:	3f067653 	svccc	0x00067653
   204c8:	3f064b88 	svccc	0x00064b88
   204cc:	3f0620bc 	svccc	0x000620bc
   204d0:	3f05f5e0 	svccc	0x0005f5e0
   204d4:	3f05cb04 	svccc	0x0005cb04
   204d8:	3f05a027 	svccc	0x0005a027
   204dc:	3f05754b 	svccc	0x0005754b
   204e0:	3f054a5e 	svccc	0x00054a5e
   204e4:	3f051f71 	svccc	0x00051f71
   204e8:	3f04f484 	svccc	0x0004f484
   204ec:	3f04c986 	svccc	0x0004c986
   204f0:	3f049e99 	svccc	0x00049e99
   204f4:	3f04738a 	svccc	0x0004738a
   204f8:	3f04488c 	svccc	0x0004488c
   204fc:	3f041d7e 	svccc	0x00041d7e
   20500:	3f03f26f 	svccc	0x0003f26f
   20504:	3f03c750 	svccc	0x0003c750
   20508:	3f039c41 	svccc	0x00039c41
   2050c:	3f037122 	svccc	0x00037122
   20510:	3f0345f1 	svccc	0x000345f1
   20514:	3f031ad2 	svccc	0x00031ad2
   20518:	3f02efa2 	svccc	0x0002efa2
   2051c:	3f02c472 	svccc	0x0002c472
   20520:	3f029931 	svccc	0x00029931
   20524:	3f026df0 	svccc	0x00026df0
   20528:	3f0242af 	svccc	0x000242af
   2052c:	3f02176e 	svccc	0x0002176e
   20530:	3f01ec1c 	svccc	0x0001ec1c
   20534:	3f01c0ca 	svccc	0x0001c0ca
   20538:	3f019579 	svccc	0x00019579
   2053c:	3f016a16 	svccc	0x00016a16
   20540:	3f013eb4 	svccc	0x00013eb4
   20544:	3f011351 	svccc	0x00011351
   20548:	3f00e7de 	svccc	0x0000e7de
   2054c:	3f00bc7b 	svccc	0x0000bc7b
   20550:	3f0090f7 	svccc	0x000090f7
   20554:	3f006584 	svccc	0x00006584
   20558:	3f003a00 	svccc	0x00003a00
   2055c:	3f000e7c 	svccc	0x00000e7c
   20560:	3effc5ef 	cdpcc	5, 15, cr12, cr15, cr15, {7}
   20564:	3eff6ee7 	cdpcc	14, 15, cr6, cr15, cr7, {7}
   20568:	3eff17be 	mrccc	7, 7, r1, cr15, cr14, {5}
   2056c:	3efec094 	mrccc	0, 7, ip, cr14, cr4, {4}
   20570:	3efe6949 	cdpcc	9, 15, cr6, cr14, cr9, {2}
   20574:	3efe11fd 	mrccc	1, 7, r1, cr14, cr13, {7}
   20578:	3efdbab2 	mrccc	10, 7, fp, cr13, cr2, {5}
   2057c:	3efd6367 	cdpcc	3, 15, cr6, cr13, cr7, {3}
   20580:	3efd0bfa 	vmovcc.u8	r0, d29[7]
   20584:	3efcb48d 	cdpcc	4, 15, cr11, cr12, cr13, {4}
   20588:	3efc5d20 	cdpcc	13, 15, cr5, cr12, cr0, {1}
   2058c:	3efc05b4 	mrccc	5, 7, r0, cr12, cr4, {5}
   20590:	3efbae25 	cdpcc	14, 15, cr10, cr11, cr5, {1}
   20594:	3efb5697 	mrccc	6, 7, r5, cr11, cr7, {4}
   20598:	3efafee7 	cdpcc	14, 15, cr15, cr10, cr7, {7}
   2059c:	3efaa759 	mrccc	7, 7, sl, cr10, cr9, {2}
   205a0:	3efa4fa9 	cdpcc	15, 15, cr4, cr10, cr9, {5}
   205a4:	3ef9f7f9 	mrccc	7, 7, APSR_nzcv, cr9, cr9, {7}
   205a8:	3ef9a027 	cdpcc	0, 15, cr10, cr9, cr7, {1}
   205ac:	3ef94856 	mrccc	8, 7, r4, cr9, cr6, {2}
   205b0:	3ef8f084 	cdpcc	0, 15, cr15, cr8, cr4, {4}
   205b4:	3ef898b3 	mrccc	8, 7, r9, cr8, cr3, {5}
   205b8:	3ef840c0 	cdpcc	0, 15, cr4, cr8, cr0, {6}
   205bc:	3ef7e8cd 	cdpcc	8, 15, cr14, cr7, cr13, {6}
   205c0:	3ef790da 	mrccc	0, 7, r9, cr7, cr10, {6}
   205c4:	3ef738e7 	cdpcc	8, 15, cr3, cr7, cr7, {7}
   205c8:	3ef6e0d2 	mrccc	0, 7, lr, cr6, cr2, {6}
   205cc:	3ef688be 	mrccc	8, 7, r8, cr6, cr14, {5}
   205d0:	3ef63088 	cdpcc	0, 15, cr3, cr6, cr8, {4}
   205d4:	3ef5d873 	mrccc	8, 7, sp, cr5, cr3, {3}
   205d8:	3ef5803d 	mrccc	0, 7, r8, cr5, cr13, {1}
   205dc:	3ef52807 	cdpcc	8, 15, cr2, cr5, cr7, {0}
   205e0:	3ef4cfaf 	cdpcc	15, 15, cr12, cr4, cr15, {5}
   205e4:	3ef47757 	mrccc	7, 7, r7, cr4, cr7, {2}
   205e8:	3ef41f00 	cdpcc	15, 15, cr1, cr4, cr0, {0}
   205ec:	3ef3c6a8 	cdpcc	6, 15, cr12, cr3, cr8, {5}
   205f0:	3ef36e2f 	cdpcc	14, 15, cr6, cr3, cr15, {1}
   205f4:	3ef315b5 	mrccc	5, 7, r1, cr3, cr5, {5}
   205f8:	3ef2bd3c 	mrccc	13, 7, fp, cr2, cr12, {1}
   205fc:	3ef264c3 	cdpcc	4, 15, cr6, cr2, cr3, {6}
   20600:	3ef20c28 	cdpcc	12, 15, cr0, cr2, cr8, {1}
   20604:	3ef1b38d 	cdpcc	3, 15, cr11, cr1, cr13, {4}
   20608:	3ef15af3 	mrccc	10, 7, r5, cr1, cr3, {7}
   2060c:	3ef10236 	mrccc	2, 7, r0, cr1, cr6, {1}
   20610:	3ef0a97a 	mrccc	9, 7, sl, cr0, cr10, {3}
   20614:	3ef050be 	mrccc	0, 7, r5, cr0, cr14, {5}
   20618:	3eeff801 	cdpcc	8, 14, cr15, cr15, cr1, {0}
   2061c:	3eef9f23 	cdpcc	15, 14, cr9, cr15, cr3, {1}
   20620:	3eef4645 	cdpcc	6, 14, cr4, cr15, cr5, {2}
   20624:	3eeeed67 	cdpcc	13, 14, cr14, cr14, cr7, {3}
   20628:	3eee9468 	cdpcc	4, 14, cr9, cr14, cr8, {3}
   2062c:	3eee3b8a 	vfmacc.f64	d19, d30, d10
   20630:	3eede28b 	cdpcc	2, 14, cr14, cr13, cr11, {4}
   20634:	3eed896a 	cdpcc	9, 14, cr8, cr13, cr10, {3}
   20638:	3eed306a 	cdpcc	0, 14, cr3, cr13, cr10, {3}
   2063c:	3eecd749 	cdpcc	7, 14, cr13, cr12, cr9, {2}
   20640:	3eec7e28 	cdpcc	14, 14, cr7, cr12, cr8, {1}
   20644:	3eec24e6 	cdpcc	4, 14, cr2, cr12, cr6, {7}
   20648:	3eebcbc5 	vfmscc.f64	d28, d27, d5
   2064c:	3eeb7282 	cdpcc	2, 14, cr7, cr11, cr2, {4}
   20650:	3eeb193f 	mcrcc	9, 7, r1, cr11, cr15, {1}
   20654:	3eeabfdb 	mcrcc	15, 7, fp, cr10, cr11, {6}
   20658:	3eea6677 	mcrcc	6, 7, r6, cr10, cr7, {3}
   2065c:	3eea0d13 	mcrcc	13, 7, r0, cr10, cr3, {0}
   20660:	3ee9b3af 	cdpcc	3, 14, cr11, cr9, cr15, {5}
   20664:	3ee95a29 	vfmacc.f32	s11, s18, s19
   20668:	3ee900c5 	cdpcc	0, 14, cr0, cr9, cr5, {6}
   2066c:	3ee8a71e 	mcrcc	7, 7, sl, cr8, cr14, {0}
   20670:	3ee84d98 	mcrcc	13, 7, r4, cr8, cr8, {4}
   20674:	3ee7f3f1 	mcrcc	3, 7, pc, cr7, cr1, {7}	; <UNPREDICTABLE>
   20678:	3ee79a6b 	vfmscc.f32	s19, s14, s23
   2067c:	3ee740a3 	cdpcc	0, 14, cr4, cr7, cr3, {5}
   20680:	3ee6e6fb 	mcrcc	6, 7, lr, cr6, cr11, {7}
   20684:	3ee68d33 	mcrcc	13, 7, r8, cr6, cr3, {1}
   20688:	3ee6336a 	cdpcc	3, 14, cr3, cr6, cr10, {3}
   2068c:	3ee5d9a1 	cdpcc	9, 14, cr13, cr5, cr1, {5}
   20690:	3ee57fd8 	mcrcc	15, 7, r7, cr5, cr8, {6}
   20694:	3ee525ee 	cdpcc	5, 14, cr2, cr5, cr14, {7}
   20698:	3ee4cc03 	cdpcc	12, 14, cr12, cr4, cr3, {0}
   2069c:	3ee47219 	mcrcc	2, 7, r7, cr4, cr9, {0}
   206a0:	3ee4180d 	cdpcc	8, 14, cr1, cr4, cr13, {0}
   206a4:	3ee3be01 	cdpcc	14, 14, cr11, cr3, cr1, {0}
   206a8:	3ee363f5 	mcrcc	3, 7, r6, cr3, cr5, {7}
   206ac:	3ee309ea 	cdpcc	9, 14, cr0, cr3, cr10, {7}
   206b0:	3ee2afbc 	mcrcc	15, 7, sl, cr2, cr12, {5}
   206b4:	3ee2558f 	cdpcc	5, 14, cr5, cr2, cr15, {4}
   206b8:	3ee1fb61 	vfmscc.f64	d31, d1, d17
   206bc:	3ee1a134 	mcrcc	1, 7, sl, cr1, cr4, {1}
   206c0:	3ee146e5 	cdpcc	6, 14, cr4, cr1, cr5, {7}
   206c4:	3ee0ec96 	mcrcc	12, 7, lr, cr0, cr6, {4}
   206c8:	3ee09247 	cdpcc	2, 14, cr9, cr0, cr7, {2}
   206cc:	3ee037f8 	mcrcc	7, 7, r3, cr0, cr8, {7}
   206d0:	3edfdd87 	cdpcc	13, 13, cr13, cr15, cr7, {4}
   206d4:	3edf8317 	mrccc	3, 6, r8, cr15, cr7, {0}
   206d8:	3edf28a6 	cdpcc	8, 13, cr2, cr15, cr6, {5}
   206dc:	3edece36 	mrccc	14, 6, ip, cr14, cr6, {1}
   206e0:	3ede73a3 	cdpcc	3, 13, cr7, cr14, cr3, {5}
   206e4:	3ede1911 	mrccc	9, 6, r1, cr14, cr1, {0}
   206e8:	3eddbe7f 	mrccc	14, 6, fp, cr13, cr15, {3}
   206ec:	3edd63cc 	cdpcc	3, 13, cr6, cr13, cr12, {6}
   206f0:	3edd0939 	mrccc	9, 6, r0, cr13, cr9, {1}
   206f4:	3edcae86 	cdpcc	14, 13, cr10, cr12, cr6, {4}
   206f8:	3edc53b1 	mrccc	3, 6, r5, cr12, cr1, {5}
   206fc:	3edbf8fd 	mrccc	8, 6, APSR_nzcv, cr11, cr13, {7}
   20700:	3edb9e28 	cdpcc	14, 13, cr9, cr11, cr8, {1}
   20704:	3edb4352 	mrccc	3, 6, r4, cr11, cr2, {2}
   20708:	3edae87d 	mrccc	8, 6, lr, cr10, cr13, {3}
   2070c:	3eda8da8 	cdpcc	13, 13, cr8, cr10, cr8, {5}
   20710:	3eda32b1 	mrccc	2, 6, r3, cr10, cr1, {5}
   20714:	3ed9d7ba 	mrccc	7, 6, sp, cr9, cr10, {5}
   20718:	3ed97cc4 	cdpcc	12, 13, cr7, cr9, cr4, {6}
   2071c:	3ed921ab 	cdpcc	1, 13, cr2, cr9, cr11, {5}
   20720:	3ed8c693 	mrccc	6, 6, ip, cr8, cr3, {4}
   20724:	3ed86b7b 	vmovcc.u8	r6, d8[3]
   20728:	3ed81062 	cdpcc	0, 13, cr1, cr8, cr2, {3}
   2072c:	3ed7b54a 	cdpcc	5, 13, cr11, cr7, cr10, {2}
   20730:	3ed75a10 	mrccc	10, 6, r5, cr7, cr0, {0}
   20734:	3ed6fed6 	mrccc	14, 6, APSR_nzcv, cr6, cr6, {6}
   20738:	3ed6a39c 	mrccc	3, 6, sl, cr6, cr12, {4}
   2073c:	3ed64841 	cdpcc	8, 13, cr4, cr6, cr1, {2}
   20740:	3ed5ed07 	cdpcc	13, 13, cr14, cr5, cr7, {0}
   20744:	3ed591ac 	atnccdp	f1, #4.0
   20748:	3ed53650 	mrccc	6, 6, r3, cr5, cr0, {2}
   2074c:	3ed4dad3 	mrccc	10, 6, sp, cr4, cr3, {6}
   20750:	3ed47f56 	mrccc	15, 6, r7, cr4, cr6, {2}
   20754:	3ed423d9 	mrccc	3, 6, r2, cr4, cr9, {6}
   20758:	3ed3c85c 	mrccc	8, 6, ip, cr3, cr12, {2}
   2075c:	3ed36cdf 	mrccc	12, 6, r6, cr3, cr15, {6}
   20760:	3ed31141 	cdpcc	1, 13, cr1, cr3, cr1, {2}
   20764:	3ed2b5a2 	cdpcc	5, 13, cr11, cr2, cr2, {5}
   20768:	3ed25a04 	vfnmscc.f32	s11, s4, s8
   2076c:	3ed1fe65 	cdpcc	14, 13, cr15, cr1, cr5, {3}
   20770:	3ed1a2a5 	cdpcc	2, 13, cr10, cr1, cr5, {5}
   20774:	3ed146e5 	cdpcc	6, 13, cr4, cr1, cr5, {7}
   20778:	3ed0eb25 	vfnmscc.f64	d30, d0, d21
   2077c:	3ed08f65 	cdpcc	15, 13, cr8, cr0, cr5, {3}
   20780:	3ed03383 	cdpcc	3, 13, cr3, cr0, cr3, {4}
   20784:	3ecfd7a1 	cdpcc	7, 12, cr13, cr15, cr1, {5}
   20788:	3ecf7bc0 	cdpcc	11, 12, cr7, cr15, cr0, {6}
   2078c:	3ecf1fde 	mcrcc	15, 6, r1, cr15, cr14, {6}
   20790:	3ecec3db 	mcrcc	3, 6, ip, cr14, cr11, {6}
   20794:	3ece67f9 	mcrcc	7, 6, r6, cr14, cr9, {7}
   20798:	3ece0bf6 	mcrcc	11, 6, r0, cr14, cr6, {7}
   2079c:	3ecdafd1 	mcrcc	15, 6, sl, cr13, cr1, {6}
   207a0:	3ecd53ce 	cdpcc	3, 12, cr5, cr13, cr14, {6}
   207a4:	3eccf7a9 	cdpcc	7, 12, cr15, cr12, cr9, {5}
   207a8:	3ecc9b84 	vdivcc.f64	d25, d28, d4
   207ac:	3ecc3f60 	cdpcc	15, 12, cr3, cr12, cr0, {3}
   207b0:	3ecbe33b 	mcrcc	3, 6, lr, cr11, cr11, {1}
   207b4:	3ecb86f4 	mcrcc	6, 6, r8, cr11, cr4, {7}
   207b8:	3ecb2aae 	vdivcc.f32	s5, s23, s29
   207bc:	3ecace68 	cdpcc	14, 12, cr12, cr10, cr8, {3}
   207c0:	3eca7200 	cdpcc	2, 12, cr7, cr10, cr0, {0}
   207c4:	3eca15ba 	mcrcc	5, 6, r1, cr10, cr10, {5}
   207c8:	3ec9b952 	mcrcc	9, 6, fp, cr9, cr2, {2}
   207cc:	3ec95cea 	cdpcc	12, 12, cr5, cr9, cr10, {7}
   207d0:	3ec90082 	cdpcc	0, 12, cr0, cr9, cr2, {4}
   207d4:	3ec8a3f9 	mcrcc	3, 6, sl, cr8, cr9, {7}
   207d8:	3ec8476f 	cdpcc	7, 12, cr4, cr8, cr15, {3}
   207dc:	3ec7eae6 	cdpcc	10, 12, cr14, cr7, cr6, {7}
   207e0:	3ec78e5c 	mcrcc	14, 6, r8, cr7, cr12, {2}
   207e4:	3ec731d3 	mcrcc	1, 6, r3, cr7, cr3, {6}
   207e8:	3ec6d528 	cdpcc	5, 12, cr13, cr6, cr8, {1}
   207ec:	3ec6787d 	mcrcc	8, 6, r7, cr6, cr13, {3}
   207f0:	3ec61bd2 	mcrcc	11, 6, r1, cr6, cr2, {6}
   207f4:	3ec5bf27 	cdpcc	15, 12, cr11, cr5, cr7, {1}
   207f8:	3ec5625a 	mcrcc	2, 6, r6, cr5, cr10, {2}
   207fc:	3ec5058e 	cdpcc	5, 12, cr0, cr5, cr14, {4}
   20800:	3ec4a8c1 	cdpcc	8, 12, cr10, cr4, cr1, {6}
   20804:	3ec44bf5 	mcrcc	11, 6, r4, cr4, cr5, {7}
   20808:	3ec3ef07 	cdpcc	15, 12, cr14, cr3, cr7, {0}
   2080c:	3ec3923a 	mcrcc	2, 6, r9, cr3, cr10, {1}
   20810:	3ec3354c 	cdpcc	5, 12, cr3, cr3, cr12, {2}
   20814:	3ec2d85e 	mcrcc	8, 6, sp, cr2, cr14, {2}
   20818:	3ec27b4e 	cdpcc	11, 12, cr7, cr2, cr14, {2}
   2081c:	3ec21e60 	cdpcc	14, 12, cr1, cr2, cr0, {3}
   20820:	3ec1c151 	mcrcc	1, 6, ip, cr1, cr1, {2}
   20824:	3ec16441 	cdpcc	4, 12, cr6, cr1, cr1, {2}
   20828:	3ec10710 	mcrcc	7, 6, r0, cr1, cr0, {0}
   2082c:	3ec0aa00 	vdivcc.f32	s21, s0, s0
   20830:	3ec04ccf 	cdpcc	12, 12, cr4, cr0, cr15, {6}
   20834:	3ebfef9e 	mrccc	15, 5, lr, cr15, cr14, {4}
   20838:	3ebf926c 	cdpcc	2, 11, cr9, cr15, cr12, {3}
   2083c:	3ebf353b 	mrccc	5, 5, r3, cr15, cr11, {1}
   20840:	3ebed7e9 	cdpcc	7, 11, cr13, cr14, cr9, {7}
   20844:	3ebe7a96 	mrccc	10, 5, r7, cr14, cr6, {4}
   20848:	3ebe1d43 	cdpcc	13, 11, cr1, cr14, cr3, {2}
   2084c:	3ebdbff0 	mrccc	15, 5, fp, cr13, cr0, {7}
   20850:	3ebd627c 	mrccc	2, 5, r6, cr13, cr12, {3}
   20854:	3ebd0529 	cdpcc	5, 11, cr0, cr13, cr9, {1}
   20858:	3ebca7b5 	mrccc	7, 5, sl, cr12, cr5, {5}
   2085c:	3ebc4a41 	vcvtrcc.u32.f32	s8, s2
   20860:	3ebbecab 	cdpcc	12, 11, cr14, cr11, cr11, {5}
   20864:	3ebb8f36 	mrccc	15, 5, r8, cr11, cr6, {1}
   20868:	3ebb31a1 	frdcc<illegal precision>p	f3, f3, f1
   2086c:	3ebad40b 	cdpcc	4, 11, cr13, cr10, cr11, {0}
   20870:	3eba7675 	mrccc	6, 5, r7, cr10, cr5, {3}
   20874:	3eba18bd 	mrccc	8, 5, r1, cr10, cr13, {5}
   20878:	3eb9bb28 	cdpcc	11, 11, cr11, cr9, cr8, {1}
   2087c:	3eb95d70 	mrccc	13, 5, r5, cr9, cr0, {3}
   20880:	3eb8ffb9 	mrccc	15, 5, APSR_nzcv, cr8, cr9, {5}
   20884:	3eb8a201 	cdpcc	2, 11, cr10, cr8, cr1, {0}
   20888:	3eb84428 	cdpcc	4, 11, cr4, cr8, cr8, {1}
   2088c:	3eb7e64f 	cdpcc	6, 11, cr14, cr7, cr15, {2}
   20890:	3eb78876 	mrccc	8, 5, r8, cr7, cr6, {3}
   20894:	3eb72a9d 	mrccc	10, 5, r2, cr7, cr13, {4}
   20898:	3eb6ccc4 	cdpcc	12, 11, cr12, cr6, cr4, {6}
   2089c:	3eb66eca 	cdpcc	14, 11, cr6, cr6, cr10, {6}
   208a0:	3eb610f1 	mrccc	0, 5, r1, cr6, cr1, {7}
   208a4:	3eb5b2f6 	mrccc	2, 5, fp, cr5, cr6, {7}
   208a8:	3eb554fc 	mrccc	4, 5, r5, cr5, cr12, {7}
   208ac:	3eb4f6e0 	cdpcc	6, 11, cr15, cr4, cr0, {7}
   208b0:	3eb498e5 	cdpcc	8, 11, cr9, cr4, cr5, {7}
   208b4:	3eb43ac9 	vcmpecc.f32	s6, s18
   208b8:	3eb3dcad 	cdpcc	12, 11, cr13, cr3, cr13, {5}
   208bc:	3eb37e91 	mrccc	14, 5, r7, cr3, cr1, {4}
   208c0:	3eb32053 	mrccc	0, 5, r2, cr3, cr3, {2}
   208c4:	3eb2c237 	mrccc	2, 5, ip, cr2, cr7, {1}
   208c8:	3eb263fa 	mrccc	3, 5, r6, cr2, cr10, {7}
   208cc:	3eb205bc 	mrccc	5, 5, r0, cr2, cr12, {5}
   208d0:	3eb1a75d 	mrccc	7, 5, sl, cr1, cr13, {2}
   208d4:	3eb1491f 	mrccc	9, 5, r4, cr1, cr15, {0}
   208d8:	3eb0eac0 	vabscc.f32	s28, s0
   208dc:	3eb08c61 	cdpcc	12, 11, cr8, cr0, cr1, {3}
   208e0:	3eb02e02 	cdpcc	14, 11, cr2, cr0, cr2, {0}
   208e4:	3eafcfa2 	cdpcc	15, 10, cr12, cr15, cr2, {5}
   208e8:	3eaf7143 	fdvccem	f7, f7, f3
   208ec:	3eaf12c2 	cdpcc	2, 10, cr1, cr15, cr2, {6}
   208f0:	3eaeb442 	cdpcc	4, 10, cr11, cr14, cr2, {2}
   208f4:	3eae55c1 	cdpcc	5, 10, cr5, cr14, cr1, {6}
   208f8:	3eadf740 	cdpcc	7, 10, cr15, cr13, cr0, {2}
   208fc:	3ead989e 	mcrcc	8, 5, r9, cr13, cr14, {4}
   20900:	3ead3a1d 	mcrcc	10, 5, r3, cr13, cr13, {0}
   20904:	3eacdb7b 	mcrcc	11, 5, sp, cr12, cr11, {3}
   20908:	3eac7cd9 	mcrcc	12, 5, r7, cr12, cr9, {6}
   2090c:	3eac1e36 	mcrcc	14, 5, r1, cr12, cr6, {1}
   20910:	3eabbf72 	mcrcc	15, 5, fp, cr11, cr2, {3}
   20914:	3eab60af 	cdpcc	0, 10, cr6, cr11, cr15, {5}
   20918:	3eab020c 	cdpcc	2, 10, cr0, cr11, cr12, {0}
   2091c:	3eaaa348 	cdpcc	3, 10, cr10, cr10, cr8, {2}
   20920:	3eaa4463 	cdpcc	4, 10, cr4, cr10, cr3, {3}
   20924:	3ea9e59f 	mcrcc	5, 5, lr, cr9, cr15, {4}
   20928:	3ea986ba 	mcrcc	6, 5, r8, cr9, cr10, {5}
   2092c:	3ea927d4 	mcrcc	7, 5, r2, cr9, cr4, {6}
   20930:	3ea8c8ef 	cdpcc	8, 10, cr12, cr8, cr15, {7}
   20934:	3ea86a0a 	vfmacc.f32	s12, s16, s20
   20938:	3ea80b24 	vfmacc.f64	d0, d8, d20
   2093c:	3ea7ac1d 	mcrcc	12, 5, sl, cr7, cr13, {0}
   20940:	3ea74d16 	mcrcc	13, 5, r4, cr7, cr6, {0}
   20944:	3ea6ee0f 	cdpcc	14, 10, cr14, cr6, cr15, {0}
   20948:	3ea68f08 	cdpcc	15, 10, cr8, cr6, cr8, {0}
   2094c:	3ea63001 	cdpcc	0, 10, cr3, cr6, cr1, {0}
   20950:	3ea5d0d9 	mcrcc	0, 5, sp, cr5, cr9, {6}
   20954:	3ea571d2 	mcrcc	1, 5, r7, cr5, cr2, {6}
   20958:	3ea512a9 	cdpcc	2, 10, cr1, cr5, cr9, {5}
   2095c:	3ea4b381 	cdpcc	3, 10, cr11, cr4, cr1, {4}
   20960:	3ea45437 	mcrcc	4, 5, r5, cr4, cr7, {1}
   20964:	3ea3f50e 	cdpcc	5, 10, cr15, cr3, cr14, {0}
   20968:	3ea395c4 	cdpcc	5, 10, cr9, cr3, cr4, {6}
   2096c:	3ea3367a 	mcrcc	6, 5, r3, cr3, cr10, {3}
   20970:	3ea2d730 	mcrcc	7, 5, sp, cr2, cr0, {1}
   20974:	3ea277e6 	cdpcc	7, 10, cr7, cr2, cr6, {7}
   20978:	3ea2187a 	mcrcc	8, 5, r1, cr2, cr10, {3}
   2097c:	3ea1b930 	mcrcc	9, 5, fp, cr1, cr0, {1}
   20980:	3ea159c5 	cdpcc	9, 10, cr5, cr1, cr5, {6}
   20984:	3ea0fa59 	mcrcc	10, 5, pc, cr0, cr9, {2}	; <UNPREDICTABLE>
   20988:	3ea09aed 	vfmscc.f32	s18, s1, s27
   2098c:	3ea03b60 	vfmscc.f64	d3, d0, d16
   20990:	3e9fdbf5 	vmovcc.u16	sp, d31[1]
   20994:	3e9f7c67 	cdpcc	12, 9, cr7, cr15, cr7, {3}
   20998:	3e9f1cda 	mrccc	12, 4, r1, cr15, cr10, {6}
   2099c:	3e9ebd4d 	cdpcc	13, 9, cr11, cr14, cr13, {2}
   209a0:	3e9e5dc0 	cdpcc	13, 9, cr5, cr14, cr0, {6}
   209a4:	3e9dfe11 	mrccc	14, 4, APSR_nzcv, cr13, cr1, {0}
   209a8:	3e9d9e84 	cdpcc	14, 9, cr9, cr13, cr4, {4}
   209ac:	3e9d3ed5 	mrccc	14, 4, r3, cr13, cr5, {6}
   209b0:	3e9cdf26 	cdpcc	15, 9, cr13, cr12, cr6, {1}
   209b4:	3e9c7f78 	mrccc	15, 4, r7, cr12, cr8, {3}
   209b8:	3e9c1fa7 	cdpcc	15, 9, cr1, cr12, cr7, {5}
   209bc:	3e9bbff9 	mrccc	15, 4, fp, cr11, cr9, {7}
   209c0:	3e9b6028 	cdpcc	0, 9, cr6, cr11, cr8, {1}
   209c4:	3e9b0058 	mrccc	0, 4, r0, cr11, cr8, {2}
   209c8:	3e9aa088 	cdpcc	0, 9, cr10, cr10, cr8, {4}
   209cc:	3e9a40b8 	mrccc	0, 4, r4, cr10, cr8, {5}
   209d0:	3e99e0c6 	cdpcc	0, 9, cr14, cr9, cr6, {6}
   209d4:	3e9980f5 	mrccc	0, 4, r8, cr9, cr5, {7}
   209d8:	3e992104 	fmlcce	f2, f1, f4
   209dc:	3e98c112 	mrccc	1, 4, ip, cr8, cr2, {0}
   209e0:	3e986120 	fmlccep	f6, f0, f0
   209e4:	3e98010c 	fmlcce	f0, f0, #4.0
   209e8:	3e97a11b 	mrccc	1, 4, sl, cr7, cr11, {0}
   209ec:	3e974107 	fmlccs	f4, f7, f7
   209f0:	3e96e0f4 	mrccc	0, 4, lr, cr6, cr4, {7}
   209f4:	3e9680e0 	cdpcc	0, 9, cr8, cr6, cr0, {7}
   209f8:	3e9620cd 	cdpcc	0, 9, cr2, cr6, cr13, {6}
   209fc:	3e95c0ba 	mrccc	0, 4, ip, cr5, cr10, {5}
   20a00:	3e956085 	cdpcc	0, 9, cr6, cr5, cr5, {4}
   20a04:	3e950071 	mrccc	0, 4, r0, cr5, cr1, {3}
   20a08:	3e94a03c 	mrccc	0, 4, sl, cr4, cr12, {1}
   20a0c:	3e944007 	cdpcc	0, 9, cr4, cr4, cr7, {0}
   20a10:	3e93dfb1 	mrccc	15, 4, sp, cr3, cr1, {5}
   20a14:	3e937f7c 	mrccc	15, 4, r7, cr3, cr12, {3}
   20a18:	3e931f25 	cdpcc	15, 9, cr1, cr3, cr5, {1}
   20a1c:	3e92bef0 	mrccc	14, 4, fp, cr2, cr0, {7}
   20a20:	3e925e9a 	mrccc	14, 4, r5, cr2, cr10, {4}
   20a24:	3e91fe43 	cdpcc	14, 9, cr15, cr1, cr3, {2}
   20a28:	3e919ded 	cdpcc	13, 9, cr9, cr1, cr13, {7}
   20a2c:	3e913d75 	mrccc	13, 4, r3, cr1, cr5, {3}
   20a30:	3e90dd1e 	mrccc	13, 4, sp, cr0, cr14, {0}
   20a34:	3e907ca6 	cdpcc	12, 9, cr7, cr0, cr6, {5}
   20a38:	3e901c2e 	cdpcc	12, 9, cr1, cr0, cr14, {1}
   20a3c:	3e8fbbb6 	vdupcc.16	d31, fp
   20a40:	3e8f5b3e 	vdupcc.16	d15, r5
   20a44:	3e8efaa4 	vdivcc.f32	s30, s29, s9
   20a48:	3e8e9a2c 	vdivcc.f32	s18, s28, s25
   20a4c:	3e8e3993 	mcrcc	9, 4, r3, cr14, cr3, {4}
   20a50:	3e8dd8f9 	mcrcc	8, 4, sp, cr13, cr9, {7}
   20a54:	3e8d7860 	cdpcc	8, 8, cr7, cr13, cr0, {3}
   20a58:	3e8d17c6 	cdpcc	7, 8, cr1, cr13, cr6, {6}
   20a5c:	3e8cb70b 	cdpcc	7, 8, cr11, cr12, cr11, {0}
   20a60:	3e8c5671 	mcrcc	6, 4, r5, cr12, cr1, {3}
   20a64:	3e8bf5b6 	mcrcc	5, 4, pc, cr11, cr6, {5}	; <UNPREDICTABLE>
   20a68:	3e8b94fb 	mcrcc	4, 4, r9, cr11, cr11, {7}
   20a6c:	3e8b3440 	cdpcc	4, 8, cr3, cr11, cr0, {2}
   20a70:	3e8ad384 	cdpcc	3, 8, cr13, cr10, cr4, {4}
   20a74:	3e8a72c9 	cdpcc	2, 8, cr7, cr10, cr9, {6}
   20a78:	3e8a11ed 	rmfcc<illegal precision>z	f1, f2, #5.0
   20a7c:	3e89b131 	mcrcc	1, 4, fp, cr9, cr1, {1}
   20a80:	3e895055 	mcrcc	0, 4, r5, cr9, cr5, {2}
   20a84:	3e88ef78 	mcrcc	15, 4, lr, cr8, cr8, {3}
   20a88:	3e888e9b 	mcrcc	14, 4, r8, cr8, cr11, {4}
   20a8c:	3e882d9d 	mcrcc	13, 4, r2, cr8, cr13, {4}
   20a90:	3e87ccc0 	cdpcc	12, 8, cr12, cr7, cr0, {6}
   20a94:	3e876bc2 	cdpcc	11, 8, cr6, cr7, cr2, {6}
   20a98:	3e870ae5 	cdpcc	10, 8, cr0, cr7, cr5, {7}
   20a9c:	3e86a9e7 	cdpcc	9, 8, cr10, cr6, cr7, {7}
   20aa0:	3e8648e9 	cdpcc	8, 8, cr4, cr6, cr9, {7}
   20aa4:	3e85e7c9 	cdpcc	7, 8, cr14, cr5, cr9, {6}
   20aa8:	3e8586cb 	cdpcc	6, 8, cr8, cr5, cr11, {6}
   20aac:	3e8525cc 	cdpcc	5, 8, cr2, cr5, cr12, {6}
   20ab0:	3e84c4ac 	cdpcc	4, 8, cr12, cr4, cr12, {5}
   20ab4:	3e84638d 	cdpcc	3, 8, cr6, cr4, cr13, {4}
   20ab8:	3e84026d 	cdpcc	2, 8, cr0, cr4, cr13, {3}
   20abc:	3e83a14d 	sinccsm	f2, #5.0
   20ac0:	3e83402d 	cdpcc	0, 8, cr4, cr3, cr13, {1}
   20ac4:	3e82deec 	cdpcc	14, 8, cr13, cr2, cr12, {7}
   20ac8:	3e827dcc 	cdpcc	13, 8, cr7, cr2, cr12, {6}
   20acc:	3e821c8a 	cdpcc	12, 8, cr1, cr2, cr10, {4}
   20ad0:	3e81bb49 	cdpcc	11, 8, cr11, cr1, cr9, {2}
   20ad4:	3e815a08 	vdivcc.f32	s10, s2, s16
   20ad8:	3e80f8c6 	cdpcc	8, 8, cr15, cr0, cr6, {6}
   20adc:	3e809763 	cdpcc	7, 8, cr9, cr0, cr3, {3}
   20ae0:	3e803622 	cdpcc	6, 8, cr3, cr0, cr2, {1}
   20ae4:	3e7fa97e 	mrccc	9, 3, sl, cr15, cr14, {3}
   20ae8:	3e7ee6fb 	mrccc	6, 3, lr, cr14, cr11, {7}
   20aec:	3e7e2435 	mrccc	4, 3, r2, cr14, cr5, {1}
   20af0:	3e7d6170 	mrccc	1, 3, r6, cr13, cr0, {3}
   20af4:	3e7c9e67 	cdpcc	14, 7, cr9, cr12, cr7, {3}
   20af8:	3e7bdba1 	vaddcc.f64	d29, d27, d17
   20afc:	3e7b18db 	mrccc	8, 3, r1, cr11, cr11, {6}
   20b00:	3e7a55d2 	mrccc	5, 3, r5, cr10, cr2, {6}
   20b04:	3e7992c9 	cdpcc	2, 7, cr9, cr9, cr9, {6}
   20b08:	3e78cfc0 	cdpcc	15, 7, cr12, cr8, cr0, {6}
   20b0c:	3e780cb7 	mrccc	12, 3, r0, cr8, cr7, {5}
   20b10:	3e7749ae 	cdpcc	9, 7, cr4, cr7, cr14, {5}
   20b14:	3e7686a5 	cdpcc	6, 7, cr8, cr6, cr5, {5}
   20b18:	3e75c359 	mrccc	3, 3, ip, cr5, cr9, {2}
   20b1c:	3e75000d 	cdpcc	0, 7, cr0, cr5, cr13, {0}
   20b20:	3e743d04 	cdpcc	13, 7, cr3, cr4, cr4, {0}
   20b24:	3e7379b7 	mrccc	9, 3, r7, cr3, cr7, {5}
   20b28:	3e72b66b 	cdpcc	6, 7, cr11, cr2, cr11, {3}
   20b2c:	3e71f2dc 	mrccc	2, 3, APSR_nzcv, cr1, cr12, {6}
   20b30:	3e712f90 	mrccc	15, 3, r2, cr1, cr0, {4}
   20b34:	3e706c44 	cdpcc	12, 7, cr6, cr0, cr4, {2}
   20b38:	3e6fa8b5 	mcrcc	8, 3, sl, cr15, cr5, {5}
   20b3c:	3e6ee526 	cdpcc	5, 6, cr14, cr14, cr6, {1}
   20b40:	3e6e2196 	mcrcc	1, 3, r2, cr14, cr6, {4}
   20b44:	3e6d5e07 	cdpcc	14, 6, cr5, cr13, cr7, {0}
   20b48:	3e6c9a78 	mcrcc	10, 3, r9, cr12, cr8, {3}
   20b4c:	3e6bd6e9 	cdpcc	6, 6, cr13, cr11, cr9, {7}
   20b50:	3e6b1316 	mcrcc	3, 3, r1, cr11, cr6, {0}
   20b54:	3e6a4f87 	cdpcc	15, 6, cr4, cr10, cr7, {4}
   20b58:	3e698bb5 	vmovcc.8	d25[5], r8
   20b5c:	3e68c7e3 	cdpcc	7, 6, cr12, cr8, cr3, {7}
   20b60:	3e680410 	mcrcc	4, 3, r0, cr8, cr0, {0}
   20b64:	3e67403e 	mcrcc	0, 3, r4, cr7, cr14, {1}
   20b68:	3e667c6c 	cdpcc	12, 6, cr7, cr6, cr12, {3}
   20b6c:	3e65b899 	mcrcc	8, 3, fp, cr5, cr9, {4}
   20b70:	3e64f484 	cdpcc	4, 6, cr15, cr4, cr4, {4}
   20b74:	3e64306e 	cdpcc	0, 6, cr3, cr4, cr14, {3}
   20b78:	3e636c9c 	mcrcc	12, 3, r6, cr3, cr12, {4}
   20b7c:	3e62a887 	cdpcc	8, 6, cr10, cr2, cr7, {4}
   20b80:	3e61e471 	mcrcc	4, 3, lr, cr1, cr1, {3}
   20b84:	3e61205c 	mcrcc	0, 3, r2, cr1, cr12, {2}
   20b88:	3e605c03 	cdpcc	12, 6, cr5, cr0, cr3, {0}
   20b8c:	3e5f97ee 	cdpcc	7, 5, cr9, cr15, cr14, {7}
   20b90:	3e5ed395 	mrccc	3, 2, sp, cr14, cr5, {4}
   20b94:	3e5e0f80 	cdpcc	15, 5, cr0, cr14, cr0, {4}
   20b98:	3e5d4b27 	vnmlscc.f64	d20, d13, d23
   20b9c:	3e5c86cf 	cdpcc	6, 5, cr8, cr12, cr15, {6}
   20ba0:	3e5bc276 	mrccc	2, 2, ip, cr11, cr6, {3}
   20ba4:	3e5afe1e 	mrccc	14, 2, APSR_nzcv, cr10, cr14, {0}
   20ba8:	3e5a3982 	cdpcc	9, 5, cr3, cr10, cr2, {4}
   20bac:	3e597529 	cdpcc	5, 5, cr7, cr9, cr9, {1}
   20bb0:	3e58b08e 	cdpcc	0, 5, cr11, cr8, cr14, {4}
   20bb4:	3e57ec35 	mrccc	12, 2, lr, cr7, cr5, {1}
   20bb8:	3e57279a 	mrccc	7, 2, r2, cr7, cr10, {4}
   20bbc:	3e5662fe 	mrccc	2, 2, r6, cr6, cr14, {7}
   20bc0:	3e559e62 	cdpcc	14, 5, cr9, cr5, cr2, {3}
   20bc4:	3e54d9c7 	cdpcc	9, 5, cr13, cr4, cr7, {6}
   20bc8:	3e5414e8 	cdpcc	4, 5, cr1, cr4, cr8, {7}
   20bcc:	3e53504c 	cdpcc	0, 5, cr5, cr3, cr12, {2}
   20bd0:	3e528b6e 	vnmlacc.f64	d24, d2, d30
   20bd4:	3e51c6d2 	mrccc	6, 2, ip, cr1, cr2, {6}
   20bd8:	3e5101f3 	mrccc	1, 2, r0, cr1, cr3, {7}
   20bdc:	3e503d14 	mrccc	13, 2, r3, cr0, cr4, {0}
   20be0:	3e4f7836 	mcrcc	8, 2, r7, cr15, cr6, {1}
   20be4:	3e4eb357 	mcrcc	3, 2, fp, cr14, cr7, {2}
   20be8:	3e4dee78 	mcrcc	14, 2, lr, cr13, cr8, {3}
   20bec:	3e4d2956 	mcrcc	9, 2, r2, cr13, cr6, {2}
   20bf0:	3e4c6477 	mcrcc	4, 2, r6, cr12, cr7, {3}
   20bf4:	3e4b9f56 	mcrcc	15, 2, r9, cr11, cr6, {2}
   20bf8:	3e4ada34 	mcrcc	10, 2, sp, cr10, cr4, {1}
   20bfc:	3e4a1555 	mcrcc	5, 2, r1, cr10, cr5, {2}
   20c00:	3e495033 	mcrcc	0, 2, r5, cr9, cr3, {1}
   20c04:	3e488b11 	vmovcc.8	d8[0], r8
   20c08:	3e47c5ac 	cdpcc	5, 4, cr12, cr7, cr12, {5}
   20c0c:	3e47008a 	cdpcc	0, 4, cr0, cr7, cr10, {4}
   20c10:	3e463b69 	vmlscc.f64	d19, d6, d25
   20c14:	3e457604 	cdpcc	6, 4, cr7, cr5, cr4, {0}
   20c18:	3e44b09f 	mcrcc	0, 2, fp, cr4, cr15, {4}
   20c1c:	3e43eb7d 	vmovcc.8	d3[3], lr
   20c20:	3e432618 	mcrcc	6, 2, r2, cr3, cr8, {0}
   20c24:	3e4260b3 	mcrcc	0, 2, r6, cr2, cr3, {5}
   20c28:	3e419b4e 	vmlscc.f64	d25, d1, d14
   20c2c:	3e40d5a6 	cdpcc	5, 4, cr13, cr0, cr6, {5}
   20c30:	3e401041 	cdpcc	0, 4, cr1, cr0, cr1, {2}
   20c34:	3e3f4adc 	mrccc	10, 1, r4, cr15, cr12, {6}
   20c38:	3e3e8534 	mrccc	5, 1, r8, cr14, cr4, {1}
   20c3c:	3e3dbf8c 	cdpcc	15, 3, cr11, cr13, cr12, {4}
   20c40:	3e3cfa27 	vaddcc.f32	s30, s24, s15
   20c44:	3e3c347f 	mrccc	4, 1, r3, cr12, cr15, {3}
   20c48:	3e3b6ed6 	mrccc	14, 1, r6, cr11, cr6, {6}
   20c4c:	3e3aa92e 	cdpcc	9, 3, cr10, cr10, cr14, {1}
   20c50:	3e39e386 	cdpcc	3, 3, cr14, cr9, cr6, {4}
   20c54:	3e391d9b 	mrccc	13, 1, r1, cr9, cr11, {4}
   20c58:	3e3857f3 	mrccc	7, 1, r5, cr8, cr3, {7}
   20c5c:	3e379208 	cdpcc	2, 3, cr9, cr7, cr8, {0}
   20c60:	3e36cc60 	cdpcc	12, 3, cr12, cr6, cr0, {3}
   20c64:	3e360675 	mrccc	6, 1, r0, cr6, cr5, {3}
   20c68:	3e354089 	cdpcc	0, 3, cr4, cr5, cr9, {4}
   20c6c:	3e347a9e 	mrccc	10, 1, r7, cr4, cr14, {4}
   20c70:	3e33b4b3 	mrccc	4, 1, fp, cr3, cr3, {5}
   20c74:	3e32eec8 	cdpcc	14, 3, cr14, cr2, cr8, {6}
   20c78:	3e3228dd 	mrccc	8, 1, r2, cr2, cr13, {6}
   20c7c:	3e3162f1 	mrccc	2, 1, r6, cr1, cr1, {7}
   20c80:	3e309cc3 	cdpcc	12, 3, cr9, cr0, cr3, {6}
   20c84:	3e2fd6d8 	mcrcc	6, 1, sp, cr15, cr8, {6}
   20c88:	3e2f10aa 	cdpcc	0, 2, cr1, cr15, cr10, {5}
   20c8c:	3e2e4a7b 	mcrcc	10, 1, r4, cr14, cr11, {3}
   20c90:	3e2d844d 	cdpcc	4, 2, cr8, cr13, cr13, {2}
   20c94:	3e2cbe1f 	mcrcc	14, 1, fp, cr12, cr15, {0}
   20c98:	3e2bf7f0 	mcrcc	7, 1, pc, cr11, cr0, {7}	; <UNPREDICTABLE>
   20c9c:	3e2b31c2 	sufcc<illegal precision>m	f3, f3, f2
   20ca0:	3e2a6b94 	vmovcc.32	d26[1], r6
   20ca4:	3e29a565 	cfsh64cc	mvdx10, mvdx9, #53
   20ca8:	3e28def4 	mcrcc	14, 1, sp, cr8, cr4, {7}
   20cac:	3e2818c6 	cdpcc	8, 2, cr1, cr8, cr6, {6}
   20cb0:	3e275254 	mcrcc	2, 1, r5, cr7, cr4, {2}
   20cb4:	3e268be3 	vnmulcc.f64	d8, d22, d19
   20cb8:	3e25c572 	mcrcc	5, 1, ip, cr5, cr2, {3}
   20cbc:	3e24ff00 	cdpcc	15, 2, cr15, cr4, cr0, {0}
   20cc0:	3e24388f 	cdpcc	8, 2, cr3, cr4, cr15, {4}
   20cc4:	3e23721d 	mcrcc	2, 1, r7, cr3, cr13, {0}
   20cc8:	3e22abac 	vmulcc.f64	d10, d18, d28
   20ccc:	3e21e53b 	mcrcc	5, 1, lr, cr1, cr11, {1}
   20cd0:	3e211e86 	cdpcc	14, 2, cr1, cr1, cr6, {4}
   20cd4:	3e205815 	mcrcc	8, 1, r5, cr0, cr5, {0}
   20cd8:	3e1f9160 	mnfccez	f1, f0
   20cdc:	3e1ecaef 	vnmlacc.f32	s24, s29, s31
   20ce0:	3e1e043a 	mrccc	4, 0, r0, cr14, cr10, {1}
   20ce4:	3e1d3d86 	cdpcc	13, 1, cr3, cr13, cr6, {4}
   20ce8:	3e1c76d1 	mrccc	6, 0, r7, cr12, cr1, {6}
   20cec:	3e1bb01d 	mrccc	0, 0, fp, cr11, cr13, {0}
   20cf0:	3e1ae968 	cdpcc	9, 1, cr14, cr10, cr8, {3}
   20cf4:	3e1a22b4 	mrccc	2, 0, r2, cr10, cr4, {5}
   20cf8:	3e195bff 	vmovcc.s16	r5, d25[1]
   20cfc:	3e189507 	cfmul32cc	mvfx9, mvfx8, mvfx7
   20d00:	3e17ce53 	mrccc	14, 0, ip, cr7, cr3, {2}
   20d04:	3e17075b 	mrccc	7, 0, r0, cr7, cr11, {2}
   20d08:	3e164064 	cdpcc	0, 1, cr4, cr6, cr4, {3}
   20d0c:	3e1579af 	cdpcc	9, 1, cr7, cr5, cr15, {5}
   20d10:	3e14b2b7 	mrccc	2, 0, fp, cr4, cr7, {5}
   20d14:	3e13ebc0 	vnmlacc.f64	d14, d19, d0
   20d18:	3e1324c8 	cdpcc	4, 1, cr2, cr3, cr8, {6}
   20d1c:	3e125dd1 	mrccc	13, 0, r5, cr2, cr1, {6}
   20d20:	3e1196d9 	mrccc	6, 0, r9, cr1, cr9, {6}
   20d24:	3e10cfe1 	cdpcc	15, 1, cr12, cr0, cr1, {7}
   20d28:	3e1008a7 	cdpcc	8, 1, cr0, cr0, cr7, {5}
   20d2c:	3e0f41af 	adfcc<illegal precision>p	f4, f7, #10.0
   20d30:	3e0e7a74 	mcrcc	10, 0, r7, cr14, cr4, {3}
   20d34:	3e0db37d 	mcrcc	3, 0, fp, cr13, cr13, {3}
   20d38:	3e0cec42 	cdpcc	12, 0, cr14, cr12, cr2, {2}
   20d3c:	3e0c2507 	cfsh32cc	mvfx2, mvfx12, #7
   20d40:	3e0b5e0f 	cdpcc	14, 0, cr5, cr11, cr15, {0}
   20d44:	3e0a96d5 	mcrcc	6, 0, r9, cr10, cr5, {6}
   20d48:	3e09cf9a 	mcrcc	15, 0, ip, cr9, cr10, {4}
   20d4c:	3e09085f 	mcrcc	8, 0, r0, cr9, cr15, {2}
   20d50:	3e084125 	adfccep	f4, f0, f5
   20d54:	3e0779a7 	cdpcc	9, 0, cr7, cr7, cr7, {5}
   20d58:	3e06b26c 	cdpcc	2, 0, cr11, cr6, cr12, {3}
   20d5c:	3e05eb31 	vmovcc.16	d5[0], lr
   20d60:	3e0523b3 	mcrcc	3, 0, r2, cr5, cr3, {5}
   20d64:	3e045c79 	mcrcc	12, 0, r5, cr4, cr9, {3}
   20d68:	3e0394fb 	mcrcc	4, 0, r9, cr3, cr11, {7}
   20d6c:	3e02cd7d 	mcrcc	13, 0, ip, cr2, cr13, {3}
   20d70:	3e020642 	cfmadd32cc	mvax2, mvfx0, mvfx2, mvfx2
   20d74:	3e013ec4 	cdpcc	14, 0, cr3, cr1, cr4, {6}
   20d78:	3e007747 	cdpcc	7, 0, cr7, cr0, cr7, {2}
   20d7c:	3dff5f91 	ldclcc	15, cr5, [pc, #580]!	; 20fc8 <fsintable+0x3fc0>
   20d80:	3dfdd096 	ldclcc	0, cr13, [sp, #600]!	; 0x258
   20d84:	3dfc419a 	ldfcce	f4, [ip, #616]!	; 0x268
   20d88:	3dfab29e 	lfmcc	f3, 3, [sl, #632]!	; 0x278
   20d8c:	3df9231c 	ldclcc	3, cr2, [r9, #112]!	; 0x70
   20d90:	3df79421 	cfldrdcc	mvd9, [r7, #132]!	; 0x84
   20d94:	3df60525 	cfldr64cc	mvdx0, [r6, #148]!	; 0x94
   20d98:	3df475a3 	cfldr64cc	mvdx7, [r4, #652]!	; 0x28c
   20d9c:	3df2e6a7 	ldclcc	6, cr14, [r2, #668]!	; 0x29c
   20da0:	3df15726 	ldclcc	7, cr5, [r1, #152]!	; 0x98
   20da4:	3defc7a4 	stclcc	7, cr12, [pc, #656]!	; 2103c <fsintable+0x4034>
   20da8:	3dee38a8 	stclcc	8, cr3, [lr, #672]!	; 0x2a0
   20dac:	3deca926 	stclcc	9, cr10, [ip, #152]!	; 0x98
   20db0:	3deb19a4 	stclcc	9, cr1, [fp, #656]!	; 0x290
   20db4:	3de98a22 	stclcc	10, cr8, [r9, #136]!	; 0x88
   20db8:	3de7faa0 	stclcc	10, cr15, [r7, #640]!	; 0x280
   20dbc:	3de66b1e 	stclcc	11, cr6, [r6, #120]!	; 0x78
   20dc0:	3de4db9c 	stclcc	11, cr13, [r4, #624]!	; 0x270
   20dc4:	3de34b94 	stclcc	11, cr4, [r3, #592]!	; 0x250
   20dc8:	3de1bc12 	stclcc	12, cr11, [r1, #72]!	; 0x48
   20dcc:	3de02c91 	stclcc	12, cr2, [r0, #580]!	; 0x244
   20dd0:	3dde9c88 	ldclcc	12, cr9, [lr, #544]	; 0x220
   20dd4:	3ddd0d06 	ldclcc	13, cr0, [sp, #24]
   20dd8:	3ddb7cfe 	ldclcc	12, cr7, [fp, #1016]	; 0x3f8
   20ddc:	3dd9ed7c 	ldclcc	13, cr14, [r9, #496]	; 0x1f0
   20de0:	3dd85d74 	ldclcc	13, cr5, [r8, #464]	; 0x1d0
   20de4:	3dd6cd6c 	ldclcc	13, cr12, [r6, #432]	; 0x1b0
   20de8:	3dd53dea 	ldclcc	13, cr3, [r5, #936]	; 0x3a8
   20dec:	3dd3ade2 	ldclcc	13, cr10, [r3, #904]	; 0x388
   20df0:	3dd21dda 	ldclcc	13, cr1, [r2, #872]	; 0x368
   20df4:	3dd08dd2 	ldclcc	13, cr8, [r0, #840]	; 0x348
   20df8:	3dcefdca 	stclcc	13, cr15, [lr, #808]	; 0x328
   20dfc:	3dcd6dc2 	stclcc	13, cr6, [sp, #776]	; 0x308
   20e00:	3dcbddba 	stclcc	13, cr13, [fp, #744]	; 0x2e8
   20e04:	3dca4d2b 	stclcc	13, cr4, [sl, #172]	; 0xac
   20e08:	3dc8bd23 	stclcc	13, cr11, [r8, #140]	; 0x8c
   20e0c:	3dc72d1b 	stclcc	13, cr2, [r7, #108]	; 0x6c
   20e10:	3dc59c8d 	stclcc	12, cr9, [r5, #564]	; 0x234
   20e14:	3dc40c84 	stclcc	12, cr0, [r4, #528]	; 0x210
   20e18:	3dc27bf6 	vstrcc	d23, [r2, #984]	; 0x3d8
   20e1c:	3dc0ebee 	vstrcc	d30, [r0, #952]	; 0x3b8
   20e20:	3dbf5b60 	ldccc	11, cr5, [pc, #384]!	; 20fa8 <fsintable+0x3fa0>
   20e24:	3dbdcb58 	ldccc	11, cr12, [sp, #352]!	; 0x160
   20e28:	3dbc3ac9 	ldccc	10, cr3, [ip, #804]!	; 0x324
   20e2c:	3dbaaa3b 	ldccc	10, cr10, [sl, #236]!	; 0xec
   20e30:	3db919ac 	ldccc	9, cr1, [r9, #688]!	; 0x2b0
   20e34:	3db7891e 	ldccc	9, cr8, [r7, #120]!	; 0x78
   20e38:	3db5f916 	ldccc	9, cr15, [r5, #88]!	; 0x58
   20e3c:	3db46888 	ldccc	8, cr6, [r4, #544]!	; 0x220
   20e40:	3db2d7f9 	ldccc	7, cr13, [r2, #996]!	; 0x3e4
   20e44:	3db146e5 	ldccc	6, cr4, [r1, #916]!	; 0x394
   20e48:	3dafb656 	stccc	6, cr11, [pc, #344]!	; 20fa8 <fsintable+0x3fa0>
   20e4c:	3dae25c8 	cfstr32cc	mvfx2, [lr, #800]!	; 0x320
   20e50:	3dac953a 	cfstr32cc	mvfx9, [ip, #232]!	; 0xe8
   20e54:	3dab04ab 	cfstrscc	mvf0, [fp, #684]!	; 0x2ac
   20e58:	3da97397 	stccc	3, cr7, [r9, #604]!	; 0x25c
   20e5c:	3da7e308 	stccc	3, cr14, [r7, #32]!
   20e60:	3da651f4 	stfccs	f5, [r6, #976]!	; 0x3d0
   20e64:	3da4c166 	stfccd	f4, [r4, #408]!	; 0x198
   20e68:	3da33051 	stccc	0, cr3, [r3, #324]!	; 0x144
   20e6c:	3da19fc3 	stccc	15, cr9, [r1, #780]!	; 0x30c
   20e70:	3da00eae 	stccc	14, cr0, [r0, #696]!	; 0x2b8
   20e74:	3d9e7e20 	ldccc	14, cr7, [lr, #128]	; 0x80
   20e78:	3d9ced0b 	ldccc	13, cr14, [ip, #44]	; 0x2c
   20e7c:	3d9b5bf7 	vldrcc	d5, [fp, #988]	; 0x3dc
   20e80:	3d99cae2 	vldrcc	s24, [r9, #904]	; 0x388
   20e84:	3d9839ce 	ldccc	9, cr3, [r8, #824]	; 0x338
   20e88:	3d96a93f 	ldccc	9, cr10, [r6, #252]	; 0xfc
   20e8c:	3d95182b 	ldccc	8, cr1, [r5, #172]	; 0xac
   20e90:	3d938716 	ldccc	7, cr8, [r3, #88]	; 0x58
   20e94:	3d91f601 	ldccc	6, cr15, [r1, #4]
   20e98:	3d9064ed 	cfldrscc	mvf6, [r0, #948]	; 0x3b4
   20e9c:	3d8ed352 	stccc	3, cr13, [lr, #328]	; 0x148
   20ea0:	3d8d423e 	sfmcc	f4, 4, [sp, #248]	; 0xf8
   20ea4:	3d8bb129 	stfccd	f3, [fp, #164]	; 0xa4
   20ea8:	3d8a2014 	stccc	0, cr2, [sl, #80]	; 0x50
   20eac:	3d888f00 	stccc	15, cr8, [r8]
   20eb0:	3d86fd65 	stccc	13, cr15, [r6, #404]	; 0x194
   20eb4:	3d856c51 	stccc	12, cr6, [r5, #324]	; 0x144
   20eb8:	3d83db3c 	vstrcc	d13, [r3, #240]	; 0xf0
   20ebc:	3d8249a1 	stccc	9, cr4, [r2, #644]	; 0x284
   20ec0:	3d80b88d 	stccc	8, cr11, [r0, #564]	; 0x234
   20ec4:	3d7e4de4 	ldclcc	13, cr4, [lr, #-912]!	; 0xfffffc70
   20ec8:	3d7b2bbb 	fldmdbxcc	fp!, {d18-d110}	;@ Deprecated
   20ecc:	3d780885 	ldclcc	8, cr0, [r8, #-532]!	; 0xfffffdec
   20ed0:	3d74e65c 	ldclcc	6, cr14, [r4, #-368]!	; 0xfffffe90
   20ed4:	3d71c326 	ldclcc	3, cr12, [r1, #-152]!	; 0xffffff68
   20ed8:	3d6e9ff1 	stclcc	15, cr9, [lr, #-964]!	; 0xfffffc3c
   20edc:	3d6b7dc8 	stclcc	13, cr7, [fp, #-800]!	; 0xfffffce0
   20ee0:	3d685a92 	vstmdbcc	r8!, {s11-s156}
   20ee4:	3d65375d 	stclcc	7, cr3, [r5, #-372]!	; 0xfffffe8c
   20ee8:	3d621427 	cfstrdcc	mvd1, [r2, #-156]!	; 0xffffff64
   20eec:	3d5ef0f1 	ldclcc	0, cr15, [lr, #-964]	; 0xfffffc3c
   20ef0:	3d5bcec8 	ldclcc	14, cr12, [fp, #-800]	; 0xfffffce0
   20ef4:	3d58ab93 	vldrcc	d26, [r8, #-588]	; 0xfffffdb4
   20ef8:	3d55885d 	ldclcc	8, cr8, [r5, #-372]	; 0xfffffe8c
   20efc:	3d526528 	cfldr64cc	mvdx6, [r2, #-160]	; 0xffffff60
   20f00:	3d4f41f2 	stfcce	f4, [pc, #-968]	; 20b40 <fsintable+0x3b38>
   20f04:	3d4c1ebd 	stclcc	14, cr1, [ip, #-756]	; 0xfffffd0c
   20f08:	3d48fb87 	vstrcc	d31, [r8, #-540]	; 0xfffffde4
   20f0c:	3d45d851 	stclcc	8, cr13, [r5, #-324]	; 0xfffffebc
   20f10:	3d42b40f 	cfstrdcc	mvd11, [r2, #-60]	; 0xffffffc4
   20f14:	3d3f90da 	ldccc	0, cr9, [pc, #-872]!	; 20bb4 <fsintable+0x3bac>
   20f18:	3d3c6da4 	ldccc	13, cr6, [ip, #-656]!	; 0xfffffd70
   20f1c:	3d394a6f 	vldmdbcc	r9!, {s8-s118}
   20f20:	3d362739 	ldccc	7, cr2, [r6, #-228]!	; 0xffffff1c
   20f24:	3d330404 	cfldrscc	mvf0, [r3, #-16]!
   20f28:	3d2fdfc2 	stccc	15, cr13, [pc, #-776]!	; 20c28 <fsintable+0x3c20>
   20f2c:	3d2cbc8c 	stccc	12, cr11, [ip, #-560]!	; 0xfffffdd0
   20f30:	3d299956 	stccc	9, cr9, [r9, #-344]!	; 0xfffffea8
   20f34:	3d267514 	cfstr32cc	mvfx7, [r6, #-80]!	; 0xffffffb0
   20f38:	3d2351df 	stfccs	f5, [r3, #-892]!	; 0xfffffc84
   20f3c:	3d202ea9 	stccc	14, cr2, [r0, #-676]!	; 0xfffffd5c
   20f40:	3d1d0a67 	vldrcc	s0, [sp, #-412]	; 0xfffffe64
   20f44:	3d19e732 	ldccc	7, cr14, [r9, #-200]	; 0xffffff38
   20f48:	3d16c2f0 	lfmcc	f4, 1, [r6, #-960]	; 0xfffffc40
   20f4c:	3d139fba 	ldccc	15, cr9, [r3, #-744]	; 0xfffffd18
   20f50:	3d107b78 	vldrcc	d7, [r0, #-480]	; 0xfffffe20
   20f54:	3d0d5843 	stccc	8, cr5, [sp, #-268]	; 0xfffffef4
   20f58:	3d0a3401 	cfstrscc	mvf3, [sl, #-4]
   20f5c:	3d0710cb 	stccc	0, cr1, [r7, #-812]	; 0xfffffcd4
   20f60:	3d03ec89 	stccc	12, cr14, [r3, #-548]	; 0xfffffddc
   20f64:	3d00c847 	stccc	8, cr12, [r0, #-284]	; 0xfffffee4
   20f68:	3cfb4a23 	vldmiacc	fp!, {s9-s43}
   20f6c:	3cf5019f 	ldfcce	f0, [r5], #636	; 0x27c
   20f70:	3ceebb34 	vstmiacc	lr!, {d27-<overflow reg d52>}
   20f74:	3ce872b0 	sfmcc	f7, 2, [r8], #704	; 0x2c0
   20f78:	3ce22a2c 	vstmiacc	r2!, {s5-s48}
   20f7c:	3cdbe1a8 	ldfccp	f6, [fp], {168}	; 0xa8
   20f80:	3cd59b3d 	fldmiaxcc	r5, {d25-d54}	;@ Deprecated
   20f84:	3ccf52b9 	sfmcc	f5, 2, [pc], {185}	; 0xb9
   20f88:	3cc90a35 	vstmiacc	r9, {s1-s53}
   20f8c:	3cc2c1b1 	stfccp	f4, [r2], {177}	; 0xb1
   20f90:	3cbc7b46 	vldmiacc	ip!, {d7-<overflow reg d41>}
   20f94:	3cb632c2 	lfmcc	f3, 4, [r6], #776	; 0x308
   20f98:	3cafea3e 	vstmiacc	pc!, {s28-s89}
   20f9c:	3ca9a1ba 	stfccd	f2, [r9], #744	; 0x2e8
   20fa0:	3ca35936 	stccc	9, cr5, [r3], #216	; 0xd8
   20fa4:	3c9d12cb 	lfmcc	f1, 4, [sp], {203}	; 0xcb
   20fa8:	3c96ca47 	vldmiacc	r6, {s24-s94}
   20fac:	3c9081c3 	ldfccd	f0, [r0], {195}	; 0xc3
   20fb0:	3c8a393f 	stccc	9, cr3, [sl], {63}	; 0x3f
   20fb4:	3c83f0bb 	stccc	0, cr15, [r3], {187}	; 0xbb
   20fb8:	3c7b506e 	ldclcc	0, cr5, [fp], #-440	; 0xfffffe48
   20fbc:	3c6ebf66 	stclcc	15, cr11, [lr], #-408	; 0xfffffe68
   20fc0:	3c622e5e 	stclcc	14, cr2, [r2], #-376	; 0xfffffe88
   20fc4:	3c559d56 	mrrccc	13, 5, r9, r5, cr6
   20fc8:	3c491080 	mcrrcc	0, 8, r1, r9, cr0
   20fcc:	3c3c7f78 	ldccc	15, cr7, [ip], #-480	; 0xfffffe20
   20fd0:	3c2fee70 	stccc	14, cr14, [pc], #-448	; 20e18 <fsintable+0x3e10>
   20fd4:	3c235d68 	stccc	13, cr5, [r3], #-416	; 0xfffffe60
   20fd8:	3c16cc60 	ldccc	12, cr12, [r6], {96}	; 0x60
   20fdc:	3c0a3b58 	stccc	11, cr3, [sl], {88}	; 0x58
   20fe0:	3bfb54a0 	blcc	ffef6268 <__bss_end+0xff686268>
   20fe4:	3be23290 	blcc	ff8ada2c <__bss_end+0xff03da2c>
   20fe8:	3bc91080 	blcc	ff2651f0 <__bss_end+0xfe9f51f0>
   20fec:	3bafee70 	blcc	fec1c9b4 <__bss_end+0xfe3ac9b4>
   20ff0:	3b96cc60 	blcc	fe5d4178 <__bss_end+0xfdd64178>
   20ff4:	3b7b54a0 	blcc	1ef627c <__bss_end+0x168627c>
   20ff8:	3b491080 	blcc	1265200 <__bss_end+0x9f5200>
   20ffc:	3b16cc60 	blcc	5d4184 <renderchunk_buffer0+0x5ad884>
   21000:	3ac91080 	bcc	ff265208 <__bss_end+0xfe9f5208>
   21004:	3a491080 	bcc	126520c <__bss_end+0x9f520c>
   21008:	00000000 	andeq	r0, r0, r0
   2100c:	ba491080 	blt	1265214 <__bss_end+0x9f5214>
   21010:	bac91080 	blt	ff265218 <__bss_end+0xfe9f5218>
   21014:	bb16cc60 	bllt	5d419c <renderchunk_buffer0+0x5ad89c>
   21018:	bb491080 	bllt	1265220 <__bss_end+0x9f5220>
   2101c:	bb7b54a0 	bllt	1ef62a4 <__bss_end+0x16862a4>
   21020:	bb96cc60 	bllt	fe5d41a8 <__bss_end+0xfdd641a8>
   21024:	bbafee70 	bllt	fec1c9ec <__bss_end+0xfe3ac9ec>
   21028:	bbc91080 	bllt	ff265230 <__bss_end+0xfe9f5230>
   2102c:	bbe23290 	bllt	ff8ada74 <__bss_end+0xff03da74>
   21030:	bbfb54a0 	bllt	ffef62b8 <__bss_end+0xff6862b8>
   21034:	bc0a3b58 	stclt	11, cr3, [sl], {88}	; 0x58
   21038:	bc16cc60 	ldclt	12, cr12, [r6], {96}	; 0x60
   2103c:	bc235d68 	stclt	13, cr5, [r3], #-416	; 0xfffffe60
   21040:	bc2fee70 	stclt	14, cr14, [pc], #-448	; 20e88 <fsintable+0x3e80>
   21044:	bc3c7f78 	ldclt	15, cr7, [ip], #-480	; 0xfffffe20
   21048:	bc491080 	mcrrlt	0, 8, r1, r9, cr0
   2104c:	bc559d56 	mrrclt	13, 5, r9, r5, cr6
   21050:	bc622e5e 	stcllt	14, cr2, [r2], #-376	; 0xfffffe88
   21054:	bc6ebf66 	stcllt	15, cr11, [lr], #-408	; 0xfffffe68
   21058:	bc7b506e 	ldcllt	0, cr5, [fp], #-440	; 0xfffffe48
   2105c:	bc83f0bb 	stclt	0, cr15, [r3], {187}	; 0xbb
   21060:	bc8a393f 	stclt	9, cr3, [sl], {63}	; 0x3f
   21064:	bc9081c3 	ldfltd	f0, [r0], {195}	; 0xc3
   21068:	bc96ca47 	vldmialt	r6, {s24-s94}
   2106c:	bc9d12cb 	lfmlt	f1, 4, [sp], {203}	; 0xcb
   21070:	bca35936 	stclt	9, cr5, [r3], #216	; 0xd8
   21074:	bca9a1ba 	stfltd	f2, [r9], #744	; 0x2e8
   21078:	bcafea3e 	vstmialt	pc!, {s28-s89}
   2107c:	bcb632c2 	lfmlt	f3, 4, [r6], #776	; 0x308
   21080:	bcbc7b46 	vldmialt	ip!, {d7-<overflow reg d41>}
   21084:	bcc2c1b1 	stfltp	f4, [r2], {177}	; 0xb1
   21088:	bcc90a35 	vstmialt	r9, {s1-s53}
   2108c:	bccf52b9 	sfmlt	f5, 2, [pc], {185}	; 0xb9
   21090:	bcd59b3d 	fldmiaxlt	r5, {d25-d54}	;@ Deprecated
   21094:	bcdbe1a8 	ldfltp	f6, [fp], {168}	; 0xa8
   21098:	bce22a2c 	vstmialt	r2!, {s5-s48}
   2109c:	bce872b0 	sfmlt	f7, 2, [r8], #704	; 0x2c0
   210a0:	bceebb34 	vstmialt	lr!, {d27-<overflow reg d52>}
   210a4:	bcf5019f 	ldflte	f0, [r5], #636	; 0x27c
   210a8:	bcfb4a23 	vldmialt	fp!, {s9-s43}
   210ac:	bd00c847 	stclt	8, cr12, [r0, #-284]	; 0xfffffee4
   210b0:	bd03ec89 	stclt	12, cr14, [r3, #-548]	; 0xfffffddc
   210b4:	bd0710cb 	stclt	0, cr1, [r7, #-812]	; 0xfffffcd4
   210b8:	bd0a3401 	cfstrslt	mvf3, [sl, #-4]
   210bc:	bd0d5843 	stclt	8, cr5, [sp, #-268]	; 0xfffffef4
   210c0:	bd107b78 	vldrlt	d7, [r0, #-480]	; 0xfffffe20
   210c4:	bd139fba 	ldclt	15, cr9, [r3, #-744]	; 0xfffffd18
   210c8:	bd16c2f0 	lfmlt	f4, 1, [r6, #-960]	; 0xfffffc40
   210cc:	bd19e732 	ldclt	7, cr14, [r9, #-200]	; 0xffffff38
   210d0:	bd1d0a67 	vldrlt	s0, [sp, #-412]	; 0xfffffe64
   210d4:	bd202ea9 	stclt	14, cr2, [r0, #-676]!	; 0xfffffd5c
   210d8:	bd2351df 	stflts	f5, [r3, #-892]!	; 0xfffffc84
   210dc:	bd267514 	cfstr32lt	mvfx7, [r6, #-80]!	; 0xffffffb0
   210e0:	bd299956 	stclt	9, cr9, [r9, #-344]!	; 0xfffffea8
   210e4:	bd2cbc8c 	stclt	12, cr11, [ip, #-560]!	; 0xfffffdd0
   210e8:	bd2fdfc2 	stclt	15, cr13, [pc, #-776]!	; 20de8 <fsintable+0x3de0>
   210ec:	bd330404 	cfldrslt	mvf0, [r3, #-16]!
   210f0:	bd362739 	ldclt	7, cr2, [r6, #-228]!	; 0xffffff1c
   210f4:	bd394a6f 	vldmdblt	r9!, {s8-s118}
   210f8:	bd3c6da4 	ldclt	13, cr6, [ip, #-656]!	; 0xfffffd70
   210fc:	bd3f90da 	ldclt	0, cr9, [pc, #-872]!	; 20d9c <fsintable+0x3d94>
   21100:	bd42b40f 	cfstrdlt	mvd11, [r2, #-60]	; 0xffffffc4
   21104:	bd45d851 	stcllt	8, cr13, [r5, #-324]	; 0xfffffebc
   21108:	bd48fb87 	vstrlt	d31, [r8, #-540]	; 0xfffffde4
   2110c:	bd4c1ebd 	stcllt	14, cr1, [ip, #-756]	; 0xfffffd0c
   21110:	bd4f41f2 	stflte	f4, [pc, #-968]	; 20d50 <fsintable+0x3d48>
   21114:	bd526528 	cfldr64lt	mvdx6, [r2, #-160]	; 0xffffff60
   21118:	bd55885d 	ldcllt	8, cr8, [r5, #-372]	; 0xfffffe8c
   2111c:	bd58ab93 	vldrlt	d26, [r8, #-588]	; 0xfffffdb4
   21120:	bd5bcec8 	ldcllt	14, cr12, [fp, #-800]	; 0xfffffce0
   21124:	bd5ef0f1 	ldcllt	0, cr15, [lr, #-964]	; 0xfffffc3c
   21128:	bd621427 	cfstrdlt	mvd1, [r2, #-156]!	; 0xffffff64
   2112c:	bd65375d 	stcllt	7, cr3, [r5, #-372]!	; 0xfffffe8c
   21130:	bd685a92 	vstmdblt	r8!, {s11-s156}
   21134:	bd6b7dc8 	stcllt	13, cr7, [fp, #-800]!	; 0xfffffce0
   21138:	bd6e9ff1 	stcllt	15, cr9, [lr, #-964]!	; 0xfffffc3c
   2113c:	bd71c326 	ldcllt	3, cr12, [r1, #-152]!	; 0xffffff68
   21140:	bd74e65c 	ldcllt	6, cr14, [r4, #-368]!	; 0xfffffe90
   21144:	bd780885 	ldcllt	8, cr0, [r8, #-532]!	; 0xfffffdec
   21148:	bd7b2bbb 	fldmdbxlt	fp!, {d18-d110}	;@ Deprecated
   2114c:	bd7e4de4 	ldcllt	13, cr4, [lr, #-912]!	; 0xfffffc70
   21150:	bd80b88d 	stclt	8, cr11, [r0, #564]	; 0x234
   21154:	bd8249a1 	stclt	9, cr4, [r2, #644]	; 0x284
   21158:	bd83db3c 	vstrlt	d13, [r3, #240]	; 0xf0
   2115c:	bd856c51 	stclt	12, cr6, [r5, #324]	; 0x144
   21160:	bd86fd65 	stclt	13, cr15, [r6, #404]	; 0x194
   21164:	bd888f00 	stclt	15, cr8, [r8]
   21168:	bd8a2014 	stclt	0, cr2, [sl, #80]	; 0x50
   2116c:	bd8bb129 	stfltd	f3, [fp, #164]	; 0xa4
   21170:	bd8d423e 	sfmlt	f4, 4, [sp, #248]	; 0xf8
   21174:	bd8ed352 	stclt	3, cr13, [lr, #328]	; 0x148
   21178:	bd9064ed 	cfldrslt	mvf6, [r0, #948]	; 0x3b4
   2117c:	bd91f601 	ldclt	6, cr15, [r1, #4]
   21180:	bd938716 	ldclt	7, cr8, [r3, #88]	; 0x58
   21184:	bd95182b 	ldclt	8, cr1, [r5, #172]	; 0xac
   21188:	bd96a93f 	ldclt	9, cr10, [r6, #252]	; 0xfc
   2118c:	bd9839ce 	ldclt	9, cr3, [r8, #824]	; 0x338
   21190:	bd99cae2 	vldrlt	s24, [r9, #904]	; 0x388
   21194:	bd9b5bf7 	vldrlt	d5, [fp, #988]	; 0x3dc
   21198:	bd9ced0b 	ldclt	13, cr14, [ip, #44]	; 0x2c
   2119c:	bd9e7e20 	ldclt	14, cr7, [lr, #128]	; 0x80
   211a0:	bda00eae 	stclt	14, cr0, [r0, #696]!	; 0x2b8
   211a4:	bda19fc3 	stclt	15, cr9, [r1, #780]!	; 0x30c
   211a8:	bda33051 	stclt	0, cr3, [r3, #324]!	; 0x144
   211ac:	bda4c166 	stfltd	f4, [r4, #408]!	; 0x198
   211b0:	bda651f4 	stflts	f5, [r6, #976]!	; 0x3d0
   211b4:	bda7e308 	stclt	3, cr14, [r7, #32]!
   211b8:	bda97397 	stclt	3, cr7, [r9, #604]!	; 0x25c
   211bc:	bdab04ab 	cfstrslt	mvf0, [fp, #684]!	; 0x2ac
   211c0:	bdac953a 	cfstr32lt	mvfx9, [ip, #232]!	; 0xe8
   211c4:	bdae25c8 	cfstr32lt	mvfx2, [lr, #800]!	; 0x320
   211c8:	bdafb656 	stclt	6, cr11, [pc, #344]!	; 21328 <fsintable+0x4320>
   211cc:	bdb146e5 	ldclt	6, cr4, [r1, #916]!	; 0x394
   211d0:	bdb2d7f9 	ldclt	7, cr13, [r2, #996]!	; 0x3e4
   211d4:	bdb46888 	ldclt	8, cr6, [r4, #544]!	; 0x220
   211d8:	bdb5f916 	ldclt	9, cr15, [r5, #88]!	; 0x58
   211dc:	bdb7891e 	ldclt	9, cr8, [r7, #120]!	; 0x78
   211e0:	bdb919ac 	ldclt	9, cr1, [r9, #688]!	; 0x2b0
   211e4:	bdbaaa3b 	ldclt	10, cr10, [sl, #236]!	; 0xec
   211e8:	bdbc3ac9 	ldclt	10, cr3, [ip, #804]!	; 0x324
   211ec:	bdbdcb58 	ldclt	11, cr12, [sp, #352]!	; 0x160
   211f0:	bdbf5b60 	ldclt	11, cr5, [pc, #384]!	; 21378 <fsintable+0x4370>
   211f4:	bdc0ebee 	vstrlt	d30, [r0, #952]	; 0x3b8
   211f8:	bdc27bf6 	vstrlt	d23, [r2, #984]	; 0x3d8
   211fc:	bdc40c84 	stcllt	12, cr0, [r4, #528]	; 0x210
   21200:	bdc59c8d 	stcllt	12, cr9, [r5, #564]	; 0x234
   21204:	bdc72d1b 	stcllt	13, cr2, [r7, #108]	; 0x6c
   21208:	bdc8bd23 	stcllt	13, cr11, [r8, #140]	; 0x8c
   2120c:	bdca4d2b 	stcllt	13, cr4, [sl, #172]	; 0xac
   21210:	bdcbddba 	stcllt	13, cr13, [fp, #744]	; 0x2e8
   21214:	bdcd6dc2 	stcllt	13, cr6, [sp, #776]	; 0x308
   21218:	bdcefdca 	stcllt	13, cr15, [lr, #808]	; 0x328
   2121c:	bdd08dd2 	ldcllt	13, cr8, [r0, #840]	; 0x348
   21220:	bdd21dda 	ldcllt	13, cr1, [r2, #872]	; 0x368
   21224:	bdd3ade2 	ldcllt	13, cr10, [r3, #904]	; 0x388
   21228:	bdd53dea 	ldcllt	13, cr3, [r5, #936]	; 0x3a8
   2122c:	bdd6cd6c 	ldcllt	13, cr12, [r6, #432]	; 0x1b0
   21230:	bdd85d74 	ldcllt	13, cr5, [r8, #464]	; 0x1d0
   21234:	bdd9ed7c 	ldcllt	13, cr14, [r9, #496]	; 0x1f0
   21238:	bddb7cfe 	ldcllt	12, cr7, [fp, #1016]	; 0x3f8
   2123c:	bddd0d06 	ldcllt	13, cr0, [sp, #24]
   21240:	bdde9c88 	ldcllt	12, cr9, [lr, #544]	; 0x220
   21244:	bde02c91 	stcllt	12, cr2, [r0, #580]!	; 0x244
   21248:	bde1bc12 	stcllt	12, cr11, [r1, #72]!	; 0x48
   2124c:	bde34b94 	stcllt	11, cr4, [r3, #592]!	; 0x250
   21250:	bde4db9c 	stcllt	11, cr13, [r4, #624]!	; 0x270
   21254:	bde66b1e 	stcllt	11, cr6, [r6, #120]!	; 0x78
   21258:	bde7faa0 	stcllt	10, cr15, [r7, #640]!	; 0x280
   2125c:	bde98a22 	stcllt	10, cr8, [r9, #136]!	; 0x88
   21260:	bdeb19a4 	stcllt	9, cr1, [fp, #656]!	; 0x290
   21264:	bdeca926 	stcllt	9, cr10, [ip, #152]!	; 0x98
   21268:	bdee38a8 	stcllt	8, cr3, [lr, #672]!	; 0x2a0
   2126c:	bdefc7a4 	stcllt	7, cr12, [pc, #656]!	; 21504 <fsintable+0x44fc>
   21270:	bdf15726 	ldcllt	7, cr5, [r1, #152]!	; 0x98
   21274:	bdf2e6a7 	ldcllt	6, cr14, [r2, #668]!	; 0x29c
   21278:	bdf475a3 	cfldr64lt	mvdx7, [r4, #652]!	; 0x28c
   2127c:	bdf60525 	cfldr64lt	mvdx0, [r6, #148]!	; 0x94
   21280:	bdf79421 	cfldrdlt	mvd9, [r7, #132]!	; 0x84
   21284:	bdf9231c 	ldcllt	3, cr2, [r9, #112]!	; 0x70
   21288:	bdfab29e 	lfmlt	f3, 3, [sl, #632]!	; 0x278
   2128c:	bdfc419a 	ldflte	f4, [ip, #616]!	; 0x268
   21290:	bdfdd096 	ldcllt	0, cr13, [sp, #600]!	; 0x258
   21294:	bdff5f91 	ldcllt	15, cr5, [pc, #580]!	; 214e0 <fsintable+0x44d8>
   21298:	be007747 	cdplt	7, 0, cr7, cr0, cr7, {2}
   2129c:	be013ec4 	cdplt	14, 0, cr3, cr1, cr4, {6}
   212a0:	be020642 	cfmadd32lt	mvax2, mvfx0, mvfx2, mvfx2
   212a4:	be02cd7d 	mcrlt	13, 0, ip, cr2, cr13, {3}
   212a8:	be0394fb 	mcrlt	4, 0, r9, cr3, cr11, {7}
   212ac:	be045c79 	mcrlt	12, 0, r5, cr4, cr9, {3}
   212b0:	be0523b3 	mcrlt	3, 0, r2, cr5, cr3, {5}
   212b4:	be05eb31 	vmovlt.16	d5[0], lr
   212b8:	be06b26c 	cdplt	2, 0, cr11, cr6, cr12, {3}
   212bc:	be0779a7 	cdplt	9, 0, cr7, cr7, cr7, {5}
   212c0:	be084125 	adfltep	f4, f0, f5
   212c4:	be09085f 	mcrlt	8, 0, r0, cr9, cr15, {2}
   212c8:	be09cf9a 	mcrlt	15, 0, ip, cr9, cr10, {4}
   212cc:	be0a96d5 	mcrlt	6, 0, r9, cr10, cr5, {6}
   212d0:	be0b5e0f 	cdplt	14, 0, cr5, cr11, cr15, {0}
   212d4:	be0c2507 	cfsh32lt	mvfx2, mvfx12, #7
   212d8:	be0cec42 	cdplt	12, 0, cr14, cr12, cr2, {2}
   212dc:	be0db37d 	mcrlt	3, 0, fp, cr13, cr13, {3}
   212e0:	be0e7a74 	mcrlt	10, 0, r7, cr14, cr4, {3}
   212e4:	be0f41af 	adflt<illegal precision>p	f4, f7, #10.0
   212e8:	be1008a7 	cdplt	8, 1, cr0, cr0, cr7, {5}
   212ec:	be10cfe1 	cdplt	15, 1, cr12, cr0, cr1, {7}
   212f0:	be1196d9 	mrclt	6, 0, r9, cr1, cr9, {6}
   212f4:	be125dd1 	mrclt	13, 0, r5, cr2, cr1, {6}
   212f8:	be1324c8 	cdplt	4, 1, cr2, cr3, cr8, {6}
   212fc:	be13ebc0 	vnmlalt.f64	d14, d19, d0
   21300:	be14b2b7 	mrclt	2, 0, fp, cr4, cr7, {5}
   21304:	be1579af 	cdplt	9, 1, cr7, cr5, cr15, {5}
   21308:	be164064 	cdplt	0, 1, cr4, cr6, cr4, {3}
   2130c:	be17075b 	mrclt	7, 0, r0, cr7, cr11, {2}
   21310:	be17ce53 	mrclt	14, 0, ip, cr7, cr3, {2}
   21314:	be189507 	cfmul32lt	mvfx9, mvfx8, mvfx7
   21318:	be195bff 	vmovlt.s16	r5, d25[1]
   2131c:	be1a22b4 	mrclt	2, 0, r2, cr10, cr4, {5}
   21320:	be1ae968 	cdplt	9, 1, cr14, cr10, cr8, {3}
   21324:	be1bb01d 	mrclt	0, 0, fp, cr11, cr13, {0}
   21328:	be1c76d1 	mrclt	6, 0, r7, cr12, cr1, {6}
   2132c:	be1d3d86 	cdplt	13, 1, cr3, cr13, cr6, {4}
   21330:	be1e043a 	mrclt	4, 0, r0, cr14, cr10, {1}
   21334:	be1ecaef 	vnmlalt.f32	s24, s29, s31
   21338:	be1f9160 	mnfltez	f1, f0
   2133c:	be205815 	mcrlt	8, 1, r5, cr0, cr5, {0}
   21340:	be211e86 	cdplt	14, 2, cr1, cr1, cr6, {4}
   21344:	be21e53b 	mcrlt	5, 1, lr, cr1, cr11, {1}
   21348:	be22abac 	vmullt.f64	d10, d18, d28
   2134c:	be23721d 	mcrlt	2, 1, r7, cr3, cr13, {0}
   21350:	be24388f 	cdplt	8, 2, cr3, cr4, cr15, {4}
   21354:	be24ff00 	cdplt	15, 2, cr15, cr4, cr0, {0}
   21358:	be25c572 	mcrlt	5, 1, ip, cr5, cr2, {3}
   2135c:	be268be3 	vnmullt.f64	d8, d22, d19
   21360:	be275254 	mcrlt	2, 1, r5, cr7, cr4, {2}
   21364:	be2818c6 	cdplt	8, 2, cr1, cr8, cr6, {6}
   21368:	be28def4 	mcrlt	14, 1, sp, cr8, cr4, {7}
   2136c:	be29a565 	cfsh64lt	mvdx10, mvdx9, #53
   21370:	be2a6b94 	vmovlt.32	d26[1], r6
   21374:	be2b31c2 	suflt<illegal precision>m	f3, f3, f2
   21378:	be2bf7f0 	mcrlt	7, 1, pc, cr11, cr0, {7}	; <UNPREDICTABLE>
   2137c:	be2cbe1f 	mcrlt	14, 1, fp, cr12, cr15, {0}
   21380:	be2d844d 	cdplt	4, 2, cr8, cr13, cr13, {2}
   21384:	be2e4a7b 	mcrlt	10, 1, r4, cr14, cr11, {3}
   21388:	be2f10aa 	cdplt	0, 2, cr1, cr15, cr10, {5}
   2138c:	be2fd6d8 	mcrlt	6, 1, sp, cr15, cr8, {6}
   21390:	be309cc3 	cdplt	12, 3, cr9, cr0, cr3, {6}
   21394:	be3162f1 	mrclt	2, 1, r6, cr1, cr1, {7}
   21398:	be3228dd 	mrclt	8, 1, r2, cr2, cr13, {6}
   2139c:	be32eec8 	cdplt	14, 3, cr14, cr2, cr8, {6}
   213a0:	be33b4b3 	mrclt	4, 1, fp, cr3, cr3, {5}
   213a4:	be347a9e 	mrclt	10, 1, r7, cr4, cr14, {4}
   213a8:	be354089 	cdplt	0, 3, cr4, cr5, cr9, {4}
   213ac:	be360675 	mrclt	6, 1, r0, cr6, cr5, {3}
   213b0:	be36cc60 	cdplt	12, 3, cr12, cr6, cr0, {3}
   213b4:	be379208 	cdplt	2, 3, cr9, cr7, cr8, {0}
   213b8:	be3857f3 	mrclt	7, 1, r5, cr8, cr3, {7}
   213bc:	be391d9b 	mrclt	13, 1, r1, cr9, cr11, {4}
   213c0:	be39e386 	cdplt	3, 3, cr14, cr9, cr6, {4}
   213c4:	be3aa92e 	cdplt	9, 3, cr10, cr10, cr14, {1}
   213c8:	be3b6ed6 	mrclt	14, 1, r6, cr11, cr6, {6}
   213cc:	be3c347f 	mrclt	4, 1, r3, cr12, cr15, {3}
   213d0:	be3cfa27 	vaddlt.f32	s30, s24, s15
   213d4:	be3dbf8c 	cdplt	15, 3, cr11, cr13, cr12, {4}
   213d8:	be3e8534 	mrclt	5, 1, r8, cr14, cr4, {1}
   213dc:	be3f4adc 	mrclt	10, 1, r4, cr15, cr12, {6}
   213e0:	be401041 	cdplt	0, 4, cr1, cr0, cr1, {2}
   213e4:	be40d5a6 	cdplt	5, 4, cr13, cr0, cr6, {5}
   213e8:	be419b4e 	vmlslt.f64	d25, d1, d14
   213ec:	be4260b3 	mcrlt	0, 2, r6, cr2, cr3, {5}
   213f0:	be432618 	mcrlt	6, 2, r2, cr3, cr8, {0}
   213f4:	be43eb7d 	vmovlt.8	d3[3], lr
   213f8:	be44b09f 	mcrlt	0, 2, fp, cr4, cr15, {4}
   213fc:	be457604 	cdplt	6, 4, cr7, cr5, cr4, {0}
   21400:	be463b69 	vmlslt.f64	d19, d6, d25
   21404:	be47008a 	cdplt	0, 4, cr0, cr7, cr10, {4}
   21408:	be47c5ac 	cdplt	5, 4, cr12, cr7, cr12, {5}
   2140c:	be488b11 	vmovlt.8	d8[0], r8
   21410:	be495033 	mcrlt	0, 2, r5, cr9, cr3, {1}
   21414:	be4a1555 	mcrlt	5, 2, r1, cr10, cr5, {2}
   21418:	be4ada34 	mcrlt	10, 2, sp, cr10, cr4, {1}
   2141c:	be4b9f56 	mcrlt	15, 2, r9, cr11, cr6, {2}
   21420:	be4c6477 	mcrlt	4, 2, r6, cr12, cr7, {3}
   21424:	be4d2956 	mcrlt	9, 2, r2, cr13, cr6, {2}
   21428:	be4dee78 	mcrlt	14, 2, lr, cr13, cr8, {3}
   2142c:	be4eb357 	mcrlt	3, 2, fp, cr14, cr7, {2}
   21430:	be4f7836 	mcrlt	8, 2, r7, cr15, cr6, {1}
   21434:	be503d14 	mrclt	13, 2, r3, cr0, cr4, {0}
   21438:	be5101f3 	mrclt	1, 2, r0, cr1, cr3, {7}
   2143c:	be51c6d2 	mrclt	6, 2, ip, cr1, cr2, {6}
   21440:	be528b6e 	vnmlalt.f64	d24, d2, d30
   21444:	be53504c 	cdplt	0, 5, cr5, cr3, cr12, {2}
   21448:	be5414e8 	cdplt	4, 5, cr1, cr4, cr8, {7}
   2144c:	be54d9c7 	cdplt	9, 5, cr13, cr4, cr7, {6}
   21450:	be559e62 	cdplt	14, 5, cr9, cr5, cr2, {3}
   21454:	be5662fe 	mrclt	2, 2, r6, cr6, cr14, {7}
   21458:	be57279a 	mrclt	7, 2, r2, cr7, cr10, {4}
   2145c:	be57ec35 	mrclt	12, 2, lr, cr7, cr5, {1}
   21460:	be58b08e 	cdplt	0, 5, cr11, cr8, cr14, {4}
   21464:	be597529 	cdplt	5, 5, cr7, cr9, cr9, {1}
   21468:	be5a3982 	cdplt	9, 5, cr3, cr10, cr2, {4}
   2146c:	be5afe1e 	mrclt	14, 2, APSR_nzcv, cr10, cr14, {0}
   21470:	be5bc276 	mrclt	2, 2, ip, cr11, cr6, {3}
   21474:	be5c86cf 	cdplt	6, 5, cr8, cr12, cr15, {6}
   21478:	be5d4b27 	vnmlslt.f64	d20, d13, d23
   2147c:	be5e0f80 	cdplt	15, 5, cr0, cr14, cr0, {4}
   21480:	be5ed395 	mrclt	3, 2, sp, cr14, cr5, {4}
   21484:	be5f97ee 	cdplt	7, 5, cr9, cr15, cr14, {7}
   21488:	be605c03 	cdplt	12, 6, cr5, cr0, cr3, {0}
   2148c:	be61205c 	mcrlt	0, 3, r2, cr1, cr12, {2}
   21490:	be61e471 	mcrlt	4, 3, lr, cr1, cr1, {3}
   21494:	be62a887 	cdplt	8, 6, cr10, cr2, cr7, {4}
   21498:	be636c9c 	mcrlt	12, 3, r6, cr3, cr12, {4}
   2149c:	be64306e 	cdplt	0, 6, cr3, cr4, cr14, {3}
   214a0:	be64f484 	cdplt	4, 6, cr15, cr4, cr4, {4}
   214a4:	be65b899 	mcrlt	8, 3, fp, cr5, cr9, {4}
   214a8:	be667c6c 	cdplt	12, 6, cr7, cr6, cr12, {3}
   214ac:	be67403e 	mcrlt	0, 3, r4, cr7, cr14, {1}
   214b0:	be680410 	mcrlt	4, 3, r0, cr8, cr0, {0}
   214b4:	be68c7e3 	cdplt	7, 6, cr12, cr8, cr3, {7}
   214b8:	be698bb5 	vmovlt.8	d25[5], r8
   214bc:	be6a4f87 	cdplt	15, 6, cr4, cr10, cr7, {4}
   214c0:	be6b1316 	mcrlt	3, 3, r1, cr11, cr6, {0}
   214c4:	be6bd6e9 	cdplt	6, 6, cr13, cr11, cr9, {7}
   214c8:	be6c9a78 	mcrlt	10, 3, r9, cr12, cr8, {3}
   214cc:	be6d5e07 	cdplt	14, 6, cr5, cr13, cr7, {0}
   214d0:	be6e2196 	mcrlt	1, 3, r2, cr14, cr6, {4}
   214d4:	be6ee526 	cdplt	5, 6, cr14, cr14, cr6, {1}
   214d8:	be6fa8b5 	mcrlt	8, 3, sl, cr15, cr5, {5}
   214dc:	be706c44 	cdplt	12, 7, cr6, cr0, cr4, {2}
   214e0:	be712f90 	mrclt	15, 3, r2, cr1, cr0, {4}
   214e4:	be71f2dc 	mrclt	2, 3, APSR_nzcv, cr1, cr12, {6}
   214e8:	be72b66b 	cdplt	6, 7, cr11, cr2, cr11, {3}
   214ec:	be7379b7 	mrclt	9, 3, r7, cr3, cr7, {5}
   214f0:	be743d04 	cdplt	13, 7, cr3, cr4, cr4, {0}
   214f4:	be75000d 	cdplt	0, 7, cr0, cr5, cr13, {0}
   214f8:	be75c359 	mrclt	3, 3, ip, cr5, cr9, {2}
   214fc:	be7686a5 	cdplt	6, 7, cr8, cr6, cr5, {5}
   21500:	be7749ae 	cdplt	9, 7, cr4, cr7, cr14, {5}
   21504:	be780cb7 	mrclt	12, 3, r0, cr8, cr7, {5}
   21508:	be78cfc0 	cdplt	15, 7, cr12, cr8, cr0, {6}
   2150c:	be7992c9 	cdplt	2, 7, cr9, cr9, cr9, {6}
   21510:	be7a55d2 	mrclt	5, 3, r5, cr10, cr2, {6}
   21514:	be7b18db 	mrclt	8, 3, r1, cr11, cr11, {6}
   21518:	be7bdba1 	vaddlt.f64	d29, d27, d17
   2151c:	be7c9e67 	cdplt	14, 7, cr9, cr12, cr7, {3}
   21520:	be7d6170 	mrclt	1, 3, r6, cr13, cr0, {3}
   21524:	be7e2435 	mrclt	4, 3, r2, cr14, cr5, {1}
   21528:	be7ee6fb 	mrclt	6, 3, lr, cr14, cr11, {7}
   2152c:	be7fa97e 	mrclt	9, 3, sl, cr15, cr14, {3}
   21530:	be803622 	cdplt	6, 8, cr3, cr0, cr2, {1}
   21534:	be809763 	cdplt	7, 8, cr9, cr0, cr3, {3}
   21538:	be80f8c6 	cdplt	8, 8, cr15, cr0, cr6, {6}
   2153c:	be815a08 	vdivlt.f32	s10, s2, s16
   21540:	be81bb49 	cdplt	11, 8, cr11, cr1, cr9, {2}
   21544:	be821c8a 	cdplt	12, 8, cr1, cr2, cr10, {4}
   21548:	be827dcc 	cdplt	13, 8, cr7, cr2, cr12, {6}
   2154c:	be82deec 	cdplt	14, 8, cr13, cr2, cr12, {7}
   21550:	be83402d 	cdplt	0, 8, cr4, cr3, cr13, {1}
   21554:	be83a14d 	sinltsm	f2, #5.0
   21558:	be84026d 	cdplt	2, 8, cr0, cr4, cr13, {3}
   2155c:	be84638d 	cdplt	3, 8, cr6, cr4, cr13, {4}
   21560:	be84c4ac 	cdplt	4, 8, cr12, cr4, cr12, {5}
   21564:	be8525cc 	cdplt	5, 8, cr2, cr5, cr12, {6}
   21568:	be8586cb 	cdplt	6, 8, cr8, cr5, cr11, {6}
   2156c:	be85e7c9 	cdplt	7, 8, cr14, cr5, cr9, {6}
   21570:	be8648e9 	cdplt	8, 8, cr4, cr6, cr9, {7}
   21574:	be86a9e7 	cdplt	9, 8, cr10, cr6, cr7, {7}
   21578:	be870ae5 	cdplt	10, 8, cr0, cr7, cr5, {7}
   2157c:	be876bc2 	cdplt	11, 8, cr6, cr7, cr2, {6}
   21580:	be87ccc0 	cdplt	12, 8, cr12, cr7, cr0, {6}
   21584:	be882d9d 	mcrlt	13, 4, r2, cr8, cr13, {4}
   21588:	be888e9b 	mcrlt	14, 4, r8, cr8, cr11, {4}
   2158c:	be88ef78 	mcrlt	15, 4, lr, cr8, cr8, {3}
   21590:	be895055 	mcrlt	0, 4, r5, cr9, cr5, {2}
   21594:	be89b131 	mcrlt	1, 4, fp, cr9, cr1, {1}
   21598:	be8a11ed 	rmflt<illegal precision>z	f1, f2, #5.0
   2159c:	be8a72c9 	cdplt	2, 8, cr7, cr10, cr9, {6}
   215a0:	be8ad384 	cdplt	3, 8, cr13, cr10, cr4, {4}
   215a4:	be8b3440 	cdplt	4, 8, cr3, cr11, cr0, {2}
   215a8:	be8b94fb 	mcrlt	4, 4, r9, cr11, cr11, {7}
   215ac:	be8bf5b6 	mcrlt	5, 4, pc, cr11, cr6, {5}	; <UNPREDICTABLE>
   215b0:	be8c5671 	mcrlt	6, 4, r5, cr12, cr1, {3}
   215b4:	be8cb70b 	cdplt	7, 8, cr11, cr12, cr11, {0}
   215b8:	be8d17c6 	cdplt	7, 8, cr1, cr13, cr6, {6}
   215bc:	be8d7860 	cdplt	8, 8, cr7, cr13, cr0, {3}
   215c0:	be8dd8f9 	mcrlt	8, 4, sp, cr13, cr9, {7}
   215c4:	be8e3993 	mcrlt	9, 4, r3, cr14, cr3, {4}
   215c8:	be8e9a2c 	vdivlt.f32	s18, s28, s25
   215cc:	be8efaa4 	vdivlt.f32	s30, s29, s9
   215d0:	be8f5b3e 	vduplt.16	d15, r5
   215d4:	be8fbbb6 	vduplt.16	d31, fp
   215d8:	be901c2e 	cdplt	12, 9, cr1, cr0, cr14, {1}
   215dc:	be907ca6 	cdplt	12, 9, cr7, cr0, cr6, {5}
   215e0:	be90dd1e 	mrclt	13, 4, sp, cr0, cr14, {0}
   215e4:	be913d75 	mrclt	13, 4, r3, cr1, cr5, {3}
   215e8:	be919ded 	cdplt	13, 9, cr9, cr1, cr13, {7}
   215ec:	be91fe43 	cdplt	14, 9, cr15, cr1, cr3, {2}
   215f0:	be925e9a 	mrclt	14, 4, r5, cr2, cr10, {4}
   215f4:	be92bef0 	mrclt	14, 4, fp, cr2, cr0, {7}
   215f8:	be931f25 	cdplt	15, 9, cr1, cr3, cr5, {1}
   215fc:	be937f7c 	mrclt	15, 4, r7, cr3, cr12, {3}
   21600:	be93dfb1 	mrclt	15, 4, sp, cr3, cr1, {5}
   21604:	be944007 	cdplt	0, 9, cr4, cr4, cr7, {0}
   21608:	be94a03c 	mrclt	0, 4, sl, cr4, cr12, {1}
   2160c:	be950071 	mrclt	0, 4, r0, cr5, cr1, {3}
   21610:	be956085 	cdplt	0, 9, cr6, cr5, cr5, {4}
   21614:	be95c0ba 	mrclt	0, 4, ip, cr5, cr10, {5}
   21618:	be9620cd 	cdplt	0, 9, cr2, cr6, cr13, {6}
   2161c:	be9680e0 	cdplt	0, 9, cr8, cr6, cr0, {7}
   21620:	be96e0f4 	mrclt	0, 4, lr, cr6, cr4, {7}
   21624:	be974107 	fmllts	f4, f7, f7
   21628:	be97a11b 	mrclt	1, 4, sl, cr7, cr11, {0}
   2162c:	be98010c 	fmllte	f0, f0, #4.0
   21630:	be986120 	fmlltep	f6, f0, f0
   21634:	be98c112 	mrclt	1, 4, ip, cr8, cr2, {0}
   21638:	be992104 	fmllte	f2, f1, f4
   2163c:	be9980f5 	mrclt	0, 4, r8, cr9, cr5, {7}
   21640:	be99e0c6 	cdplt	0, 9, cr14, cr9, cr6, {6}
   21644:	be9a40b8 	mrclt	0, 4, r4, cr10, cr8, {5}
   21648:	be9aa088 	cdplt	0, 9, cr10, cr10, cr8, {4}
   2164c:	be9b0058 	mrclt	0, 4, r0, cr11, cr8, {2}
   21650:	be9b6028 	cdplt	0, 9, cr6, cr11, cr8, {1}
   21654:	be9bbff9 	mrclt	15, 4, fp, cr11, cr9, {7}
   21658:	be9c1fa7 	cdplt	15, 9, cr1, cr12, cr7, {5}
   2165c:	be9c7f78 	mrclt	15, 4, r7, cr12, cr8, {3}
   21660:	be9cdf26 	cdplt	15, 9, cr13, cr12, cr6, {1}
   21664:	be9d3ed5 	mrclt	14, 4, r3, cr13, cr5, {6}
   21668:	be9d9e84 	cdplt	14, 9, cr9, cr13, cr4, {4}
   2166c:	be9dfe11 	mrclt	14, 4, APSR_nzcv, cr13, cr1, {0}
   21670:	be9e5dc0 	cdplt	13, 9, cr5, cr14, cr0, {6}
   21674:	be9ebd4d 	cdplt	13, 9, cr11, cr14, cr13, {2}
   21678:	be9f1cda 	mrclt	12, 4, r1, cr15, cr10, {6}
   2167c:	be9f7c67 	cdplt	12, 9, cr7, cr15, cr7, {3}
   21680:	be9fdbf5 	vmovlt.u16	sp, d31[1]
   21684:	bea03b60 	vfmslt.f64	d3, d0, d16
   21688:	bea09aed 	vfmslt.f32	s18, s1, s27
   2168c:	bea0fa59 	mcrlt	10, 5, pc, cr0, cr9, {2}	; <UNPREDICTABLE>
   21690:	bea159c5 	cdplt	9, 10, cr5, cr1, cr5, {6}
   21694:	bea1b930 	mcrlt	9, 5, fp, cr1, cr0, {1}
   21698:	bea2187a 	mcrlt	8, 5, r1, cr2, cr10, {3}
   2169c:	bea277e6 	cdplt	7, 10, cr7, cr2, cr6, {7}
   216a0:	bea2d730 	mcrlt	7, 5, sp, cr2, cr0, {1}
   216a4:	bea3367a 	mcrlt	6, 5, r3, cr3, cr10, {3}
   216a8:	bea395c4 	cdplt	5, 10, cr9, cr3, cr4, {6}
   216ac:	bea3f50e 	cdplt	5, 10, cr15, cr3, cr14, {0}
   216b0:	bea45437 	mcrlt	4, 5, r5, cr4, cr7, {1}
   216b4:	bea4b381 	cdplt	3, 10, cr11, cr4, cr1, {4}
   216b8:	bea512a9 	cdplt	2, 10, cr1, cr5, cr9, {5}
   216bc:	bea571d2 	mcrlt	1, 5, r7, cr5, cr2, {6}
   216c0:	bea5d0d9 	mcrlt	0, 5, sp, cr5, cr9, {6}
   216c4:	bea63001 	cdplt	0, 10, cr3, cr6, cr1, {0}
   216c8:	bea68f08 	cdplt	15, 10, cr8, cr6, cr8, {0}
   216cc:	bea6ee0f 	cdplt	14, 10, cr14, cr6, cr15, {0}
   216d0:	bea74d16 	mcrlt	13, 5, r4, cr7, cr6, {0}
   216d4:	bea7ac1d 	mcrlt	12, 5, sl, cr7, cr13, {0}
   216d8:	bea80b24 	vfmalt.f64	d0, d8, d20
   216dc:	bea86a0a 	vfmalt.f32	s12, s16, s20
   216e0:	bea8c8ef 	cdplt	8, 10, cr12, cr8, cr15, {7}
   216e4:	bea927d4 	mcrlt	7, 5, r2, cr9, cr4, {6}
   216e8:	bea986ba 	mcrlt	6, 5, r8, cr9, cr10, {5}
   216ec:	bea9e59f 	mcrlt	5, 5, lr, cr9, cr15, {4}
   216f0:	beaa4463 	cdplt	4, 10, cr4, cr10, cr3, {3}
   216f4:	beaaa348 	cdplt	3, 10, cr10, cr10, cr8, {2}
   216f8:	beab020c 	cdplt	2, 10, cr0, cr11, cr12, {0}
   216fc:	beab60af 	cdplt	0, 10, cr6, cr11, cr15, {5}
   21700:	beabbf72 	mcrlt	15, 5, fp, cr11, cr2, {3}
   21704:	beac1e36 	mcrlt	14, 5, r1, cr12, cr6, {1}
   21708:	beac7cd9 	mcrlt	12, 5, r7, cr12, cr9, {6}
   2170c:	beacdb7b 	mcrlt	11, 5, sp, cr12, cr11, {3}
   21710:	bead3a1d 	mcrlt	10, 5, r3, cr13, cr13, {0}
   21714:	bead989e 	mcrlt	8, 5, r9, cr13, cr14, {4}
   21718:	beadf740 	cdplt	7, 10, cr15, cr13, cr0, {2}
   2171c:	beae55c1 	cdplt	5, 10, cr5, cr14, cr1, {6}
   21720:	beaeb442 	cdplt	4, 10, cr11, cr14, cr2, {2}
   21724:	beaf12c2 	cdplt	2, 10, cr1, cr15, cr2, {6}
   21728:	beaf7143 	fdvltem	f7, f7, f3
   2172c:	beafcfa2 	cdplt	15, 10, cr12, cr15, cr2, {5}
   21730:	beb02e02 	cdplt	14, 11, cr2, cr0, cr2, {0}
   21734:	beb08c61 	cdplt	12, 11, cr8, cr0, cr1, {3}
   21738:	beb0eac0 	vabslt.f32	s28, s0
   2173c:	beb1491f 	mrclt	9, 5, r4, cr1, cr15, {0}
   21740:	beb1a75d 	mrclt	7, 5, sl, cr1, cr13, {2}
   21744:	beb205bc 	mrclt	5, 5, r0, cr2, cr12, {5}
   21748:	beb263fa 	mrclt	3, 5, r6, cr2, cr10, {7}
   2174c:	beb2c237 	mrclt	2, 5, ip, cr2, cr7, {1}
   21750:	beb32053 	mrclt	0, 5, r2, cr3, cr3, {2}
   21754:	beb37e91 	mrclt	14, 5, r7, cr3, cr1, {4}
   21758:	beb3dcad 	cdplt	12, 11, cr13, cr3, cr13, {5}
   2175c:	beb43ac9 	vcmpelt.f32	s6, s18
   21760:	beb498e5 	cdplt	8, 11, cr9, cr4, cr5, {7}
   21764:	beb4f6e0 	cdplt	6, 11, cr15, cr4, cr0, {7}
   21768:	beb554fc 	mrclt	4, 5, r5, cr5, cr12, {7}
   2176c:	beb5b2f6 	mrclt	2, 5, fp, cr5, cr6, {7}
   21770:	beb610f1 	mrclt	0, 5, r1, cr6, cr1, {7}
   21774:	beb66eca 	cdplt	14, 11, cr6, cr6, cr10, {6}
   21778:	beb6ccc4 	cdplt	12, 11, cr12, cr6, cr4, {6}
   2177c:	beb72a9d 	mrclt	10, 5, r2, cr7, cr13, {4}
   21780:	beb78876 	mrclt	8, 5, r8, cr7, cr6, {3}
   21784:	beb7e64f 	cdplt	6, 11, cr14, cr7, cr15, {2}
   21788:	beb84428 	cdplt	4, 11, cr4, cr8, cr8, {1}
   2178c:	beb8a201 	cdplt	2, 11, cr10, cr8, cr1, {0}
   21790:	beb8ffb9 	mrclt	15, 5, APSR_nzcv, cr8, cr9, {5}
   21794:	beb95d70 	mrclt	13, 5, r5, cr9, cr0, {3}
   21798:	beb9bb28 	cdplt	11, 11, cr11, cr9, cr8, {1}
   2179c:	beba18bd 	mrclt	8, 5, r1, cr10, cr13, {5}
   217a0:	beba7675 	mrclt	6, 5, r7, cr10, cr5, {3}
   217a4:	bebad40b 	cdplt	4, 11, cr13, cr10, cr11, {0}
   217a8:	bebb31a1 	frdlt<illegal precision>p	f3, f3, f1
   217ac:	bebb8f36 	mrclt	15, 5, r8, cr11, cr6, {1}
   217b0:	bebbecab 	cdplt	12, 11, cr14, cr11, cr11, {5}
   217b4:	bebc4a41 	vcvtrlt.u32.f32	s8, s2
   217b8:	bebca7b5 	mrclt	7, 5, sl, cr12, cr5, {5}
   217bc:	bebd0529 	cdplt	5, 11, cr0, cr13, cr9, {1}
   217c0:	bebd627c 	mrclt	2, 5, r6, cr13, cr12, {3}
   217c4:	bebdbff0 	mrclt	15, 5, fp, cr13, cr0, {7}
   217c8:	bebe1d43 	cdplt	13, 11, cr1, cr14, cr3, {2}
   217cc:	bebe7a96 	mrclt	10, 5, r7, cr14, cr6, {4}
   217d0:	bebed7e9 	cdplt	7, 11, cr13, cr14, cr9, {7}
   217d4:	bebf353b 	mrclt	5, 5, r3, cr15, cr11, {1}
   217d8:	bebf926c 	cdplt	2, 11, cr9, cr15, cr12, {3}
   217dc:	bebfef9e 	mrclt	15, 5, lr, cr15, cr14, {4}
   217e0:	bec04ccf 	cdplt	12, 12, cr4, cr0, cr15, {6}
   217e4:	bec0aa00 	vdivlt.f32	s21, s0, s0
   217e8:	bec10710 	mcrlt	7, 6, r0, cr1, cr0, {0}
   217ec:	bec16441 	cdplt	4, 12, cr6, cr1, cr1, {2}
   217f0:	bec1c151 	mcrlt	1, 6, ip, cr1, cr1, {2}
   217f4:	bec21e60 	cdplt	14, 12, cr1, cr2, cr0, {3}
   217f8:	bec27b4e 	cdplt	11, 12, cr7, cr2, cr14, {2}
   217fc:	bec2d85e 	mcrlt	8, 6, sp, cr2, cr14, {2}
   21800:	bec3354c 	cdplt	5, 12, cr3, cr3, cr12, {2}
   21804:	bec3923a 	mcrlt	2, 6, r9, cr3, cr10, {1}
   21808:	bec3ef07 	cdplt	15, 12, cr14, cr3, cr7, {0}
   2180c:	bec44bf5 	mcrlt	11, 6, r4, cr4, cr5, {7}
   21810:	bec4a8c1 	cdplt	8, 12, cr10, cr4, cr1, {6}
   21814:	bec5058e 	cdplt	5, 12, cr0, cr5, cr14, {4}
   21818:	bec5625a 	mcrlt	2, 6, r6, cr5, cr10, {2}
   2181c:	bec5bf27 	cdplt	15, 12, cr11, cr5, cr7, {1}
   21820:	bec61bd2 	mcrlt	11, 6, r1, cr6, cr2, {6}
   21824:	bec6787d 	mcrlt	8, 6, r7, cr6, cr13, {3}
   21828:	bec6d528 	cdplt	5, 12, cr13, cr6, cr8, {1}
   2182c:	bec731d3 	mcrlt	1, 6, r3, cr7, cr3, {6}
   21830:	bec78e5c 	mcrlt	14, 6, r8, cr7, cr12, {2}
   21834:	bec7eae6 	cdplt	10, 12, cr14, cr7, cr6, {7}
   21838:	bec8476f 	cdplt	7, 12, cr4, cr8, cr15, {3}
   2183c:	bec8a3f9 	mcrlt	3, 6, sl, cr8, cr9, {7}
   21840:	bec90082 	cdplt	0, 12, cr0, cr9, cr2, {4}
   21844:	bec95cea 	cdplt	12, 12, cr5, cr9, cr10, {7}
   21848:	bec9b952 	mcrlt	9, 6, fp, cr9, cr2, {2}
   2184c:	beca15ba 	mcrlt	5, 6, r1, cr10, cr10, {5}
   21850:	beca7200 	cdplt	2, 12, cr7, cr10, cr0, {0}
   21854:	becace68 	cdplt	14, 12, cr12, cr10, cr8, {3}
   21858:	becb2aae 	vdivlt.f32	s5, s23, s29
   2185c:	becb86f4 	mcrlt	6, 6, r8, cr11, cr4, {7}
   21860:	becbe33b 	mcrlt	3, 6, lr, cr11, cr11, {1}
   21864:	becc3f60 	cdplt	15, 12, cr3, cr12, cr0, {3}
   21868:	becc9b84 	vdivlt.f64	d25, d28, d4
   2186c:	beccf7a9 	cdplt	7, 12, cr15, cr12, cr9, {5}
   21870:	becd53ce 	cdplt	3, 12, cr5, cr13, cr14, {6}
   21874:	becdafd1 	mcrlt	15, 6, sl, cr13, cr1, {6}
   21878:	bece0bf6 	mcrlt	11, 6, r0, cr14, cr6, {7}
   2187c:	bece67f9 	mcrlt	7, 6, r6, cr14, cr9, {7}
   21880:	becec3db 	mcrlt	3, 6, ip, cr14, cr11, {6}
   21884:	becf1fde 	mcrlt	15, 6, r1, cr15, cr14, {6}
   21888:	becf7bc0 	cdplt	11, 12, cr7, cr15, cr0, {6}
   2188c:	becfd7a1 	cdplt	7, 12, cr13, cr15, cr1, {5}
   21890:	bed03383 	cdplt	3, 13, cr3, cr0, cr3, {4}
   21894:	bed08f65 	cdplt	15, 13, cr8, cr0, cr5, {3}
   21898:	bed0eb25 	vfnmslt.f64	d30, d0, d21
   2189c:	bed146e5 	cdplt	6, 13, cr4, cr1, cr5, {7}
   218a0:	bed1a2a5 	cdplt	2, 13, cr10, cr1, cr5, {5}
   218a4:	bed1fe65 	cdplt	14, 13, cr15, cr1, cr5, {3}
   218a8:	bed25a04 	vfnmslt.f32	s11, s4, s8
   218ac:	bed2b5a2 	cdplt	5, 13, cr11, cr2, cr2, {5}
   218b0:	bed31141 	cdplt	1, 13, cr1, cr3, cr1, {2}
   218b4:	bed36cdf 	mrclt	12, 6, r6, cr3, cr15, {6}
   218b8:	bed3c85c 	mrclt	8, 6, ip, cr3, cr12, {2}
   218bc:	bed423d9 	mrclt	3, 6, r2, cr4, cr9, {6}
   218c0:	bed47f56 	mrclt	15, 6, r7, cr4, cr6, {2}
   218c4:	bed4dad3 	mrclt	10, 6, sp, cr4, cr3, {6}
   218c8:	bed53650 	mrclt	6, 6, r3, cr5, cr0, {2}
   218cc:	bed591ac 	atnltdp	f1, #4.0
   218d0:	bed5ed07 	cdplt	13, 13, cr14, cr5, cr7, {0}
   218d4:	bed64841 	cdplt	8, 13, cr4, cr6, cr1, {2}
   218d8:	bed6a39c 	mrclt	3, 6, sl, cr6, cr12, {4}
   218dc:	bed6fed6 	mrclt	14, 6, APSR_nzcv, cr6, cr6, {6}
   218e0:	bed75a10 	mrclt	10, 6, r5, cr7, cr0, {0}
   218e4:	bed7b54a 	cdplt	5, 13, cr11, cr7, cr10, {2}
   218e8:	bed81062 	cdplt	0, 13, cr1, cr8, cr2, {3}
   218ec:	bed86b7b 	vmovlt.u8	r6, d8[3]
   218f0:	bed8c693 	mrclt	6, 6, ip, cr8, cr3, {4}
   218f4:	bed921ab 	cdplt	1, 13, cr2, cr9, cr11, {5}
   218f8:	bed97cc4 	cdplt	12, 13, cr7, cr9, cr4, {6}
   218fc:	bed9d7ba 	mrclt	7, 6, sp, cr9, cr10, {5}
   21900:	beda32b1 	mrclt	2, 6, r3, cr10, cr1, {5}
   21904:	beda8da8 	cdplt	13, 13, cr8, cr10, cr8, {5}
   21908:	bedae87d 	mrclt	8, 6, lr, cr10, cr13, {3}
   2190c:	bedb4352 	mrclt	3, 6, r4, cr11, cr2, {2}
   21910:	bedb9e28 	cdplt	14, 13, cr9, cr11, cr8, {1}
   21914:	bedbf8fd 	mrclt	8, 6, APSR_nzcv, cr11, cr13, {7}
   21918:	bedc53b1 	mrclt	3, 6, r5, cr12, cr1, {5}
   2191c:	bedcae86 	cdplt	14, 13, cr10, cr12, cr6, {4}
   21920:	bedd0939 	mrclt	9, 6, r0, cr13, cr9, {1}
   21924:	bedd63cc 	cdplt	3, 13, cr6, cr13, cr12, {6}
   21928:	beddbe7f 	mrclt	14, 6, fp, cr13, cr15, {3}
   2192c:	bede1911 	mrclt	9, 6, r1, cr14, cr1, {0}
   21930:	bede73a3 	cdplt	3, 13, cr7, cr14, cr3, {5}
   21934:	bedece36 	mrclt	14, 6, ip, cr14, cr6, {1}
   21938:	bedf28a6 	cdplt	8, 13, cr2, cr15, cr6, {5}
   2193c:	bedf8317 	mrclt	3, 6, r8, cr15, cr7, {0}
   21940:	bedfdd87 	cdplt	13, 13, cr13, cr15, cr7, {4}
   21944:	bee037f8 	mcrlt	7, 7, r3, cr0, cr8, {7}
   21948:	bee09247 	cdplt	2, 14, cr9, cr0, cr7, {2}
   2194c:	bee0ec96 	mcrlt	12, 7, lr, cr0, cr6, {4}
   21950:	bee146e5 	cdplt	6, 14, cr4, cr1, cr5, {7}
   21954:	bee1a134 	mcrlt	1, 7, sl, cr1, cr4, {1}
   21958:	bee1fb61 	vfmslt.f64	d31, d1, d17
   2195c:	bee2558f 	cdplt	5, 14, cr5, cr2, cr15, {4}
   21960:	bee2afbc 	mcrlt	15, 7, sl, cr2, cr12, {5}
   21964:	bee309ea 	cdplt	9, 14, cr0, cr3, cr10, {7}
   21968:	bee363f5 	mcrlt	3, 7, r6, cr3, cr5, {7}
   2196c:	bee3be01 	cdplt	14, 14, cr11, cr3, cr1, {0}
   21970:	bee4180d 	cdplt	8, 14, cr1, cr4, cr13, {0}
   21974:	bee47219 	mcrlt	2, 7, r7, cr4, cr9, {0}
   21978:	bee4cc03 	cdplt	12, 14, cr12, cr4, cr3, {0}
   2197c:	bee525ee 	cdplt	5, 14, cr2, cr5, cr14, {7}
   21980:	bee57fd8 	mcrlt	15, 7, r7, cr5, cr8, {6}
   21984:	bee5d9a1 	cdplt	9, 14, cr13, cr5, cr1, {5}
   21988:	bee6336a 	cdplt	3, 14, cr3, cr6, cr10, {3}
   2198c:	bee68d33 	mcrlt	13, 7, r8, cr6, cr3, {1}
   21990:	bee6e6fb 	mcrlt	6, 7, lr, cr6, cr11, {7}
   21994:	bee740a3 	cdplt	0, 14, cr4, cr7, cr3, {5}
   21998:	bee79a6b 	vfmslt.f32	s19, s14, s23
   2199c:	bee7f3f1 	mcrlt	3, 7, pc, cr7, cr1, {7}	; <UNPREDICTABLE>
   219a0:	bee84d98 	mcrlt	13, 7, r4, cr8, cr8, {4}
   219a4:	bee8a71e 	mcrlt	7, 7, sl, cr8, cr14, {0}
   219a8:	bee900c5 	cdplt	0, 14, cr0, cr9, cr5, {6}
   219ac:	bee95a29 	vfmalt.f32	s11, s18, s19
   219b0:	bee9b3af 	cdplt	3, 14, cr11, cr9, cr15, {5}
   219b4:	beea0d13 	mcrlt	13, 7, r0, cr10, cr3, {0}
   219b8:	beea6677 	mcrlt	6, 7, r6, cr10, cr7, {3}
   219bc:	beeabfdb 	mcrlt	15, 7, fp, cr10, cr11, {6}
   219c0:	beeb193f 	mcrlt	9, 7, r1, cr11, cr15, {1}
   219c4:	beeb7282 	cdplt	2, 14, cr7, cr11, cr2, {4}
   219c8:	beebcbc5 	vfmslt.f64	d28, d27, d5
   219cc:	beec24e6 	cdplt	4, 14, cr2, cr12, cr6, {7}
   219d0:	beec7e28 	cdplt	14, 14, cr7, cr12, cr8, {1}
   219d4:	beecd749 	cdplt	7, 14, cr13, cr12, cr9, {2}
   219d8:	beed306a 	cdplt	0, 14, cr3, cr13, cr10, {3}
   219dc:	beed896a 	cdplt	9, 14, cr8, cr13, cr10, {3}
   219e0:	beede28b 	cdplt	2, 14, cr14, cr13, cr11, {4}
   219e4:	beee3b8a 	vfmalt.f64	d19, d30, d10
   219e8:	beee9468 	cdplt	4, 14, cr9, cr14, cr8, {3}
   219ec:	beeeed67 	cdplt	13, 14, cr14, cr14, cr7, {3}
   219f0:	beef4645 	cdplt	6, 14, cr4, cr15, cr5, {2}
   219f4:	beef9f23 	cdplt	15, 14, cr9, cr15, cr3, {1}
   219f8:	beeff801 	cdplt	8, 14, cr15, cr15, cr1, {0}
   219fc:	bef050be 	mrclt	0, 7, r5, cr0, cr14, {5}
   21a00:	bef0a97a 	mrclt	9, 7, sl, cr0, cr10, {3}
   21a04:	bef10236 	mrclt	2, 7, r0, cr1, cr6, {1}
   21a08:	bef15af3 	mrclt	10, 7, r5, cr1, cr3, {7}
   21a0c:	bef1b38d 	cdplt	3, 15, cr11, cr1, cr13, {4}
   21a10:	bef20c28 	cdplt	12, 15, cr0, cr2, cr8, {1}
   21a14:	bef264c3 	cdplt	4, 15, cr6, cr2, cr3, {6}
   21a18:	bef2bd3c 	mrclt	13, 7, fp, cr2, cr12, {1}
   21a1c:	bef315b5 	mrclt	5, 7, r1, cr3, cr5, {5}
   21a20:	bef36e2f 	cdplt	14, 15, cr6, cr3, cr15, {1}
   21a24:	bef3c6a8 	cdplt	6, 15, cr12, cr3, cr8, {5}
   21a28:	bef41f00 	cdplt	15, 15, cr1, cr4, cr0, {0}
   21a2c:	bef47757 	mrclt	7, 7, r7, cr4, cr7, {2}
   21a30:	bef4cfaf 	cdplt	15, 15, cr12, cr4, cr15, {5}
   21a34:	bef52807 	cdplt	8, 15, cr2, cr5, cr7, {0}
   21a38:	bef5803d 	mrclt	0, 7, r8, cr5, cr13, {1}
   21a3c:	bef5d873 	mrclt	8, 7, sp, cr5, cr3, {3}
   21a40:	bef63088 	cdplt	0, 15, cr3, cr6, cr8, {4}
   21a44:	bef688be 	mrclt	8, 7, r8, cr6, cr14, {5}
   21a48:	bef6e0d2 	mrclt	0, 7, lr, cr6, cr2, {6}
   21a4c:	bef738e7 	cdplt	8, 15, cr3, cr7, cr7, {7}
   21a50:	bef790da 	mrclt	0, 7, r9, cr7, cr10, {6}
   21a54:	bef7e8cd 	cdplt	8, 15, cr14, cr7, cr13, {6}
   21a58:	bef840c0 	cdplt	0, 15, cr4, cr8, cr0, {6}
   21a5c:	bef898b3 	mrclt	8, 7, r9, cr8, cr3, {5}
   21a60:	bef8f084 	cdplt	0, 15, cr15, cr8, cr4, {4}
   21a64:	bef94856 	mrclt	8, 7, r4, cr9, cr6, {2}
   21a68:	bef9a027 	cdplt	0, 15, cr10, cr9, cr7, {1}
   21a6c:	bef9f7f9 	mrclt	7, 7, APSR_nzcv, cr9, cr9, {7}
   21a70:	befa4fa9 	cdplt	15, 15, cr4, cr10, cr9, {5}
   21a74:	befaa759 	mrclt	7, 7, sl, cr10, cr9, {2}
   21a78:	befafee7 	cdplt	14, 15, cr15, cr10, cr7, {7}
   21a7c:	befb5697 	mrclt	6, 7, r5, cr11, cr7, {4}
   21a80:	befbae25 	cdplt	14, 15, cr10, cr11, cr5, {1}
   21a84:	befc05b4 	mrclt	5, 7, r0, cr12, cr4, {5}
   21a88:	befc5d20 	cdplt	13, 15, cr5, cr12, cr0, {1}
   21a8c:	befcb48d 	cdplt	4, 15, cr11, cr12, cr13, {4}
   21a90:	befd0bfa 	vmovlt.u8	r0, d29[7]
   21a94:	befd6367 	cdplt	3, 15, cr6, cr13, cr7, {3}
   21a98:	befdbab2 	mrclt	10, 7, fp, cr13, cr2, {5}
   21a9c:	befe11fd 	mrclt	1, 7, r1, cr14, cr13, {7}
   21aa0:	befe6949 	cdplt	9, 15, cr6, cr14, cr9, {2}
   21aa4:	befec094 	mrclt	0, 7, ip, cr14, cr4, {4}
   21aa8:	beff17be 	mrclt	7, 7, r1, cr15, cr14, {5}
   21aac:	beff6ee7 	cdplt	14, 15, cr6, cr15, cr7, {7}
   21ab0:	beffc5ef 	cdplt	5, 15, cr12, cr15, cr15, {7}
   21ab4:	bf000e7c 	svclt	0x00000e7c
   21ab8:	bf003a00 	svclt	0x00003a00
   21abc:	bf006584 	svclt	0x00006584
   21ac0:	bf0090f7 	svclt	0x000090f7
   21ac4:	bf00bc7b 	svclt	0x0000bc7b
   21ac8:	bf00e7de 	svclt	0x0000e7de
   21acc:	bf011351 	svclt	0x00011351
   21ad0:	bf013eb4 	svclt	0x00013eb4
   21ad4:	bf016a16 	svclt	0x00016a16
   21ad8:	bf019579 	svclt	0x00019579
   21adc:	bf01c0ca 	svclt	0x0001c0ca
   21ae0:	bf01ec1c 	svclt	0x0001ec1c
   21ae4:	bf02176e 	svclt	0x0002176e
   21ae8:	bf0242af 	svclt	0x000242af
   21aec:	bf026df0 	svclt	0x00026df0
   21af0:	bf029931 	svclt	0x00029931
   21af4:	bf02c472 	svclt	0x0002c472
   21af8:	bf02efa2 	svclt	0x0002efa2
   21afc:	bf031ad2 	svclt	0x00031ad2
   21b00:	bf0345f1 	svclt	0x000345f1
   21b04:	bf037122 	svclt	0x00037122
   21b08:	bf039c41 	svclt	0x00039c41
   21b0c:	bf03c750 	svclt	0x0003c750
   21b10:	bf03f26f 	svclt	0x0003f26f
   21b14:	bf041d7e 	svclt	0x00041d7e
   21b18:	bf04488c 	svclt	0x0004488c
   21b1c:	bf04738a 	svclt	0x0004738a
   21b20:	bf049e99 	svclt	0x00049e99
   21b24:	bf04c986 	svclt	0x0004c986
   21b28:	bf04f484 	svclt	0x0004f484
   21b2c:	bf051f71 	svclt	0x00051f71
   21b30:	bf054a5e 	svclt	0x00054a5e
   21b34:	bf05754b 	svclt	0x0005754b
   21b38:	bf05a027 	svclt	0x0005a027
   21b3c:	bf05cb04 	svclt	0x0005cb04
   21b40:	bf05f5e0 	svclt	0x0005f5e0
   21b44:	bf0620bc 	svclt	0x000620bc
   21b48:	bf064b88 	svclt	0x00064b88
   21b4c:	bf067653 	svclt	0x00067653
   21b50:	bf06a10e 	svclt	0x0006a10e
   21b54:	bf06cbc9 	svclt	0x0006cbc9
   21b58:	bf06f683 	svclt	0x0006f683
   21b5c:	bf07213e 	svclt	0x0007213e
   21b60:	bf074be8 	svclt	0x00074be8
   21b64:	bf077692 	svclt	0x00077692
   21b68:	bf07a13c 	svclt	0x0007a13c
   21b6c:	bf07cbd5 	svclt	0x0007cbd5
   21b70:	bf07f66f 	svclt	0x0007f66f
   21b74:	bf082108 	svclt	0x00082108
   21b78:	bf084b90 	svclt	0x00084b90
   21b7c:	bf087619 	svclt	0x00087619
   21b80:	bf08a0a1 	svclt	0x0008a0a1
   21b84:	bf08cb19 	svclt	0x0008cb19
   21b88:	bf08f5a1 	svclt	0x0008f5a1
   21b8c:	bf092008 	svclt	0x00092008
   21b90:	bf094a80 	svclt	0x00094a80
   21b94:	bf0974e6 	svclt	0x000974e6
   21b98:	bf099f4d 	svclt	0x00099f4d
   21b9c:	bf09c9b4 	svclt	0x0009c9b4
   21ba0:	bf09f40a 	svclt	0x0009f40a
   21ba4:	bf0a1e60 	svclt	0x000a1e60
   21ba8:	bf0a48a6 	svclt	0x000a48a6
   21bac:	bf0a72fc 	svclt	0x000a72fc
   21bb0:	bf0a9d41 	svclt	0x000a9d41
   21bb4:	bf0ac775 	svclt	0x000ac775
   21bb8:	bf0af1bb 	svclt	0x000af1bb
   21bbc:	bf0b1bef 	svclt	0x000b1bef
   21bc0:	bf0b4624 	svclt	0x000b4624
   21bc4:	bf0b7048 	svclt	0x000b7048
   21bc8:	bf0b9a6b 	svclt	0x000b9a6b
   21bcc:	bf0bc48f 	svclt	0x000bc48f
   21bd0:	bf0beea2 	svclt	0x000beea2
   21bd4:	bf0c18b5 	svclt	0x000c18b5
   21bd8:	bf0c42c8 	svclt	0x000c42c8
   21bdc:	bf0c6cdb 	svclt	0x000c6cdb
   21be0:	bf0c96dd 	svclt	0x000c96dd
   21be4:	bf0cc0cf 	svclt	0x000cc0cf
   21be8:	bf0cead1 	svclt	0x000cead1
   21bec:	bf0d14c2 	svclt	0x000d14c2
   21bf0:	bf0d3eb4 	svclt	0x000d3eb4
   21bf4:	bf0d68a5 	svclt	0x000d68a5
   21bf8:	bf0d9286 	svclt	0x000d9286
   21bfc:	bf0dbc66 	svclt	0x000dbc66
   21c00:	bf0de636 	svclt	0x000de636
   21c04:	bf0e1006 	svclt	0x000e1006
   21c08:	bf0e39d6 	svclt	0x000e39d6
   21c0c:	bf0e63a6 	svclt	0x000e63a6
   21c10:	bf0e8d65 	svclt	0x000e8d65
   21c14:	bf0eb724 	svclt	0x000eb724
   21c18:	bf0ee0e3 	svclt	0x000ee0e3
   21c1c:	bf0f0a91 	svclt	0x000f0a91
   21c20:	bf0f3440 	svclt	0x000f3440
   21c24:	bf0f5ddd 	svclt	0x000f5ddd
   21c28:	bf0f878b 	svclt	0x000f878b
   21c2c:	bf0fb129 	svclt	0x000fb129
   21c30:	bf0fdab6 	svclt	0x000fdab6
   21c34:	bf100443 	svclt	0x00100443
   21c38:	bf102dcf 	svclt	0x00102dcf
   21c3c:	bf10575c 	svclt	0x0010575c
   21c40:	bf1080d8 	svclt	0x001080d8
   21c44:	bf10aa54 	svclt	0x0010aa54
   21c48:	bf10d3d0 	svclt	0x0010d3d0
   21c4c:	bf10fd3b 	svclt	0x0010fd3b
   21c50:	bf1126a6 	svclt	0x001126a6
   21c54:	bf115012 	svclt	0x00115012
   21c58:	bf11796c 	svclt	0x0011796c
   21c5c:	bf11a2c6 	svclt	0x0011a2c6
   21c60:	bf11cc21 	svclt	0x0011cc21
   21c64:	bf11f56a 	svclt	0x0011f56a
   21c68:	bf121eb4 	svclt	0x00121eb4
   21c6c:	bf1247ed 	svclt	0x001247ed
   21c70:	bf127137 	svclt	0x00127137
   21c74:	bf129a70 	svclt	0x00129a70
   21c78:	bf12c398 	svclt	0x0012c398
   21c7c:	bf12ecc0 	svclt	0x0012ecc0
   21c80:	bf1315e8 	svclt	0x001315e8
   21c84:	bf133f10 	svclt	0x00133f10
   21c88:	bf136827 	svclt	0x00136827
   21c8c:	bf13913f 	svclt	0x0013913f
   21c90:	bf13ba56 	svclt	0x0013ba56
   21c94:	bf13e35c 	svclt	0x0013e35c
   21c98:	bf140c63 	svclt	0x00140c63
   21c9c:	bf143559 	svclt	0x00143559
   21ca0:	bf145e5f 	svclt	0x00145e5f
   21ca4:	bf148744 	svclt	0x00148744
   21ca8:	bf14b03a 	svclt	0x0014b03a
   21cac:	bf14d91f 	svclt	0x0014d91f
   21cb0:	bf150204 	svclt	0x00150204
   21cb4:	bf152ad8 	svclt	0x00152ad8
   21cb8:	bf1553bd 	svclt	0x001553bd
   21cbc:	bf157c81 	svclt	0x00157c81
   21cc0:	bf15a555 	svclt	0x0015a555
   21cc4:	bf15ce18 	svclt	0x0015ce18
   21cc8:	bf15f6dc 	svclt	0x0015f6dc
   21ccc:	bf161f8e 	svclt	0x00161f8e
   21cd0:	bf164841 	svclt	0x00164841
   21cd4:	bf1670f4 	svclt	0x001670f4
   21cd8:	bf1699a6 	svclt	0x001699a6
   21cdc:	bf16c248 	svclt	0x0016c248
   21ce0:	bf16ead9 	svclt	0x0016ead9
   21ce4:	bf17137b 	svclt	0x0017137b
   21ce8:	bf173c0c 	svclt	0x00173c0c
   21cec:	bf17648c 	svclt	0x0017648c
   21cf0:	bf178d1e 	svclt	0x00178d1e
   21cf4:	bf17b59e 	svclt	0x0017b59e
   21cf8:	bf17de0d 	svclt	0x0017de0d
   21cfc:	bf18068e 	svclt	0x0018068e
   21d00:	bf182eec 	svclt	0x00182eec
   21d04:	bf18575c 	svclt	0x0018575c
   21d08:	bf187fbb 	svclt	0x00187fbb
   21d0c:	bf18a81a 	svclt	0x0018a81a
   21d10:	bf18d078 	svclt	0x0018d078
   21d14:	bf18f8c6 	svclt	0x0018f8c6
   21d18:	bf192114 	svclt	0x00192114
   21d1c:	bf194952 	svclt	0x00194952
   21d20:	bf19718f 	svclt	0x0019718f
   21d24:	bf1999cc 	svclt	0x001999cc
   21d28:	bf19c1f8 	svclt	0x0019c1f8
   21d2c:	bf19ea36 	svclt	0x0019ea36
   21d30:	bf1a1251 	svclt	0x001a1251
   21d34:	bf1a3a7e 	svclt	0x001a3a7e
   21d38:	bf1a6299 	svclt	0x001a6299
   21d3c:	bf1a8aa4 	svclt	0x001a8aa4
   21d40:	bf1ab2c0 	svclt	0x001ab2c0
   21d44:	bf1adaba 	svclt	0x001adaba
   21d48:	bf1b02c5 	svclt	0x001b02c5
   21d4c:	bf1b2abf 	svclt	0x001b2abf
   21d50:	bf1b52b9 	svclt	0x001b52b9
   21d54:	bf1b7ab3 	svclt	0x001b7ab3
   21d58:	bf1ba29c 	svclt	0x001ba29c
   21d5c:	bf1bca86 	svclt	0x001bca86
   21d60:	bf1bf25e 	svclt	0x001bf25e
   21d64:	bf1c1a37 	svclt	0x001c1a37
   21d68:	bf1c420f 	svclt	0x001c420f
   21d6c:	bf1c69d7 	svclt	0x001c69d7
   21d70:	bf1c919f 	svclt	0x001c919f
   21d74:	bf1cb967 	svclt	0x001cb967
   21d78:	bf1ce11e 	svclt	0x001ce11e
   21d7c:	bf1d08d5 	svclt	0x001d08d5
   21d80:	bf1d308c 	svclt	0x001d308c
   21d84:	bf1d5832 	svclt	0x001d5832
   21d88:	bf1d7fd8 	svclt	0x001d7fd8
   21d8c:	bf1da76e 	svclt	0x001da76e
   21d90:	bf1dcf03 	svclt	0x001dcf03
   21d94:	bf1df698 	svclt	0x001df698
   21d98:	bf1e1e1d 	svclt	0x001e1e1d
   21d9c:	bf1e45a2 	svclt	0x001e45a2
   21da0:	bf1e6d26 	svclt	0x001e6d26
   21da4:	bf1e949a 	svclt	0x001e949a
   21da8:	bf1ebc0e 	svclt	0x001ebc0e
   21dac:	bf1ee382 	svclt	0x001ee382
   21db0:	bf1f0ae5 	svclt	0x001f0ae5
   21db4:	bf1f3248 	svclt	0x001f3248
   21db8:	bf1f599b 	svclt	0x001f599b
   21dbc:	bf1f80ed 	svclt	0x001f80ed
   21dc0:	bf1fa83f 	svclt	0x001fa83f
   21dc4:	bf1fcf81 	svclt	0x001fcf81
   21dc8:	bf1ff6c2 	svclt	0x001ff6c2
   21dcc:	bf201e04 	svclt	0x00201e04
   21dd0:	bf204535 	svclt	0x00204535
   21dd4:	bf206c66 	svclt	0x00206c66
   21dd8:	bf209396 	svclt	0x00209396
   21ddc:	bf20bab6 	svclt	0x0020bab6
   21de0:	bf20e1d6 	svclt	0x0020e1d6
   21de4:	bf2108e6 	svclt	0x002108e6
   21de8:	bf212ff5 	svclt	0x00212ff5
   21dec:	bf215704 	svclt	0x00215704
   21df0:	bf217e02 	svclt	0x00217e02
   21df4:	bf21a501 	svclt	0x0021a501
   21df8:	bf21cbff 	svclt	0x0021cbff
   21dfc:	bf21f2ed 	svclt	0x0021f2ed
   21e00:	bf2219db 	svclt	0x002219db
   21e04:	bf2240b8 	svclt	0x002240b8
   21e08:	bf226794 	svclt	0x00226794
   21e0c:	bf228e71 	svclt	0x00228e71
   21e10:	bf22b53d 	svclt	0x0022b53d
   21e14:	bf22dc0a 	svclt	0x0022dc0a
   21e18:	bf2302d6 	svclt	0x002302d6
   21e1c:	bf232991 	svclt	0x00232991
   21e20:	bf23504c 	svclt	0x0023504c
   21e24:	bf2376f7 	svclt	0x002376f7
   21e28:	bf239da1 	svclt	0x00239da1
   21e2c:	bf23c44c 	svclt	0x0023c44c
   21e30:	bf23eae6 	svclt	0x0023eae6
   21e34:	bf241180 	svclt	0x00241180
   21e38:	bf243819 	svclt	0x00243819
   21e3c:	bf245ea2 	svclt	0x00245ea2
   21e40:	bf24852b 	svclt	0x0024852b
   21e44:	bf24aba4 	svclt	0x0024aba4
   21e48:	bf24d22d 	svclt	0x0024d22d
   21e4c:	bf24f894 	svclt	0x0024f894
   21e50:	bf251f0c 	svclt	0x00251f0c
   21e54:	bf254563 	svclt	0x00254563
   21e58:	bf256bca 	svclt	0x00256bca
   21e5c:	bf259221 	svclt	0x00259221
   21e60:	bf25b878 	svclt	0x0025b878
   21e64:	bf25debe 	svclt	0x0025debe
   21e68:	bf260503 	svclt	0x00260503
   21e6c:	bf262b49 	svclt	0x00262b49
   21e70:	bf26517e 	svclt	0x0026517e
   21e74:	bf2677b4 	svclt	0x002677b4
   21e78:	bf269de9 	svclt	0x00269de9
   21e7c:	bf26c40d 	svclt	0x0026c40d
   21e80:	bf26ea31 	svclt	0x0026ea31
   21e84:	bf271045 	svclt	0x00271045
   21e88:	bf273659 	svclt	0x00273659
   21e8c:	bf275c5b 	svclt	0x00275c5b
   21e90:	bf27826f 	svclt	0x0027826f
   21e94:	bf27a861 	svclt	0x0027a861
   21e98:	bf27ce64 	svclt	0x0027ce64
   21e9c:	bf27f456 	svclt	0x0027f456
   21ea0:	bf281a48 	svclt	0x00281a48
   21ea4:	bf284029 	svclt	0x00284029
   21ea8:	bf28660a 	svclt	0x0028660a
   21eac:	bf288bdb 	svclt	0x00288bdb
   21eb0:	bf28b1ab 	svclt	0x0028b1ab
   21eb4:	bf28d77b 	svclt	0x0028d77b
   21eb8:	bf28fd3b 	svclt	0x0028fd3b
   21ebc:	bf2922fb 	svclt	0x002922fb
   21ec0:	bf2948bb 	svclt	0x002948bb
   21ec4:	bf296e69 	svclt	0x00296e69
   21ec8:	bf299418 	svclt	0x00299418
   21ecc:	bf29b9b6 	svclt	0x0029b9b6
   21ed0:	bf29df55 	svclt	0x0029df55
   21ed4:	bf2a04f3 	svclt	0x002a04f3
   21ed8:	bf2a2a80 	svclt	0x002a2a80
   21edc:	bf2a500d 	svclt	0x002a500d
   21ee0:	bf2a758a 	svclt	0x002a758a
   21ee4:	bf2a9b07 	svclt	0x002a9b07
   21ee8:	bf2ac083 	svclt	0x002ac083
   21eec:	bf2ae5ef 	svclt	0x002ae5ef
   21ef0:	bf2b0b5b 	svclt	0x002b0b5b
   21ef4:	bf2b30c6 	svclt	0x002b30c6
   21ef8:	bf2b5621 	svclt	0x002b5621
   21efc:	bf2b7b6c 	svclt	0x002b7b6c
   21f00:	bf2ba0c7 	svclt	0x002ba0c7
   21f04:	bf2bc600 	svclt	0x002bc600
   21f08:	bf2beb4a 	svclt	0x002beb4a
   21f0c:	bf2c1084 	svclt	0x002c1084
   21f10:	bf2c35bd 	svclt	0x002c35bd
   21f14:	bf2c5ae6 	svclt	0x002c5ae6
   21f18:	bf2c800f 	svclt	0x002c800f
   21f1c:	bf2ca537 	svclt	0x002ca537
   21f20:	bf2cca4f 	svclt	0x002cca4f
   21f24:	bf2cef56 	svclt	0x002cef56
   21f28:	bf2d146e 	svclt	0x002d146e
   21f2c:	bf2d3975 	svclt	0x002d3975
   21f30:	bf2d5e6c 	svclt	0x002d5e6c
   21f34:	bf2d8362 	svclt	0x002d8362
   21f38:	bf2da858 	svclt	0x002da858
   21f3c:	bf2dcd3e 	svclt	0x002dcd3e
   21f40:	bf2df224 	svclt	0x002df224
   21f44:	bf2e1709 	svclt	0x002e1709
   21f48:	bf2e3bde 	svclt	0x002e3bde
   21f4c:	bf2e60b3 	svclt	0x002e60b3
   21f50:	bf2e8577 	svclt	0x002e8577
   21f54:	bf2eaa3b 	svclt	0x002eaa3b
   21f58:	bf2eceff 	svclt	0x002eceff
   21f5c:	bf2ef3b2 	svclt	0x002ef3b2
   21f60:	bf2f1855 	svclt	0x002f1855
   21f64:	bf2f3d08 	svclt	0x002f3d08
   21f68:	bf2f61aa 	svclt	0x002f61aa
   21f6c:	bf2f863c 	svclt	0x002f863c
   21f70:	bf2faace 	svclt	0x002faace
   21f74:	bf2fcf5f 	svclt	0x002fcf5f
   21f78:	bf2ff3e0 	svclt	0x002ff3e0
   21f7c:	bf301861 	svclt	0x00301861
   21f80:	bf303ce2 	svclt	0x00303ce2
   21f84:	bf306152 	svclt	0x00306152
   21f88:	bf3085c2 	svclt	0x003085c2
   21f8c:	bf30aa22 	svclt	0x0030aa22
   21f90:	bf30ce81 	svclt	0x0030ce81
   21f94:	bf30f2d0 	svclt	0x0030f2d0
   21f98:	bf31171e 	svclt	0x0031171e
   21f9c:	bf313b6d 	svclt	0x00313b6d
   21fa0:	bf315fab 	svclt	0x00315fab
   21fa4:	bf3183e8 	svclt	0x003183e8
   21fa8:	bf31a815 	svclt	0x0031a815
   21fac:	bf31cc42 	svclt	0x0031cc42
   21fb0:	bf31f06f 	svclt	0x0031f06f
   21fb4:	bf32148c 	svclt	0x0032148c
   21fb8:	bf3238a8 	svclt	0x003238a8
   21fbc:	bf325cc4 	svclt	0x00325cc4
   21fc0:	bf3280d0 	svclt	0x003280d0
   21fc4:	bf32a4ca 	svclt	0x0032a4ca
   21fc8:	bf32c8c5 	svclt	0x0032c8c5
   21fcc:	bf32ecc0 	svclt	0x0032ecc0
   21fd0:	bf3310aa 	svclt	0x003310aa
   21fd4:	bf333494 	svclt	0x00333494
   21fd8:	bf33587d 	svclt	0x0033587d
   21fdc:	bf337c57 	svclt	0x00337c57
   21fe0:	bf33a030 	svclt	0x0033a030
   21fe4:	bf33c3f8 	svclt	0x0033c3f8
   21fe8:	bf33e7c0 	svclt	0x0033e7c0
   21fec:	bf340b78 	svclt	0x00340b78
   21ff0:	bf342f30 	svclt	0x00342f30
   21ff4:	bf3452e7 	svclt	0x003452e7
   21ff8:	bf34768e 	svclt	0x0034768e
   21ffc:	bf349a35 	svclt	0x00349a35
   22000:	bf34bdcb 	svclt	0x0034bdcb
   22004:	bf34e161 	svclt	0x0034e161
   22008:	bf3504f7 	svclt	0x003504f7
   2200c:	bf35287c 	svclt	0x0035287c
   22010:	bf354c01 	svclt	0x00354c01
   22014:	bf356f76 	svclt	0x00356f76
   22018:	bf3592ea 	svclt	0x003592ea
   2201c:	bf35b64e 	svclt	0x0035b64e
   22020:	bf35d9b2 	svclt	0x0035d9b2
   22024:	bf35fd15 	svclt	0x0035fd15
   22028:	bf362068 	svclt	0x00362068
   2202c:	bf3643bb 	svclt	0x003643bb
   22030:	bf3666fd 	svclt	0x003666fd
   22034:	bf368a40 	svclt	0x00368a40
   22038:	bf36ad82 	svclt	0x0036ad82
   2203c:	bf36d0b3 	svclt	0x0036d0b3
   22040:	bf36f3e4 	svclt	0x0036f3e4
   22044:	bf371705 	svclt	0x00371705
   22048:	bf373a26 	svclt	0x00373a26
   2204c:	bf375d35 	svclt	0x00375d35
   22050:	bf378045 	svclt	0x00378045
   22054:	bf37a355 	svclt	0x0037a355
   22058:	bf37c654 	svclt	0x0037c654
   2205c:	bf37e953 	svclt	0x0037e953
   22060:	bf380c41 	svclt	0x00380c41
   22064:	bf382f30 	svclt	0x00382f30
   22068:	bf38521e 	svclt	0x0038521e
   2206c:	bf3874fb 	svclt	0x003874fb
   22070:	bf3897c8 	svclt	0x003897c8
   22074:	bf38ba95 	svclt	0x0038ba95
   22078:	bf38dd61 	svclt	0x0038dd61
   2207c:	bf39002e 	svclt	0x0039002e
   22080:	bf3922d9 	svclt	0x003922d9
   22084:	bf394595 	svclt	0x00394595
   22088:	bf396840 	svclt	0x00396840
   2208c:	bf398aec 	svclt	0x00398aec
   22090:	bf39ad86 	svclt	0x0039ad86
   22094:	bf39d020 	svclt	0x0039d020
   22098:	bf39f2aa 	svclt	0x0039f2aa
   2209c:	bf3a1533 	svclt	0x003a1533
   220a0:	bf3a37bd 	svclt	0x003a37bd
   220a4:	bf3a5a36 	svclt	0x003a5a36
   220a8:	bf3a7c9e 	svclt	0x003a7c9e
   220ac:	bf3a9f17 	svclt	0x003a9f17
   220b0:	bf3ac16e 	svclt	0x003ac16e
   220b4:	bf3ae3d6 	svclt	0x003ae3d6
   220b8:	bf3b062d 	svclt	0x003b062d
   220bc:	bf3b2874 	svclt	0x003b2874
   220c0:	bf3b4aba 	svclt	0x003b4aba
   220c4:	bf3b6d01 	svclt	0x003b6d01
   220c8:	bf3b8f36 	svclt	0x003b8f36
   220cc:	bf3bb16c 	svclt	0x003bb16c
   220d0:	bf3bd391 	svclt	0x003bd391
   220d4:	bf3bf5b6 	svclt	0x003bf5b6
   220d8:	bf3c17db 	svclt	0x003c17db
   220dc:	bf3c39ef 	svclt	0x003c39ef
   220e0:	bf3c5c03 	svclt	0x003c5c03
   220e4:	bf3c7e07 	svclt	0x003c7e07
   220e8:	bf3ca00a 	svclt	0x003ca00a
   220ec:	bf3cc1fd 	svclt	0x003cc1fd
   220f0:	bf3ce3ef 	svclt	0x003ce3ef
   220f4:	bf3d05d1 	svclt	0x003d05d1
   220f8:	bf3d27b3 	svclt	0x003d27b3
   220fc:	bf3d4995 	svclt	0x003d4995
   22100:	bf3d6b66 	svclt	0x003d6b66
   22104:	bf3d8d37 	svclt	0x003d8d37
   22108:	bf3daef7 	svclt	0x003daef7
   2210c:	bf3dd0b7 	svclt	0x003dd0b7
   22110:	bf3df267 	svclt	0x003df267
   22114:	bf3e1416 	svclt	0x003e1416
   22118:	bf3e35c6 	svclt	0x003e35c6
   2211c:	bf3e5764 	svclt	0x003e5764
   22120:	bf3e7903 	svclt	0x003e7903
   22124:	bf3e9a91 	svclt	0x003e9a91
   22128:	bf3ebc1f 	svclt	0x003ebc1f
   2212c:	bf3edd9c 	svclt	0x003edd9c
   22130:	bf3eff19 	svclt	0x003eff19
   22134:	bf3f2096 	svclt	0x003f2096
   22138:	bf3f4203 	svclt	0x003f4203
   2213c:	bf3f635e 	svclt	0x003f635e
   22140:	bf3f84ba 	svclt	0x003f84ba
   22144:	bf3fa616 	svclt	0x003fa616
   22148:	bf3fc760 	svclt	0x003fc760
   2214c:	bf3fe8ab 	svclt	0x003fe8ab
   22150:	bf4009f6 	svclt	0x004009f6
   22154:	bf402b30 	svclt	0x00402b30
   22158:	bf404c59 	svclt	0x00404c59
   2215c:	bf406d83 	svclt	0x00406d83
   22160:	bf408eac 	svclt	0x00408eac
   22164:	bf40afc4 	svclt	0x0040afc4
   22168:	bf40d0dd 	svclt	0x0040d0dd
   2216c:	bf40f1e5 	svclt	0x0040f1e5
   22170:	bf4112ec 	svclt	0x004112ec
   22174:	bf4133e3 	svclt	0x004133e3
   22178:	bf4154da 	svclt	0x004154da
   2217c:	bf4175d1 	svclt	0x004175d1
   22180:	bf4196b7 	svclt	0x004196b7
   22184:	bf41b79e 	svclt	0x0041b79e
   22188:	bf41d873 	svclt	0x0041d873
   2218c:	bf41f948 	svclt	0x0041f948
   22190:	bf421a0d 	svclt	0x00421a0d
   22194:	bf423ad2 	svclt	0x00423ad2
   22198:	bf425b85 	svclt	0x00425b85
   2219c:	bf427c39 	svclt	0x00427c39
   221a0:	bf429ced 	svclt	0x00429ced
   221a4:	bf42bd90 	svclt	0x0042bd90
   221a8:	bf42de22 	svclt	0x0042de22
   221ac:	bf42fec5 	svclt	0x0042fec5
   221b0:	bf431f47 	svclt	0x00431f47
   221b4:	bf433fd9 	svclt	0x00433fd9
   221b8:	bf43604a 	svclt	0x0043604a
   221bc:	bf4380cb 	svclt	0x004380cb
   221c0:	bf43a13c 	svclt	0x0043a13c
   221c4:	bf43c19c 	svclt	0x0043c19c
   221c8:	bf43e1fc 	svclt	0x0043e1fc
   221cc:	bf44025c 	svclt	0x0044025c
   221d0:	bf4422ab 	svclt	0x004422ab
   221d4:	bf4442fa 	svclt	0x004442fa
   221d8:	bf446339 	svclt	0x00446339
   221dc:	bf448377 	svclt	0x00448377
   221e0:	bf44a3a5 	svclt	0x0044a3a5
   221e4:	bf44c3d2 	svclt	0x0044c3d2
   221e8:	bf44e3ef 	svclt	0x0044e3ef
   221ec:	bf45040c 	svclt	0x0045040c
   221f0:	bf452429 	svclt	0x00452429
   221f4:	bf454435 	svclt	0x00454435
   221f8:	bf456441 	svclt	0x00456441
   221fc:	bf45843c 	svclt	0x0045843c
   22200:	bf45a427 	svclt	0x0045a427
   22204:	bf45c422 	svclt	0x0045c422
   22208:	bf45e3fc 	svclt	0x0045e3fc
   2220c:	bf4603e6 	svclt	0x004603e6
   22210:	bf4623c0 	svclt	0x004623c0
   22214:	bf464389 	svclt	0x00464389
   22218:	bf466352 	svclt	0x00466352
   2221c:	bf46831b 	svclt	0x0046831b
   22220:	bf46a2d3 	svclt	0x0046a2d3
   22224:	bf46c27a 	svclt	0x0046c27a
   22228:	bf46e222 	svclt	0x0046e222
   2222c:	bf4701c9 	svclt	0x004701c9
   22230:	bf472160 	svclt	0x00472160
   22234:	bf4740f6 	svclt	0x004740f6
   22238:	bf47608d 	svclt	0x0047608d
   2223c:	bf478002 	svclt	0x00478002
   22240:	bf479f88 	svclt	0x00479f88
   22244:	bf47befd 	svclt	0x0047befd
   22248:	bf47de61 	svclt	0x0047de61
   2224c:	bf47fdc6 	svclt	0x0047fdc6
   22250:	bf481d2a 	svclt	0x00481d2a
   22254:	bf483c7d 	svclt	0x00483c7d
   22258:	bf485bd1 	svclt	0x00485bd1
   2225c:	bf487b14 	svclt	0x00487b14
   22260:	bf489a56 	svclt	0x00489a56
   22264:	bf48b988 	svclt	0x0048b988
   22268:	bf48d8ba 	svclt	0x0048d8ba
   2226c:	bf48f7db 	svclt	0x0048f7db
   22270:	bf4916fd 	svclt	0x004916fd
   22274:	bf49360d 	svclt	0x0049360d
   22278:	bf49551d 	svclt	0x0049551d
   2227c:	bf49742e 	svclt	0x0049742e
   22280:	bf49932d 	svclt	0x0049932d
   22284:	bf49b21c 	svclt	0x0049b21c
   22288:	bf49d10b 	svclt	0x0049d10b
   2228c:	bf49effa 	svclt	0x0049effa
   22290:	bf4a0ed8 	svclt	0x004a0ed8
   22294:	bf4a2db6 	svclt	0x004a2db6
   22298:	bf4a4c83 	svclt	0x004a4c83
   2229c:	bf4a6b51 	svclt	0x004a6b51
   222a0:	bf4a8a0d 	svclt	0x004a8a0d
   222a4:	bf4aa8ca 	svclt	0x004aa8ca
   222a8:	bf4ac786 	svclt	0x004ac786
   222ac:	bf4ae632 	svclt	0x004ae632
   222b0:	bf4b04cd 	svclt	0x004b04cd
   222b4:	bf4b2368 	svclt	0x004b2368
   222b8:	bf4b41f2 	svclt	0x004b41f2
   222bc:	bf4b608d 	svclt	0x004b608d
   222c0:	bf4b7f06 	svclt	0x004b7f06
   222c4:	bf4b9d80 	svclt	0x004b9d80
   222c8:	bf4bbbf9 	svclt	0x004bbbf9
   222cc:	bf4bda62 	svclt	0x004bda62
   222d0:	bf4bf8cb 	svclt	0x004bf8cb
   222d4:	bf4c1722 	svclt	0x004c1722
   222d8:	bf4c357a 	svclt	0x004c357a
   222dc:	bf4c53c1 	svclt	0x004c53c1
   222e0:	bf4c7208 	svclt	0x004c7208
   222e4:	bf4c903f 	svclt	0x004c903f
   222e8:	bf4cae75 	svclt	0x004cae75
   222ec:	bf4cccab 	svclt	0x004cccab
   222f0:	bf4cead1 	svclt	0x004cead1
   222f4:	bf4d08e6 	svclt	0x004d08e6
   222f8:	bf4d26fa 	svclt	0x004d26fa
   222fc:	bf4d450f 	svclt	0x004d450f
   22300:	bf4d6313 	svclt	0x004d6313
   22304:	bf4d8106 	svclt	0x004d8106
   22308:	bf4d9f0a 	svclt	0x004d9f0a
   2230c:	bf4dbced 	svclt	0x004dbced
   22310:	bf4ddacf 	svclt	0x004ddacf
   22314:	bf4df8b1 	svclt	0x004df8b1
   22318:	bf4e1683 	svclt	0x004e1683
   2231c:	bf4e3455 	svclt	0x004e3455
   22320:	bf4e5215 	svclt	0x004e5215
   22324:	bf4e6fd6 	svclt	0x004e6fd6
   22328:	bf4e8d97 	svclt	0x004e8d97
   2232c:	bf4eab36 	svclt	0x004eab36
   22330:	bf4ec8e7 	svclt	0x004ec8e7
   22334:	bf4ee686 	svclt	0x004ee686
   22338:	bf4f0414 	svclt	0x004f0414
   2233c:	bf4f21a3 	svclt	0x004f21a3
   22340:	bf4f3f31 	svclt	0x004f3f31
   22344:	bf4f5caf 	svclt	0x004f5caf
   22348:	bf4f7a1c 	svclt	0x004f7a1c
   2234c:	bf4f9789 	svclt	0x004f9789
   22350:	bf4fb4f6 	svclt	0x004fb4f6
   22354:	bf4fd252 	svclt	0x004fd252
   22358:	bf4fefae 	svclt	0x004fefae
   2235c:	bf500cfa 	svclt	0x00500cfa
   22360:	bf502a35 	svclt	0x00502a35
   22364:	bf504780 	svclt	0x00504780
   22368:	bf5064aa 	svclt	0x005064aa
   2236c:	bf5081e4 	svclt	0x005081e4
   22370:	bf509efe 	svclt	0x00509efe
   22374:	bf50bc27 	svclt	0x0050bc27
   22378:	bf50d930 	svclt	0x0050d930
   2237c:	bf50f649 	svclt	0x0050f649
   22380:	bf511351 	svclt	0x00511351
   22384:	bf513049 	svclt	0x00513049
   22388:	bf514d40 	svclt	0x00514d40
   2238c:	bf516a27 	svclt	0x00516a27
   22390:	bf51870e 	svclt	0x0051870e
   22394:	bf51a3f4 	svclt	0x0051a3f4
   22398:	bf51c0ca 	svclt	0x0051c0ca
   2239c:	bf51dd90 	svclt	0x0051dd90
   223a0:	bf51fa55 	svclt	0x0051fa55
   223a4:	bf521709 	svclt	0x00521709
   223a8:	bf5233ce 	svclt	0x005233ce
   223ac:	bf525072 	svclt	0x00525072
   223b0:	bf526d16 	svclt	0x00526d16
   223b4:	bf5289b9 	svclt	0x005289b9
   223b8:	bf52a64c 	svclt	0x0052a64c
   223bc:	bf52c2ce 	svclt	0x0052c2ce
   223c0:	bf52df61 	svclt	0x0052df61
   223c4:	bf52fbd2 	svclt	0x0052fbd2
   223c8:	bf531844 	svclt	0x00531844
   223cc:	bf5334b5 	svclt	0x005334b5
   223d0:	bf535116 	svclt	0x00535116
   223d4:	bf536d76 	svclt	0x00536d76
   223d8:	bf5389c6 	svclt	0x005389c6
   223dc:	bf53a616 	svclt	0x0053a616
   223e0:	bf53c255 	svclt	0x0053c255
   223e4:	bf53de94 	svclt	0x0053de94
   223e8:	bf53fac2 	svclt	0x0053fac2
   223ec:	bf5416f0 	svclt	0x005416f0
   223f0:	bf54330d 	svclt	0x0054330d
   223f4:	bf544f2b 	svclt	0x00544f2b
   223f8:	bf546b38 	svclt	0x00546b38
   223fc:	bf548744 	svclt	0x00548744
   22400:	bf54a340 	svclt	0x0054a340
   22404:	bf54bf3c 	svclt	0x0054bf3c
   22408:	bf54db38 	svclt	0x0054db38
   2240c:	bf54f712 	svclt	0x0054f712
   22410:	bf5512fd 	svclt	0x005512fd
   22414:	bf552ed8 	svclt	0x00552ed8
   22418:	bf554aa1 	svclt	0x00554aa1
   2241c:	bf55666b 	svclt	0x0055666b
   22420:	bf558234 	svclt	0x00558234
   22424:	bf559ddc 	svclt	0x00559ddc
   22428:	bf55b995 	svclt	0x0055b995
   2242c:	bf55d53d 	svclt	0x0055d53d
   22430:	bf55f0d4 	svclt	0x0055f0d4
   22434:	bf560c6b 	svclt	0x00560c6b
   22438:	bf562802 	svclt	0x00562802
   2243c:	bf564389 	svclt	0x00564389
   22440:	bf565eff 	svclt	0x00565eff
   22444:	bf567a74 	svclt	0x00567a74
   22448:	bf5695ea 	svclt	0x005695ea
   2244c:	bf56b14f 	svclt	0x0056b14f
   22450:	bf56cca3 	svclt	0x0056cca3
   22454:	bf56e7f7 	svclt	0x0056e7f7
   22458:	bf57034b 	svclt	0x0057034b
   2245c:	bf571e8e 	svclt	0x00571e8e
   22460:	bf5739c1 	svclt	0x005739c1
   22464:	bf5754f3 	svclt	0x005754f3
   22468:	bf577026 	svclt	0x00577026
   2246c:	bf578b48 	svclt	0x00578b48
   22470:	bf57a66a 	svclt	0x0057a66a
   22474:	bf57c17b 	svclt	0x0057c17b
   22478:	bf57dc7b 	svclt	0x0057dc7b
   2247c:	bf57f77b 	svclt	0x0057f77b
   22480:	bf58127b 	svclt	0x0058127b
   22484:	bf582d6b 	svclt	0x00582d6b
   22488:	bf58485a 	svclt	0x0058485a
   2248c:	bf586339 	svclt	0x00586339
   22490:	bf587e07 	svclt	0x00587e07
   22494:	bf5898d4 	svclt	0x005898d4
   22498:	bf58b3a2 	svclt	0x0058b3a2
   2249c:	bf58ce5f 	svclt	0x0058ce5f
   224a0:	bf58e91d 	svclt	0x0058e91d
   224a4:	bf5903c9 	svclt	0x005903c9
   224a8:	bf591e64 	svclt	0x00591e64
   224ac:	bf593900 	svclt	0x00593900
   224b0:	bf59539c 	svclt	0x0059539c
   224b4:	bf596e26 	svclt	0x00596e26
   224b8:	bf5988b1 	svclt	0x005988b1
   224bc:	bf59a32b 	svclt	0x0059a32b
   224c0:	bf59bd94 	svclt	0x0059bd94
   224c4:	bf59d80e 	svclt	0x0059d80e
   224c8:	bf59f267 	svclt	0x0059f267
   224cc:	bf5a0cbf 	svclt	0x005a0cbf
   224d0:	bf5a2718 	svclt	0x005a2718
   224d4:	bf5a415f 	svclt	0x005a415f
   224d8:	bf5a5ba7 	svclt	0x005a5ba7
   224dc:	bf5a75de 	svclt	0x005a75de
   224e0:	bf5a9004 	svclt	0x005a9004
   224e4:	bf5aaa2a 	svclt	0x005aaa2a
   224e8:	bf5ac450 	svclt	0x005ac450
   224ec:	bf5ade65 	svclt	0x005ade65
   224f0:	bf5af87b 	svclt	0x005af87b
   224f4:	bf5b127f 	svclt	0x005b127f
   224f8:	bf5b2c73 	svclt	0x005b2c73
   224fc:	bf5b4667 	svclt	0x005b4667
   22500:	bf5b605b 	svclt	0x005b605b
   22504:	bf5b7a3e 	svclt	0x005b7a3e
   22508:	bf5b9421 	svclt	0x005b9421
   2250c:	bf5badf3 	svclt	0x005badf3
   22510:	bf5bc7b4 	svclt	0x005bc7b4
   22514:	bf5be176 	svclt	0x005be176
   22518:	bf5bfb37 	svclt	0x005bfb37
   2251c:	bf5c14e8 	svclt	0x005c14e8
   22520:	bf5c2e88 	svclt	0x005c2e88
   22524:	bf5c4828 	svclt	0x005c4828
   22528:	bf5c61c8 	svclt	0x005c61c8
   2252c:	bf5c7b57 	svclt	0x005c7b57
   22530:	bf5c94d5 	svclt	0x005c94d5
   22534:	bf5cae53 	svclt	0x005cae53
   22538:	bf5cc7d2 	svclt	0x005cc7d2
   2253c:	bf5ce13f 	svclt	0x005ce13f
   22540:	bf5cfa9c 	svclt	0x005cfa9c
   22544:	bf5d13f9 	svclt	0x005d13f9
   22548:	bf5d2d56 	svclt	0x005d2d56
   2254c:	bf5d46a2 	svclt	0x005d46a2
   22550:	bf5d5fdd 	svclt	0x005d5fdd
   22554:	bf5d7918 	svclt	0x005d7918
   22558:	bf5d9253 	svclt	0x005d9253
   2255c:	bf5dab7e 	svclt	0x005dab7e
   22560:	bf5dc497 	svclt	0x005dc497
   22564:	bf5dddb1 	svclt	0x005dddb1
   22568:	bf5df6ba 	svclt	0x005df6ba
   2256c:	bf5e0fc3 	svclt	0x005e0fc3
   22570:	bf5e28bb 	svclt	0x005e28bb
   22574:	bf5e41b3 	svclt	0x005e41b3
   22578:	bf5e5aab 	svclt	0x005e5aab
   2257c:	bf5e7393 	svclt	0x005e7393
   22580:	bf5e8c69 	svclt	0x005e8c69
   22584:	bf5ea540 	svclt	0x005ea540
   22588:	bf5ebe06 	svclt	0x005ebe06
   2258c:	bf5ed6cb 	svclt	0x005ed6cb
   22590:	bf5eef80 	svclt	0x005eef80
   22594:	bf5f0835 	svclt	0x005f0835
   22598:	bf5f20da 	svclt	0x005f20da
   2259c:	bf5f397e 	svclt	0x005f397e
   225a0:	bf5f5211 	svclt	0x005f5211
   225a4:	bf5f6aa5 	svclt	0x005f6aa5
   225a8:	bf5f8327 	svclt	0x005f8327
   225ac:	bf5f9baa 	svclt	0x005f9baa
   225b0:	bf5fb41c 	svclt	0x005fb41c
   225b4:	bf5fcc8e 	svclt	0x005fcc8e
   225b8:	bf5fe4ef 	svclt	0x005fe4ef
   225bc:	bf5ffd3f 	svclt	0x005ffd3f
   225c0:	bf601590 	svclt	0x00601590
   225c4:	bf602de0 	svclt	0x00602de0
   225c8:	bf604620 	svclt	0x00604620
   225cc:	bf605e5f 	svclt	0x00605e5f
   225d0:	bf60768e 	svclt	0x0060768e
   225d4:	bf608eac 	svclt	0x00608eac
   225d8:	bf60a6ca 	svclt	0x0060a6ca
   225dc:	bf60bee8 	svclt	0x0060bee8
   225e0:	bf60d6f5 	svclt	0x0060d6f5
   225e4:	bf60eef2 	svclt	0x0060eef2
   225e8:	bf6106ee 	svclt	0x006106ee
   225ec:	bf611eeb 	svclt	0x00611eeb
   225f0:	bf6136d6 	svclt	0x006136d6
   225f4:	bf614eb1 	svclt	0x00614eb1
   225f8:	bf61668c 	svclt	0x0061668c
   225fc:	bf617e56 	svclt	0x00617e56
   22600:	bf619620 	svclt	0x00619620
   22604:	bf61adda 	svclt	0x0061adda
   22608:	bf61c593 	svclt	0x0061c593
   2260c:	bf61dd4c 	svclt	0x0061dd4c
   22610:	bf61f4e4 	svclt	0x0061f4e4
   22614:	bf620c8d 	svclt	0x00620c8d
   22618:	bf622414 	svclt	0x00622414
   2261c:	bf623bac 	svclt	0x00623bac
   22620:	bf625322 	svclt	0x00625322
   22624:	bf626a98 	svclt	0x00626a98
   22628:	bf62820e 	svclt	0x0062820e
   2262c:	bf629974 	svclt	0x00629974
   22630:	bf62b0d9 	svclt	0x0062b0d9
   22634:	bf62c82e 	svclt	0x0062c82e
   22638:	bf62df83 	svclt	0x0062df83
   2263c:	bf62f6c7 	svclt	0x0062f6c7
   22640:	bf630dfa 	svclt	0x00630dfa
   22644:	bf63252d 	svclt	0x0063252d
   22648:	bf633c60 	svclt	0x00633c60
   2264c:	bf635382 	svclt	0x00635382
   22650:	bf636a94 	svclt	0x00636a94
   22654:	bf6381a6 	svclt	0x006381a6
   22658:	bf6398a6 	svclt	0x006398a6
   2265c:	bf63afa7 	svclt	0x0063afa7
   22660:	bf63c6a8 	svclt	0x0063c6a8
   22664:	bf63dd87 	svclt	0x0063dd87
   22668:	bf63f477 	svclt	0x0063f477
   2266c:	bf640b56 	svclt	0x00640b56
   22670:	bf642225 	svclt	0x00642225
   22674:	bf6438e3 	svclt	0x006438e3
   22678:	bf644fb1 	svclt	0x00644fb1
   2267c:	bf64665e 	svclt	0x0064665e
   22680:	bf647d1c 	svclt	0x00647d1c
   22684:	bf6493b8 	svclt	0x006493b8
   22688:	bf64aa54 	svclt	0x0064aa54
   2268c:	bf64c0f0 	svclt	0x0064c0f0
   22690:	bf64d77b 	svclt	0x0064d77b
   22694:	bf64edf6 	svclt	0x0064edf6
   22698:	bf650471 	svclt	0x00650471
   2269c:	bf651aeb 	svclt	0x00651aeb
   226a0:	bf653155 	svclt	0x00653155
   226a4:	bf6547ae 	svclt	0x006547ae
   226a8:	bf655e07 	svclt	0x00655e07
   226ac:	bf657460 	svclt	0x00657460
   226b0:	bf658a98 	svclt	0x00658a98
   226b4:	bf65a0e0 	svclt	0x0065a0e0
   226b8:	bf65b717 	svclt	0x0065b717
   226bc:	bf65cd3e 	svclt	0x0065cd3e
   226c0:	bf65e365 	svclt	0x0065e365
   226c4:	bf65f97b 	svclt	0x0065f97b
   226c8:	bf660f80 	svclt	0x00660f80
   226cc:	bf662596 	svclt	0x00662596
   226d0:	bf663b8a 	svclt	0x00663b8a
   226d4:	bf66517e 	svclt	0x0066517e
   226d8:	bf666773 	svclt	0x00666773
   226dc:	bf667d56 	svclt	0x00667d56
   226e0:	bf669329 	svclt	0x00669329
   226e4:	bf66a8fc 	svclt	0x0066a8fc
   226e8:	bf66becf 	svclt	0x0066becf
   226ec:	bf66d491 	svclt	0x0066d491
   226f0:	bf66ea42 	svclt	0x0066ea42
   226f4:	bf66fff3 	svclt	0x0066fff3
   226f8:	bf671594 	svclt	0x00671594
   226fc:	bf672b34 	svclt	0x00672b34
   22700:	bf6740c4 	svclt	0x006740c4
   22704:	bf675654 	svclt	0x00675654
   22708:	bf676bd3 	svclt	0x00676bd3
   2270c:	bf678152 	svclt	0x00678152
   22710:	bf6796c0 	svclt	0x006796c0
   22714:	bf67ac2e 	svclt	0x0067ac2e
   22718:	bf67c18b 	svclt	0x0067c18b
   2271c:	bf67d6d8 	svclt	0x0067d6d8
   22720:	bf67ec25 	svclt	0x0067ec25
   22724:	bf680171 	svclt	0x00680171
   22728:	bf6816ad 	svclt	0x006816ad
   2272c:	bf682bd8 	svclt	0x00682bd8
   22730:	bf684103 	svclt	0x00684103
   22734:	bf68561d 	svclt	0x0068561d
   22738:	bf686b38 	svclt	0x00686b38
   2273c:	bf688041 	svclt	0x00688041
   22740:	bf68954a 	svclt	0x0068954a
   22744:	bf68aa43 	svclt	0x0068aa43
   22748:	bf68bf3c 	svclt	0x0068bf3c
   2274c:	bf68d424 	svclt	0x0068d424
   22750:	bf68e90c 	svclt	0x0068e90c
   22754:	bf68fde3 	svclt	0x0068fde3
   22758:	bf6912a9 	svclt	0x006912a9
   2275c:	bf692770 	svclt	0x00692770
   22760:	bf693c36 	svclt	0x00693c36
   22764:	bf6950ec 	svclt	0x006950ec
   22768:	bf696590 	svclt	0x00696590
   2276c:	bf697a35 	svclt	0x00697a35
   22770:	bf698ec9 	svclt	0x00698ec9
   22774:	bf69a35d 	svclt	0x0069a35d
   22778:	bf69b7e1 	svclt	0x0069b7e1
   2277c:	bf69cc64 	svclt	0x0069cc64
   22780:	bf69e0d6 	svclt	0x0069e0d6
   22784:	bf69f549 	svclt	0x0069f549
   22788:	bf6a09ab 	svclt	0x006a09ab
   2278c:	bf6a1dfc 	svclt	0x006a1dfc
   22790:	bf6a324d 	svclt	0x006a324d
   22794:	bf6a469d 	svclt	0x006a469d
   22798:	bf6a5ade 	svclt	0x006a5ade
   2279c:	bf6a6f0d 	svclt	0x006a6f0d
   227a0:	bf6a833c 	svclt	0x006a833c
   227a4:	bf6a975b 	svclt	0x006a975b
   227a8:	bf6aab7a 	svclt	0x006aab7a
   227ac:	bf6abf87 	svclt	0x006abf87
   227b0:	bf6ad395 	svclt	0x006ad395
   227b4:	bf6ae792 	svclt	0x006ae792
   227b8:	bf6afb8f 	svclt	0x006afb8f
   227bc:	bf6b0f7c 	svclt	0x006b0f7c
   227c0:	bf6b2357 	svclt	0x006b2357
   227c4:	bf6b3733 	svclt	0x006b3733
   227c8:	bf6b4b0e 	svclt	0x006b4b0e
   227cc:	bf6b5ed9 	svclt	0x006b5ed9
   227d0:	bf6b7293 	svclt	0x006b7293
   227d4:	bf6b864d 	svclt	0x006b864d
   227d8:	bf6b99f6 	svclt	0x006b99f6
   227dc:	bf6bad9f 	svclt	0x006bad9f
   227e0:	bf6bc137 	svclt	0x006bc137
   227e4:	bf6bd4d0 	svclt	0x006bd4d0
   227e8:	bf6be857 	svclt	0x006be857
   227ec:	bf6bfbdf 	svclt	0x006bfbdf
   227f0:	bf6c0f56 	svclt	0x006c0f56
   227f4:	bf6c22bc 	svclt	0x006c22bc
   227f8:	bf6c3622 	svclt	0x006c3622
   227fc:	bf6c4988 	svclt	0x006c4988
   22800:	bf6c5ccd 	svclt	0x006c5ccd
   22804:	bf6c7022 	svclt	0x006c7022
   22808:	bf6c8366 	svclt	0x006c8366
   2280c:	bf6c969a 	svclt	0x006c969a
   22810:	bf6ca9bd 	svclt	0x006ca9bd
   22814:	bf6cbcf1 	svclt	0x006cbcf1
   22818:	bf6cd003 	svclt	0x006cd003
   2281c:	bf6ce315 	svclt	0x006ce315
   22820:	bf6cf627 	svclt	0x006cf627
   22824:	bf6d0929 	svclt	0x006d0929
   22828:	bf6d1c19 	svclt	0x006d1c19
   2282c:	bf6d2f0a 	svclt	0x006d2f0a
   22830:	bf6d41ea 	svclt	0x006d41ea
   22834:	bf6d54ca 	svclt	0x006d54ca
   22838:	bf6d67a9 	svclt	0x006d67a9
   2283c:	bf6d7a68 	svclt	0x006d7a68
   22840:	bf6d8d26 	svclt	0x006d8d26
   22844:	bf6d9fe4 	svclt	0x006d9fe4
   22848:	bf6db292 	svclt	0x006db292
   2284c:	bf6dc53f 	svclt	0x006dc53f
   22850:	bf6dd7dc 	svclt	0x006dd7dc
   22854:	bf6dea68 	svclt	0x006dea68
   22858:	bf6dfcf4 	svclt	0x006dfcf4
   2285c:	bf6e0f6f 	svclt	0x006e0f6f
   22860:	bf6e21ea 	svclt	0x006e21ea
   22864:	bf6e3455 	svclt	0x006e3455
   22868:	bf6e46bf 	svclt	0x006e46bf
   2286c:	bf6e5919 	svclt	0x006e5919
   22870:	bf6e6b72 	svclt	0x006e6b72
   22874:	bf6e7dbb 	svclt	0x006e7dbb
   22878:	bf6e8ff3 	svclt	0x006e8ff3
   2287c:	bf6ea22b 	svclt	0x006ea22b
   22880:	bf6eb463 	svclt	0x006eb463
   22884:	bf6ec67a 	svclt	0x006ec67a
   22888:	bf6ed8a1 	svclt	0x006ed8a1
   2288c:	bf6eeab8 	svclt	0x006eeab8
   22890:	bf6efcbd 	svclt	0x006efcbd
   22894:	bf6f0eb2 	svclt	0x006f0eb2
   22898:	bf6f20b8 	svclt	0x006f20b8
   2289c:	bf6f329c 	svclt	0x006f329c
   228a0:	bf6f4480 	svclt	0x006f4480
   228a4:	bf6f5665 	svclt	0x006f5665
   228a8:	bf6f6838 	svclt	0x006f6838
   228ac:	bf6f79fb 	svclt	0x006f79fb
   228b0:	bf6f8bbd 	svclt	0x006f8bbd
   228b4:	bf6f9d6f 	svclt	0x006f9d6f
   228b8:	bf6faf21 	svclt	0x006faf21
   228bc:	bf6fc0c2 	svclt	0x006fc0c2
   228c0:	bf6fd252 	svclt	0x006fd252
   228c4:	bf6fe3f3 	svclt	0x006fe3f3
   228c8:	bf6ff573 	svclt	0x006ff573
   228cc:	bf7006f2 	svclt	0x007006f2
   228d0:	bf701861 	svclt	0x00701861
   228d4:	bf7029d0 	svclt	0x007029d0
   228d8:	bf703b3f 	svclt	0x00703b3f
   228dc:	bf704c8c 	svclt	0x00704c8c
   228e0:	bf705dd9 	svclt	0x00705dd9
   228e4:	bf706f26 	svclt	0x00706f26
   228e8:	bf708063 	svclt	0x00708063
   228ec:	bf70919f 	svclt	0x0070919f
   228f0:	bf70a2cb 	svclt	0x0070a2cb
   228f4:	bf70b3e5 	svclt	0x0070b3e5
   228f8:	bf70c500 	svclt	0x0070c500
   228fc:	bf70d60a 	svclt	0x0070d60a
   22900:	bf70e714 	svclt	0x0070e714
   22904:	bf70f80e 	svclt	0x0070f80e
   22908:	bf710907 	svclt	0x00710907
   2290c:	bf7119f0 	svclt	0x007119f0
   22910:	bf712ad8 	svclt	0x00712ad8
   22914:	bf713bb0 	svclt	0x00713bb0
   22918:	bf714c77 	svclt	0x00714c77
   2291c:	bf715d3e 	svclt	0x00715d3e
   22920:	bf716df4 	svclt	0x00716df4
   22924:	bf717eaa 	svclt	0x00717eaa
   22928:	bf718f50 	svclt	0x00718f50
   2292c:	bf719ff5 	svclt	0x00719ff5
   22930:	bf71b08a 	svclt	0x0071b08a
   22934:	bf71c11e 	svclt	0x0071c11e
   22938:	bf71d1a2 	svclt	0x0071d1a2
   2293c:	bf71e215 	svclt	0x0071e215
   22940:	bf71f288 	svclt	0x0071f288
   22944:	bf7202fb 	svclt	0x007202fb
   22948:	bf72134d 	svclt	0x0072134d
   2294c:	bf7223af 	svclt	0x007223af
   22950:	bf7233f0 	svclt	0x007233f0
   22954:	bf724431 	svclt	0x00724431
   22958:	bf725471 	svclt	0x00725471
   2295c:	bf7264a1 	svclt	0x007264a1
   22960:	bf7274c1 	svclt	0x007274c1
   22964:	bf7284e0 	svclt	0x007284e0
   22968:	bf7294ff 	svclt	0x007294ff
   2296c:	bf72a4fd 	svclt	0x0072a4fd
   22970:	bf72b50b 	svclt	0x0072b50b
   22974:	bf72c4f8 	svclt	0x0072c4f8
   22978:	bf72d4e5 	svclt	0x0072d4e5
   2297c:	bf72e4d2 	svclt	0x0072e4d2
   22980:	bf72f4ae 	svclt	0x0072f4ae
   22984:	bf730479 	svclt	0x00730479
   22988:	bf731444 	svclt	0x00731444
   2298c:	bf7323ff 	svclt	0x007323ff
   22990:	bf7333b9 	svclt	0x007333b9
   22994:	bf734363 	svclt	0x00734363
   22998:	bf73530d 	svclt	0x0073530d
   2299c:	bf7362a6 	svclt	0x007362a6
   229a0:	bf73723f 	svclt	0x0073723f
   229a4:	bf7381c7 	svclt	0x007381c7
   229a8:	bf73913f 	svclt	0x0073913f
   229ac:	bf73a0b6 	svclt	0x0073a0b6
   229b0:	bf73b01d 	svclt	0x0073b01d
   229b4:	bf73bf83 	svclt	0x0073bf83
   229b8:	bf73ced9 	svclt	0x0073ced9
   229bc:	bf73de2f 	svclt	0x0073de2f
   229c0:	bf73ed74 	svclt	0x0073ed74
   229c4:	bf73fca8 	svclt	0x0073fca8
   229c8:	bf740bdd 	svclt	0x00740bdd
   229cc:	bf741b00 	svclt	0x00741b00
   229d0:	bf742a24 	svclt	0x00742a24
   229d4:	bf743937 	svclt	0x00743937
   229d8:	bf744849 	svclt	0x00744849
   229dc:	bf74574b 	svclt	0x0074574b
   229e0:	bf74664d 	svclt	0x0074664d
   229e4:	bf74753e 	svclt	0x0074753e
   229e8:	bf74841f 	svclt	0x0074841f
   229ec:	bf7492ff 	svclt	0x007492ff
   229f0:	bf74a1cf 	svclt	0x0074a1cf
   229f4:	bf74b09f 	svclt	0x0074b09f
   229f8:	bf74bf5d 	svclt	0x0074bf5d
   229fc:	bf74ce1c 	svclt	0x0074ce1c
   22a00:	bf74dcca 	svclt	0x0074dcca
   22a04:	bf74eb68 	svclt	0x0074eb68
   22a08:	bf74fa05 	svclt	0x0074fa05
   22a0c:	bf7508a2 	svclt	0x007508a2
   22a10:	bf75172f 	svclt	0x0075172f
   22a14:	bf7525ab 	svclt	0x007525ab
   22a18:	bf753416 	svclt	0x00753416
   22a1c:	bf754291 	svclt	0x00754291
   22a20:	bf7550ec 	svclt	0x007550ec
   22a24:	bf755f46 	svclt	0x00755f46
   22a28:	bf756d8f 	svclt	0x00756d8f
   22a2c:	bf757bd9 	svclt	0x00757bd9
   22a30:	bf758a22 	svclt	0x00758a22
   22a34:	bf75984a 	svclt	0x0075984a
   22a38:	bf75a683 	svclt	0x0075a683
   22a3c:	bf75b49a 	svclt	0x0075b49a
   22a40:	bf75c2b1 	svclt	0x0075c2b1
   22a44:	bf75d0c8 	svclt	0x0075d0c8
   22a48:	bf75dece 	svclt	0x0075dece
   22a4c:	bf75ecc4 	svclt	0x0075ecc4
   22a50:	bf75fab9 	svclt	0x0075fab9
   22a54:	bf76089e 	svclt	0x0076089e
   22a58:	bf761672 	svclt	0x00761672
   22a5c:	bf762457 	svclt	0x00762457
   22a60:	bf76321a 	svclt	0x0076321a
   22a64:	bf763fdd 	svclt	0x00763fdd
   22a68:	bf764d90 	svclt	0x00764d90
   22a6c:	bf765b42 	svclt	0x00765b42
   22a70:	bf7668e4 	svclt	0x007668e4
   22a74:	bf767686 	svclt	0x00767686
   22a78:	bf768416 	svclt	0x00768416
   22a7c:	bf7691a7 	svclt	0x007691a7
   22a80:	bf769f27 	svclt	0x00769f27
   22a84:	bf76ac97 	svclt	0x0076ac97
   22a88:	bf76ba06 	svclt	0x0076ba06
   22a8c:	bf76c765 	svclt	0x0076c765
   22a90:	bf76d4c3 	svclt	0x0076d4c3
   22a94:	bf76e211 	svclt	0x0076e211
   22a98:	bf76ef5f 	svclt	0x0076ef5f
   22a9c:	bf76fc9c 	svclt	0x0076fc9c
   22aa0:	bf7709c8 	svclt	0x007709c8
   22aa4:	bf7716f4 	svclt	0x007716f4
   22aa8:	bf772410 	svclt	0x00772410
   22aac:	bf77312b 	svclt	0x0077312b
   22ab0:	bf773e36 	svclt	0x00773e36
   22ab4:	bf774b40 	svclt	0x00774b40
   22ab8:	bf77583a 	svclt	0x0077583a
   22abc:	bf776523 	svclt	0x00776523
   22ac0:	bf77720d 	svclt	0x0077720d
   22ac4:	bf777ef6 	svclt	0x00777ef6
   22ac8:	bf778bbd 	svclt	0x00778bbd
   22acc:	bf779896 	svclt	0x00779896
   22ad0:	bf77a54c 	svclt	0x0077a54c
   22ad4:	bf77b203 	svclt	0x0077b203
   22ad8:	bf77beba 	svclt	0x0077beba
   22adc:	bf77cb60 	svclt	0x0077cb60
   22ae0:	bf77d7f5 	svclt	0x0077d7f5
   22ae4:	bf77e48a 	svclt	0x0077e48a
   22ae8:	bf77f10f 	svclt	0x0077f10f
   22aec:	bf77fd93 	svclt	0x0077fd93
   22af0:	bf780a07 	svclt	0x00780a07
   22af4:	bf78166a 	svclt	0x0078166a
   22af8:	bf7822cd 	svclt	0x007822cd
   22afc:	bf782f30 	svclt	0x00782f30
   22b00:	bf783b71 	svclt	0x00783b71
   22b04:	bf7847c3 	svclt	0x007847c3
   22b08:	bf7853f4 	svclt	0x007853f4
   22b0c:	bf786024 	svclt	0x00786024
   22b10:	bf786c55 	svclt	0x00786c55
   22b14:	bf787875 	svclt	0x00787875
   22b18:	bf788484 	svclt	0x00788484
   22b1c:	bf789093 	svclt	0x00789093
   22b20:	bf789c91 	svclt	0x00789c91
   22b24:	bf78a88f 	svclt	0x0078a88f
   22b28:	bf78b47c 	svclt	0x0078b47c
   22b2c:	bf78c059 	svclt	0x0078c059
   22b30:	bf78cc36 	svclt	0x0078cc36
   22b34:	bf78d812 	svclt	0x0078d812
   22b38:	bf78e3ce 	svclt	0x0078e3ce
   22b3c:	bf78ef9a 	svclt	0x0078ef9a
   22b40:	bf78fb44 	svclt	0x0078fb44
   22b44:	bf7906ee 	svclt	0x007906ee
   22b48:	bf791299 	svclt	0x00791299
   22b4c:	bf791e32 	svclt	0x00791e32
   22b50:	bf7929bb 	svclt	0x007929bb
   22b54:	bf793544 	svclt	0x00793544
   22b58:	bf7940bc 	svclt	0x007940bc
   22b5c:	bf794c34 	svclt	0x00794c34
   22b60:	bf79579b 	svclt	0x0079579b
   22b64:	bf7962f1 	svclt	0x007962f1
   22b68:	bf796e48 	svclt	0x00796e48
   22b6c:	bf79799e 	svclt	0x0079799e
   22b70:	bf7984e4 	svclt	0x007984e4
   22b74:	bf799019 	svclt	0x00799019
   22b78:	bf799b3d 	svclt	0x00799b3d
   22b7c:	bf79a661 	svclt	0x0079a661
   22b80:	bf79b185 	svclt	0x0079b185
   22b84:	bf79bc99 	svclt	0x0079bc99
   22b88:	bf79c79b 	svclt	0x0079c79b
   22b8c:	bf79d29e 	svclt	0x0079d29e
   22b90:	bf79dd90 	svclt	0x0079dd90
   22b94:	bf79e881 	svclt	0x0079e881
   22b98:	bf79f362 	svclt	0x0079f362
   22b9c:	bf79fe33 	svclt	0x0079fe33
   22ba0:	bf7a0903 	svclt	0x007a0903
   22ba4:	bf7a13c2 	svclt	0x007a13c2
   22ba8:	bf7a1e82 	svclt	0x007a1e82
   22bac:	bf7a2930 	svclt	0x007a2930
   22bb0:	bf7a33df 	svclt	0x007a33df
   22bb4:	bf7a3e7d 	svclt	0x007a3e7d
   22bb8:	bf7a490a 	svclt	0x007a490a
   22bbc:	bf7a5397 	svclt	0x007a5397
   22bc0:	bf7a5e24 	svclt	0x007a5e24
   22bc4:	bf7a6890 	svclt	0x007a6890
   22bc8:	bf7a72fc 	svclt	0x007a72fc
   22bcc:	bf7a7d67 	svclt	0x007a7d67
   22bd0:	bf7a87c2 	svclt	0x007a87c2
   22bd4:	bf7a920c 	svclt	0x007a920c
   22bd8:	bf7a9c56 	svclt	0x007a9c56
   22bdc:	bf7aa68f 	svclt	0x007aa68f
   22be0:	bf7ab0c9 	svclt	0x007ab0c9
   22be4:	bf7abaf1 	svclt	0x007abaf1
   22be8:	bf7ac519 	svclt	0x007ac519
   22bec:	bf7acf31 	svclt	0x007acf31
   22bf0:	bf7ad938 	svclt	0x007ad938
   22bf4:	bf7ae33f 	svclt	0x007ae33f
   22bf8:	bf7aed35 	svclt	0x007aed35
   22bfc:	bf7af72b 	svclt	0x007af72b
   22c00:	bf7b0111 	svclt	0x007b0111
   22c04:	bf7b0ae5 	svclt	0x007b0ae5
   22c08:	bf7b14ba 	svclt	0x007b14ba
   22c0c:	bf7b1e8e 	svclt	0x007b1e8e
   22c10:	bf7b2841 	svclt	0x007b2841
   22c14:	bf7b3205 	svclt	0x007b3205
   22c18:	bf7b3ba7 	svclt	0x007b3ba7
   22c1c:	bf7b454a 	svclt	0x007b454a
   22c20:	bf7b4eec 	svclt	0x007b4eec
   22c24:	bf7b587d 	svclt	0x007b587d
   22c28:	bf7b61fe 	svclt	0x007b61fe
   22c2c:	bf7b6b7f 	svclt	0x007b6b7f
   22c30:	bf7b74ef 	svclt	0x007b74ef
   22c34:	bf7b7e4e 	svclt	0x007b7e4e
   22c38:	bf7b87ad 	svclt	0x007b87ad
   22c3c:	bf7b910c 	svclt	0x007b910c
   22c40:	bf7b9a5b 	svclt	0x007b9a5b
   22c44:	bf7ba398 	svclt	0x007ba398
   22c48:	bf7bacc5 	svclt	0x007bacc5
   22c4c:	bf7bb603 	svclt	0x007bb603
   22c50:	bf7bbf1f 	svclt	0x007bbf1f
   22c54:	bf7bc83b 	svclt	0x007bc83b
   22c58:	bf7bd146 	svclt	0x007bd146
   22c5c:	bf7bda51 	svclt	0x007bda51
   22c60:	bf7be34c 	svclt	0x007be34c
   22c64:	bf7bec46 	svclt	0x007bec46
   22c68:	bf7bf530 	svclt	0x007bf530
   22c6c:	bf7bfe19 	svclt	0x007bfe19
   22c70:	bf7c06e2 	svclt	0x007c06e2
   22c74:	bf7c0fbb 	svclt	0x007c0fbb
   22c78:	bf7c1883 	svclt	0x007c1883
   22c7c:	bf7c213a 	svclt	0x007c213a
   22c80:	bf7c29e1 	svclt	0x007c29e1
   22c84:	bf7c3287 	svclt	0x007c3287
   22c88:	bf7c3b2e 	svclt	0x007c3b2e
   22c8c:	bf7c43b3 	svclt	0x007c43b3
   22c90:	bf7c4c49 	svclt	0x007c4c49
   22c94:	bf7c54bd 	svclt	0x007c54bd
   22c98:	bf7c5d42 	svclt	0x007c5d42
   22c9c:	bf7c65a5 	svclt	0x007c65a5
   22ca0:	bf7c6e09 	svclt	0x007c6e09
   22ca4:	bf7c765c 	svclt	0x007c765c
   22ca8:	bf7c7eae 	svclt	0x007c7eae
   22cac:	bf7c86f0 	svclt	0x007c86f0
   22cb0:	bf7c8f32 	svclt	0x007c8f32
   22cb4:	bf7c9763 	svclt	0x007c9763
   22cb8:	bf7c9f84 	svclt	0x007c9f84
   22cbc:	bf7ca7a4 	svclt	0x007ca7a4
   22cc0:	bf7cafc4 	svclt	0x007cafc4
   22cc4:	bf7cb7c3 	svclt	0x007cb7c3
   22cc8:	bf7cbfc2 	svclt	0x007cbfc2
   22ccc:	bf7cc7c1 	svclt	0x007cc7c1
   22cd0:	bf7ccfaf 	svclt	0x007ccfaf
   22cd4:	bf7cd78c 	svclt	0x007cd78c
   22cd8:	bf7cdf6a 	svclt	0x007cdf6a
   22cdc:	bf7ce736 	svclt	0x007ce736
   22ce0:	bf7cef03 	svclt	0x007cef03
   22ce4:	bf7cf6be 	svclt	0x007cf6be
   22ce8:	bf7cfe7a 	svclt	0x007cfe7a
   22cec:	bf7d0614 	svclt	0x007d0614
   22cf0:	bf7d0dbf 	svclt	0x007d0dbf
   22cf4:	bf7d1559 	svclt	0x007d1559
   22cf8:	bf7d1ce3 	svclt	0x007d1ce3
   22cfc:	bf7d245b 	svclt	0x007d245b
   22d00:	bf7d2bd4 	svclt	0x007d2bd4
   22d04:	bf7d334c 	svclt	0x007d334c
   22d08:	bf7d3ab4 	svclt	0x007d3ab4
   22d0c:	bf7d420b 	svclt	0x007d420b
   22d10:	bf7d4952 	svclt	0x007d4952
   22d14:	bf7d50a9 	svclt	0x007d50a9
   22d18:	bf7d57de 	svclt	0x007d57de
   22d1c:	bf7d5f14 	svclt	0x007d5f14
   22d20:	bf7d6638 	svclt	0x007d6638
   22d24:	bf7d6d5d 	svclt	0x007d6d5d
   22d28:	bf7d7471 	svclt	0x007d7471
   22d2c:	bf7d7b85 	svclt	0x007d7b85
   22d30:	bf7d8288 	svclt	0x007d8288
   22d34:	bf7d897a 	svclt	0x007d897a
   22d38:	bf7d906d 	svclt	0x007d906d
   22d3c:	bf7d974e 	svclt	0x007d974e
   22d40:	bf7d9e30 	svclt	0x007d9e30
   22d44:	bf7da501 	svclt	0x007da501
   22d48:	bf7dabd2 	svclt	0x007dabd2
   22d4c:	bf7db292 	svclt	0x007db292
   22d50:	bf7db941 	svclt	0x007db941
   22d54:	bf7dbff0 	svclt	0x007dbff0
   22d58:	bf7dc68f 	svclt	0x007dc68f
   22d5c:	bf7dcd1c 	svclt	0x007dcd1c
   22d60:	bf7dd3aa 	svclt	0x007dd3aa
   22d64:	bf7dda38 	svclt	0x007dda38
   22d68:	bf7de0b5 	svclt	0x007de0b5
   22d6c:	bf7de721 	svclt	0x007de721
   22d70:	bf7ded8d 	svclt	0x007ded8d
   22d74:	bf7df3e9 	svclt	0x007df3e9
   22d78:	bf7dfa33 	svclt	0x007dfa33
   22d7c:	bf7e007e 	svclt	0x007e007e
   22d80:	bf7e06c8 	svclt	0x007e06c8
   22d84:	bf7e0cf2 	svclt	0x007e0cf2
   22d88:	bf7e132b 	svclt	0x007e132b
   22d8c:	bf7e1944 	svclt	0x007e1944
   22d90:	bf7e1f5c 	svclt	0x007e1f5c
   22d94:	bf7e2574 	svclt	0x007e2574
   22d98:	bf7e2b6b 	svclt	0x007e2b6b
   22d9c:	bf7e3172 	svclt	0x007e3172
   22da0:	bf7e3758 	svclt	0x007e3758
   22da4:	bf7e3d3e 	svclt	0x007e3d3e
   22da8:	bf7e4324 	svclt	0x007e4324
   22dac:	bf7e48f9 	svclt	0x007e48f9
   22db0:	bf7e4ebe 	svclt	0x007e4ebe
   22db4:	bf7e5482 	svclt	0x007e5482
   22db8:	bf7e5a36 	svclt	0x007e5a36
   22dbc:	bf7e5fe9 	svclt	0x007e5fe9
   22dc0:	bf7e658c 	svclt	0x007e658c
   22dc4:	bf7e6b1e 	svclt	0x007e6b1e
   22dc8:	bf7e70b0 	svclt	0x007e70b0
   22dcc:	bf7e7632 	svclt	0x007e7632
   22dd0:	bf7e7bb3 	svclt	0x007e7bb3
   22dd4:	bf7e8124 	svclt	0x007e8124
   22dd8:	bf7e8683 	svclt	0x007e8683
   22ddc:	bf7e8be3 	svclt	0x007e8be3
   22de0:	bf7e9143 	svclt	0x007e9143
   22de4:	bf7e9681 	svclt	0x007e9681
   22de8:	bf7e9bd0 	svclt	0x007e9bd0
   22dec:	bf7ea0fd 	svclt	0x007ea0fd
   22df0:	bf7ea62b 	svclt	0x007ea62b
   22df4:	bf7eab58 	svclt	0x007eab58
   22df8:	bf7eb064 	svclt	0x007eb064
   22dfc:	bf7eb580 	svclt	0x007eb580
   22e00:	bf7eba7c 	svclt	0x007eba7c
   22e04:	bf7ebf77 	svclt	0x007ebf77
   22e08:	bf7ec472 	svclt	0x007ec472
   22e0c:	bf7ec95c 	svclt	0x007ec95c
   22e10:	bf7ece36 	svclt	0x007ece36
   22e14:	bf7ed30f 	svclt	0x007ed30f
   22e18:	bf7ed7d8 	svclt	0x007ed7d8
   22e1c:	bf7edc90 	svclt	0x007edc90
   22e20:	bf7ee148 	svclt	0x007ee148
   22e24:	bf7ee600 	svclt	0x007ee600
   22e28:	bf7eea96 	svclt	0x007eea96
   22e2c:	bf7eef3d 	svclt	0x007eef3d
   22e30:	bf7ef3c3 	svclt	0x007ef3c3
   22e34:	bf7ef848 	svclt	0x007ef848
   22e38:	bf7efcce 	svclt	0x007efcce
   22e3c:	bf7f0143 	svclt	0x007f0143
   22e40:	bf7f05a7 	svclt	0x007f05a7
   22e44:	bf7f0a0b 	svclt	0x007f0a0b
   22e48:	bf7f0e5e 	svclt	0x007f0e5e
   22e4c:	bf7f12a1 	svclt	0x007f12a1
   22e50:	bf7f16e3 	svclt	0x007f16e3
   22e54:	bf7f1b15 	svclt	0x007f1b15
   22e58:	bf7f1f47 	svclt	0x007f1f47
   22e5c:	bf7f2368 	svclt	0x007f2368
   22e60:	bf7f2789 	svclt	0x007f2789
   22e64:	bf7f2b99 	svclt	0x007f2b99
   22e68:	bf7f2f98 	svclt	0x007f2f98
   22e6c:	bf7f3398 	svclt	0x007f3398
   22e70:	bf7f3786 	svclt	0x007f3786
   22e74:	bf7f3b75 	svclt	0x007f3b75
   22e78:	bf7f3f53 	svclt	0x007f3f53
   22e7c:	bf7f4331 	svclt	0x007f4331
   22e80:	bf7f46ed 	svclt	0x007f46ed
   22e84:	bf7f4aba 	svclt	0x007f4aba
   22e88:	bf7f4e66 	svclt	0x007f4e66
   22e8c:	bf7f5222 	svclt	0x007f5222
   22e90:	bf7f55bd 	svclt	0x007f55bd
   22e94:	bf7f5958 	svclt	0x007f5958
   22e98:	bf7f5ce2 	svclt	0x007f5ce2
   22e9c:	bf7f606b 	svclt	0x007f606b
   22ea0:	bf7f63e5 	svclt	0x007f63e5
   22ea4:	bf7f675e 	svclt	0x007f675e
   22ea8:	bf7f6ac6 	svclt	0x007f6ac6
   22eac:	bf7f6e2f 	svclt	0x007f6e2f
   22eb0:	bf7f7176 	svclt	0x007f7176
   22eb4:	bf7f74cd 	svclt	0x007f74cd
   22eb8:	bf7f7803 	svclt	0x007f7803
   22ebc:	bf7f7b39 	svclt	0x007f7b39
   22ec0:	bf7f7e6f 	svclt	0x007f7e6f
   22ec4:	bf7f8195 	svclt	0x007f8195
   22ec8:	bf7f84a9 	svclt	0x007f84a9
   22ecc:	bf7f87be 	svclt	0x007f87be
   22ed0:	bf7f8ac2 	svclt	0x007f8ac2
   22ed4:	bf7f8dc5 	svclt	0x007f8dc5
   22ed8:	bf7f90b8 	svclt	0x007f90b8
   22edc:	bf7f939a 	svclt	0x007f939a
   22ee0:	bf7f967d 	svclt	0x007f967d
   22ee4:	bf7f994e 	svclt	0x007f994e
   22ee8:	bf7f9c20 	svclt	0x007f9c20
   22eec:	bf7f9ee0 	svclt	0x007f9ee0
   22ef0:	bf7fa190 	svclt	0x007fa190
   22ef4:	bf7fa440 	svclt	0x007fa440
   22ef8:	bf7fa6df 	svclt	0x007fa6df
   22efc:	bf7fa97e 	svclt	0x007fa97e
   22f00:	bf7fac0c 	svclt	0x007fac0c
   22f04:	bf7fae9b 	svclt	0x007fae9b
   22f08:	bf7fb107 	svclt	0x007fb107
   22f0c:	bf7fb385 	svclt	0x007fb385
   22f10:	bf7fb5f2 	svclt	0x007fb5f2
   22f14:	bf7fb84e 	svclt	0x007fb84e
   22f18:	bf7fba99 	svclt	0x007fba99
   22f1c:	bf7fbce4 	svclt	0x007fbce4
   22f20:	bf7fbf2f 	svclt	0x007fbf2f
   22f24:	bf7fc16a 	svclt	0x007fc16a
   22f28:	bf7fc393 	svclt	0x007fc393
   22f2c:	bf7fc5ac 	svclt	0x007fc5ac
   22f30:	bf7fc7c5 	svclt	0x007fc7c5
   22f34:	bf7fc9de 	svclt	0x007fc9de
   22f38:	bf7fcbe6 	svclt	0x007fcbe6
   22f3c:	bf7fcddd 	svclt	0x007fcddd
   22f40:	bf7fcfd5 	svclt	0x007fcfd5
   22f44:	bf7fd1bb 	svclt	0x007fd1bb
   22f48:	bf7fd391 	svclt	0x007fd391
   22f4c:	bf7fd567 	svclt	0x007fd567
   22f50:	bf7fd73d 	svclt	0x007fd73d
   22f54:	bf7fd8f1 	svclt	0x007fd8f1
   22f58:	bf7fdab6 	svclt	0x007fdab6
   22f5c:	bf7fdc59 	svclt	0x007fdc59
   22f60:	bf7fddfd 	svclt	0x007fddfd
   22f64:	bf7fdfa0 	svclt	0x007fdfa0
   22f68:	bf7fe122 	svclt	0x007fe122
   22f6c:	bf7fe2b5 	svclt	0x007fe2b5
   22f70:	bf7fe426 	svclt	0x007fe426
   22f74:	bf7fe597 	svclt	0x007fe597
   22f78:	bf7fe708 	svclt	0x007fe708
   22f7c:	bf7fe868 	svclt	0x007fe868
   22f80:	bf7fe9b8 	svclt	0x007fe9b8
   22f84:	bf7feb07 	svclt	0x007feb07
   22f88:	bf7fec46 	svclt	0x007fec46
   22f8c:	bf7fed74 	svclt	0x007fed74
   22f90:	bf7feea2 	svclt	0x007feea2
   22f94:	bf7fefd0 	svclt	0x007fefd0
   22f98:	bf7ff0dc 	svclt	0x007ff0dc
   22f9c:	bf7ff1fa 	svclt	0x007ff1fa
   22fa0:	bf7ff2f5 	svclt	0x007ff2f5
   22fa4:	bf7ff3f1 	svclt	0x007ff3f1
   22fa8:	bf7ff4ed 	svclt	0x007ff4ed
   22fac:	bf7ff5c7 	svclt	0x007ff5c7
   22fb0:	bf7ff6b2 	svclt	0x007ff6b2
   22fb4:	bf7ff77b 	svclt	0x007ff77b
   22fb8:	bf7ff844 	svclt	0x007ff844
   22fbc:	bf7ff90e 	svclt	0x007ff90e
   22fc0:	bf7ff9c6 	svclt	0x007ff9c6
   22fc4:	bf7ffa6e 	svclt	0x007ffa6e
   22fc8:	bf7ffb16 	svclt	0x007ffb16
   22fcc:	bf7ffbad 	svclt	0x007ffbad
   22fd0:	bf7ffc33 	svclt	0x007ffc33
   22fd4:	bf7ffcb9 	svclt	0x007ffcb9
   22fd8:	bf7ffd3f 	svclt	0x007ffd3f
   22fdc:	bf7ffda4 	svclt	0x007ffda4
   22fe0:	bf7ffe19 	svclt	0x007ffe19
   22fe4:	bf7ffe6d 	svclt	0x007ffe6d
   22fe8:	bf7ffec1 	svclt	0x007ffec1
   22fec:	bf7fff15 	svclt	0x007fff15
   22ff0:	bf7fff47 	svclt	0x007fff47
   22ff4:	bf7fff8b 	svclt	0x007fff8b
   22ff8:	bf7fffac 	svclt	0x007fffac
   22ffc:	bf7fffce 	svclt	0x007fffce
   23000:	bf7fffef 	svclt	0x007fffef
   23004:	bf800000 	svclt	0x00800000
   23008:	bf800000 	svclt	0x00800000
   2300c:	bf800000 	svclt	0x00800000
   23010:	bf7fffef 	svclt	0x007fffef
   23014:	bf7fffce 	svclt	0x007fffce
   23018:	bf7fffac 	svclt	0x007fffac
   2301c:	bf7fff8b 	svclt	0x007fff8b
   23020:	bf7fff47 	svclt	0x007fff47
   23024:	bf7fff15 	svclt	0x007fff15
   23028:	bf7ffec1 	svclt	0x007ffec1
   2302c:	bf7ffe6d 	svclt	0x007ffe6d
   23030:	bf7ffe19 	svclt	0x007ffe19
   23034:	bf7ffda4 	svclt	0x007ffda4
   23038:	bf7ffd3f 	svclt	0x007ffd3f
   2303c:	bf7ffcb9 	svclt	0x007ffcb9
   23040:	bf7ffc33 	svclt	0x007ffc33
   23044:	bf7ffbad 	svclt	0x007ffbad
   23048:	bf7ffb16 	svclt	0x007ffb16
   2304c:	bf7ffa6e 	svclt	0x007ffa6e
   23050:	bf7ff9c6 	svclt	0x007ff9c6
   23054:	bf7ff90e 	svclt	0x007ff90e
   23058:	bf7ff844 	svclt	0x007ff844
   2305c:	bf7ff77b 	svclt	0x007ff77b
   23060:	bf7ff6b2 	svclt	0x007ff6b2
   23064:	bf7ff5c7 	svclt	0x007ff5c7
   23068:	bf7ff4ed 	svclt	0x007ff4ed
   2306c:	bf7ff3f1 	svclt	0x007ff3f1
   23070:	bf7ff2f5 	svclt	0x007ff2f5
   23074:	bf7ff1fa 	svclt	0x007ff1fa
   23078:	bf7ff0dc 	svclt	0x007ff0dc
   2307c:	bf7fefd0 	svclt	0x007fefd0
   23080:	bf7feea2 	svclt	0x007feea2
   23084:	bf7fed74 	svclt	0x007fed74
   23088:	bf7fec46 	svclt	0x007fec46
   2308c:	bf7feb07 	svclt	0x007feb07
   23090:	bf7fe9b8 	svclt	0x007fe9b8
   23094:	bf7fe868 	svclt	0x007fe868
   23098:	bf7fe708 	svclt	0x007fe708
   2309c:	bf7fe597 	svclt	0x007fe597
   230a0:	bf7fe426 	svclt	0x007fe426
   230a4:	bf7fe2b5 	svclt	0x007fe2b5
   230a8:	bf7fe122 	svclt	0x007fe122
   230ac:	bf7fdfa0 	svclt	0x007fdfa0
   230b0:	bf7fddfd 	svclt	0x007fddfd
   230b4:	bf7fdc59 	svclt	0x007fdc59
   230b8:	bf7fdab6 	svclt	0x007fdab6
   230bc:	bf7fd8f1 	svclt	0x007fd8f1
   230c0:	bf7fd73d 	svclt	0x007fd73d
   230c4:	bf7fd567 	svclt	0x007fd567
   230c8:	bf7fd391 	svclt	0x007fd391
   230cc:	bf7fd1bb 	svclt	0x007fd1bb
   230d0:	bf7fcfd5 	svclt	0x007fcfd5
   230d4:	bf7fcddd 	svclt	0x007fcddd
   230d8:	bf7fcbe6 	svclt	0x007fcbe6
   230dc:	bf7fc9de 	svclt	0x007fc9de
   230e0:	bf7fc7c5 	svclt	0x007fc7c5
   230e4:	bf7fc5ac 	svclt	0x007fc5ac
   230e8:	bf7fc393 	svclt	0x007fc393
   230ec:	bf7fc16a 	svclt	0x007fc16a
   230f0:	bf7fbf2f 	svclt	0x007fbf2f
   230f4:	bf7fbce4 	svclt	0x007fbce4
   230f8:	bf7fba99 	svclt	0x007fba99
   230fc:	bf7fb84e 	svclt	0x007fb84e
   23100:	bf7fb5f2 	svclt	0x007fb5f2
   23104:	bf7fb385 	svclt	0x007fb385
   23108:	bf7fb107 	svclt	0x007fb107
   2310c:	bf7fae9b 	svclt	0x007fae9b
   23110:	bf7fac0c 	svclt	0x007fac0c
   23114:	bf7fa97e 	svclt	0x007fa97e
   23118:	bf7fa6df 	svclt	0x007fa6df
   2311c:	bf7fa440 	svclt	0x007fa440
   23120:	bf7fa190 	svclt	0x007fa190
   23124:	bf7f9ee0 	svclt	0x007f9ee0
   23128:	bf7f9c20 	svclt	0x007f9c20
   2312c:	bf7f994e 	svclt	0x007f994e
   23130:	bf7f967d 	svclt	0x007f967d
   23134:	bf7f939a 	svclt	0x007f939a
   23138:	bf7f90b8 	svclt	0x007f90b8
   2313c:	bf7f8dc5 	svclt	0x007f8dc5
   23140:	bf7f8ac2 	svclt	0x007f8ac2
   23144:	bf7f87be 	svclt	0x007f87be
   23148:	bf7f84a9 	svclt	0x007f84a9
   2314c:	bf7f8195 	svclt	0x007f8195
   23150:	bf7f7e6f 	svclt	0x007f7e6f
   23154:	bf7f7b39 	svclt	0x007f7b39
   23158:	bf7f7803 	svclt	0x007f7803
   2315c:	bf7f74cd 	svclt	0x007f74cd
   23160:	bf7f7176 	svclt	0x007f7176
   23164:	bf7f6e2f 	svclt	0x007f6e2f
   23168:	bf7f6ac6 	svclt	0x007f6ac6
   2316c:	bf7f675e 	svclt	0x007f675e
   23170:	bf7f63e5 	svclt	0x007f63e5
   23174:	bf7f606b 	svclt	0x007f606b
   23178:	bf7f5ce2 	svclt	0x007f5ce2
   2317c:	bf7f5958 	svclt	0x007f5958
   23180:	bf7f55bd 	svclt	0x007f55bd
   23184:	bf7f5222 	svclt	0x007f5222
   23188:	bf7f4e66 	svclt	0x007f4e66
   2318c:	bf7f4aba 	svclt	0x007f4aba
   23190:	bf7f46ed 	svclt	0x007f46ed
   23194:	bf7f4331 	svclt	0x007f4331
   23198:	bf7f3f53 	svclt	0x007f3f53
   2319c:	bf7f3b75 	svclt	0x007f3b75
   231a0:	bf7f3786 	svclt	0x007f3786
   231a4:	bf7f3398 	svclt	0x007f3398
   231a8:	bf7f2f98 	svclt	0x007f2f98
   231ac:	bf7f2b99 	svclt	0x007f2b99
   231b0:	bf7f2789 	svclt	0x007f2789
   231b4:	bf7f2368 	svclt	0x007f2368
   231b8:	bf7f1f47 	svclt	0x007f1f47
   231bc:	bf7f1b15 	svclt	0x007f1b15
   231c0:	bf7f16e3 	svclt	0x007f16e3
   231c4:	bf7f12a1 	svclt	0x007f12a1
   231c8:	bf7f0e5e 	svclt	0x007f0e5e
   231cc:	bf7f0a0b 	svclt	0x007f0a0b
   231d0:	bf7f05a7 	svclt	0x007f05a7
   231d4:	bf7f0143 	svclt	0x007f0143
   231d8:	bf7efcce 	svclt	0x007efcce
   231dc:	bf7ef848 	svclt	0x007ef848
   231e0:	bf7ef3c3 	svclt	0x007ef3c3
   231e4:	bf7eef3d 	svclt	0x007eef3d
   231e8:	bf7eea96 	svclt	0x007eea96
   231ec:	bf7ee600 	svclt	0x007ee600
   231f0:	bf7ee148 	svclt	0x007ee148
   231f4:	bf7edc90 	svclt	0x007edc90
   231f8:	bf7ed7d8 	svclt	0x007ed7d8
   231fc:	bf7ed30f 	svclt	0x007ed30f
   23200:	bf7ece36 	svclt	0x007ece36
   23204:	bf7ec95c 	svclt	0x007ec95c
   23208:	bf7ec472 	svclt	0x007ec472
   2320c:	bf7ebf77 	svclt	0x007ebf77
   23210:	bf7eba7c 	svclt	0x007eba7c
   23214:	bf7eb580 	svclt	0x007eb580
   23218:	bf7eb064 	svclt	0x007eb064
   2321c:	bf7eab58 	svclt	0x007eab58
   23220:	bf7ea62b 	svclt	0x007ea62b
   23224:	bf7ea0fd 	svclt	0x007ea0fd
   23228:	bf7e9bd0 	svclt	0x007e9bd0
   2322c:	bf7e9681 	svclt	0x007e9681
   23230:	bf7e9143 	svclt	0x007e9143
   23234:	bf7e8be3 	svclt	0x007e8be3
   23238:	bf7e8683 	svclt	0x007e8683
   2323c:	bf7e8124 	svclt	0x007e8124
   23240:	bf7e7bb3 	svclt	0x007e7bb3
   23244:	bf7e7632 	svclt	0x007e7632
   23248:	bf7e70b0 	svclt	0x007e70b0
   2324c:	bf7e6b1e 	svclt	0x007e6b1e
   23250:	bf7e658c 	svclt	0x007e658c
   23254:	bf7e5fe9 	svclt	0x007e5fe9
   23258:	bf7e5a36 	svclt	0x007e5a36
   2325c:	bf7e5482 	svclt	0x007e5482
   23260:	bf7e4ebe 	svclt	0x007e4ebe
   23264:	bf7e48f9 	svclt	0x007e48f9
   23268:	bf7e4324 	svclt	0x007e4324
   2326c:	bf7e3d3e 	svclt	0x007e3d3e
   23270:	bf7e3758 	svclt	0x007e3758
   23274:	bf7e3172 	svclt	0x007e3172
   23278:	bf7e2b6b 	svclt	0x007e2b6b
   2327c:	bf7e2574 	svclt	0x007e2574
   23280:	bf7e1f5c 	svclt	0x007e1f5c
   23284:	bf7e1944 	svclt	0x007e1944
   23288:	bf7e132b 	svclt	0x007e132b
   2328c:	bf7e0cf2 	svclt	0x007e0cf2
   23290:	bf7e06c8 	svclt	0x007e06c8
   23294:	bf7e007e 	svclt	0x007e007e
   23298:	bf7dfa33 	svclt	0x007dfa33
   2329c:	bf7df3e9 	svclt	0x007df3e9
   232a0:	bf7ded8d 	svclt	0x007ded8d
   232a4:	bf7de721 	svclt	0x007de721
   232a8:	bf7de0b5 	svclt	0x007de0b5
   232ac:	bf7dda38 	svclt	0x007dda38
   232b0:	bf7dd3aa 	svclt	0x007dd3aa
   232b4:	bf7dcd1c 	svclt	0x007dcd1c
   232b8:	bf7dc68f 	svclt	0x007dc68f
   232bc:	bf7dbff0 	svclt	0x007dbff0
   232c0:	bf7db941 	svclt	0x007db941
   232c4:	bf7db292 	svclt	0x007db292
   232c8:	bf7dabd2 	svclt	0x007dabd2
   232cc:	bf7da501 	svclt	0x007da501
   232d0:	bf7d9e30 	svclt	0x007d9e30
   232d4:	bf7d974e 	svclt	0x007d974e
   232d8:	bf7d906d 	svclt	0x007d906d
   232dc:	bf7d897a 	svclt	0x007d897a
   232e0:	bf7d8288 	svclt	0x007d8288
   232e4:	bf7d7b85 	svclt	0x007d7b85
   232e8:	bf7d7471 	svclt	0x007d7471
   232ec:	bf7d6d5d 	svclt	0x007d6d5d
   232f0:	bf7d6638 	svclt	0x007d6638
   232f4:	bf7d5f14 	svclt	0x007d5f14
   232f8:	bf7d57de 	svclt	0x007d57de
   232fc:	bf7d50a9 	svclt	0x007d50a9
   23300:	bf7d4952 	svclt	0x007d4952
   23304:	bf7d420b 	svclt	0x007d420b
   23308:	bf7d3ab4 	svclt	0x007d3ab4
   2330c:	bf7d334c 	svclt	0x007d334c
   23310:	bf7d2bd4 	svclt	0x007d2bd4
   23314:	bf7d245b 	svclt	0x007d245b
   23318:	bf7d1ce3 	svclt	0x007d1ce3
   2331c:	bf7d1559 	svclt	0x007d1559
   23320:	bf7d0dbf 	svclt	0x007d0dbf
   23324:	bf7d0614 	svclt	0x007d0614
   23328:	bf7cfe7a 	svclt	0x007cfe7a
   2332c:	bf7cf6be 	svclt	0x007cf6be
   23330:	bf7cef03 	svclt	0x007cef03
   23334:	bf7ce736 	svclt	0x007ce736
   23338:	bf7cdf6a 	svclt	0x007cdf6a
   2333c:	bf7cd78c 	svclt	0x007cd78c
   23340:	bf7ccfaf 	svclt	0x007ccfaf
   23344:	bf7cc7c1 	svclt	0x007cc7c1
   23348:	bf7cbfc2 	svclt	0x007cbfc2
   2334c:	bf7cb7c3 	svclt	0x007cb7c3
   23350:	bf7cafc4 	svclt	0x007cafc4
   23354:	bf7ca7a4 	svclt	0x007ca7a4
   23358:	bf7c9f84 	svclt	0x007c9f84
   2335c:	bf7c9763 	svclt	0x007c9763
   23360:	bf7c8f32 	svclt	0x007c8f32
   23364:	bf7c86f0 	svclt	0x007c86f0
   23368:	bf7c7eae 	svclt	0x007c7eae
   2336c:	bf7c765c 	svclt	0x007c765c
   23370:	bf7c6e09 	svclt	0x007c6e09
   23374:	bf7c65a5 	svclt	0x007c65a5
   23378:	bf7c5d42 	svclt	0x007c5d42
   2337c:	bf7c54bd 	svclt	0x007c54bd
   23380:	bf7c4c49 	svclt	0x007c4c49
   23384:	bf7c43b3 	svclt	0x007c43b3
   23388:	bf7c3b2e 	svclt	0x007c3b2e
   2338c:	bf7c3287 	svclt	0x007c3287
   23390:	bf7c29e1 	svclt	0x007c29e1
   23394:	bf7c213a 	svclt	0x007c213a
   23398:	bf7c1883 	svclt	0x007c1883
   2339c:	bf7c0fbb 	svclt	0x007c0fbb
   233a0:	bf7c06e2 	svclt	0x007c06e2
   233a4:	bf7bfe19 	svclt	0x007bfe19
   233a8:	bf7bf530 	svclt	0x007bf530
   233ac:	bf7bec46 	svclt	0x007bec46
   233b0:	bf7be34c 	svclt	0x007be34c
   233b4:	bf7bda51 	svclt	0x007bda51
   233b8:	bf7bd146 	svclt	0x007bd146
   233bc:	bf7bc83b 	svclt	0x007bc83b
   233c0:	bf7bbf1f 	svclt	0x007bbf1f
   233c4:	bf7bb603 	svclt	0x007bb603
   233c8:	bf7bacc5 	svclt	0x007bacc5
   233cc:	bf7ba398 	svclt	0x007ba398
   233d0:	bf7b9a5b 	svclt	0x007b9a5b
   233d4:	bf7b910c 	svclt	0x007b910c
   233d8:	bf7b87ad 	svclt	0x007b87ad
   233dc:	bf7b7e4e 	svclt	0x007b7e4e
   233e0:	bf7b74ef 	svclt	0x007b74ef
   233e4:	bf7b6b7f 	svclt	0x007b6b7f
   233e8:	bf7b61fe 	svclt	0x007b61fe
   233ec:	bf7b587d 	svclt	0x007b587d
   233f0:	bf7b4eec 	svclt	0x007b4eec
   233f4:	bf7b454a 	svclt	0x007b454a
   233f8:	bf7b3ba7 	svclt	0x007b3ba7
   233fc:	bf7b3205 	svclt	0x007b3205
   23400:	bf7b2841 	svclt	0x007b2841
   23404:	bf7b1e8e 	svclt	0x007b1e8e
   23408:	bf7b14ba 	svclt	0x007b14ba
   2340c:	bf7b0ae5 	svclt	0x007b0ae5
   23410:	bf7b0111 	svclt	0x007b0111
   23414:	bf7af72b 	svclt	0x007af72b
   23418:	bf7aed35 	svclt	0x007aed35
   2341c:	bf7ae33f 	svclt	0x007ae33f
   23420:	bf7ad938 	svclt	0x007ad938
   23424:	bf7acf31 	svclt	0x007acf31
   23428:	bf7ac519 	svclt	0x007ac519
   2342c:	bf7abaf1 	svclt	0x007abaf1
   23430:	bf7ab0c9 	svclt	0x007ab0c9
   23434:	bf7aa68f 	svclt	0x007aa68f
   23438:	bf7a9c56 	svclt	0x007a9c56
   2343c:	bf7a920c 	svclt	0x007a920c
   23440:	bf7a87c2 	svclt	0x007a87c2
   23444:	bf7a7d67 	svclt	0x007a7d67
   23448:	bf7a72fc 	svclt	0x007a72fc
   2344c:	bf7a6890 	svclt	0x007a6890
   23450:	bf7a5e24 	svclt	0x007a5e24
   23454:	bf7a5397 	svclt	0x007a5397
   23458:	bf7a490a 	svclt	0x007a490a
   2345c:	bf7a3e7d 	svclt	0x007a3e7d
   23460:	bf7a33df 	svclt	0x007a33df
   23464:	bf7a2930 	svclt	0x007a2930
   23468:	bf7a1e82 	svclt	0x007a1e82
   2346c:	bf7a13c2 	svclt	0x007a13c2
   23470:	bf7a0903 	svclt	0x007a0903
   23474:	bf79fe33 	svclt	0x0079fe33
   23478:	bf79f362 	svclt	0x0079f362
   2347c:	bf79e881 	svclt	0x0079e881
   23480:	bf79dd90 	svclt	0x0079dd90
   23484:	bf79d29e 	svclt	0x0079d29e
   23488:	bf79c79b 	svclt	0x0079c79b
   2348c:	bf79bc99 	svclt	0x0079bc99
   23490:	bf79b185 	svclt	0x0079b185
   23494:	bf79a661 	svclt	0x0079a661
   23498:	bf799b3d 	svclt	0x00799b3d
   2349c:	bf799019 	svclt	0x00799019
   234a0:	bf7984e4 	svclt	0x007984e4
   234a4:	bf79799e 	svclt	0x0079799e
   234a8:	bf796e48 	svclt	0x00796e48
   234ac:	bf7962f1 	svclt	0x007962f1
   234b0:	bf79579b 	svclt	0x0079579b
   234b4:	bf794c34 	svclt	0x00794c34
   234b8:	bf7940bc 	svclt	0x007940bc
   234bc:	bf793544 	svclt	0x00793544
   234c0:	bf7929bb 	svclt	0x007929bb
   234c4:	bf791e32 	svclt	0x00791e32
   234c8:	bf791299 	svclt	0x00791299
   234cc:	bf7906ee 	svclt	0x007906ee
   234d0:	bf78fb44 	svclt	0x0078fb44
   234d4:	bf78ef9a 	svclt	0x0078ef9a
   234d8:	bf78e3ce 	svclt	0x0078e3ce
   234dc:	bf78d812 	svclt	0x0078d812
   234e0:	bf78cc36 	svclt	0x0078cc36
   234e4:	bf78c059 	svclt	0x0078c059
   234e8:	bf78b47c 	svclt	0x0078b47c
   234ec:	bf78a88f 	svclt	0x0078a88f
   234f0:	bf789c91 	svclt	0x00789c91
   234f4:	bf789093 	svclt	0x00789093
   234f8:	bf788484 	svclt	0x00788484
   234fc:	bf787875 	svclt	0x00787875
   23500:	bf786c55 	svclt	0x00786c55
   23504:	bf786024 	svclt	0x00786024
   23508:	bf7853f4 	svclt	0x007853f4
   2350c:	bf7847c3 	svclt	0x007847c3
   23510:	bf783b71 	svclt	0x00783b71
   23514:	bf782f30 	svclt	0x00782f30
   23518:	bf7822cd 	svclt	0x007822cd
   2351c:	bf78166a 	svclt	0x0078166a
   23520:	bf780a07 	svclt	0x00780a07
   23524:	bf77fd93 	svclt	0x0077fd93
   23528:	bf77f10f 	svclt	0x0077f10f
   2352c:	bf77e48a 	svclt	0x0077e48a
   23530:	bf77d7f5 	svclt	0x0077d7f5
   23534:	bf77cb60 	svclt	0x0077cb60
   23538:	bf77beba 	svclt	0x0077beba
   2353c:	bf77b203 	svclt	0x0077b203
   23540:	bf77a54c 	svclt	0x0077a54c
   23544:	bf779896 	svclt	0x00779896
   23548:	bf778bbd 	svclt	0x00778bbd
   2354c:	bf777ef6 	svclt	0x00777ef6
   23550:	bf77720d 	svclt	0x0077720d
   23554:	bf776523 	svclt	0x00776523
   23558:	bf77583a 	svclt	0x0077583a
   2355c:	bf774b40 	svclt	0x00774b40
   23560:	bf773e36 	svclt	0x00773e36
   23564:	bf77312b 	svclt	0x0077312b
   23568:	bf772410 	svclt	0x00772410
   2356c:	bf7716f4 	svclt	0x007716f4
   23570:	bf7709c8 	svclt	0x007709c8
   23574:	bf76fc9c 	svclt	0x0076fc9c
   23578:	bf76ef5f 	svclt	0x0076ef5f
   2357c:	bf76e211 	svclt	0x0076e211
   23580:	bf76d4c3 	svclt	0x0076d4c3
   23584:	bf76c765 	svclt	0x0076c765
   23588:	bf76ba06 	svclt	0x0076ba06
   2358c:	bf76ac97 	svclt	0x0076ac97
   23590:	bf769f27 	svclt	0x00769f27
   23594:	bf7691a7 	svclt	0x007691a7
   23598:	bf768416 	svclt	0x00768416
   2359c:	bf767686 	svclt	0x00767686
   235a0:	bf7668e4 	svclt	0x007668e4
   235a4:	bf765b42 	svclt	0x00765b42
   235a8:	bf764d90 	svclt	0x00764d90
   235ac:	bf763fdd 	svclt	0x00763fdd
   235b0:	bf76321a 	svclt	0x0076321a
   235b4:	bf762457 	svclt	0x00762457
   235b8:	bf761672 	svclt	0x00761672
   235bc:	bf76089e 	svclt	0x0076089e
   235c0:	bf75fab9 	svclt	0x0075fab9
   235c4:	bf75ecc4 	svclt	0x0075ecc4
   235c8:	bf75dece 	svclt	0x0075dece
   235cc:	bf75d0c8 	svclt	0x0075d0c8
   235d0:	bf75c2b1 	svclt	0x0075c2b1
   235d4:	bf75b49a 	svclt	0x0075b49a
   235d8:	bf75a683 	svclt	0x0075a683
   235dc:	bf75984a 	svclt	0x0075984a
   235e0:	bf758a22 	svclt	0x00758a22
   235e4:	bf757bd9 	svclt	0x00757bd9
   235e8:	bf756d8f 	svclt	0x00756d8f
   235ec:	bf755f46 	svclt	0x00755f46
   235f0:	bf7550ec 	svclt	0x007550ec
   235f4:	bf754291 	svclt	0x00754291
   235f8:	bf753416 	svclt	0x00753416
   235fc:	bf7525ab 	svclt	0x007525ab
   23600:	bf75172f 	svclt	0x0075172f
   23604:	bf7508a2 	svclt	0x007508a2
   23608:	bf74fa05 	svclt	0x0074fa05
   2360c:	bf74eb68 	svclt	0x0074eb68
   23610:	bf74dcca 	svclt	0x0074dcca
   23614:	bf74ce1c 	svclt	0x0074ce1c
   23618:	bf74bf5d 	svclt	0x0074bf5d
   2361c:	bf74b09f 	svclt	0x0074b09f
   23620:	bf74a1cf 	svclt	0x0074a1cf
   23624:	bf7492ff 	svclt	0x007492ff
   23628:	bf74841f 	svclt	0x0074841f
   2362c:	bf74753e 	svclt	0x0074753e
   23630:	bf74664d 	svclt	0x0074664d
   23634:	bf74574b 	svclt	0x0074574b
   23638:	bf744849 	svclt	0x00744849
   2363c:	bf743937 	svclt	0x00743937
   23640:	bf742a24 	svclt	0x00742a24
   23644:	bf741b00 	svclt	0x00741b00
   23648:	bf740bdd 	svclt	0x00740bdd
   2364c:	bf73fca8 	svclt	0x0073fca8
   23650:	bf73ed74 	svclt	0x0073ed74
   23654:	bf73de2f 	svclt	0x0073de2f
   23658:	bf73ced9 	svclt	0x0073ced9
   2365c:	bf73bf83 	svclt	0x0073bf83
   23660:	bf73b01d 	svclt	0x0073b01d
   23664:	bf73a0b6 	svclt	0x0073a0b6
   23668:	bf73913f 	svclt	0x0073913f
   2366c:	bf7381c7 	svclt	0x007381c7
   23670:	bf73723f 	svclt	0x0073723f
   23674:	bf7362a6 	svclt	0x007362a6
   23678:	bf73530d 	svclt	0x0073530d
   2367c:	bf734363 	svclt	0x00734363
   23680:	bf7333b9 	svclt	0x007333b9
   23684:	bf7323ff 	svclt	0x007323ff
   23688:	bf731444 	svclt	0x00731444
   2368c:	bf730479 	svclt	0x00730479
   23690:	bf72f4ae 	svclt	0x0072f4ae
   23694:	bf72e4d2 	svclt	0x0072e4d2
   23698:	bf72d4e5 	svclt	0x0072d4e5
   2369c:	bf72c4f8 	svclt	0x0072c4f8
   236a0:	bf72b50b 	svclt	0x0072b50b
   236a4:	bf72a4fd 	svclt	0x0072a4fd
   236a8:	bf7294ff 	svclt	0x007294ff
   236ac:	bf7284e0 	svclt	0x007284e0
   236b0:	bf7274c1 	svclt	0x007274c1
   236b4:	bf7264a1 	svclt	0x007264a1
   236b8:	bf725471 	svclt	0x00725471
   236bc:	bf724431 	svclt	0x00724431
   236c0:	bf7233f0 	svclt	0x007233f0
   236c4:	bf7223af 	svclt	0x007223af
   236c8:	bf72134d 	svclt	0x0072134d
   236cc:	bf7202fb 	svclt	0x007202fb
   236d0:	bf71f288 	svclt	0x0071f288
   236d4:	bf71e215 	svclt	0x0071e215
   236d8:	bf71d1a2 	svclt	0x0071d1a2
   236dc:	bf71c11e 	svclt	0x0071c11e
   236e0:	bf71b08a 	svclt	0x0071b08a
   236e4:	bf719ff5 	svclt	0x00719ff5
   236e8:	bf718f50 	svclt	0x00718f50
   236ec:	bf717eaa 	svclt	0x00717eaa
   236f0:	bf716df4 	svclt	0x00716df4
   236f4:	bf715d3e 	svclt	0x00715d3e
   236f8:	bf714c77 	svclt	0x00714c77
   236fc:	bf713bb0 	svclt	0x00713bb0
   23700:	bf712ad8 	svclt	0x00712ad8
   23704:	bf7119f0 	svclt	0x007119f0
   23708:	bf710907 	svclt	0x00710907
   2370c:	bf70f80e 	svclt	0x0070f80e
   23710:	bf70e714 	svclt	0x0070e714
   23714:	bf70d60a 	svclt	0x0070d60a
   23718:	bf70c500 	svclt	0x0070c500
   2371c:	bf70b3e5 	svclt	0x0070b3e5
   23720:	bf70a2cb 	svclt	0x0070a2cb
   23724:	bf70919f 	svclt	0x0070919f
   23728:	bf708063 	svclt	0x00708063
   2372c:	bf706f26 	svclt	0x00706f26
   23730:	bf705dd9 	svclt	0x00705dd9
   23734:	bf704c8c 	svclt	0x00704c8c
   23738:	bf703b3f 	svclt	0x00703b3f
   2373c:	bf7029d0 	svclt	0x007029d0
   23740:	bf701861 	svclt	0x00701861
   23744:	bf7006f2 	svclt	0x007006f2
   23748:	bf6ff573 	svclt	0x006ff573
   2374c:	bf6fe3f3 	svclt	0x006fe3f3
   23750:	bf6fd252 	svclt	0x006fd252
   23754:	bf6fc0c2 	svclt	0x006fc0c2
   23758:	bf6faf21 	svclt	0x006faf21
   2375c:	bf6f9d6f 	svclt	0x006f9d6f
   23760:	bf6f8bbd 	svclt	0x006f8bbd
   23764:	bf6f79fb 	svclt	0x006f79fb
   23768:	bf6f6838 	svclt	0x006f6838
   2376c:	bf6f5665 	svclt	0x006f5665
   23770:	bf6f4480 	svclt	0x006f4480
   23774:	bf6f329c 	svclt	0x006f329c
   23778:	bf6f20b8 	svclt	0x006f20b8
   2377c:	bf6f0eb2 	svclt	0x006f0eb2
   23780:	bf6efcbd 	svclt	0x006efcbd
   23784:	bf6eeab8 	svclt	0x006eeab8
   23788:	bf6ed8a1 	svclt	0x006ed8a1
   2378c:	bf6ec67a 	svclt	0x006ec67a
   23790:	bf6eb463 	svclt	0x006eb463
   23794:	bf6ea22b 	svclt	0x006ea22b
   23798:	bf6e8ff3 	svclt	0x006e8ff3
   2379c:	bf6e7dbb 	svclt	0x006e7dbb
   237a0:	bf6e6b72 	svclt	0x006e6b72
   237a4:	bf6e5919 	svclt	0x006e5919
   237a8:	bf6e46bf 	svclt	0x006e46bf
   237ac:	bf6e3455 	svclt	0x006e3455
   237b0:	bf6e21ea 	svclt	0x006e21ea
   237b4:	bf6e0f6f 	svclt	0x006e0f6f
   237b8:	bf6dfcf4 	svclt	0x006dfcf4
   237bc:	bf6dea68 	svclt	0x006dea68
   237c0:	bf6dd7dc 	svclt	0x006dd7dc
   237c4:	bf6dc53f 	svclt	0x006dc53f
   237c8:	bf6db292 	svclt	0x006db292
   237cc:	bf6d9fe4 	svclt	0x006d9fe4
   237d0:	bf6d8d26 	svclt	0x006d8d26
   237d4:	bf6d7a68 	svclt	0x006d7a68
   237d8:	bf6d67a9 	svclt	0x006d67a9
   237dc:	bf6d54ca 	svclt	0x006d54ca
   237e0:	bf6d41ea 	svclt	0x006d41ea
   237e4:	bf6d2f0a 	svclt	0x006d2f0a
   237e8:	bf6d1c19 	svclt	0x006d1c19
   237ec:	bf6d0929 	svclt	0x006d0929
   237f0:	bf6cf627 	svclt	0x006cf627
   237f4:	bf6ce315 	svclt	0x006ce315
   237f8:	bf6cd003 	svclt	0x006cd003
   237fc:	bf6cbcf1 	svclt	0x006cbcf1
   23800:	bf6ca9bd 	svclt	0x006ca9bd
   23804:	bf6c969a 	svclt	0x006c969a
   23808:	bf6c8366 	svclt	0x006c8366
   2380c:	bf6c7022 	svclt	0x006c7022
   23810:	bf6c5ccd 	svclt	0x006c5ccd
   23814:	bf6c4988 	svclt	0x006c4988
   23818:	bf6c3622 	svclt	0x006c3622
   2381c:	bf6c22bc 	svclt	0x006c22bc
   23820:	bf6c0f56 	svclt	0x006c0f56
   23824:	bf6bfbdf 	svclt	0x006bfbdf
   23828:	bf6be857 	svclt	0x006be857
   2382c:	bf6bd4d0 	svclt	0x006bd4d0
   23830:	bf6bc137 	svclt	0x006bc137
   23834:	bf6bad9f 	svclt	0x006bad9f
   23838:	bf6b99f6 	svclt	0x006b99f6
   2383c:	bf6b864d 	svclt	0x006b864d
   23840:	bf6b7293 	svclt	0x006b7293
   23844:	bf6b5ed9 	svclt	0x006b5ed9
   23848:	bf6b4b0e 	svclt	0x006b4b0e
   2384c:	bf6b3733 	svclt	0x006b3733
   23850:	bf6b2357 	svclt	0x006b2357
   23854:	bf6b0f7c 	svclt	0x006b0f7c
   23858:	bf6afb8f 	svclt	0x006afb8f
   2385c:	bf6ae792 	svclt	0x006ae792
   23860:	bf6ad395 	svclt	0x006ad395
   23864:	bf6abf87 	svclt	0x006abf87
   23868:	bf6aab7a 	svclt	0x006aab7a
   2386c:	bf6a975b 	svclt	0x006a975b
   23870:	bf6a833c 	svclt	0x006a833c
   23874:	bf6a6f0d 	svclt	0x006a6f0d
   23878:	bf6a5ade 	svclt	0x006a5ade
   2387c:	bf6a469d 	svclt	0x006a469d
   23880:	bf6a324d 	svclt	0x006a324d
   23884:	bf6a1dfc 	svclt	0x006a1dfc
   23888:	bf6a09ab 	svclt	0x006a09ab
   2388c:	bf69f549 	svclt	0x0069f549
   23890:	bf69e0d6 	svclt	0x0069e0d6
   23894:	bf69cc64 	svclt	0x0069cc64
   23898:	bf69b7e1 	svclt	0x0069b7e1
   2389c:	bf69a35d 	svclt	0x0069a35d
   238a0:	bf698ec9 	svclt	0x00698ec9
   238a4:	bf697a35 	svclt	0x00697a35
   238a8:	bf696590 	svclt	0x00696590
   238ac:	bf6950ec 	svclt	0x006950ec
   238b0:	bf693c36 	svclt	0x00693c36
   238b4:	bf692770 	svclt	0x00692770
   238b8:	bf6912a9 	svclt	0x006912a9
   238bc:	bf68fde3 	svclt	0x0068fde3
   238c0:	bf68e90c 	svclt	0x0068e90c
   238c4:	bf68d424 	svclt	0x0068d424
   238c8:	bf68bf3c 	svclt	0x0068bf3c
   238cc:	bf68aa43 	svclt	0x0068aa43
   238d0:	bf68954a 	svclt	0x0068954a
   238d4:	bf688041 	svclt	0x00688041
   238d8:	bf686b38 	svclt	0x00686b38
   238dc:	bf68561d 	svclt	0x0068561d
   238e0:	bf684103 	svclt	0x00684103
   238e4:	bf682bd8 	svclt	0x00682bd8
   238e8:	bf6816ad 	svclt	0x006816ad
   238ec:	bf680171 	svclt	0x00680171
   238f0:	bf67ec25 	svclt	0x0067ec25
   238f4:	bf67d6d8 	svclt	0x0067d6d8
   238f8:	bf67c18b 	svclt	0x0067c18b
   238fc:	bf67ac2e 	svclt	0x0067ac2e
   23900:	bf6796c0 	svclt	0x006796c0
   23904:	bf678152 	svclt	0x00678152
   23908:	bf676bd3 	svclt	0x00676bd3
   2390c:	bf675654 	svclt	0x00675654
   23910:	bf6740c4 	svclt	0x006740c4
   23914:	bf672b34 	svclt	0x00672b34
   23918:	bf671594 	svclt	0x00671594
   2391c:	bf66fff3 	svclt	0x0066fff3
   23920:	bf66ea42 	svclt	0x0066ea42
   23924:	bf66d491 	svclt	0x0066d491
   23928:	bf66becf 	svclt	0x0066becf
   2392c:	bf66a8fc 	svclt	0x0066a8fc
   23930:	bf669329 	svclt	0x00669329
   23934:	bf667d56 	svclt	0x00667d56
   23938:	bf666773 	svclt	0x00666773
   2393c:	bf66517e 	svclt	0x0066517e
   23940:	bf663b8a 	svclt	0x00663b8a
   23944:	bf662596 	svclt	0x00662596
   23948:	bf660f80 	svclt	0x00660f80
   2394c:	bf65f97b 	svclt	0x0065f97b
   23950:	bf65e365 	svclt	0x0065e365
   23954:	bf65cd3e 	svclt	0x0065cd3e
   23958:	bf65b717 	svclt	0x0065b717
   2395c:	bf65a0e0 	svclt	0x0065a0e0
   23960:	bf658a98 	svclt	0x00658a98
   23964:	bf657460 	svclt	0x00657460
   23968:	bf655e07 	svclt	0x00655e07
   2396c:	bf6547ae 	svclt	0x006547ae
   23970:	bf653155 	svclt	0x00653155
   23974:	bf651aeb 	svclt	0x00651aeb
   23978:	bf650471 	svclt	0x00650471
   2397c:	bf64edf6 	svclt	0x0064edf6
   23980:	bf64d77b 	svclt	0x0064d77b
   23984:	bf64c0f0 	svclt	0x0064c0f0
   23988:	bf64aa54 	svclt	0x0064aa54
   2398c:	bf6493b8 	svclt	0x006493b8
   23990:	bf647d1c 	svclt	0x00647d1c
   23994:	bf64665e 	svclt	0x0064665e
   23998:	bf644fb1 	svclt	0x00644fb1
   2399c:	bf6438e3 	svclt	0x006438e3
   239a0:	bf642225 	svclt	0x00642225
   239a4:	bf640b56 	svclt	0x00640b56
   239a8:	bf63f477 	svclt	0x0063f477
   239ac:	bf63dd87 	svclt	0x0063dd87
   239b0:	bf63c6a8 	svclt	0x0063c6a8
   239b4:	bf63afa7 	svclt	0x0063afa7
   239b8:	bf6398a6 	svclt	0x006398a6
   239bc:	bf6381a6 	svclt	0x006381a6
   239c0:	bf636a94 	svclt	0x00636a94
   239c4:	bf635382 	svclt	0x00635382
   239c8:	bf633c60 	svclt	0x00633c60
   239cc:	bf63252d 	svclt	0x0063252d
   239d0:	bf630dfa 	svclt	0x00630dfa
   239d4:	bf62f6c7 	svclt	0x0062f6c7
   239d8:	bf62df83 	svclt	0x0062df83
   239dc:	bf62c82e 	svclt	0x0062c82e
   239e0:	bf62b0d9 	svclt	0x0062b0d9
   239e4:	bf629974 	svclt	0x00629974
   239e8:	bf62820e 	svclt	0x0062820e
   239ec:	bf626a98 	svclt	0x00626a98
   239f0:	bf625322 	svclt	0x00625322
   239f4:	bf623bac 	svclt	0x00623bac
   239f8:	bf622414 	svclt	0x00622414
   239fc:	bf620c8d 	svclt	0x00620c8d
   23a00:	bf61f4e4 	svclt	0x0061f4e4
   23a04:	bf61dd4c 	svclt	0x0061dd4c
   23a08:	bf61c593 	svclt	0x0061c593
   23a0c:	bf61adda 	svclt	0x0061adda
   23a10:	bf619620 	svclt	0x00619620
   23a14:	bf617e56 	svclt	0x00617e56
   23a18:	bf61668c 	svclt	0x0061668c
   23a1c:	bf614eb1 	svclt	0x00614eb1
   23a20:	bf6136d6 	svclt	0x006136d6
   23a24:	bf611eeb 	svclt	0x00611eeb
   23a28:	bf6106ee 	svclt	0x006106ee
   23a2c:	bf60eef2 	svclt	0x0060eef2
   23a30:	bf60d6f5 	svclt	0x0060d6f5
   23a34:	bf60bee8 	svclt	0x0060bee8
   23a38:	bf60a6ca 	svclt	0x0060a6ca
   23a3c:	bf608eac 	svclt	0x00608eac
   23a40:	bf60768e 	svclt	0x0060768e
   23a44:	bf605e5f 	svclt	0x00605e5f
   23a48:	bf604620 	svclt	0x00604620
   23a4c:	bf602de0 	svclt	0x00602de0
   23a50:	bf601590 	svclt	0x00601590
   23a54:	bf5ffd3f 	svclt	0x005ffd3f
   23a58:	bf5fe4ef 	svclt	0x005fe4ef
   23a5c:	bf5fcc8e 	svclt	0x005fcc8e
   23a60:	bf5fb41c 	svclt	0x005fb41c
   23a64:	bf5f9baa 	svclt	0x005f9baa
   23a68:	bf5f8327 	svclt	0x005f8327
   23a6c:	bf5f6aa5 	svclt	0x005f6aa5
   23a70:	bf5f5211 	svclt	0x005f5211
   23a74:	bf5f397e 	svclt	0x005f397e
   23a78:	bf5f20da 	svclt	0x005f20da
   23a7c:	bf5f0835 	svclt	0x005f0835
   23a80:	bf5eef80 	svclt	0x005eef80
   23a84:	bf5ed6cb 	svclt	0x005ed6cb
   23a88:	bf5ebe06 	svclt	0x005ebe06
   23a8c:	bf5ea540 	svclt	0x005ea540
   23a90:	bf5e8c69 	svclt	0x005e8c69
   23a94:	bf5e7393 	svclt	0x005e7393
   23a98:	bf5e5aab 	svclt	0x005e5aab
   23a9c:	bf5e41b3 	svclt	0x005e41b3
   23aa0:	bf5e28bb 	svclt	0x005e28bb
   23aa4:	bf5e0fc3 	svclt	0x005e0fc3
   23aa8:	bf5df6ba 	svclt	0x005df6ba
   23aac:	bf5dddb1 	svclt	0x005dddb1
   23ab0:	bf5dc497 	svclt	0x005dc497
   23ab4:	bf5dab7e 	svclt	0x005dab7e
   23ab8:	bf5d9253 	svclt	0x005d9253
   23abc:	bf5d7918 	svclt	0x005d7918
   23ac0:	bf5d5fdd 	svclt	0x005d5fdd
   23ac4:	bf5d46a2 	svclt	0x005d46a2
   23ac8:	bf5d2d56 	svclt	0x005d2d56
   23acc:	bf5d13f9 	svclt	0x005d13f9
   23ad0:	bf5cfa9c 	svclt	0x005cfa9c
   23ad4:	bf5ce13f 	svclt	0x005ce13f
   23ad8:	bf5cc7d2 	svclt	0x005cc7d2
   23adc:	bf5cae53 	svclt	0x005cae53
   23ae0:	bf5c94d5 	svclt	0x005c94d5
   23ae4:	bf5c7b57 	svclt	0x005c7b57
   23ae8:	bf5c61c8 	svclt	0x005c61c8
   23aec:	bf5c4828 	svclt	0x005c4828
   23af0:	bf5c2e88 	svclt	0x005c2e88
   23af4:	bf5c14e8 	svclt	0x005c14e8
   23af8:	bf5bfb37 	svclt	0x005bfb37
   23afc:	bf5be176 	svclt	0x005be176
   23b00:	bf5bc7b4 	svclt	0x005bc7b4
   23b04:	bf5badf3 	svclt	0x005badf3
   23b08:	bf5b9421 	svclt	0x005b9421
   23b0c:	bf5b7a3e 	svclt	0x005b7a3e
   23b10:	bf5b605b 	svclt	0x005b605b
   23b14:	bf5b4667 	svclt	0x005b4667
   23b18:	bf5b2c73 	svclt	0x005b2c73
   23b1c:	bf5b127f 	svclt	0x005b127f
   23b20:	bf5af87b 	svclt	0x005af87b
   23b24:	bf5ade65 	svclt	0x005ade65
   23b28:	bf5ac450 	svclt	0x005ac450
   23b2c:	bf5aaa2a 	svclt	0x005aaa2a
   23b30:	bf5a9004 	svclt	0x005a9004
   23b34:	bf5a75de 	svclt	0x005a75de
   23b38:	bf5a5ba7 	svclt	0x005a5ba7
   23b3c:	bf5a415f 	svclt	0x005a415f
   23b40:	bf5a2718 	svclt	0x005a2718
   23b44:	bf5a0cbf 	svclt	0x005a0cbf
   23b48:	bf59f267 	svclt	0x0059f267
   23b4c:	bf59d80e 	svclt	0x0059d80e
   23b50:	bf59bd94 	svclt	0x0059bd94
   23b54:	bf59a32b 	svclt	0x0059a32b
   23b58:	bf5988b1 	svclt	0x005988b1
   23b5c:	bf596e26 	svclt	0x00596e26
   23b60:	bf59539c 	svclt	0x0059539c
   23b64:	bf593900 	svclt	0x00593900
   23b68:	bf591e64 	svclt	0x00591e64
   23b6c:	bf5903c9 	svclt	0x005903c9
   23b70:	bf58e91d 	svclt	0x0058e91d
   23b74:	bf58ce5f 	svclt	0x0058ce5f
   23b78:	bf58b3a2 	svclt	0x0058b3a2
   23b7c:	bf5898d4 	svclt	0x005898d4
   23b80:	bf587e07 	svclt	0x00587e07
   23b84:	bf586339 	svclt	0x00586339
   23b88:	bf58485a 	svclt	0x0058485a
   23b8c:	bf582d6b 	svclt	0x00582d6b
   23b90:	bf58127b 	svclt	0x0058127b
   23b94:	bf57f77b 	svclt	0x0057f77b
   23b98:	bf57dc7b 	svclt	0x0057dc7b
   23b9c:	bf57c17b 	svclt	0x0057c17b
   23ba0:	bf57a66a 	svclt	0x0057a66a
   23ba4:	bf578b48 	svclt	0x00578b48
   23ba8:	bf577026 	svclt	0x00577026
   23bac:	bf5754f3 	svclt	0x005754f3
   23bb0:	bf5739c1 	svclt	0x005739c1
   23bb4:	bf571e8e 	svclt	0x00571e8e
   23bb8:	bf57034b 	svclt	0x0057034b
   23bbc:	bf56e7f7 	svclt	0x0056e7f7
   23bc0:	bf56cca3 	svclt	0x0056cca3
   23bc4:	bf56b14f 	svclt	0x0056b14f
   23bc8:	bf5695ea 	svclt	0x005695ea
   23bcc:	bf567a74 	svclt	0x00567a74
   23bd0:	bf565eff 	svclt	0x00565eff
   23bd4:	bf564389 	svclt	0x00564389
   23bd8:	bf562802 	svclt	0x00562802
   23bdc:	bf560c6b 	svclt	0x00560c6b
   23be0:	bf55f0d4 	svclt	0x0055f0d4
   23be4:	bf55d53d 	svclt	0x0055d53d
   23be8:	bf55b995 	svclt	0x0055b995
   23bec:	bf559ddc 	svclt	0x00559ddc
   23bf0:	bf558234 	svclt	0x00558234
   23bf4:	bf55666b 	svclt	0x0055666b
   23bf8:	bf554aa1 	svclt	0x00554aa1
   23bfc:	bf552ed8 	svclt	0x00552ed8
   23c00:	bf5512fd 	svclt	0x005512fd
   23c04:	bf54f712 	svclt	0x0054f712
   23c08:	bf54db38 	svclt	0x0054db38
   23c0c:	bf54bf3c 	svclt	0x0054bf3c
   23c10:	bf54a340 	svclt	0x0054a340
   23c14:	bf548744 	svclt	0x00548744
   23c18:	bf546b38 	svclt	0x00546b38
   23c1c:	bf544f2b 	svclt	0x00544f2b
   23c20:	bf54330d 	svclt	0x0054330d
   23c24:	bf5416f0 	svclt	0x005416f0
   23c28:	bf53fac2 	svclt	0x0053fac2
   23c2c:	bf53de94 	svclt	0x0053de94
   23c30:	bf53c255 	svclt	0x0053c255
   23c34:	bf53a616 	svclt	0x0053a616
   23c38:	bf5389c6 	svclt	0x005389c6
   23c3c:	bf536d76 	svclt	0x00536d76
   23c40:	bf535116 	svclt	0x00535116
   23c44:	bf5334b5 	svclt	0x005334b5
   23c48:	bf531844 	svclt	0x00531844
   23c4c:	bf52fbd2 	svclt	0x0052fbd2
   23c50:	bf52df61 	svclt	0x0052df61
   23c54:	bf52c2ce 	svclt	0x0052c2ce
   23c58:	bf52a64c 	svclt	0x0052a64c
   23c5c:	bf5289b9 	svclt	0x005289b9
   23c60:	bf526d16 	svclt	0x00526d16
   23c64:	bf525072 	svclt	0x00525072
   23c68:	bf5233ce 	svclt	0x005233ce
   23c6c:	bf521709 	svclt	0x00521709
   23c70:	bf51fa55 	svclt	0x0051fa55
   23c74:	bf51dd90 	svclt	0x0051dd90
   23c78:	bf51c0ca 	svclt	0x0051c0ca
   23c7c:	bf51a3f4 	svclt	0x0051a3f4
   23c80:	bf51870e 	svclt	0x0051870e
   23c84:	bf516a27 	svclt	0x00516a27
   23c88:	bf514d40 	svclt	0x00514d40
   23c8c:	bf513049 	svclt	0x00513049
   23c90:	bf511351 	svclt	0x00511351
   23c94:	bf50f649 	svclt	0x0050f649
   23c98:	bf50d930 	svclt	0x0050d930
   23c9c:	bf50bc27 	svclt	0x0050bc27
   23ca0:	bf509efe 	svclt	0x00509efe
   23ca4:	bf5081e4 	svclt	0x005081e4
   23ca8:	bf5064aa 	svclt	0x005064aa
   23cac:	bf504780 	svclt	0x00504780
   23cb0:	bf502a35 	svclt	0x00502a35
   23cb4:	bf500cfa 	svclt	0x00500cfa
   23cb8:	bf4fefae 	svclt	0x004fefae
   23cbc:	bf4fd252 	svclt	0x004fd252
   23cc0:	bf4fb4f6 	svclt	0x004fb4f6
   23cc4:	bf4f9789 	svclt	0x004f9789
   23cc8:	bf4f7a1c 	svclt	0x004f7a1c
   23ccc:	bf4f5caf 	svclt	0x004f5caf
   23cd0:	bf4f3f31 	svclt	0x004f3f31
   23cd4:	bf4f21a3 	svclt	0x004f21a3
   23cd8:	bf4f0414 	svclt	0x004f0414
   23cdc:	bf4ee686 	svclt	0x004ee686
   23ce0:	bf4ec8e7 	svclt	0x004ec8e7
   23ce4:	bf4eab36 	svclt	0x004eab36
   23ce8:	bf4e8d97 	svclt	0x004e8d97
   23cec:	bf4e6fd6 	svclt	0x004e6fd6
   23cf0:	bf4e5215 	svclt	0x004e5215
   23cf4:	bf4e3455 	svclt	0x004e3455
   23cf8:	bf4e1683 	svclt	0x004e1683
   23cfc:	bf4df8b1 	svclt	0x004df8b1
   23d00:	bf4ddacf 	svclt	0x004ddacf
   23d04:	bf4dbced 	svclt	0x004dbced
   23d08:	bf4d9f0a 	svclt	0x004d9f0a
   23d0c:	bf4d8106 	svclt	0x004d8106
   23d10:	bf4d6313 	svclt	0x004d6313
   23d14:	bf4d450f 	svclt	0x004d450f
   23d18:	bf4d26fa 	svclt	0x004d26fa
   23d1c:	bf4d08e6 	svclt	0x004d08e6
   23d20:	bf4cead1 	svclt	0x004cead1
   23d24:	bf4cccab 	svclt	0x004cccab
   23d28:	bf4cae75 	svclt	0x004cae75
   23d2c:	bf4c903f 	svclt	0x004c903f
   23d30:	bf4c7208 	svclt	0x004c7208
   23d34:	bf4c53c1 	svclt	0x004c53c1
   23d38:	bf4c357a 	svclt	0x004c357a
   23d3c:	bf4c1722 	svclt	0x004c1722
   23d40:	bf4bf8cb 	svclt	0x004bf8cb
   23d44:	bf4bda62 	svclt	0x004bda62
   23d48:	bf4bbbf9 	svclt	0x004bbbf9
   23d4c:	bf4b9d80 	svclt	0x004b9d80
   23d50:	bf4b7f06 	svclt	0x004b7f06
   23d54:	bf4b608d 	svclt	0x004b608d
   23d58:	bf4b41f2 	svclt	0x004b41f2
   23d5c:	bf4b2368 	svclt	0x004b2368
   23d60:	bf4b04cd 	svclt	0x004b04cd
   23d64:	bf4ae632 	svclt	0x004ae632
   23d68:	bf4ac786 	svclt	0x004ac786
   23d6c:	bf4aa8ca 	svclt	0x004aa8ca
   23d70:	bf4a8a0d 	svclt	0x004a8a0d
   23d74:	bf4a6b51 	svclt	0x004a6b51
   23d78:	bf4a4c83 	svclt	0x004a4c83
   23d7c:	bf4a2db6 	svclt	0x004a2db6
   23d80:	bf4a0ed8 	svclt	0x004a0ed8
   23d84:	bf49effa 	svclt	0x0049effa
   23d88:	bf49d10b 	svclt	0x0049d10b
   23d8c:	bf49b21c 	svclt	0x0049b21c
   23d90:	bf49932d 	svclt	0x0049932d
   23d94:	bf49742e 	svclt	0x0049742e
   23d98:	bf49551d 	svclt	0x0049551d
   23d9c:	bf49360d 	svclt	0x0049360d
   23da0:	bf4916fd 	svclt	0x004916fd
   23da4:	bf48f7db 	svclt	0x0048f7db
   23da8:	bf48d8ba 	svclt	0x0048d8ba
   23dac:	bf48b988 	svclt	0x0048b988
   23db0:	bf489a56 	svclt	0x00489a56
   23db4:	bf487b14 	svclt	0x00487b14
   23db8:	bf485bd1 	svclt	0x00485bd1
   23dbc:	bf483c7d 	svclt	0x00483c7d
   23dc0:	bf481d2a 	svclt	0x00481d2a
   23dc4:	bf47fdc6 	svclt	0x0047fdc6
   23dc8:	bf47de61 	svclt	0x0047de61
   23dcc:	bf47befd 	svclt	0x0047befd
   23dd0:	bf479f88 	svclt	0x00479f88
   23dd4:	bf478002 	svclt	0x00478002
   23dd8:	bf47608d 	svclt	0x0047608d
   23ddc:	bf4740f6 	svclt	0x004740f6
   23de0:	bf472160 	svclt	0x00472160
   23de4:	bf4701c9 	svclt	0x004701c9
   23de8:	bf46e222 	svclt	0x0046e222
   23dec:	bf46c27a 	svclt	0x0046c27a
   23df0:	bf46a2d3 	svclt	0x0046a2d3
   23df4:	bf46831b 	svclt	0x0046831b
   23df8:	bf466352 	svclt	0x00466352
   23dfc:	bf464389 	svclt	0x00464389
   23e00:	bf4623c0 	svclt	0x004623c0
   23e04:	bf4603e6 	svclt	0x004603e6
   23e08:	bf45e3fc 	svclt	0x0045e3fc
   23e0c:	bf45c422 	svclt	0x0045c422
   23e10:	bf45a427 	svclt	0x0045a427
   23e14:	bf45843c 	svclt	0x0045843c
   23e18:	bf456441 	svclt	0x00456441
   23e1c:	bf454435 	svclt	0x00454435
   23e20:	bf452429 	svclt	0x00452429
   23e24:	bf45040c 	svclt	0x0045040c
   23e28:	bf44e3ef 	svclt	0x0044e3ef
   23e2c:	bf44c3d2 	svclt	0x0044c3d2
   23e30:	bf44a3a5 	svclt	0x0044a3a5
   23e34:	bf448377 	svclt	0x00448377
   23e38:	bf446339 	svclt	0x00446339
   23e3c:	bf4442fa 	svclt	0x004442fa
   23e40:	bf4422ab 	svclt	0x004422ab
   23e44:	bf44025c 	svclt	0x0044025c
   23e48:	bf43e1fc 	svclt	0x0043e1fc
   23e4c:	bf43c19c 	svclt	0x0043c19c
   23e50:	bf43a13c 	svclt	0x0043a13c
   23e54:	bf4380cb 	svclt	0x004380cb
   23e58:	bf43604a 	svclt	0x0043604a
   23e5c:	bf433fd9 	svclt	0x00433fd9
   23e60:	bf431f47 	svclt	0x00431f47
   23e64:	bf42fec5 	svclt	0x0042fec5
   23e68:	bf42de22 	svclt	0x0042de22
   23e6c:	bf42bd90 	svclt	0x0042bd90
   23e70:	bf429ced 	svclt	0x00429ced
   23e74:	bf427c39 	svclt	0x00427c39
   23e78:	bf425b85 	svclt	0x00425b85
   23e7c:	bf423ad2 	svclt	0x00423ad2
   23e80:	bf421a0d 	svclt	0x00421a0d
   23e84:	bf41f948 	svclt	0x0041f948
   23e88:	bf41d873 	svclt	0x0041d873
   23e8c:	bf41b79e 	svclt	0x0041b79e
   23e90:	bf4196b7 	svclt	0x004196b7
   23e94:	bf4175d1 	svclt	0x004175d1
   23e98:	bf4154da 	svclt	0x004154da
   23e9c:	bf4133e3 	svclt	0x004133e3
   23ea0:	bf4112ec 	svclt	0x004112ec
   23ea4:	bf40f1e5 	svclt	0x0040f1e5
   23ea8:	bf40d0dd 	svclt	0x0040d0dd
   23eac:	bf40afc4 	svclt	0x0040afc4
   23eb0:	bf408eac 	svclt	0x00408eac
   23eb4:	bf406d83 	svclt	0x00406d83
   23eb8:	bf404c59 	svclt	0x00404c59
   23ebc:	bf402b30 	svclt	0x00402b30
   23ec0:	bf4009f6 	svclt	0x004009f6
   23ec4:	bf3fe8ab 	svclt	0x003fe8ab
   23ec8:	bf3fc760 	svclt	0x003fc760
   23ecc:	bf3fa616 	svclt	0x003fa616
   23ed0:	bf3f84ba 	svclt	0x003f84ba
   23ed4:	bf3f635e 	svclt	0x003f635e
   23ed8:	bf3f4203 	svclt	0x003f4203
   23edc:	bf3f2096 	svclt	0x003f2096
   23ee0:	bf3eff19 	svclt	0x003eff19
   23ee4:	bf3edd9c 	svclt	0x003edd9c
   23ee8:	bf3ebc1f 	svclt	0x003ebc1f
   23eec:	bf3e9a91 	svclt	0x003e9a91
   23ef0:	bf3e7903 	svclt	0x003e7903
   23ef4:	bf3e5764 	svclt	0x003e5764
   23ef8:	bf3e35c6 	svclt	0x003e35c6
   23efc:	bf3e1416 	svclt	0x003e1416
   23f00:	bf3df267 	svclt	0x003df267
   23f04:	bf3dd0b7 	svclt	0x003dd0b7
   23f08:	bf3daef7 	svclt	0x003daef7
   23f0c:	bf3d8d37 	svclt	0x003d8d37
   23f10:	bf3d6b66 	svclt	0x003d6b66
   23f14:	bf3d4995 	svclt	0x003d4995
   23f18:	bf3d27b3 	svclt	0x003d27b3
   23f1c:	bf3d05d1 	svclt	0x003d05d1
   23f20:	bf3ce3ef 	svclt	0x003ce3ef
   23f24:	bf3cc1fd 	svclt	0x003cc1fd
   23f28:	bf3ca00a 	svclt	0x003ca00a
   23f2c:	bf3c7e07 	svclt	0x003c7e07
   23f30:	bf3c5c03 	svclt	0x003c5c03
   23f34:	bf3c39ef 	svclt	0x003c39ef
   23f38:	bf3c17db 	svclt	0x003c17db
   23f3c:	bf3bf5b6 	svclt	0x003bf5b6
   23f40:	bf3bd391 	svclt	0x003bd391
   23f44:	bf3bb16c 	svclt	0x003bb16c
   23f48:	bf3b8f36 	svclt	0x003b8f36
   23f4c:	bf3b6d01 	svclt	0x003b6d01
   23f50:	bf3b4aba 	svclt	0x003b4aba
   23f54:	bf3b2874 	svclt	0x003b2874
   23f58:	bf3b062d 	svclt	0x003b062d
   23f5c:	bf3ae3d6 	svclt	0x003ae3d6
   23f60:	bf3ac16e 	svclt	0x003ac16e
   23f64:	bf3a9f17 	svclt	0x003a9f17
   23f68:	bf3a7c9e 	svclt	0x003a7c9e
   23f6c:	bf3a5a36 	svclt	0x003a5a36
   23f70:	bf3a37bd 	svclt	0x003a37bd
   23f74:	bf3a1533 	svclt	0x003a1533
   23f78:	bf39f2aa 	svclt	0x0039f2aa
   23f7c:	bf39d020 	svclt	0x0039d020
   23f80:	bf39ad86 	svclt	0x0039ad86
   23f84:	bf398aec 	svclt	0x00398aec
   23f88:	bf396840 	svclt	0x00396840
   23f8c:	bf394595 	svclt	0x00394595
   23f90:	bf3922d9 	svclt	0x003922d9
   23f94:	bf39002e 	svclt	0x0039002e
   23f98:	bf38dd61 	svclt	0x0038dd61
   23f9c:	bf38ba95 	svclt	0x0038ba95
   23fa0:	bf3897c8 	svclt	0x003897c8
   23fa4:	bf3874fb 	svclt	0x003874fb
   23fa8:	bf38521e 	svclt	0x0038521e
   23fac:	bf382f30 	svclt	0x00382f30
   23fb0:	bf380c41 	svclt	0x00380c41
   23fb4:	bf37e953 	svclt	0x0037e953
   23fb8:	bf37c654 	svclt	0x0037c654
   23fbc:	bf37a355 	svclt	0x0037a355
   23fc0:	bf378045 	svclt	0x00378045
   23fc4:	bf375d35 	svclt	0x00375d35
   23fc8:	bf373a26 	svclt	0x00373a26
   23fcc:	bf371705 	svclt	0x00371705
   23fd0:	bf36f3e4 	svclt	0x0036f3e4
   23fd4:	bf36d0b3 	svclt	0x0036d0b3
   23fd8:	bf36ad82 	svclt	0x0036ad82
   23fdc:	bf368a40 	svclt	0x00368a40
   23fe0:	bf3666fd 	svclt	0x003666fd
   23fe4:	bf3643bb 	svclt	0x003643bb
   23fe8:	bf362068 	svclt	0x00362068
   23fec:	bf35fd15 	svclt	0x0035fd15
   23ff0:	bf35d9b2 	svclt	0x0035d9b2
   23ff4:	bf35b64e 	svclt	0x0035b64e
   23ff8:	bf3592ea 	svclt	0x003592ea
   23ffc:	bf356f76 	svclt	0x00356f76
   24000:	bf354c01 	svclt	0x00354c01
   24004:	bf35287c 	svclt	0x0035287c
   24008:	bf3504f7 	svclt	0x003504f7
   2400c:	bf34e161 	svclt	0x0034e161
   24010:	bf34bdcb 	svclt	0x0034bdcb
   24014:	bf349a35 	svclt	0x00349a35
   24018:	bf34768e 	svclt	0x0034768e
   2401c:	bf3452e7 	svclt	0x003452e7
   24020:	bf342f30 	svclt	0x00342f30
   24024:	bf340b78 	svclt	0x00340b78
   24028:	bf33e7c0 	svclt	0x0033e7c0
   2402c:	bf33c3f8 	svclt	0x0033c3f8
   24030:	bf33a030 	svclt	0x0033a030
   24034:	bf337c57 	svclt	0x00337c57
   24038:	bf33587d 	svclt	0x0033587d
   2403c:	bf333494 	svclt	0x00333494
   24040:	bf3310aa 	svclt	0x003310aa
   24044:	bf32ecc0 	svclt	0x0032ecc0
   24048:	bf32c8c5 	svclt	0x0032c8c5
   2404c:	bf32a4ca 	svclt	0x0032a4ca
   24050:	bf3280d0 	svclt	0x003280d0
   24054:	bf325cc4 	svclt	0x00325cc4
   24058:	bf3238a8 	svclt	0x003238a8
   2405c:	bf32148c 	svclt	0x0032148c
   24060:	bf31f06f 	svclt	0x0031f06f
   24064:	bf31cc42 	svclt	0x0031cc42
   24068:	bf31a815 	svclt	0x0031a815
   2406c:	bf3183e8 	svclt	0x003183e8
   24070:	bf315fab 	svclt	0x00315fab
   24074:	bf313b6d 	svclt	0x00313b6d
   24078:	bf31171e 	svclt	0x0031171e
   2407c:	bf30f2d0 	svclt	0x0030f2d0
   24080:	bf30ce81 	svclt	0x0030ce81
   24084:	bf30aa22 	svclt	0x0030aa22
   24088:	bf3085c2 	svclt	0x003085c2
   2408c:	bf306152 	svclt	0x00306152
   24090:	bf303ce2 	svclt	0x00303ce2
   24094:	bf301861 	svclt	0x00301861
   24098:	bf2ff3e0 	svclt	0x002ff3e0
   2409c:	bf2fcf5f 	svclt	0x002fcf5f
   240a0:	bf2faace 	svclt	0x002faace
   240a4:	bf2f863c 	svclt	0x002f863c
   240a8:	bf2f61aa 	svclt	0x002f61aa
   240ac:	bf2f3d08 	svclt	0x002f3d08
   240b0:	bf2f1855 	svclt	0x002f1855
   240b4:	bf2ef3b2 	svclt	0x002ef3b2
   240b8:	bf2eceff 	svclt	0x002eceff
   240bc:	bf2eaa3b 	svclt	0x002eaa3b
   240c0:	bf2e8577 	svclt	0x002e8577
   240c4:	bf2e60b3 	svclt	0x002e60b3
   240c8:	bf2e3bde 	svclt	0x002e3bde
   240cc:	bf2e1709 	svclt	0x002e1709
   240d0:	bf2df224 	svclt	0x002df224
   240d4:	bf2dcd3e 	svclt	0x002dcd3e
   240d8:	bf2da858 	svclt	0x002da858
   240dc:	bf2d8362 	svclt	0x002d8362
   240e0:	bf2d5e6c 	svclt	0x002d5e6c
   240e4:	bf2d3975 	svclt	0x002d3975
   240e8:	bf2d146e 	svclt	0x002d146e
   240ec:	bf2cef56 	svclt	0x002cef56
   240f0:	bf2cca4f 	svclt	0x002cca4f
   240f4:	bf2ca537 	svclt	0x002ca537
   240f8:	bf2c800f 	svclt	0x002c800f
   240fc:	bf2c5ae6 	svclt	0x002c5ae6
   24100:	bf2c35bd 	svclt	0x002c35bd
   24104:	bf2c1084 	svclt	0x002c1084
   24108:	bf2beb4a 	svclt	0x002beb4a
   2410c:	bf2bc600 	svclt	0x002bc600
   24110:	bf2ba0c7 	svclt	0x002ba0c7
   24114:	bf2b7b6c 	svclt	0x002b7b6c
   24118:	bf2b5621 	svclt	0x002b5621
   2411c:	bf2b30c6 	svclt	0x002b30c6
   24120:	bf2b0b5b 	svclt	0x002b0b5b
   24124:	bf2ae5ef 	svclt	0x002ae5ef
   24128:	bf2ac083 	svclt	0x002ac083
   2412c:	bf2a9b07 	svclt	0x002a9b07
   24130:	bf2a758a 	svclt	0x002a758a
   24134:	bf2a500d 	svclt	0x002a500d
   24138:	bf2a2a80 	svclt	0x002a2a80
   2413c:	bf2a04f3 	svclt	0x002a04f3
   24140:	bf29df55 	svclt	0x0029df55
   24144:	bf29b9b6 	svclt	0x0029b9b6
   24148:	bf299418 	svclt	0x00299418
   2414c:	bf296e69 	svclt	0x00296e69
   24150:	bf2948bb 	svclt	0x002948bb
   24154:	bf2922fb 	svclt	0x002922fb
   24158:	bf28fd3b 	svclt	0x0028fd3b
   2415c:	bf28d77b 	svclt	0x0028d77b
   24160:	bf28b1ab 	svclt	0x0028b1ab
   24164:	bf288bdb 	svclt	0x00288bdb
   24168:	bf28660a 	svclt	0x0028660a
   2416c:	bf284029 	svclt	0x00284029
   24170:	bf281a48 	svclt	0x00281a48
   24174:	bf27f456 	svclt	0x0027f456
   24178:	bf27ce64 	svclt	0x0027ce64
   2417c:	bf27a861 	svclt	0x0027a861
   24180:	bf27826f 	svclt	0x0027826f
   24184:	bf275c5b 	svclt	0x00275c5b
   24188:	bf273659 	svclt	0x00273659
   2418c:	bf271045 	svclt	0x00271045
   24190:	bf26ea31 	svclt	0x0026ea31
   24194:	bf26c40d 	svclt	0x0026c40d
   24198:	bf269de9 	svclt	0x00269de9
   2419c:	bf2677b4 	svclt	0x002677b4
   241a0:	bf26517e 	svclt	0x0026517e
   241a4:	bf262b49 	svclt	0x00262b49
   241a8:	bf260503 	svclt	0x00260503
   241ac:	bf25debe 	svclt	0x0025debe
   241b0:	bf25b878 	svclt	0x0025b878
   241b4:	bf259221 	svclt	0x00259221
   241b8:	bf256bca 	svclt	0x00256bca
   241bc:	bf254563 	svclt	0x00254563
   241c0:	bf251f0c 	svclt	0x00251f0c
   241c4:	bf24f894 	svclt	0x0024f894
   241c8:	bf24d22d 	svclt	0x0024d22d
   241cc:	bf24aba4 	svclt	0x0024aba4
   241d0:	bf24852b 	svclt	0x0024852b
   241d4:	bf245ea2 	svclt	0x00245ea2
   241d8:	bf243819 	svclt	0x00243819
   241dc:	bf241180 	svclt	0x00241180
   241e0:	bf23eae6 	svclt	0x0023eae6
   241e4:	bf23c44c 	svclt	0x0023c44c
   241e8:	bf239da1 	svclt	0x00239da1
   241ec:	bf2376f7 	svclt	0x002376f7
   241f0:	bf23504c 	svclt	0x0023504c
   241f4:	bf232991 	svclt	0x00232991
   241f8:	bf2302d6 	svclt	0x002302d6
   241fc:	bf22dc0a 	svclt	0x0022dc0a
   24200:	bf22b53d 	svclt	0x0022b53d
   24204:	bf228e71 	svclt	0x00228e71
   24208:	bf226794 	svclt	0x00226794
   2420c:	bf2240b8 	svclt	0x002240b8
   24210:	bf2219db 	svclt	0x002219db
   24214:	bf21f2ed 	svclt	0x0021f2ed
   24218:	bf21cbff 	svclt	0x0021cbff
   2421c:	bf21a501 	svclt	0x0021a501
   24220:	bf217e02 	svclt	0x00217e02
   24224:	bf215704 	svclt	0x00215704
   24228:	bf212ff5 	svclt	0x00212ff5
   2422c:	bf2108e6 	svclt	0x002108e6
   24230:	bf20e1d6 	svclt	0x0020e1d6
   24234:	bf20bab6 	svclt	0x0020bab6
   24238:	bf209396 	svclt	0x00209396
   2423c:	bf206c66 	svclt	0x00206c66
   24240:	bf204535 	svclt	0x00204535
   24244:	bf201e04 	svclt	0x00201e04
   24248:	bf1ff6c2 	svclt	0x001ff6c2
   2424c:	bf1fcf81 	svclt	0x001fcf81
   24250:	bf1fa83f 	svclt	0x001fa83f
   24254:	bf1f80ed 	svclt	0x001f80ed
   24258:	bf1f599b 	svclt	0x001f599b
   2425c:	bf1f3248 	svclt	0x001f3248
   24260:	bf1f0ae5 	svclt	0x001f0ae5
   24264:	bf1ee382 	svclt	0x001ee382
   24268:	bf1ebc0e 	svclt	0x001ebc0e
   2426c:	bf1e949a 	svclt	0x001e949a
   24270:	bf1e6d26 	svclt	0x001e6d26
   24274:	bf1e45a2 	svclt	0x001e45a2
   24278:	bf1e1e1d 	svclt	0x001e1e1d
   2427c:	bf1df698 	svclt	0x001df698
   24280:	bf1dcf03 	svclt	0x001dcf03
   24284:	bf1da76e 	svclt	0x001da76e
   24288:	bf1d7fd8 	svclt	0x001d7fd8
   2428c:	bf1d5832 	svclt	0x001d5832
   24290:	bf1d308c 	svclt	0x001d308c
   24294:	bf1d08d5 	svclt	0x001d08d5
   24298:	bf1ce11e 	svclt	0x001ce11e
   2429c:	bf1cb967 	svclt	0x001cb967
   242a0:	bf1c919f 	svclt	0x001c919f
   242a4:	bf1c69d7 	svclt	0x001c69d7
   242a8:	bf1c420f 	svclt	0x001c420f
   242ac:	bf1c1a37 	svclt	0x001c1a37
   242b0:	bf1bf25e 	svclt	0x001bf25e
   242b4:	bf1bca86 	svclt	0x001bca86
   242b8:	bf1ba29c 	svclt	0x001ba29c
   242bc:	bf1b7ab3 	svclt	0x001b7ab3
   242c0:	bf1b52b9 	svclt	0x001b52b9
   242c4:	bf1b2abf 	svclt	0x001b2abf
   242c8:	bf1b02c5 	svclt	0x001b02c5
   242cc:	bf1adaba 	svclt	0x001adaba
   242d0:	bf1ab2c0 	svclt	0x001ab2c0
   242d4:	bf1a8aa4 	svclt	0x001a8aa4
   242d8:	bf1a6299 	svclt	0x001a6299
   242dc:	bf1a3a7e 	svclt	0x001a3a7e
   242e0:	bf1a1251 	svclt	0x001a1251
   242e4:	bf19ea36 	svclt	0x0019ea36
   242e8:	bf19c1f8 	svclt	0x0019c1f8
   242ec:	bf1999cc 	svclt	0x001999cc
   242f0:	bf19718f 	svclt	0x0019718f
   242f4:	bf194952 	svclt	0x00194952
   242f8:	bf192114 	svclt	0x00192114
   242fc:	bf18f8c6 	svclt	0x0018f8c6
   24300:	bf18d078 	svclt	0x0018d078
   24304:	bf18a81a 	svclt	0x0018a81a
   24308:	bf187fbb 	svclt	0x00187fbb
   2430c:	bf18575c 	svclt	0x0018575c
   24310:	bf182eec 	svclt	0x00182eec
   24314:	bf18068e 	svclt	0x0018068e
   24318:	bf17de0d 	svclt	0x0017de0d
   2431c:	bf17b59e 	svclt	0x0017b59e
   24320:	bf178d1e 	svclt	0x00178d1e
   24324:	bf17648c 	svclt	0x0017648c
   24328:	bf173c0c 	svclt	0x00173c0c
   2432c:	bf17137b 	svclt	0x0017137b
   24330:	bf16ead9 	svclt	0x0016ead9
   24334:	bf16c248 	svclt	0x0016c248
   24338:	bf1699a6 	svclt	0x001699a6
   2433c:	bf1670f4 	svclt	0x001670f4
   24340:	bf164841 	svclt	0x00164841
   24344:	bf161f8e 	svclt	0x00161f8e
   24348:	bf15f6dc 	svclt	0x0015f6dc
   2434c:	bf15ce18 	svclt	0x0015ce18
   24350:	bf15a555 	svclt	0x0015a555
   24354:	bf157c81 	svclt	0x00157c81
   24358:	bf1553bd 	svclt	0x001553bd
   2435c:	bf152ad8 	svclt	0x00152ad8
   24360:	bf150204 	svclt	0x00150204
   24364:	bf14d91f 	svclt	0x0014d91f
   24368:	bf14b03a 	svclt	0x0014b03a
   2436c:	bf148744 	svclt	0x00148744
   24370:	bf145e5f 	svclt	0x00145e5f
   24374:	bf143559 	svclt	0x00143559
   24378:	bf140c63 	svclt	0x00140c63
   2437c:	bf13e35c 	svclt	0x0013e35c
   24380:	bf13ba56 	svclt	0x0013ba56
   24384:	bf13913f 	svclt	0x0013913f
   24388:	bf136827 	svclt	0x00136827
   2438c:	bf133f10 	svclt	0x00133f10
   24390:	bf1315e8 	svclt	0x001315e8
   24394:	bf12ecc0 	svclt	0x0012ecc0
   24398:	bf12c398 	svclt	0x0012c398
   2439c:	bf129a70 	svclt	0x00129a70
   243a0:	bf127137 	svclt	0x00127137
   243a4:	bf1247ed 	svclt	0x001247ed
   243a8:	bf121eb4 	svclt	0x00121eb4
   243ac:	bf11f56a 	svclt	0x0011f56a
   243b0:	bf11cc21 	svclt	0x0011cc21
   243b4:	bf11a2c6 	svclt	0x0011a2c6
   243b8:	bf11796c 	svclt	0x0011796c
   243bc:	bf115012 	svclt	0x00115012
   243c0:	bf1126a6 	svclt	0x001126a6
   243c4:	bf10fd3b 	svclt	0x0010fd3b
   243c8:	bf10d3d0 	svclt	0x0010d3d0
   243cc:	bf10aa54 	svclt	0x0010aa54
   243d0:	bf1080d8 	svclt	0x001080d8
   243d4:	bf10575c 	svclt	0x0010575c
   243d8:	bf102dcf 	svclt	0x00102dcf
   243dc:	bf100443 	svclt	0x00100443
   243e0:	bf0fdab6 	svclt	0x000fdab6
   243e4:	bf0fb129 	svclt	0x000fb129
   243e8:	bf0f878b 	svclt	0x000f878b
   243ec:	bf0f5ddd 	svclt	0x000f5ddd
   243f0:	bf0f3440 	svclt	0x000f3440
   243f4:	bf0f0a91 	svclt	0x000f0a91
   243f8:	bf0ee0e3 	svclt	0x000ee0e3
   243fc:	bf0eb724 	svclt	0x000eb724
   24400:	bf0e8d65 	svclt	0x000e8d65
   24404:	bf0e63a6 	svclt	0x000e63a6
   24408:	bf0e39d6 	svclt	0x000e39d6
   2440c:	bf0e1006 	svclt	0x000e1006
   24410:	bf0de636 	svclt	0x000de636
   24414:	bf0dbc66 	svclt	0x000dbc66
   24418:	bf0d9286 	svclt	0x000d9286
   2441c:	bf0d68a5 	svclt	0x000d68a5
   24420:	bf0d3eb4 	svclt	0x000d3eb4
   24424:	bf0d14c2 	svclt	0x000d14c2
   24428:	bf0cead1 	svclt	0x000cead1
   2442c:	bf0cc0cf 	svclt	0x000cc0cf
   24430:	bf0c96dd 	svclt	0x000c96dd
   24434:	bf0c6cdb 	svclt	0x000c6cdb
   24438:	bf0c42c8 	svclt	0x000c42c8
   2443c:	bf0c18b5 	svclt	0x000c18b5
   24440:	bf0beea2 	svclt	0x000beea2
   24444:	bf0bc48f 	svclt	0x000bc48f
   24448:	bf0b9a6b 	svclt	0x000b9a6b
   2444c:	bf0b7048 	svclt	0x000b7048
   24450:	bf0b4624 	svclt	0x000b4624
   24454:	bf0b1bef 	svclt	0x000b1bef
   24458:	bf0af1bb 	svclt	0x000af1bb
   2445c:	bf0ac775 	svclt	0x000ac775
   24460:	bf0a9d41 	svclt	0x000a9d41
   24464:	bf0a72fc 	svclt	0x000a72fc
   24468:	bf0a48a6 	svclt	0x000a48a6
   2446c:	bf0a1e60 	svclt	0x000a1e60
   24470:	bf09f40a 	svclt	0x0009f40a
   24474:	bf09c9b4 	svclt	0x0009c9b4
   24478:	bf099f4d 	svclt	0x00099f4d
   2447c:	bf0974e6 	svclt	0x000974e6
   24480:	bf094a80 	svclt	0x00094a80
   24484:	bf092008 	svclt	0x00092008
   24488:	bf08f5a1 	svclt	0x0008f5a1
   2448c:	bf08cb19 	svclt	0x0008cb19
   24490:	bf08a0a1 	svclt	0x0008a0a1
   24494:	bf087619 	svclt	0x00087619
   24498:	bf084b90 	svclt	0x00084b90
   2449c:	bf082108 	svclt	0x00082108
   244a0:	bf07f66f 	svclt	0x0007f66f
   244a4:	bf07cbd5 	svclt	0x0007cbd5
   244a8:	bf07a13c 	svclt	0x0007a13c
   244ac:	bf077692 	svclt	0x00077692
   244b0:	bf074be8 	svclt	0x00074be8
   244b4:	bf07213e 	svclt	0x0007213e
   244b8:	bf06f683 	svclt	0x0006f683
   244bc:	bf06cbc9 	svclt	0x0006cbc9
   244c0:	bf06a10e 	svclt	0x0006a10e
   244c4:	bf067653 	svclt	0x00067653
   244c8:	bf064b88 	svclt	0x00064b88
   244cc:	bf0620bc 	svclt	0x000620bc
   244d0:	bf05f5e0 	svclt	0x0005f5e0
   244d4:	bf05cb04 	svclt	0x0005cb04
   244d8:	bf05a027 	svclt	0x0005a027
   244dc:	bf05754b 	svclt	0x0005754b
   244e0:	bf054a5e 	svclt	0x00054a5e
   244e4:	bf051f71 	svclt	0x00051f71
   244e8:	bf04f484 	svclt	0x0004f484
   244ec:	bf04c986 	svclt	0x0004c986
   244f0:	bf049e99 	svclt	0x00049e99
   244f4:	bf04738a 	svclt	0x0004738a
   244f8:	bf04488c 	svclt	0x0004488c
   244fc:	bf041d7e 	svclt	0x00041d7e
   24500:	bf03f26f 	svclt	0x0003f26f
   24504:	bf03c750 	svclt	0x0003c750
   24508:	bf039c41 	svclt	0x00039c41
   2450c:	bf037122 	svclt	0x00037122
   24510:	bf0345f1 	svclt	0x000345f1
   24514:	bf031ad2 	svclt	0x00031ad2
   24518:	bf02efa2 	svclt	0x0002efa2
   2451c:	bf02c472 	svclt	0x0002c472
   24520:	bf029931 	svclt	0x00029931
   24524:	bf026df0 	svclt	0x00026df0
   24528:	bf0242af 	svclt	0x000242af
   2452c:	bf02176e 	svclt	0x0002176e
   24530:	bf01ec1c 	svclt	0x0001ec1c
   24534:	bf01c0ca 	svclt	0x0001c0ca
   24538:	bf019579 	svclt	0x00019579
   2453c:	bf016a16 	svclt	0x00016a16
   24540:	bf013eb4 	svclt	0x00013eb4
   24544:	bf011351 	svclt	0x00011351
   24548:	bf00e7de 	svclt	0x0000e7de
   2454c:	bf00bc7b 	svclt	0x0000bc7b
   24550:	bf0090f7 	svclt	0x000090f7
   24554:	bf006584 	svclt	0x00006584
   24558:	bf003a00 	svclt	0x00003a00
   2455c:	bf000e7c 	svclt	0x00000e7c
   24560:	beffc5ef 	cdplt	5, 15, cr12, cr15, cr15, {7}
   24564:	beff6ee7 	cdplt	14, 15, cr6, cr15, cr7, {7}
   24568:	beff17be 	mrclt	7, 7, r1, cr15, cr14, {5}
   2456c:	befec094 	mrclt	0, 7, ip, cr14, cr4, {4}
   24570:	befe6949 	cdplt	9, 15, cr6, cr14, cr9, {2}
   24574:	befe11fd 	mrclt	1, 7, r1, cr14, cr13, {7}
   24578:	befdbab2 	mrclt	10, 7, fp, cr13, cr2, {5}
   2457c:	befd6367 	cdplt	3, 15, cr6, cr13, cr7, {3}
   24580:	befd0bfa 	vmovlt.u8	r0, d29[7]
   24584:	befcb48d 	cdplt	4, 15, cr11, cr12, cr13, {4}
   24588:	befc5d20 	cdplt	13, 15, cr5, cr12, cr0, {1}
   2458c:	befc05b4 	mrclt	5, 7, r0, cr12, cr4, {5}
   24590:	befbae25 	cdplt	14, 15, cr10, cr11, cr5, {1}
   24594:	befb5697 	mrclt	6, 7, r5, cr11, cr7, {4}
   24598:	befafee7 	cdplt	14, 15, cr15, cr10, cr7, {7}
   2459c:	befaa759 	mrclt	7, 7, sl, cr10, cr9, {2}
   245a0:	befa4fa9 	cdplt	15, 15, cr4, cr10, cr9, {5}
   245a4:	bef9f7f9 	mrclt	7, 7, APSR_nzcv, cr9, cr9, {7}
   245a8:	bef9a027 	cdplt	0, 15, cr10, cr9, cr7, {1}
   245ac:	bef94856 	mrclt	8, 7, r4, cr9, cr6, {2}
   245b0:	bef8f084 	cdplt	0, 15, cr15, cr8, cr4, {4}
   245b4:	bef898b3 	mrclt	8, 7, r9, cr8, cr3, {5}
   245b8:	bef840c0 	cdplt	0, 15, cr4, cr8, cr0, {6}
   245bc:	bef7e8cd 	cdplt	8, 15, cr14, cr7, cr13, {6}
   245c0:	bef790da 	mrclt	0, 7, r9, cr7, cr10, {6}
   245c4:	bef738e7 	cdplt	8, 15, cr3, cr7, cr7, {7}
   245c8:	bef6e0d2 	mrclt	0, 7, lr, cr6, cr2, {6}
   245cc:	bef688be 	mrclt	8, 7, r8, cr6, cr14, {5}
   245d0:	bef63088 	cdplt	0, 15, cr3, cr6, cr8, {4}
   245d4:	bef5d873 	mrclt	8, 7, sp, cr5, cr3, {3}
   245d8:	bef5803d 	mrclt	0, 7, r8, cr5, cr13, {1}
   245dc:	bef52807 	cdplt	8, 15, cr2, cr5, cr7, {0}
   245e0:	bef4cfaf 	cdplt	15, 15, cr12, cr4, cr15, {5}
   245e4:	bef47757 	mrclt	7, 7, r7, cr4, cr7, {2}
   245e8:	bef41f00 	cdplt	15, 15, cr1, cr4, cr0, {0}
   245ec:	bef3c6a8 	cdplt	6, 15, cr12, cr3, cr8, {5}
   245f0:	bef36e2f 	cdplt	14, 15, cr6, cr3, cr15, {1}
   245f4:	bef315b5 	mrclt	5, 7, r1, cr3, cr5, {5}
   245f8:	bef2bd3c 	mrclt	13, 7, fp, cr2, cr12, {1}
   245fc:	bef264c3 	cdplt	4, 15, cr6, cr2, cr3, {6}
   24600:	bef20c28 	cdplt	12, 15, cr0, cr2, cr8, {1}
   24604:	bef1b38d 	cdplt	3, 15, cr11, cr1, cr13, {4}
   24608:	bef15af3 	mrclt	10, 7, r5, cr1, cr3, {7}
   2460c:	bef10236 	mrclt	2, 7, r0, cr1, cr6, {1}
   24610:	bef0a97a 	mrclt	9, 7, sl, cr0, cr10, {3}
   24614:	bef050be 	mrclt	0, 7, r5, cr0, cr14, {5}
   24618:	beeff801 	cdplt	8, 14, cr15, cr15, cr1, {0}
   2461c:	beef9f23 	cdplt	15, 14, cr9, cr15, cr3, {1}
   24620:	beef4645 	cdplt	6, 14, cr4, cr15, cr5, {2}
   24624:	beeeed67 	cdplt	13, 14, cr14, cr14, cr7, {3}
   24628:	beee9468 	cdplt	4, 14, cr9, cr14, cr8, {3}
   2462c:	beee3b8a 	vfmalt.f64	d19, d30, d10
   24630:	beede28b 	cdplt	2, 14, cr14, cr13, cr11, {4}
   24634:	beed896a 	cdplt	9, 14, cr8, cr13, cr10, {3}
   24638:	beed306a 	cdplt	0, 14, cr3, cr13, cr10, {3}
   2463c:	beecd749 	cdplt	7, 14, cr13, cr12, cr9, {2}
   24640:	beec7e28 	cdplt	14, 14, cr7, cr12, cr8, {1}
   24644:	beec24e6 	cdplt	4, 14, cr2, cr12, cr6, {7}
   24648:	beebcbc5 	vfmslt.f64	d28, d27, d5
   2464c:	beeb7282 	cdplt	2, 14, cr7, cr11, cr2, {4}
   24650:	beeb193f 	mcrlt	9, 7, r1, cr11, cr15, {1}
   24654:	beeabfdb 	mcrlt	15, 7, fp, cr10, cr11, {6}
   24658:	beea6677 	mcrlt	6, 7, r6, cr10, cr7, {3}
   2465c:	beea0d13 	mcrlt	13, 7, r0, cr10, cr3, {0}
   24660:	bee9b3af 	cdplt	3, 14, cr11, cr9, cr15, {5}
   24664:	bee95a29 	vfmalt.f32	s11, s18, s19
   24668:	bee900c5 	cdplt	0, 14, cr0, cr9, cr5, {6}
   2466c:	bee8a71e 	mcrlt	7, 7, sl, cr8, cr14, {0}
   24670:	bee84d98 	mcrlt	13, 7, r4, cr8, cr8, {4}
   24674:	bee7f3f1 	mcrlt	3, 7, pc, cr7, cr1, {7}	; <UNPREDICTABLE>
   24678:	bee79a6b 	vfmslt.f32	s19, s14, s23
   2467c:	bee740a3 	cdplt	0, 14, cr4, cr7, cr3, {5}
   24680:	bee6e6fb 	mcrlt	6, 7, lr, cr6, cr11, {7}
   24684:	bee68d33 	mcrlt	13, 7, r8, cr6, cr3, {1}
   24688:	bee6336a 	cdplt	3, 14, cr3, cr6, cr10, {3}
   2468c:	bee5d9a1 	cdplt	9, 14, cr13, cr5, cr1, {5}
   24690:	bee57fd8 	mcrlt	15, 7, r7, cr5, cr8, {6}
   24694:	bee525ee 	cdplt	5, 14, cr2, cr5, cr14, {7}
   24698:	bee4cc03 	cdplt	12, 14, cr12, cr4, cr3, {0}
   2469c:	bee47219 	mcrlt	2, 7, r7, cr4, cr9, {0}
   246a0:	bee4180d 	cdplt	8, 14, cr1, cr4, cr13, {0}
   246a4:	bee3be01 	cdplt	14, 14, cr11, cr3, cr1, {0}
   246a8:	bee363f5 	mcrlt	3, 7, r6, cr3, cr5, {7}
   246ac:	bee309ea 	cdplt	9, 14, cr0, cr3, cr10, {7}
   246b0:	bee2afbc 	mcrlt	15, 7, sl, cr2, cr12, {5}
   246b4:	bee2558f 	cdplt	5, 14, cr5, cr2, cr15, {4}
   246b8:	bee1fb61 	vfmslt.f64	d31, d1, d17
   246bc:	bee1a134 	mcrlt	1, 7, sl, cr1, cr4, {1}
   246c0:	bee146e5 	cdplt	6, 14, cr4, cr1, cr5, {7}
   246c4:	bee0ec96 	mcrlt	12, 7, lr, cr0, cr6, {4}
   246c8:	bee09247 	cdplt	2, 14, cr9, cr0, cr7, {2}
   246cc:	bee037f8 	mcrlt	7, 7, r3, cr0, cr8, {7}
   246d0:	bedfdd87 	cdplt	13, 13, cr13, cr15, cr7, {4}
   246d4:	bedf8317 	mrclt	3, 6, r8, cr15, cr7, {0}
   246d8:	bedf28a6 	cdplt	8, 13, cr2, cr15, cr6, {5}
   246dc:	bedece36 	mrclt	14, 6, ip, cr14, cr6, {1}
   246e0:	bede73a3 	cdplt	3, 13, cr7, cr14, cr3, {5}
   246e4:	bede1911 	mrclt	9, 6, r1, cr14, cr1, {0}
   246e8:	beddbe7f 	mrclt	14, 6, fp, cr13, cr15, {3}
   246ec:	bedd63cc 	cdplt	3, 13, cr6, cr13, cr12, {6}
   246f0:	bedd0939 	mrclt	9, 6, r0, cr13, cr9, {1}
   246f4:	bedcae86 	cdplt	14, 13, cr10, cr12, cr6, {4}
   246f8:	bedc53b1 	mrclt	3, 6, r5, cr12, cr1, {5}
   246fc:	bedbf8fd 	mrclt	8, 6, APSR_nzcv, cr11, cr13, {7}
   24700:	bedb9e28 	cdplt	14, 13, cr9, cr11, cr8, {1}
   24704:	bedb4352 	mrclt	3, 6, r4, cr11, cr2, {2}
   24708:	bedae87d 	mrclt	8, 6, lr, cr10, cr13, {3}
   2470c:	beda8da8 	cdplt	13, 13, cr8, cr10, cr8, {5}
   24710:	beda32b1 	mrclt	2, 6, r3, cr10, cr1, {5}
   24714:	bed9d7ba 	mrclt	7, 6, sp, cr9, cr10, {5}
   24718:	bed97cc4 	cdplt	12, 13, cr7, cr9, cr4, {6}
   2471c:	bed921ab 	cdplt	1, 13, cr2, cr9, cr11, {5}
   24720:	bed8c693 	mrclt	6, 6, ip, cr8, cr3, {4}
   24724:	bed86b7b 	vmovlt.u8	r6, d8[3]
   24728:	bed81062 	cdplt	0, 13, cr1, cr8, cr2, {3}
   2472c:	bed7b54a 	cdplt	5, 13, cr11, cr7, cr10, {2}
   24730:	bed75a10 	mrclt	10, 6, r5, cr7, cr0, {0}
   24734:	bed6fed6 	mrclt	14, 6, APSR_nzcv, cr6, cr6, {6}
   24738:	bed6a39c 	mrclt	3, 6, sl, cr6, cr12, {4}
   2473c:	bed64841 	cdplt	8, 13, cr4, cr6, cr1, {2}
   24740:	bed5ed07 	cdplt	13, 13, cr14, cr5, cr7, {0}
   24744:	bed591ac 	atnltdp	f1, #4.0
   24748:	bed53650 	mrclt	6, 6, r3, cr5, cr0, {2}
   2474c:	bed4dad3 	mrclt	10, 6, sp, cr4, cr3, {6}
   24750:	bed47f56 	mrclt	15, 6, r7, cr4, cr6, {2}
   24754:	bed423d9 	mrclt	3, 6, r2, cr4, cr9, {6}
   24758:	bed3c85c 	mrclt	8, 6, ip, cr3, cr12, {2}
   2475c:	bed36cdf 	mrclt	12, 6, r6, cr3, cr15, {6}
   24760:	bed31141 	cdplt	1, 13, cr1, cr3, cr1, {2}
   24764:	bed2b5a2 	cdplt	5, 13, cr11, cr2, cr2, {5}
   24768:	bed25a04 	vfnmslt.f32	s11, s4, s8
   2476c:	bed1fe65 	cdplt	14, 13, cr15, cr1, cr5, {3}
   24770:	bed1a2a5 	cdplt	2, 13, cr10, cr1, cr5, {5}
   24774:	bed146e5 	cdplt	6, 13, cr4, cr1, cr5, {7}
   24778:	bed0eb25 	vfnmslt.f64	d30, d0, d21
   2477c:	bed08f65 	cdplt	15, 13, cr8, cr0, cr5, {3}
   24780:	bed03383 	cdplt	3, 13, cr3, cr0, cr3, {4}
   24784:	becfd7a1 	cdplt	7, 12, cr13, cr15, cr1, {5}
   24788:	becf7bc0 	cdplt	11, 12, cr7, cr15, cr0, {6}
   2478c:	becf1fde 	mcrlt	15, 6, r1, cr15, cr14, {6}
   24790:	becec3db 	mcrlt	3, 6, ip, cr14, cr11, {6}
   24794:	bece67f9 	mcrlt	7, 6, r6, cr14, cr9, {7}
   24798:	bece0bf6 	mcrlt	11, 6, r0, cr14, cr6, {7}
   2479c:	becdafd1 	mcrlt	15, 6, sl, cr13, cr1, {6}
   247a0:	becd53ce 	cdplt	3, 12, cr5, cr13, cr14, {6}
   247a4:	beccf7a9 	cdplt	7, 12, cr15, cr12, cr9, {5}
   247a8:	becc9b84 	vdivlt.f64	d25, d28, d4
   247ac:	becc3f60 	cdplt	15, 12, cr3, cr12, cr0, {3}
   247b0:	becbe33b 	mcrlt	3, 6, lr, cr11, cr11, {1}
   247b4:	becb86f4 	mcrlt	6, 6, r8, cr11, cr4, {7}
   247b8:	becb2aae 	vdivlt.f32	s5, s23, s29
   247bc:	becace68 	cdplt	14, 12, cr12, cr10, cr8, {3}
   247c0:	beca7200 	cdplt	2, 12, cr7, cr10, cr0, {0}
   247c4:	beca15ba 	mcrlt	5, 6, r1, cr10, cr10, {5}
   247c8:	bec9b952 	mcrlt	9, 6, fp, cr9, cr2, {2}
   247cc:	bec95cea 	cdplt	12, 12, cr5, cr9, cr10, {7}
   247d0:	bec90082 	cdplt	0, 12, cr0, cr9, cr2, {4}
   247d4:	bec8a3f9 	mcrlt	3, 6, sl, cr8, cr9, {7}
   247d8:	bec8476f 	cdplt	7, 12, cr4, cr8, cr15, {3}
   247dc:	bec7eae6 	cdplt	10, 12, cr14, cr7, cr6, {7}
   247e0:	bec78e5c 	mcrlt	14, 6, r8, cr7, cr12, {2}
   247e4:	bec731d3 	mcrlt	1, 6, r3, cr7, cr3, {6}
   247e8:	bec6d528 	cdplt	5, 12, cr13, cr6, cr8, {1}
   247ec:	bec6787d 	mcrlt	8, 6, r7, cr6, cr13, {3}
   247f0:	bec61bd2 	mcrlt	11, 6, r1, cr6, cr2, {6}
   247f4:	bec5bf27 	cdplt	15, 12, cr11, cr5, cr7, {1}
   247f8:	bec5625a 	mcrlt	2, 6, r6, cr5, cr10, {2}
   247fc:	bec5058e 	cdplt	5, 12, cr0, cr5, cr14, {4}
   24800:	bec4a8c1 	cdplt	8, 12, cr10, cr4, cr1, {6}
   24804:	bec44bf5 	mcrlt	11, 6, r4, cr4, cr5, {7}
   24808:	bec3ef07 	cdplt	15, 12, cr14, cr3, cr7, {0}
   2480c:	bec3923a 	mcrlt	2, 6, r9, cr3, cr10, {1}
   24810:	bec3354c 	cdplt	5, 12, cr3, cr3, cr12, {2}
   24814:	bec2d85e 	mcrlt	8, 6, sp, cr2, cr14, {2}
   24818:	bec27b4e 	cdplt	11, 12, cr7, cr2, cr14, {2}
   2481c:	bec21e60 	cdplt	14, 12, cr1, cr2, cr0, {3}
   24820:	bec1c151 	mcrlt	1, 6, ip, cr1, cr1, {2}
   24824:	bec16441 	cdplt	4, 12, cr6, cr1, cr1, {2}
   24828:	bec10710 	mcrlt	7, 6, r0, cr1, cr0, {0}
   2482c:	bec0aa00 	vdivlt.f32	s21, s0, s0
   24830:	bec04ccf 	cdplt	12, 12, cr4, cr0, cr15, {6}
   24834:	bebfef9e 	mrclt	15, 5, lr, cr15, cr14, {4}
   24838:	bebf926c 	cdplt	2, 11, cr9, cr15, cr12, {3}
   2483c:	bebf353b 	mrclt	5, 5, r3, cr15, cr11, {1}
   24840:	bebed7e9 	cdplt	7, 11, cr13, cr14, cr9, {7}
   24844:	bebe7a96 	mrclt	10, 5, r7, cr14, cr6, {4}
   24848:	bebe1d43 	cdplt	13, 11, cr1, cr14, cr3, {2}
   2484c:	bebdbff0 	mrclt	15, 5, fp, cr13, cr0, {7}
   24850:	bebd627c 	mrclt	2, 5, r6, cr13, cr12, {3}
   24854:	bebd0529 	cdplt	5, 11, cr0, cr13, cr9, {1}
   24858:	bebca7b5 	mrclt	7, 5, sl, cr12, cr5, {5}
   2485c:	bebc4a41 	vcvtrlt.u32.f32	s8, s2
   24860:	bebbecab 	cdplt	12, 11, cr14, cr11, cr11, {5}
   24864:	bebb8f36 	mrclt	15, 5, r8, cr11, cr6, {1}
   24868:	bebb31a1 	frdlt<illegal precision>p	f3, f3, f1
   2486c:	bebad40b 	cdplt	4, 11, cr13, cr10, cr11, {0}
   24870:	beba7675 	mrclt	6, 5, r7, cr10, cr5, {3}
   24874:	beba18bd 	mrclt	8, 5, r1, cr10, cr13, {5}
   24878:	beb9bb28 	cdplt	11, 11, cr11, cr9, cr8, {1}
   2487c:	beb95d70 	mrclt	13, 5, r5, cr9, cr0, {3}
   24880:	beb8ffb9 	mrclt	15, 5, APSR_nzcv, cr8, cr9, {5}
   24884:	beb8a201 	cdplt	2, 11, cr10, cr8, cr1, {0}
   24888:	beb84428 	cdplt	4, 11, cr4, cr8, cr8, {1}
   2488c:	beb7e64f 	cdplt	6, 11, cr14, cr7, cr15, {2}
   24890:	beb78876 	mrclt	8, 5, r8, cr7, cr6, {3}
   24894:	beb72a9d 	mrclt	10, 5, r2, cr7, cr13, {4}
   24898:	beb6ccc4 	cdplt	12, 11, cr12, cr6, cr4, {6}
   2489c:	beb66eca 	cdplt	14, 11, cr6, cr6, cr10, {6}
   248a0:	beb610f1 	mrclt	0, 5, r1, cr6, cr1, {7}
   248a4:	beb5b2f6 	mrclt	2, 5, fp, cr5, cr6, {7}
   248a8:	beb554fc 	mrclt	4, 5, r5, cr5, cr12, {7}
   248ac:	beb4f6e0 	cdplt	6, 11, cr15, cr4, cr0, {7}
   248b0:	beb498e5 	cdplt	8, 11, cr9, cr4, cr5, {7}
   248b4:	beb43ac9 	vcmpelt.f32	s6, s18
   248b8:	beb3dcad 	cdplt	12, 11, cr13, cr3, cr13, {5}
   248bc:	beb37e91 	mrclt	14, 5, r7, cr3, cr1, {4}
   248c0:	beb32053 	mrclt	0, 5, r2, cr3, cr3, {2}
   248c4:	beb2c237 	mrclt	2, 5, ip, cr2, cr7, {1}
   248c8:	beb263fa 	mrclt	3, 5, r6, cr2, cr10, {7}
   248cc:	beb205bc 	mrclt	5, 5, r0, cr2, cr12, {5}
   248d0:	beb1a75d 	mrclt	7, 5, sl, cr1, cr13, {2}
   248d4:	beb1491f 	mrclt	9, 5, r4, cr1, cr15, {0}
   248d8:	beb0eac0 	vabslt.f32	s28, s0
   248dc:	beb08c61 	cdplt	12, 11, cr8, cr0, cr1, {3}
   248e0:	beb02e02 	cdplt	14, 11, cr2, cr0, cr2, {0}
   248e4:	beafcfa2 	cdplt	15, 10, cr12, cr15, cr2, {5}
   248e8:	beaf7143 	fdvltem	f7, f7, f3
   248ec:	beaf12c2 	cdplt	2, 10, cr1, cr15, cr2, {6}
   248f0:	beaeb442 	cdplt	4, 10, cr11, cr14, cr2, {2}
   248f4:	beae55c1 	cdplt	5, 10, cr5, cr14, cr1, {6}
   248f8:	beadf740 	cdplt	7, 10, cr15, cr13, cr0, {2}
   248fc:	bead989e 	mcrlt	8, 5, r9, cr13, cr14, {4}
   24900:	bead3a1d 	mcrlt	10, 5, r3, cr13, cr13, {0}
   24904:	beacdb7b 	mcrlt	11, 5, sp, cr12, cr11, {3}
   24908:	beac7cd9 	mcrlt	12, 5, r7, cr12, cr9, {6}
   2490c:	beac1e36 	mcrlt	14, 5, r1, cr12, cr6, {1}
   24910:	beabbf72 	mcrlt	15, 5, fp, cr11, cr2, {3}
   24914:	beab60af 	cdplt	0, 10, cr6, cr11, cr15, {5}
   24918:	beab020c 	cdplt	2, 10, cr0, cr11, cr12, {0}
   2491c:	beaaa348 	cdplt	3, 10, cr10, cr10, cr8, {2}
   24920:	beaa4463 	cdplt	4, 10, cr4, cr10, cr3, {3}
   24924:	bea9e59f 	mcrlt	5, 5, lr, cr9, cr15, {4}
   24928:	bea986ba 	mcrlt	6, 5, r8, cr9, cr10, {5}
   2492c:	bea927d4 	mcrlt	7, 5, r2, cr9, cr4, {6}
   24930:	bea8c8ef 	cdplt	8, 10, cr12, cr8, cr15, {7}
   24934:	bea86a0a 	vfmalt.f32	s12, s16, s20
   24938:	bea80b24 	vfmalt.f64	d0, d8, d20
   2493c:	bea7ac1d 	mcrlt	12, 5, sl, cr7, cr13, {0}
   24940:	bea74d16 	mcrlt	13, 5, r4, cr7, cr6, {0}
   24944:	bea6ee0f 	cdplt	14, 10, cr14, cr6, cr15, {0}
   24948:	bea68f08 	cdplt	15, 10, cr8, cr6, cr8, {0}
   2494c:	bea63001 	cdplt	0, 10, cr3, cr6, cr1, {0}
   24950:	bea5d0d9 	mcrlt	0, 5, sp, cr5, cr9, {6}
   24954:	bea571d2 	mcrlt	1, 5, r7, cr5, cr2, {6}
   24958:	bea512a9 	cdplt	2, 10, cr1, cr5, cr9, {5}
   2495c:	bea4b381 	cdplt	3, 10, cr11, cr4, cr1, {4}
   24960:	bea45437 	mcrlt	4, 5, r5, cr4, cr7, {1}
   24964:	bea3f50e 	cdplt	5, 10, cr15, cr3, cr14, {0}
   24968:	bea395c4 	cdplt	5, 10, cr9, cr3, cr4, {6}
   2496c:	bea3367a 	mcrlt	6, 5, r3, cr3, cr10, {3}
   24970:	bea2d730 	mcrlt	7, 5, sp, cr2, cr0, {1}
   24974:	bea277e6 	cdplt	7, 10, cr7, cr2, cr6, {7}
   24978:	bea2187a 	mcrlt	8, 5, r1, cr2, cr10, {3}
   2497c:	bea1b930 	mcrlt	9, 5, fp, cr1, cr0, {1}
   24980:	bea159c5 	cdplt	9, 10, cr5, cr1, cr5, {6}
   24984:	bea0fa59 	mcrlt	10, 5, pc, cr0, cr9, {2}	; <UNPREDICTABLE>
   24988:	bea09aed 	vfmslt.f32	s18, s1, s27
   2498c:	bea03b60 	vfmslt.f64	d3, d0, d16
   24990:	be9fdbf5 	vmovlt.u16	sp, d31[1]
   24994:	be9f7c67 	cdplt	12, 9, cr7, cr15, cr7, {3}
   24998:	be9f1cda 	mrclt	12, 4, r1, cr15, cr10, {6}
   2499c:	be9ebd4d 	cdplt	13, 9, cr11, cr14, cr13, {2}
   249a0:	be9e5dc0 	cdplt	13, 9, cr5, cr14, cr0, {6}
   249a4:	be9dfe11 	mrclt	14, 4, APSR_nzcv, cr13, cr1, {0}
   249a8:	be9d9e84 	cdplt	14, 9, cr9, cr13, cr4, {4}
   249ac:	be9d3ed5 	mrclt	14, 4, r3, cr13, cr5, {6}
   249b0:	be9cdf26 	cdplt	15, 9, cr13, cr12, cr6, {1}
   249b4:	be9c7f78 	mrclt	15, 4, r7, cr12, cr8, {3}
   249b8:	be9c1fa7 	cdplt	15, 9, cr1, cr12, cr7, {5}
   249bc:	be9bbff9 	mrclt	15, 4, fp, cr11, cr9, {7}
   249c0:	be9b6028 	cdplt	0, 9, cr6, cr11, cr8, {1}
   249c4:	be9b0058 	mrclt	0, 4, r0, cr11, cr8, {2}
   249c8:	be9aa088 	cdplt	0, 9, cr10, cr10, cr8, {4}
   249cc:	be9a40b8 	mrclt	0, 4, r4, cr10, cr8, {5}
   249d0:	be99e0c6 	cdplt	0, 9, cr14, cr9, cr6, {6}
   249d4:	be9980f5 	mrclt	0, 4, r8, cr9, cr5, {7}
   249d8:	be992104 	fmllte	f2, f1, f4
   249dc:	be98c112 	mrclt	1, 4, ip, cr8, cr2, {0}
   249e0:	be986120 	fmlltep	f6, f0, f0
   249e4:	be98010c 	fmllte	f0, f0, #4.0
   249e8:	be97a11b 	mrclt	1, 4, sl, cr7, cr11, {0}
   249ec:	be974107 	fmllts	f4, f7, f7
   249f0:	be96e0f4 	mrclt	0, 4, lr, cr6, cr4, {7}
   249f4:	be9680e0 	cdplt	0, 9, cr8, cr6, cr0, {7}
   249f8:	be9620cd 	cdplt	0, 9, cr2, cr6, cr13, {6}
   249fc:	be95c0ba 	mrclt	0, 4, ip, cr5, cr10, {5}
   24a00:	be956085 	cdplt	0, 9, cr6, cr5, cr5, {4}
   24a04:	be950071 	mrclt	0, 4, r0, cr5, cr1, {3}
   24a08:	be94a03c 	mrclt	0, 4, sl, cr4, cr12, {1}
   24a0c:	be944007 	cdplt	0, 9, cr4, cr4, cr7, {0}
   24a10:	be93dfb1 	mrclt	15, 4, sp, cr3, cr1, {5}
   24a14:	be937f7c 	mrclt	15, 4, r7, cr3, cr12, {3}
   24a18:	be931f25 	cdplt	15, 9, cr1, cr3, cr5, {1}
   24a1c:	be92bef0 	mrclt	14, 4, fp, cr2, cr0, {7}
   24a20:	be925e9a 	mrclt	14, 4, r5, cr2, cr10, {4}
   24a24:	be91fe43 	cdplt	14, 9, cr15, cr1, cr3, {2}
   24a28:	be919ded 	cdplt	13, 9, cr9, cr1, cr13, {7}
   24a2c:	be913d75 	mrclt	13, 4, r3, cr1, cr5, {3}
   24a30:	be90dd1e 	mrclt	13, 4, sp, cr0, cr14, {0}
   24a34:	be907ca6 	cdplt	12, 9, cr7, cr0, cr6, {5}
   24a38:	be901c2e 	cdplt	12, 9, cr1, cr0, cr14, {1}
   24a3c:	be8fbbb6 	vduplt.16	d31, fp
   24a40:	be8f5b3e 	vduplt.16	d15, r5
   24a44:	be8efaa4 	vdivlt.f32	s30, s29, s9
   24a48:	be8e9a2c 	vdivlt.f32	s18, s28, s25
   24a4c:	be8e3993 	mcrlt	9, 4, r3, cr14, cr3, {4}
   24a50:	be8dd8f9 	mcrlt	8, 4, sp, cr13, cr9, {7}
   24a54:	be8d7860 	cdplt	8, 8, cr7, cr13, cr0, {3}
   24a58:	be8d17c6 	cdplt	7, 8, cr1, cr13, cr6, {6}
   24a5c:	be8cb70b 	cdplt	7, 8, cr11, cr12, cr11, {0}
   24a60:	be8c5671 	mcrlt	6, 4, r5, cr12, cr1, {3}
   24a64:	be8bf5b6 	mcrlt	5, 4, pc, cr11, cr6, {5}	; <UNPREDICTABLE>
   24a68:	be8b94fb 	mcrlt	4, 4, r9, cr11, cr11, {7}
   24a6c:	be8b3440 	cdplt	4, 8, cr3, cr11, cr0, {2}
   24a70:	be8ad384 	cdplt	3, 8, cr13, cr10, cr4, {4}
   24a74:	be8a72c9 	cdplt	2, 8, cr7, cr10, cr9, {6}
   24a78:	be8a11ed 	rmflt<illegal precision>z	f1, f2, #5.0
   24a7c:	be89b131 	mcrlt	1, 4, fp, cr9, cr1, {1}
   24a80:	be895055 	mcrlt	0, 4, r5, cr9, cr5, {2}
   24a84:	be88ef78 	mcrlt	15, 4, lr, cr8, cr8, {3}
   24a88:	be888e9b 	mcrlt	14, 4, r8, cr8, cr11, {4}
   24a8c:	be882d9d 	mcrlt	13, 4, r2, cr8, cr13, {4}
   24a90:	be87ccc0 	cdplt	12, 8, cr12, cr7, cr0, {6}
   24a94:	be876bc2 	cdplt	11, 8, cr6, cr7, cr2, {6}
   24a98:	be870ae5 	cdplt	10, 8, cr0, cr7, cr5, {7}
   24a9c:	be86a9e7 	cdplt	9, 8, cr10, cr6, cr7, {7}
   24aa0:	be8648e9 	cdplt	8, 8, cr4, cr6, cr9, {7}
   24aa4:	be85e7c9 	cdplt	7, 8, cr14, cr5, cr9, {6}
   24aa8:	be8586cb 	cdplt	6, 8, cr8, cr5, cr11, {6}
   24aac:	be8525cc 	cdplt	5, 8, cr2, cr5, cr12, {6}
   24ab0:	be84c4ac 	cdplt	4, 8, cr12, cr4, cr12, {5}
   24ab4:	be84638d 	cdplt	3, 8, cr6, cr4, cr13, {4}
   24ab8:	be84026d 	cdplt	2, 8, cr0, cr4, cr13, {3}
   24abc:	be83a14d 	sinltsm	f2, #5.0
   24ac0:	be83402d 	cdplt	0, 8, cr4, cr3, cr13, {1}
   24ac4:	be82deec 	cdplt	14, 8, cr13, cr2, cr12, {7}
   24ac8:	be827dcc 	cdplt	13, 8, cr7, cr2, cr12, {6}
   24acc:	be821c8a 	cdplt	12, 8, cr1, cr2, cr10, {4}
   24ad0:	be81bb49 	cdplt	11, 8, cr11, cr1, cr9, {2}
   24ad4:	be815a08 	vdivlt.f32	s10, s2, s16
   24ad8:	be80f8c6 	cdplt	8, 8, cr15, cr0, cr6, {6}
   24adc:	be809763 	cdplt	7, 8, cr9, cr0, cr3, {3}
   24ae0:	be803622 	cdplt	6, 8, cr3, cr0, cr2, {1}
   24ae4:	be7fa97e 	mrclt	9, 3, sl, cr15, cr14, {3}
   24ae8:	be7ee6fb 	mrclt	6, 3, lr, cr14, cr11, {7}
   24aec:	be7e2435 	mrclt	4, 3, r2, cr14, cr5, {1}
   24af0:	be7d6170 	mrclt	1, 3, r6, cr13, cr0, {3}
   24af4:	be7c9e67 	cdplt	14, 7, cr9, cr12, cr7, {3}
   24af8:	be7bdba1 	vaddlt.f64	d29, d27, d17
   24afc:	be7b18db 	mrclt	8, 3, r1, cr11, cr11, {6}
   24b00:	be7a55d2 	mrclt	5, 3, r5, cr10, cr2, {6}
   24b04:	be7992c9 	cdplt	2, 7, cr9, cr9, cr9, {6}
   24b08:	be78cfc0 	cdplt	15, 7, cr12, cr8, cr0, {6}
   24b0c:	be780cb7 	mrclt	12, 3, r0, cr8, cr7, {5}
   24b10:	be7749ae 	cdplt	9, 7, cr4, cr7, cr14, {5}
   24b14:	be7686a5 	cdplt	6, 7, cr8, cr6, cr5, {5}
   24b18:	be75c359 	mrclt	3, 3, ip, cr5, cr9, {2}
   24b1c:	be75000d 	cdplt	0, 7, cr0, cr5, cr13, {0}
   24b20:	be743d04 	cdplt	13, 7, cr3, cr4, cr4, {0}
   24b24:	be7379b7 	mrclt	9, 3, r7, cr3, cr7, {5}
   24b28:	be72b66b 	cdplt	6, 7, cr11, cr2, cr11, {3}
   24b2c:	be71f2dc 	mrclt	2, 3, APSR_nzcv, cr1, cr12, {6}
   24b30:	be712f90 	mrclt	15, 3, r2, cr1, cr0, {4}
   24b34:	be706c44 	cdplt	12, 7, cr6, cr0, cr4, {2}
   24b38:	be6fa8b5 	mcrlt	8, 3, sl, cr15, cr5, {5}
   24b3c:	be6ee526 	cdplt	5, 6, cr14, cr14, cr6, {1}
   24b40:	be6e2196 	mcrlt	1, 3, r2, cr14, cr6, {4}
   24b44:	be6d5e07 	cdplt	14, 6, cr5, cr13, cr7, {0}
   24b48:	be6c9a78 	mcrlt	10, 3, r9, cr12, cr8, {3}
   24b4c:	be6bd6e9 	cdplt	6, 6, cr13, cr11, cr9, {7}
   24b50:	be6b1316 	mcrlt	3, 3, r1, cr11, cr6, {0}
   24b54:	be6a4f87 	cdplt	15, 6, cr4, cr10, cr7, {4}
   24b58:	be698bb5 	vmovlt.8	d25[5], r8
   24b5c:	be68c7e3 	cdplt	7, 6, cr12, cr8, cr3, {7}
   24b60:	be680410 	mcrlt	4, 3, r0, cr8, cr0, {0}
   24b64:	be67403e 	mcrlt	0, 3, r4, cr7, cr14, {1}
   24b68:	be667c6c 	cdplt	12, 6, cr7, cr6, cr12, {3}
   24b6c:	be65b899 	mcrlt	8, 3, fp, cr5, cr9, {4}
   24b70:	be64f484 	cdplt	4, 6, cr15, cr4, cr4, {4}
   24b74:	be64306e 	cdplt	0, 6, cr3, cr4, cr14, {3}
   24b78:	be636c9c 	mcrlt	12, 3, r6, cr3, cr12, {4}
   24b7c:	be62a887 	cdplt	8, 6, cr10, cr2, cr7, {4}
   24b80:	be61e471 	mcrlt	4, 3, lr, cr1, cr1, {3}
   24b84:	be61205c 	mcrlt	0, 3, r2, cr1, cr12, {2}
   24b88:	be605c03 	cdplt	12, 6, cr5, cr0, cr3, {0}
   24b8c:	be5f97ee 	cdplt	7, 5, cr9, cr15, cr14, {7}
   24b90:	be5ed395 	mrclt	3, 2, sp, cr14, cr5, {4}
   24b94:	be5e0f80 	cdplt	15, 5, cr0, cr14, cr0, {4}
   24b98:	be5d4b27 	vnmlslt.f64	d20, d13, d23
   24b9c:	be5c86cf 	cdplt	6, 5, cr8, cr12, cr15, {6}
   24ba0:	be5bc276 	mrclt	2, 2, ip, cr11, cr6, {3}
   24ba4:	be5afe1e 	mrclt	14, 2, APSR_nzcv, cr10, cr14, {0}
   24ba8:	be5a3982 	cdplt	9, 5, cr3, cr10, cr2, {4}
   24bac:	be597529 	cdplt	5, 5, cr7, cr9, cr9, {1}
   24bb0:	be58b08e 	cdplt	0, 5, cr11, cr8, cr14, {4}
   24bb4:	be57ec35 	mrclt	12, 2, lr, cr7, cr5, {1}
   24bb8:	be57279a 	mrclt	7, 2, r2, cr7, cr10, {4}
   24bbc:	be5662fe 	mrclt	2, 2, r6, cr6, cr14, {7}
   24bc0:	be559e62 	cdplt	14, 5, cr9, cr5, cr2, {3}
   24bc4:	be54d9c7 	cdplt	9, 5, cr13, cr4, cr7, {6}
   24bc8:	be5414e8 	cdplt	4, 5, cr1, cr4, cr8, {7}
   24bcc:	be53504c 	cdplt	0, 5, cr5, cr3, cr12, {2}
   24bd0:	be528b6e 	vnmlalt.f64	d24, d2, d30
   24bd4:	be51c6d2 	mrclt	6, 2, ip, cr1, cr2, {6}
   24bd8:	be5101f3 	mrclt	1, 2, r0, cr1, cr3, {7}
   24bdc:	be503d14 	mrclt	13, 2, r3, cr0, cr4, {0}
   24be0:	be4f7836 	mcrlt	8, 2, r7, cr15, cr6, {1}
   24be4:	be4eb357 	mcrlt	3, 2, fp, cr14, cr7, {2}
   24be8:	be4dee78 	mcrlt	14, 2, lr, cr13, cr8, {3}
   24bec:	be4d2956 	mcrlt	9, 2, r2, cr13, cr6, {2}
   24bf0:	be4c6477 	mcrlt	4, 2, r6, cr12, cr7, {3}
   24bf4:	be4b9f56 	mcrlt	15, 2, r9, cr11, cr6, {2}
   24bf8:	be4ada34 	mcrlt	10, 2, sp, cr10, cr4, {1}
   24bfc:	be4a1555 	mcrlt	5, 2, r1, cr10, cr5, {2}
   24c00:	be495033 	mcrlt	0, 2, r5, cr9, cr3, {1}
   24c04:	be488b11 	vmovlt.8	d8[0], r8
   24c08:	be47c5ac 	cdplt	5, 4, cr12, cr7, cr12, {5}
   24c0c:	be47008a 	cdplt	0, 4, cr0, cr7, cr10, {4}
   24c10:	be463b69 	vmlslt.f64	d19, d6, d25
   24c14:	be457604 	cdplt	6, 4, cr7, cr5, cr4, {0}
   24c18:	be44b09f 	mcrlt	0, 2, fp, cr4, cr15, {4}
   24c1c:	be43eb7d 	vmovlt.8	d3[3], lr
   24c20:	be432618 	mcrlt	6, 2, r2, cr3, cr8, {0}
   24c24:	be4260b3 	mcrlt	0, 2, r6, cr2, cr3, {5}
   24c28:	be419b4e 	vmlslt.f64	d25, d1, d14
   24c2c:	be40d5a6 	cdplt	5, 4, cr13, cr0, cr6, {5}
   24c30:	be401041 	cdplt	0, 4, cr1, cr0, cr1, {2}
   24c34:	be3f4adc 	mrclt	10, 1, r4, cr15, cr12, {6}
   24c38:	be3e8534 	mrclt	5, 1, r8, cr14, cr4, {1}
   24c3c:	be3dbf8c 	cdplt	15, 3, cr11, cr13, cr12, {4}
   24c40:	be3cfa27 	vaddlt.f32	s30, s24, s15
   24c44:	be3c347f 	mrclt	4, 1, r3, cr12, cr15, {3}
   24c48:	be3b6ed6 	mrclt	14, 1, r6, cr11, cr6, {6}
   24c4c:	be3aa92e 	cdplt	9, 3, cr10, cr10, cr14, {1}
   24c50:	be39e386 	cdplt	3, 3, cr14, cr9, cr6, {4}
   24c54:	be391d9b 	mrclt	13, 1, r1, cr9, cr11, {4}
   24c58:	be3857f3 	mrclt	7, 1, r5, cr8, cr3, {7}
   24c5c:	be379208 	cdplt	2, 3, cr9, cr7, cr8, {0}
   24c60:	be36cc60 	cdplt	12, 3, cr12, cr6, cr0, {3}
   24c64:	be360675 	mrclt	6, 1, r0, cr6, cr5, {3}
   24c68:	be354089 	cdplt	0, 3, cr4, cr5, cr9, {4}
   24c6c:	be347a9e 	mrclt	10, 1, r7, cr4, cr14, {4}
   24c70:	be33b4b3 	mrclt	4, 1, fp, cr3, cr3, {5}
   24c74:	be32eec8 	cdplt	14, 3, cr14, cr2, cr8, {6}
   24c78:	be3228dd 	mrclt	8, 1, r2, cr2, cr13, {6}
   24c7c:	be3162f1 	mrclt	2, 1, r6, cr1, cr1, {7}
   24c80:	be309cc3 	cdplt	12, 3, cr9, cr0, cr3, {6}
   24c84:	be2fd6d8 	mcrlt	6, 1, sp, cr15, cr8, {6}
   24c88:	be2f10aa 	cdplt	0, 2, cr1, cr15, cr10, {5}
   24c8c:	be2e4a7b 	mcrlt	10, 1, r4, cr14, cr11, {3}
   24c90:	be2d844d 	cdplt	4, 2, cr8, cr13, cr13, {2}
   24c94:	be2cbe1f 	mcrlt	14, 1, fp, cr12, cr15, {0}
   24c98:	be2bf7f0 	mcrlt	7, 1, pc, cr11, cr0, {7}	; <UNPREDICTABLE>
   24c9c:	be2b31c2 	suflt<illegal precision>m	f3, f3, f2
   24ca0:	be2a6b94 	vmovlt.32	d26[1], r6
   24ca4:	be29a565 	cfsh64lt	mvdx10, mvdx9, #53
   24ca8:	be28def4 	mcrlt	14, 1, sp, cr8, cr4, {7}
   24cac:	be2818c6 	cdplt	8, 2, cr1, cr8, cr6, {6}
   24cb0:	be275254 	mcrlt	2, 1, r5, cr7, cr4, {2}
   24cb4:	be268be3 	vnmullt.f64	d8, d22, d19
   24cb8:	be25c572 	mcrlt	5, 1, ip, cr5, cr2, {3}
   24cbc:	be24ff00 	cdplt	15, 2, cr15, cr4, cr0, {0}
   24cc0:	be24388f 	cdplt	8, 2, cr3, cr4, cr15, {4}
   24cc4:	be23721d 	mcrlt	2, 1, r7, cr3, cr13, {0}
   24cc8:	be22abac 	vmullt.f64	d10, d18, d28
   24ccc:	be21e53b 	mcrlt	5, 1, lr, cr1, cr11, {1}
   24cd0:	be211e86 	cdplt	14, 2, cr1, cr1, cr6, {4}
   24cd4:	be205815 	mcrlt	8, 1, r5, cr0, cr5, {0}
   24cd8:	be1f9160 	mnfltez	f1, f0
   24cdc:	be1ecaef 	vnmlalt.f32	s24, s29, s31
   24ce0:	be1e043a 	mrclt	4, 0, r0, cr14, cr10, {1}
   24ce4:	be1d3d86 	cdplt	13, 1, cr3, cr13, cr6, {4}
   24ce8:	be1c76d1 	mrclt	6, 0, r7, cr12, cr1, {6}
   24cec:	be1bb01d 	mrclt	0, 0, fp, cr11, cr13, {0}
   24cf0:	be1ae968 	cdplt	9, 1, cr14, cr10, cr8, {3}
   24cf4:	be1a22b4 	mrclt	2, 0, r2, cr10, cr4, {5}
   24cf8:	be195bff 	vmovlt.s16	r5, d25[1]
   24cfc:	be189507 	cfmul32lt	mvfx9, mvfx8, mvfx7
   24d00:	be17ce53 	mrclt	14, 0, ip, cr7, cr3, {2}
   24d04:	be17075b 	mrclt	7, 0, r0, cr7, cr11, {2}
   24d08:	be164064 	cdplt	0, 1, cr4, cr6, cr4, {3}
   24d0c:	be1579af 	cdplt	9, 1, cr7, cr5, cr15, {5}
   24d10:	be14b2b7 	mrclt	2, 0, fp, cr4, cr7, {5}
   24d14:	be13ebc0 	vnmlalt.f64	d14, d19, d0
   24d18:	be1324c8 	cdplt	4, 1, cr2, cr3, cr8, {6}
   24d1c:	be125dd1 	mrclt	13, 0, r5, cr2, cr1, {6}
   24d20:	be1196d9 	mrclt	6, 0, r9, cr1, cr9, {6}
   24d24:	be10cfe1 	cdplt	15, 1, cr12, cr0, cr1, {7}
   24d28:	be1008a7 	cdplt	8, 1, cr0, cr0, cr7, {5}
   24d2c:	be0f41af 	adflt<illegal precision>p	f4, f7, #10.0
   24d30:	be0e7a74 	mcrlt	10, 0, r7, cr14, cr4, {3}
   24d34:	be0db37d 	mcrlt	3, 0, fp, cr13, cr13, {3}
   24d38:	be0cec42 	cdplt	12, 0, cr14, cr12, cr2, {2}
   24d3c:	be0c2507 	cfsh32lt	mvfx2, mvfx12, #7
   24d40:	be0b5e0f 	cdplt	14, 0, cr5, cr11, cr15, {0}
   24d44:	be0a96d5 	mcrlt	6, 0, r9, cr10, cr5, {6}
   24d48:	be09cf9a 	mcrlt	15, 0, ip, cr9, cr10, {4}
   24d4c:	be09085f 	mcrlt	8, 0, r0, cr9, cr15, {2}
   24d50:	be084125 	adfltep	f4, f0, f5
   24d54:	be0779a7 	cdplt	9, 0, cr7, cr7, cr7, {5}
   24d58:	be06b26c 	cdplt	2, 0, cr11, cr6, cr12, {3}
   24d5c:	be05eb31 	vmovlt.16	d5[0], lr
   24d60:	be0523b3 	mcrlt	3, 0, r2, cr5, cr3, {5}
   24d64:	be045c79 	mcrlt	12, 0, r5, cr4, cr9, {3}
   24d68:	be0394fb 	mcrlt	4, 0, r9, cr3, cr11, {7}
   24d6c:	be02cd7d 	mcrlt	13, 0, ip, cr2, cr13, {3}
   24d70:	be020642 	cfmadd32lt	mvax2, mvfx0, mvfx2, mvfx2
   24d74:	be013ec4 	cdplt	14, 0, cr3, cr1, cr4, {6}
   24d78:	be007747 	cdplt	7, 0, cr7, cr0, cr7, {2}
   24d7c:	bdff5f91 	ldcllt	15, cr5, [pc, #580]!	; 24fc8 <fsintable+0x7fc0>
   24d80:	bdfdd096 	ldcllt	0, cr13, [sp, #600]!	; 0x258
   24d84:	bdfc419a 	ldflte	f4, [ip, #616]!	; 0x268
   24d88:	bdfab29e 	lfmlt	f3, 3, [sl, #632]!	; 0x278
   24d8c:	bdf9231c 	ldcllt	3, cr2, [r9, #112]!	; 0x70
   24d90:	bdf79421 	cfldrdlt	mvd9, [r7, #132]!	; 0x84
   24d94:	bdf60525 	cfldr64lt	mvdx0, [r6, #148]!	; 0x94
   24d98:	bdf475a3 	cfldr64lt	mvdx7, [r4, #652]!	; 0x28c
   24d9c:	bdf2e6a7 	ldcllt	6, cr14, [r2, #668]!	; 0x29c
   24da0:	bdf15726 	ldcllt	7, cr5, [r1, #152]!	; 0x98
   24da4:	bdefc7a4 	stcllt	7, cr12, [pc, #656]!	; 2503c <rand_c+0x1c>
   24da8:	bdee38a8 	stcllt	8, cr3, [lr, #672]!	; 0x2a0
   24dac:	bdeca926 	stcllt	9, cr10, [ip, #152]!	; 0x98
   24db0:	bdeb19a4 	stcllt	9, cr1, [fp, #656]!	; 0x290
   24db4:	bde98a22 	stcllt	10, cr8, [r9, #136]!	; 0x88
   24db8:	bde7faa0 	stcllt	10, cr15, [r7, #640]!	; 0x280
   24dbc:	bde66b1e 	stcllt	11, cr6, [r6, #120]!	; 0x78
   24dc0:	bde4db9c 	stcllt	11, cr13, [r4, #624]!	; 0x270
   24dc4:	bde34b94 	stcllt	11, cr4, [r3, #592]!	; 0x250
   24dc8:	bde1bc12 	stcllt	12, cr11, [r1, #72]!	; 0x48
   24dcc:	bde02c91 	stcllt	12, cr2, [r0, #580]!	; 0x244
   24dd0:	bdde9c88 	ldcllt	12, cr9, [lr, #544]	; 0x220
   24dd4:	bddd0d06 	ldcllt	13, cr0, [sp, #24]
   24dd8:	bddb7cfe 	ldcllt	12, cr7, [fp, #1016]	; 0x3f8
   24ddc:	bdd9ed7c 	ldcllt	13, cr14, [r9, #496]	; 0x1f0
   24de0:	bdd85d74 	ldcllt	13, cr5, [r8, #464]	; 0x1d0
   24de4:	bdd6cd6c 	ldcllt	13, cr12, [r6, #432]	; 0x1b0
   24de8:	bdd53dea 	ldcllt	13, cr3, [r5, #936]	; 0x3a8
   24dec:	bdd3ade2 	ldcllt	13, cr10, [r3, #904]	; 0x388
   24df0:	bdd21dda 	ldcllt	13, cr1, [r2, #872]	; 0x368
   24df4:	bdd08dd2 	ldcllt	13, cr8, [r0, #840]	; 0x348
   24df8:	bdcefdca 	stcllt	13, cr15, [lr, #808]	; 0x328
   24dfc:	bdcd6dc2 	stcllt	13, cr6, [sp, #776]	; 0x308
   24e00:	bdcbddba 	stcllt	13, cr13, [fp, #744]	; 0x2e8
   24e04:	bdca4d2b 	stcllt	13, cr4, [sl, #172]	; 0xac
   24e08:	bdc8bd23 	stcllt	13, cr11, [r8, #140]	; 0x8c
   24e0c:	bdc72d1b 	stcllt	13, cr2, [r7, #108]	; 0x6c
   24e10:	bdc59c8d 	stcllt	12, cr9, [r5, #564]	; 0x234
   24e14:	bdc40c84 	stcllt	12, cr0, [r4, #528]	; 0x210
   24e18:	bdc27bf6 	vstrlt	d23, [r2, #984]	; 0x3d8
   24e1c:	bdc0ebee 	vstrlt	d30, [r0, #952]	; 0x3b8
   24e20:	bdbf5b60 	ldclt	11, cr5, [pc, #384]!	; 24fa8 <fsintable+0x7fa0>
   24e24:	bdbdcb58 	ldclt	11, cr12, [sp, #352]!	; 0x160
   24e28:	bdbc3ac9 	ldclt	10, cr3, [ip, #804]!	; 0x324
   24e2c:	bdbaaa3b 	ldclt	10, cr10, [sl, #236]!	; 0xec
   24e30:	bdb919ac 	ldclt	9, cr1, [r9, #688]!	; 0x2b0
   24e34:	bdb7891e 	ldclt	9, cr8, [r7, #120]!	; 0x78
   24e38:	bdb5f916 	ldclt	9, cr15, [r5, #88]!	; 0x58
   24e3c:	bdb46888 	ldclt	8, cr6, [r4, #544]!	; 0x220
   24e40:	bdb2d7f9 	ldclt	7, cr13, [r2, #996]!	; 0x3e4
   24e44:	bdb146e5 	ldclt	6, cr4, [r1, #916]!	; 0x394
   24e48:	bdafb656 	stclt	6, cr11, [pc, #344]!	; 24fa8 <fsintable+0x7fa0>
   24e4c:	bdae25c8 	cfstr32lt	mvfx2, [lr, #800]!	; 0x320
   24e50:	bdac953a 	cfstr32lt	mvfx9, [ip, #232]!	; 0xe8
   24e54:	bdab04ab 	cfstrslt	mvf0, [fp, #684]!	; 0x2ac
   24e58:	bda97397 	stclt	3, cr7, [r9, #604]!	; 0x25c
   24e5c:	bda7e308 	stclt	3, cr14, [r7, #32]!
   24e60:	bda651f4 	stflts	f5, [r6, #976]!	; 0x3d0
   24e64:	bda4c166 	stfltd	f4, [r4, #408]!	; 0x198
   24e68:	bda33051 	stclt	0, cr3, [r3, #324]!	; 0x144
   24e6c:	bda19fc3 	stclt	15, cr9, [r1, #780]!	; 0x30c
   24e70:	bda00eae 	stclt	14, cr0, [r0, #696]!	; 0x2b8
   24e74:	bd9e7e20 	ldclt	14, cr7, [lr, #128]	; 0x80
   24e78:	bd9ced0b 	ldclt	13, cr14, [ip, #44]	; 0x2c
   24e7c:	bd9b5bf7 	vldrlt	d5, [fp, #988]	; 0x3dc
   24e80:	bd99cae2 	vldrlt	s24, [r9, #904]	; 0x388
   24e84:	bd9839ce 	ldclt	9, cr3, [r8, #824]	; 0x338
   24e88:	bd96a93f 	ldclt	9, cr10, [r6, #252]	; 0xfc
   24e8c:	bd95182b 	ldclt	8, cr1, [r5, #172]	; 0xac
   24e90:	bd938716 	ldclt	7, cr8, [r3, #88]	; 0x58
   24e94:	bd91f601 	ldclt	6, cr15, [r1, #4]
   24e98:	bd9064ed 	cfldrslt	mvf6, [r0, #948]	; 0x3b4
   24e9c:	bd8ed352 	stclt	3, cr13, [lr, #328]	; 0x148
   24ea0:	bd8d423e 	sfmlt	f4, 4, [sp, #248]	; 0xf8
   24ea4:	bd8bb129 	stfltd	f3, [fp, #164]	; 0xa4
   24ea8:	bd8a2014 	stclt	0, cr2, [sl, #80]	; 0x50
   24eac:	bd888f00 	stclt	15, cr8, [r8]
   24eb0:	bd86fd65 	stclt	13, cr15, [r6, #404]	; 0x194
   24eb4:	bd856c51 	stclt	12, cr6, [r5, #324]	; 0x144
   24eb8:	bd83db3c 	vstrlt	d13, [r3, #240]	; 0xf0
   24ebc:	bd8249a1 	stclt	9, cr4, [r2, #644]	; 0x284
   24ec0:	bd80b88d 	stclt	8, cr11, [r0, #564]	; 0x234
   24ec4:	bd7e4de4 	ldcllt	13, cr4, [lr, #-912]!	; 0xfffffc70
   24ec8:	bd7b2bbb 	fldmdbxlt	fp!, {d18-d110}	;@ Deprecated
   24ecc:	bd780885 	ldcllt	8, cr0, [r8, #-532]!	; 0xfffffdec
   24ed0:	bd74e65c 	ldcllt	6, cr14, [r4, #-368]!	; 0xfffffe90
   24ed4:	bd71c326 	ldcllt	3, cr12, [r1, #-152]!	; 0xffffff68
   24ed8:	bd6e9ff1 	stcllt	15, cr9, [lr, #-964]!	; 0xfffffc3c
   24edc:	bd6b7dc8 	stcllt	13, cr7, [fp, #-800]!	; 0xfffffce0
   24ee0:	bd685a92 	vstmdblt	r8!, {s11-s156}
   24ee4:	bd65375d 	stcllt	7, cr3, [r5, #-372]!	; 0xfffffe8c
   24ee8:	bd621427 	cfstrdlt	mvd1, [r2, #-156]!	; 0xffffff64
   24eec:	bd5ef0f1 	ldcllt	0, cr15, [lr, #-964]	; 0xfffffc3c
   24ef0:	bd5bcec8 	ldcllt	14, cr12, [fp, #-800]	; 0xfffffce0
   24ef4:	bd58ab93 	vldrlt	d26, [r8, #-588]	; 0xfffffdb4
   24ef8:	bd55885d 	ldcllt	8, cr8, [r5, #-372]	; 0xfffffe8c
   24efc:	bd526528 	cfldr64lt	mvdx6, [r2, #-160]	; 0xffffff60
   24f00:	bd4f41f2 	stflte	f4, [pc, #-968]	; 24b40 <fsintable+0x7b38>
   24f04:	bd4c1ebd 	stcllt	14, cr1, [ip, #-756]	; 0xfffffd0c
   24f08:	bd48fb87 	vstrlt	d31, [r8, #-540]	; 0xfffffde4
   24f0c:	bd45d851 	stcllt	8, cr13, [r5, #-324]	; 0xfffffebc
   24f10:	bd42b40f 	cfstrdlt	mvd11, [r2, #-60]	; 0xffffffc4
   24f14:	bd3f90da 	ldclt	0, cr9, [pc, #-872]!	; 24bb4 <fsintable+0x7bac>
   24f18:	bd3c6da4 	ldclt	13, cr6, [ip, #-656]!	; 0xfffffd70
   24f1c:	bd394a6f 	vldmdblt	r9!, {s8-s118}
   24f20:	bd362739 	ldclt	7, cr2, [r6, #-228]!	; 0xffffff1c
   24f24:	bd330404 	cfldrslt	mvf0, [r3, #-16]!
   24f28:	bd2fdfc2 	stclt	15, cr13, [pc, #-776]!	; 24c28 <fsintable+0x7c20>
   24f2c:	bd2cbc8c 	stclt	12, cr11, [ip, #-560]!	; 0xfffffdd0
   24f30:	bd299956 	stclt	9, cr9, [r9, #-344]!	; 0xfffffea8
   24f34:	bd267514 	cfstr32lt	mvfx7, [r6, #-80]!	; 0xffffffb0
   24f38:	bd2351df 	stflts	f5, [r3, #-892]!	; 0xfffffc84
   24f3c:	bd202ea9 	stclt	14, cr2, [r0, #-676]!	; 0xfffffd5c
   24f40:	bd1d0a67 	vldrlt	s0, [sp, #-412]	; 0xfffffe64
   24f44:	bd19e732 	ldclt	7, cr14, [r9, #-200]	; 0xffffff38
   24f48:	bd16c2f0 	lfmlt	f4, 1, [r6, #-960]	; 0xfffffc40
   24f4c:	bd139fba 	ldclt	15, cr9, [r3, #-744]	; 0xfffffd18
   24f50:	bd107b78 	vldrlt	d7, [r0, #-480]	; 0xfffffe20
   24f54:	bd0d5843 	stclt	8, cr5, [sp, #-268]	; 0xfffffef4
   24f58:	bd0a3401 	cfstrslt	mvf3, [sl, #-4]
   24f5c:	bd0710cb 	stclt	0, cr1, [r7, #-812]	; 0xfffffcd4
   24f60:	bd03ec89 	stclt	12, cr14, [r3, #-548]	; 0xfffffddc
   24f64:	bd00c847 	stclt	8, cr12, [r0, #-284]	; 0xfffffee4
   24f68:	bcfb4a23 	vldmialt	fp!, {s9-s43}
   24f6c:	bcf5019f 	ldflte	f0, [r5], #636	; 0x27c
   24f70:	bceebb34 	vstmialt	lr!, {d27-<overflow reg d52>}
   24f74:	bce872b0 	sfmlt	f7, 2, [r8], #704	; 0x2c0
   24f78:	bce22a2c 	vstmialt	r2!, {s5-s48}
   24f7c:	bcdbe1a8 	ldfltp	f6, [fp], {168}	; 0xa8
   24f80:	bcd59b3d 	fldmiaxlt	r5, {d25-d54}	;@ Deprecated
   24f84:	bccf52b9 	sfmlt	f5, 2, [pc], {185}	; 0xb9
   24f88:	bcc90a35 	vstmialt	r9, {s1-s53}
   24f8c:	bcc2c1b1 	stfltp	f4, [r2], {177}	; 0xb1
   24f90:	bcbc7b46 	vldmialt	ip!, {d7-<overflow reg d41>}
   24f94:	bcb632c2 	lfmlt	f3, 4, [r6], #776	; 0x308
   24f98:	bcafea3e 	vstmialt	pc!, {s28-s89}
   24f9c:	bca9a1ba 	stfltd	f2, [r9], #744	; 0x2e8
   24fa0:	bca35936 	stclt	9, cr5, [r3], #216	; 0xd8
   24fa4:	bc9d12cb 	lfmlt	f1, 4, [sp], {203}	; 0xcb
   24fa8:	bc96ca47 	vldmialt	r6, {s24-s94}
   24fac:	bc9081c3 	ldfltd	f0, [r0], {195}	; 0xc3
   24fb0:	bc8a393f 	stclt	9, cr3, [sl], {63}	; 0x3f
   24fb4:	bc83f0bb 	stclt	0, cr15, [r3], {187}	; 0xbb
   24fb8:	bc7b506e 	ldcllt	0, cr5, [fp], #-440	; 0xfffffe48
   24fbc:	bc6ebf66 	stcllt	15, cr11, [lr], #-408	; 0xfffffe68
   24fc0:	bc622e5e 	stcllt	14, cr2, [r2], #-376	; 0xfffffe88
   24fc4:	bc559d56 	mrrclt	13, 5, r9, r5, cr6
   24fc8:	bc491080 	mcrrlt	0, 8, r1, r9, cr0
   24fcc:	bc3c7f78 	ldclt	15, cr7, [ip], #-480	; 0xfffffe20
   24fd0:	bc2fee70 	stclt	14, cr14, [pc], #-448	; 24e18 <fsintable+0x7e10>
   24fd4:	bc235d68 	stclt	13, cr5, [r3], #-416	; 0xfffffe60
   24fd8:	bc16cc60 	ldclt	12, cr12, [r6], {96}	; 0x60
   24fdc:	bc0a3b58 	stclt	11, cr3, [sl], {88}	; 0x58
   24fe0:	bbfb54a0 	bllt	ffefa268 <__bss_end+0xff68a268>

00024fe4 <.LANCHOR1>:
   24fe4:	bbe23290 	bllt	ff8b1a2c <__bss_end+0xff041a2c>
   24fe8:	bbc91080 	bllt	ff2691f0 <__bss_end+0xfe9f91f0>
   24fec:	bbafee70 	bllt	fec209b4 <__bss_end+0xfe3b09b4>
   24ff0:	bb96cc60 	bllt	fe5d8178 <__bss_end+0xfdd68178>
   24ff4:	bb7b54a0 	bllt	1efa27c <__bss_end+0x168a27c>
   24ff8:	bb491080 	bllt	1269200 <__bss_end+0x9f9200>
   24ffc:	bb16cc60 	bllt	5d8184 <renderchunk_buffer0+0x5b1884>
   25000:	bac91080 	blt	ff269208 <__bss_end+0xfe9f9208>
   25004:	ba491080 	blt	126920c <__bss_end+0x9f920c>

00025008 <char_table>:
   25008:	33323130 	teqcc	r2, #48, 2
   2500c:	37363534 			; <UNDEFINED> instruction: 0x37363534
   25010:	42413938 	submi	r3, r1, #56, 18	; 0xe0000
   25014:	46454443 	strbmi	r4, [r5], -r3, asr #8

00025018 <rand_a>:
   25018:	00000001 	andeq	r0, r0, r1

0002501c <rand_b>:
   2501c:	00005ba0 	andeq	r5, r0, r0, lsr #23

00025020 <rand_c>:
   25020:	007864cb 	rsbseq	r6, r8, fp, asr #9

Disassembly of section .bss:

00026000 <__bss_start>:
	...

00026100 <command_index>:
	...

00026200 <mailbox_fb_data>:
	...

00026300 <p>:
	...

00026700 <is_fb_init>:
	...

00026800 <vertex_count>:
   26800:	00000000 	andeq	r0, r0, r0

00026804 <offset>:
   26804:	00000000 	andeq	r0, r0, r0

00026808 <float_offset>:
   26808:	00000000 	andeq	r0, r0, r0

0002680c <Width>:
   2680c:	00000000 	andeq	r0, r0, r0

00026810 <Height>:
   26810:	00000000 	andeq	r0, r0, r0

00026814 <frame>:
   26814:	00000000 	andeq	r0, r0, r0

00026818 <frames>:
   26818:	00000000 	andeq	r0, r0, r0

0002681c <last>:
	...

00026900 <renderchunk_buffer0>:
	...

00826900 <context>:
	...

00827200 <vertexdata>:
	...

Disassembly of section .ARM.attributes:

00000000 <.ARM.attributes>:
   0:	00003e41 	andeq	r3, r0, r1, asr #28
   4:	61656100 	cmnvs	r5, r0, lsl #2
   8:	01006962 	tsteq	r0, r2, ror #18
   c:	00000034 	andeq	r0, r0, r4, lsr r0
  10:	726f4305 	rsbvc	r4, pc, #335544320	; 0x14000000
  14:	2d786574 	cfldr64cs	mvdx6, [r8, #-464]!	; 0xfffffe30
  18:	06003741 	streq	r3, [r0], -r1, asr #14
  1c:	0841070a 	stmdaeq	r1, {r1, r3, r8, r9, sl}^
  20:	0a020901 	beq	8242c <renderchunk_buffer0+0x5bb2c>
  24:	12020c05 	andne	r0, r2, #1280	; 0x500
  28:	15011404 	strne	r1, [r1, #-1028]	; 0x404
  2c:	18031701 	stmdane	r3, {r0, r8, r9, sl, ip}
  30:	1b011a01 	blne	4683c <renderchunk_buffer0+0x1ff3c>
  34:	22011c03 	andcs	r1, r1, #768	; 0x300
  38:	2c012a01 	stccs	10, cr2, [r1], {1}
  3c:	Address 0x0000003c is out of bounds.


Disassembly of section .comment:

00000000 <.comment>:
   0:	3a434347 	bcc	10d0d24 <__bss_end+0x860d24>
   4:	4e472820 	cdpmi	8, 4, cr2, cr7, cr0, {1}
   8:	6f542055 	svcvs	0x00542055
   c:	20736c6f 	rsbscs	r6, r3, pc, ror #24
  10:	20726f66 	rsbscs	r6, r2, r6, ror #30
  14:	204d5241 	subcs	r5, sp, r1, asr #4
  18:	65626d45 	strbvs	r6, [r2, #-3397]!	; 0xd45
  1c:	64656464 	strbtvs	r6, [r5], #-1124	; 0x464
  20:	6f725020 	svcvs	0x00725020
  24:	73736563 	cmnvc	r3, #415236096	; 0x18c00000
  28:	2973726f 	ldmdbcs	r3!, {r0, r1, r2, r3, r5, r6, r9, ip, sp, lr}^
  2c:	382e3420 	stmdacc	lr!, {r5, sl, ip, sp}
  30:	3220332e 	eorcc	r3, r0, #-1207959552	; 0xb8000000
  34:	31333130 	teqcc	r3, r0, lsr r1
  38:	20393231 	eorscs	r3, r9, r1, lsr r2
  3c:	6c657228 	sfmvs	f7, 2, [r5], #-160	; 0xffffff60
  40:	65736165 	ldrbvs	r6, [r3, #-357]!	; 0x165
  44:	415b2029 	cmpmi	fp, r9, lsr #32
  48:	652f4d52 	strvs	r4, [pc, #-3410]!	; fffff2fe <__bss_end+0xff78f2fe>
  4c:	6465626d 	strbtvs	r6, [r5], #-621	; 0x26d
  50:	2d646564 	cfstr64cs	mvdx6, [r4, #-400]!	; 0xfffffe70
  54:	2d385f34 	ldccs	15, cr5, [r8, #-208]!	; 0xffffff30
  58:	6e617262 	cdpvs	2, 6, cr7, cr1, cr2, {3}
  5c:	72206863 	eorvc	r6, r0, #6488064	; 0x630000
  60:	73697665 	cmnvc	r9, #105906176	; 0x6500000
  64:	206e6f69 	rsbcs	r6, lr, r9, ror #30
  68:	36353032 			; <UNDEFINED> instruction: 0x36353032
  6c:	005d3134 	subseq	r3, sp, r4, lsr r1
