
image.elf:     file format elf32-littlearm


Disassembly of section .text:

00008000 <__start>:
    8000:	e3a00000 	mov	r0, #0
    8004:	e3a01000 	mov	r1, #0
    8008:	e3a02000 	mov	r2, #0
    800c:	e3a03000 	mov	r3, #0
    8010:	e3a04000 	mov	r4, #0
    8014:	e3a05000 	mov	r5, #0
    8018:	e3a06000 	mov	r6, #0
    801c:	e3a07000 	mov	r7, #0
    8020:	e3a08000 	mov	r8, #0
    8024:	e3a09000 	mov	r9, #0
    8028:	e3a0a000 	mov	sl, #0
    802c:	e3a0b000 	mov	fp, #0
    8030:	ee110f10 	mrc	15, 0, r0, cr1, cr0, {0}
    8034:	e3800004 	orr	r0, r0, #4
    8038:	e3800b02 	orr	r0, r0, #2048	; 0x800
    803c:	e3800a01 	orr	r0, r0, #4096	; 0x1000
    8040:	ee010f10 	mcr	15, 0, r0, cr1, cr0, {0}
    8044:	ee110f50 	mrc	15, 0, r0, cr1, cr0, {2}
    8048:	e3800603 	orr	r0, r0, #3145728	; 0x300000
    804c:	e2800503 	add	r0, r0, #12582912	; 0xc00000
    8050:	ee010f50 	mcr	15, 0, r0, cr1, cr0, {2}
    8054:	e3a00101 	mov	r0, #1073741824	; 0x40000000
    8058:	eee80a10 	vmsr	fpexc, r0
    805c:	ee100fb0 	mrc	15, 0, r0, cr0, cr0, {5}
    8060:	e3500003 	cmp	r0, #3
    8064:	0a00000b 	beq	8098 <_looping>
    8068:	e3500002 	cmp	r0, #2
    806c:	0a000009 	beq	8098 <_looping>
    8070:	e3500001 	cmp	r0, #1
    8074:	0a000003 	beq	8088 <_core1_boot>
    8078:	e3a0d902 	mov	sp, #32768	; 0x8000
    807c:	e3a000d3 	mov	r0, #211	; 0xd3
    8080:	e129f000 	msr	CPSR_fc, r0
    8084:	ea0009d9 	b	a7f0 <main>

00008088 <_core1_boot>:
    8088:	e3a0d901 	mov	sp, #16384	; 0x4000
    808c:	e3a000d3 	mov	r0, #211	; 0xd3
    8090:	e129f000 	msr	CPSR_fc, r0
    8094:	ea00008d 	b	82d0 <core1_update>

00008098 <_looping>:
    8098:	eafffffe 	b	8098 <_looping>

0000809c <DataMemoryBarrierAll>:
    809c:	e3a00000 	mov	r0, #0
    80a0:	ee070f16 	mcr	15, 0, r0, cr7, cr6, {0}
    80a4:	ee070f1a 	mcr	15, 0, r0, cr7, cr10, {0}
    80a8:	ee070f1e 	mcr	15, 0, r0, cr7, cr14, {0}
    80ac:	ee070f9a 	mcr	15, 0, r0, cr7, cr10, {4}
    80b0:	ee070fba 	mcr	15, 0, r0, cr7, cr10, {5}
    80b4:	e1a0f00e 	mov	pc, lr

000080b8 <MemoryBarrier>:
    80b8:	ee07cf15 	mcr	15, 0, ip, cr7, cr5, {0}
    80bc:	ee07cfd5 	mcr	15, 0, ip, cr7, cr5, {6}
    80c0:	ee07cf9a 	mcr	15, 0, ip, cr7, cr10, {4}
    80c4:	ee07cf95 	mcr	15, 0, ip, cr7, cr5, {4}
    80c8:	e1a0f00e 	mov	pc, lr

000080cc <SetupCache>:
    80cc:	e3a00000 	mov	r0, #0
    80d0:	ee070f17 	mcr	15, 0, r0, cr7, cr7, {0}
    80d4:	ee080f17 	mcr	15, 0, r0, cr8, cr7, {0}
    80d8:	ee110f10 	mrc	15, 0, r0, cr1, cr0, {0}
    80dc:	e59f104c 	ldr	r1, [pc, #76]	; 8130 <reset_jump+0x14>
    80e0:	e1800001 	orr	r0, r0, r1
    80e4:	ee010f10 	mcr	15, 0, r0, cr1, cr0, {0}
    80e8:	e1a0f00e 	mov	pc, lr

000080ec <DiscardDataCache>:
    80ec:	e3a00000 	mov	r0, #0
    80f0:	ee070f16 	mcr	15, 0, r0, cr7, cr6, {0}
    80f4:	e1a0f00e 	mov	pc, lr

000080f8 <DataMemoryBarrier>:
    80f8:	e3a00000 	mov	r0, #0
    80fc:	ee070fba 	mcr	15, 0, r0, cr7, cr10, {5}
    8100:	e1a0f00e 	mov	pc, lr

00008104 <DataSyncBarrier>:
    8104:	e3a00000 	mov	r0, #0
    8108:	ee070f9a 	mcr	15, 0, r0, cr7, cr10, {4}
    810c:	e1a0f00e 	mov	pc, lr

00008110 <FlushCache>:
    8110:	e3a00000 	mov	r0, #0
    8114:	ee070f1a 	mcr	15, 0, r0, cr7, cr10, {0}
    8118:	e1a0f00e 	mov	pc, lr

0000811c <reset_jump>:
    811c:	e3a01000 	mov	r1, #0
    8120:	e3a02000 	mov	r2, #0
    8124:	e3a03000 	mov	r3, #0
    8128:	e3a04000 	mov	r4, #0
    812c:	e1a0f000 	mov	pc, r0
    8130:	00001004 	andeq	r1, r0, r4

00008134 <func_command>:
    8134:	e92d4070 	push	{r4, r5, r6, lr}
    8138:	e1a04000 	mov	r4, r0
    813c:	e5d03000 	ldrb	r3, [r0]
    8140:	e20330df 	and	r3, r3, #223	; 0xdf
    8144:	e3530044 	cmp	r3, #68	; 0x44
    8148:	02802001 	addeq	r2, r0, #1
    814c:	03a00000 	moveq	r0, #0
    8150:	0a00001e 	beq	81d0 <func_command+0x9c>
    8154:	e3530057 	cmp	r3, #87	; 0x57
    8158:	03a00000 	moveq	r0, #0
    815c:	0a000007 	beq	8180 <func_command+0x4c>
    8160:	ea00002b 	b	8214 <func_command+0xe0>
    8164:	e1a00200 	lsl	r0, r0, #4
    8168:	e35c0009 	cmp	ip, #9
    816c:	90800002 	addls	r0, r0, r2
    8170:	e35e0005 	cmp	lr, #5
    8174:	90800006 	addls	r0, r0, r6
    8178:	e3510005 	cmp	r1, #5
    817c:	90800005 	addls	r0, r0, r5
    8180:	e5f43001 	ldrb	r3, [r4, #1]!
    8184:	e3530000 	cmp	r3, #0
    8188:	e2432030 	sub	r2, r3, #48	; 0x30
    818c:	e243e041 	sub	lr, r3, #65	; 0x41
    8190:	e6efc072 	uxtb	ip, r2
    8194:	e2431061 	sub	r1, r3, #97	; 0x61
    8198:	e2436037 	sub	r6, r3, #55	; 0x37
    819c:	e2435057 	sub	r5, r3, #87	; 0x57
    81a0:	1affffef 	bne	8164 <func_command+0x30>
    81a4:	e3a01a01 	mov	r1, #4096	; 0x1000
    81a8:	e8bd4070 	pop	{r4, r5, r6, lr}
    81ac:	ea00074a 	b	9edc <uart_dump>
    81b0:	e1a00200 	lsl	r0, r0, #4
    81b4:	e35e0009 	cmp	lr, #9
    81b8:	e240e030 	sub	lr, r0, #48	; 0x30
    81bc:	9083000e 	addls	r0, r3, lr
    81c0:	e35c0005 	cmp	ip, #5
    81c4:	90800006 	addls	r0, r0, r6
    81c8:	e3510005 	cmp	r1, #5
    81cc:	90800005 	addls	r0, r0, r5
    81d0:	e5d23000 	ldrb	r3, [r2]
    81d4:	e1a04002 	mov	r4, r2
    81d8:	e2822001 	add	r2, r2, #1
    81dc:	e3530000 	cmp	r3, #0
    81e0:	e243e030 	sub	lr, r3, #48	; 0x30
    81e4:	e243c041 	sub	ip, r3, #65	; 0x41
    81e8:	e2431061 	sub	r1, r3, #97	; 0x61
    81ec:	e2436037 	sub	r6, r3, #55	; 0x37
    81f0:	e2435057 	sub	r5, r3, #87	; 0x57
    81f4:	1affffed 	bne	81b0 <func_command+0x7c>
    81f8:	e3a01a01 	mov	r1, #4096	; 0x1000
    81fc:	eb00075b 	bl	9f70 <uart_bytedump>
    8200:	e5d43000 	ldrb	r3, [r4]
    8204:	e20330df 	and	r3, r3, #223	; 0xdf
    8208:	e3530057 	cmp	r3, #87	; 0x57
    820c:	03a00000 	moveq	r0, #0
    8210:	0affffda 	beq	8180 <func_command+0x4c>
    8214:	e8bd8070 	pop	{r4, r5, r6, pc}

00008218 <console_reset>:
    8218:	e92d4010 	push	{r4, lr}
    821c:	e3054000 	movw	r4, #20480	; 0x5000
    8220:	e3404002 	movt	r4, #2
    8224:	e3a02c01 	mov	r2, #256	; 0x100
    8228:	e3a01000 	mov	r1, #0
    822c:	e1a00004 	mov	r0, r4
    8230:	eb000840 	bl	a338 <memset_t>
    8234:	e3a03000 	mov	r3, #0
    8238:	e5c43100 	strb	r3, [r4, #256]	; 0x100
    823c:	e8bd8010 	pop	{r4, pc}

00008240 <console_update>:
    8240:	e92d4070 	push	{r4, r5, r6, lr}
    8244:	e1a05000 	mov	r5, r0
    8248:	eb000683 	bl	9c5c <uart_getc>
    824c:	e2504000 	subs	r4, r0, #0
    8250:	08bd8070 	popeq	{r4, r5, r6, pc}
    8254:	e354000d 	cmp	r4, #13
    8258:	0a000007 	beq	827c <console_update+0x3c>
    825c:	eb000675 	bl	9c38 <uart_putc>
    8260:	e3053000 	movw	r3, #20480	; 0x5000
    8264:	e3403002 	movt	r3, #2
    8268:	e5d32100 	ldrb	r2, [r3, #256]	; 0x100
    826c:	e7c34002 	strb	r4, [r3, r2]
    8270:	e2822001 	add	r2, r2, #1
    8274:	e5c32100 	strb	r2, [r3, #256]	; 0x100
    8278:	e8bd8070 	pop	{r4, r5, r6, pc}
    827c:	e3054000 	movw	r4, #20480	; 0x5000
    8280:	eb00066c 	bl	9c38 <uart_putc>
    8284:	e3404002 	movt	r4, #2
    8288:	e3a0000a 	mov	r0, #10
    828c:	e3a06000 	mov	r6, #0
    8290:	eb000668 	bl	9c38 <uart_putc>
    8294:	e5d43100 	ldrb	r3, [r4, #256]	; 0x100
    8298:	e3550000 	cmp	r5, #0
    829c:	e7c46003 	strb	r6, [r4, r3]
    82a0:	e2833001 	add	r3, r3, #1
    82a4:	e5c43100 	strb	r3, [r4, #256]	; 0x100
    82a8:	0a000007 	beq	82cc <console_update+0x8c>
    82ac:	e1a00004 	mov	r0, r4
    82b0:	e12fff35 	blx	r5
    82b4:	e3a02c01 	mov	r2, #256	; 0x100
    82b8:	e1a01006 	mov	r1, r6
    82bc:	e1a00004 	mov	r0, r4
    82c0:	eb00081c 	bl	a338 <memset_t>
    82c4:	e5c46100 	strb	r6, [r4, #256]	; 0x100
    82c8:	e8bd8070 	pop	{r4, r5, r6, pc}
    82cc:	e8bd8070 	pop	{r4, r5, r6, pc}

000082d0 <core1_update>:
    82d0:	e92d4010 	push	{r4, lr}
    82d4:	eb00063f 	bl	9bd8 <uart_init>
    82d8:	e30b0000 	movw	r0, #45056	; 0xb000
    82dc:	e3400001 	movt	r0, #1
    82e0:	eb000664 	bl	9c78 <uart_puts>
    82e4:	e3a00601 	mov	r0, #1048576	; 0x100000
    82e8:	eb000805 	bl	a304 <usleep>
    82ec:	e3080134 	movw	r0, #33076	; 0x8134
    82f0:	e3400000 	movt	r0, #0
    82f4:	ebffffd1 	bl	8240 <console_update>
    82f8:	eafffffb 	b	82ec <core1_update+0x1c>

000082fc <dispDiag>:
    82fc:	e92d41f0 	push	{r4, r5, r6, r7, r8, lr}
    8300:	e3a065ff 	mov	r6, #1069547520	; 0x3fc00000
    8304:	e3a02002 	mov	r2, #2
    8308:	e3a01000 	mov	r1, #0
    830c:	e1a05000 	mov	r5, r0
    8310:	e3a07a01 	mov	r7, #4096	; 0x1000
    8314:	e5960100 	ldr	r0, [r6, #256]	; 0x100
    8318:	e3437f20 	movt	r7, #16160	; 0x3f20
    831c:	eb00078e 	bl	a15c <draw_dword>
    8320:	e5960104 	ldr	r0, [r6, #260]	; 0x104
    8324:	e3a01000 	mov	r1, #0
    8328:	e1a04001 	mov	r4, r1
    832c:	e3a02003 	mov	r2, #3
    8330:	eb000789 	bl	a15c <draw_dword>
    8334:	e5960f20 	ldr	r0, [r6, #3872]	; 0xf20
    8338:	e3a02004 	mov	r2, #4
    833c:	e1a01004 	mov	r1, r4
    8340:	eb000785 	bl	a15c <draw_dword>
    8344:	e5960134 	ldr	r0, [r6, #308]	; 0x134
    8348:	e3a02006 	mov	r2, #6
    834c:	e1a01004 	mov	r1, r4
    8350:	eb000781 	bl	a15c <draw_dword>
    8354:	e5960138 	ldr	r0, [r6, #312]	; 0x138
    8358:	e3a02007 	mov	r2, #7
    835c:	e1a01004 	mov	r1, r4
    8360:	eb00077d 	bl	a15c <draw_dword>
    8364:	e5960130 	ldr	r0, [r6, #304]	; 0x130
    8368:	e3a02008 	mov	r2, #8
    836c:	e1a01004 	mov	r1, r4
    8370:	eb000779 	bl	a15c <draw_dword>
    8374:	e5960f04 	ldr	r0, [r6, #3844]	; 0xf04
    8378:	e3a02009 	mov	r2, #9
    837c:	e1a01004 	mov	r1, r4
    8380:	eb000775 	bl	a15c <draw_dword>
    8384:	e5960030 	ldr	r0, [r6, #48]	; 0x30
    8388:	e3a0200a 	mov	r2, #10
    838c:	e1a01004 	mov	r1, r4
    8390:	eb000771 	bl	a15c <draw_dword>
    8394:	e5960500 	ldr	r0, [r6, #1280]	; 0x500
    8398:	e3a0200b 	mov	r2, #11
    839c:	e1a01004 	mov	r1, r4
    83a0:	eb00076d 	bl	a15c <draw_dword>
    83a4:	e596030c 	ldr	r0, [r6, #780]	; 0x30c
    83a8:	e3a0200c 	mov	r2, #12
    83ac:	e1a01004 	mov	r1, r4
    83b0:	eb000769 	bl	a15c <draw_dword>
    83b4:	e5960308 	ldr	r0, [r6, #776]	; 0x308
    83b8:	e3a0200d 	mov	r2, #13
    83bc:	e1a01004 	mov	r1, r4
    83c0:	eb000765 	bl	a15c <draw_dword>
    83c4:	e5960304 	ldr	r0, [r6, #772]	; 0x304
    83c8:	e3a0200e 	mov	r2, #14
    83cc:	e1a01004 	mov	r1, r4
    83d0:	eb000761 	bl	a15c <draw_dword>
    83d4:	e5960008 	ldr	r0, [r6, #8]
    83d8:	e3a0200f 	mov	r2, #15
    83dc:	e1a01004 	mov	r1, r4
    83e0:	eb00075d 	bl	a15c <draw_dword>
    83e4:	e5970000 	ldr	r0, [r7]
    83e8:	e3a02010 	mov	r2, #16
    83ec:	e1a01004 	mov	r1, r4
    83f0:	eb000759 	bl	a15c <draw_dword>
    83f4:	e5970018 	ldr	r0, [r7, #24]
    83f8:	e3a02011 	mov	r2, #17
    83fc:	e1a01004 	mov	r1, r4
    8400:	eb000755 	bl	a15c <draw_dword>
    8404:	e4950004 	ldr	r0, [r5], #4
    8408:	e1a02004 	mov	r2, r4
    840c:	e3a0101b 	mov	r1, #27
    8410:	e2844001 	add	r4, r4, #1
    8414:	eb000750 	bl	a15c <draw_dword>
    8418:	e3540018 	cmp	r4, #24
    841c:	1afffff8 	bne	8404 <dispDiag+0x108>
    8420:	e8bd81f0 	pop	{r4, r5, r6, r7, r8, pc}

00008424 <uartDiag>:
    8424:	e92d4070 	push	{r4, r5, r6, lr}
    8428:	e30b5010 	movw	r5, #45072	; 0xb010
    842c:	e3405001 	movt	r5, #1
    8430:	e3a045ff 	mov	r4, #1069547520	; 0x3fc00000
    8434:	e1a00005 	mov	r0, r5
    8438:	eb00060e 	bl	9c78 <uart_puts>
    843c:	e5941100 	ldr	r1, [r4, #256]	; 0x100
    8440:	e30b0048 	movw	r0, #45128	; 0xb048
    8444:	e3400001 	movt	r0, #1
    8448:	eb000682 	bl	9e58 <uart_debug_puts>
    844c:	e5941104 	ldr	r1, [r4, #260]	; 0x104
    8450:	e30b0064 	movw	r0, #45156	; 0xb064
    8454:	e3400001 	movt	r0, #1
    8458:	eb00067e 	bl	9e58 <uart_debug_puts>
    845c:	e5941f20 	ldr	r1, [r4, #3872]	; 0xf20
    8460:	e30b0080 	movw	r0, #45184	; 0xb080
    8464:	e3400001 	movt	r0, #1
    8468:	eb00067a 	bl	9e58 <uart_debug_puts>
    846c:	e5941134 	ldr	r1, [r4, #308]	; 0x134
    8470:	e30b009c 	movw	r0, #45212	; 0xb09c
    8474:	e3400001 	movt	r0, #1
    8478:	eb000676 	bl	9e58 <uart_debug_puts>
    847c:	e5941138 	ldr	r1, [r4, #312]	; 0x138
    8480:	e30b00b8 	movw	r0, #45240	; 0xb0b8
    8484:	e3400001 	movt	r0, #1
    8488:	eb000672 	bl	9e58 <uart_debug_puts>
    848c:	e5941130 	ldr	r1, [r4, #304]	; 0x130
    8490:	e30b00d4 	movw	r0, #45268	; 0xb0d4
    8494:	e3400001 	movt	r0, #1
    8498:	eb00066e 	bl	9e58 <uart_debug_puts>
    849c:	e5941f04 	ldr	r1, [r4, #3844]	; 0xf04
    84a0:	e30b00f0 	movw	r0, #45296	; 0xb0f0
    84a4:	e3400001 	movt	r0, #1
    84a8:	eb00066a 	bl	9e58 <uart_debug_puts>
    84ac:	e5941030 	ldr	r1, [r4, #48]	; 0x30
    84b0:	e30b010c 	movw	r0, #45324	; 0xb10c
    84b4:	e3400001 	movt	r0, #1
    84b8:	eb000666 	bl	9e58 <uart_debug_puts>
    84bc:	e5941500 	ldr	r1, [r4, #1280]	; 0x500
    84c0:	e30b0128 	movw	r0, #45352	; 0xb128
    84c4:	e3400001 	movt	r0, #1
    84c8:	eb000662 	bl	9e58 <uart_debug_puts>
    84cc:	e594130c 	ldr	r1, [r4, #780]	; 0x30c
    84d0:	e30b0144 	movw	r0, #45380	; 0xb144
    84d4:	e3400001 	movt	r0, #1
    84d8:	eb00065e 	bl	9e58 <uart_debug_puts>
    84dc:	e5941308 	ldr	r1, [r4, #776]	; 0x308
    84e0:	e30b0160 	movw	r0, #45408	; 0xb160
    84e4:	e3400001 	movt	r0, #1
    84e8:	eb00065a 	bl	9e58 <uart_debug_puts>
    84ec:	e5941304 	ldr	r1, [r4, #772]	; 0x304
    84f0:	e30b017c 	movw	r0, #45436	; 0xb17c
    84f4:	e3400001 	movt	r0, #1
    84f8:	eb000656 	bl	9e58 <uart_debug_puts>
    84fc:	e5941008 	ldr	r1, [r4, #8]
    8500:	e30b0198 	movw	r0, #45464	; 0xb198
    8504:	e3400001 	movt	r0, #1
    8508:	eb000652 	bl	9e58 <uart_debug_puts>
    850c:	e1a00005 	mov	r0, r5
    8510:	e8bd4070 	pop	{r4, r5, r6, lr}
    8514:	ea0005d7 	b	9c78 <uart_puts>

00008518 <get_fontdata16x16>:
    8518:	e30b0000 	movw	r0, #45056	; 0xb000
    851c:	e3400000 	movt	r0, #0
    8520:	e12fff1e 	bx	lr

00008524 <disp_wakeup_v3d>:
    8524:	e92d4070 	push	{r4, r5, r6, lr}
    8528:	e3a06e1d 	mov	r6, #464	; 0x1d0
    852c:	e3a04583 	mov	r4, #549453824	; 0x20c00000
    8530:	e34260c0 	movt	r6, #8384	; 0x20c0
    8534:	e3a05000 	mov	r5, #0
    8538:	e5940000 	ldr	r0, [r4]
    853c:	e1a02005 	mov	r2, r5
    8540:	e3a01000 	mov	r1, #0
    8544:	e2844010 	add	r4, r4, #16
    8548:	eb000703 	bl	a15c <draw_dword>
    854c:	e514000c 	ldr	r0, [r4, #-12]
    8550:	e1a02005 	mov	r2, r5
    8554:	e3a01009 	mov	r1, #9
    8558:	eb0006ff 	bl	a15c <draw_dword>
    855c:	e5140008 	ldr	r0, [r4, #-8]
    8560:	e1a02005 	mov	r2, r5
    8564:	e3a01012 	mov	r1, #18
    8568:	eb0006fb 	bl	a15c <draw_dword>
    856c:	e5140004 	ldr	r0, [r4, #-4]
    8570:	e1a02005 	mov	r2, r5
    8574:	e3a0101b 	mov	r1, #27
    8578:	e2855001 	add	r5, r5, #1
    857c:	eb0006f6 	bl	a15c <draw_dword>
    8580:	e1540006 	cmp	r4, r6
    8584:	1affffeb 	bne	8538 <disp_wakeup_v3d+0x14>
    8588:	e8bd8070 	pop	{r4, r5, r6, pc}

0000858c <output_enable_status_led.part.0>:
    858c:	e3a03000 	mov	r3, #0
    8590:	e3a02602 	mov	r2, #2097152	; 0x200000
    8594:	e3433f20 	movt	r3, #16160	; 0x3f20
    8598:	e3a00ffa 	mov	r0, #1000	; 0x3e8
    859c:	e5832010 	str	r2, [r3, #16]
    85a0:	ea000757 	b	a304 <usleep>

000085a4 <_hald_led>:
    85a4:	e92d4080 	push	{r7, lr}
    85a8:	e3a04000 	mov	r4, #0
    85ac:	e3a06902 	mov	r6, #32768	; 0x8000
    85b0:	e3434f20 	movt	r4, #16160	; 0x3f20
    85b4:	e1a07006 	mov	r7, r6
    85b8:	e1a05000 	mov	r5, r0
    85bc:	ebfffff2 	bl	858c <output_enable_status_led.part.0>
    85c0:	e5847020 	str	r7, [r4, #32]
    85c4:	e1a00005 	mov	r0, r5
    85c8:	eb00074d 	bl	a304 <usleep>
    85cc:	e584602c 	str	r6, [r4, #44]	; 0x2c
    85d0:	e1a00005 	mov	r0, r5
    85d4:	eb00074a 	bl	a304 <usleep>
    85d8:	eafffff8 	b	85c0 <_hald_led+0x1c>

000085dc <output_enable_status_led>:
    85dc:	eaffffea 	b	858c <output_enable_status_led.part.0>

000085e0 <halt_led0>:
    85e0:	e92d4010 	push	{r4, lr}
    85e4:	e30c0350 	movw	r0, #50000	; 0xc350
    85e8:	ebffffed 	bl	85a4 <_hald_led>

000085ec <halt_led1>:
    85ec:	e30a0e60 	movw	r0, #44640	; 0xae60
    85f0:	e92d4010 	push	{r4, lr}
    85f4:	e340000a 	movt	r0, #10
    85f8:	ebffffe9 	bl	85a4 <_hald_led>

000085fc <on_status_led>:
    85fc:	e92d4010 	push	{r4, lr}
    8600:	ebffffe1 	bl	858c <output_enable_status_led.part.0>
    8604:	e3a03000 	mov	r3, #0
    8608:	e3a02902 	mov	r2, #32768	; 0x8000
    860c:	e3433f20 	movt	r3, #16160	; 0x3f20
    8610:	e583202c 	str	r2, [r3, #44]	; 0x2c
    8614:	e8bd8010 	pop	{r4, pc}

00008618 <off_status_led>:
    8618:	e92d4010 	push	{r4, lr}
    861c:	ebffffda 	bl	858c <output_enable_status_led.part.0>
    8620:	e3a03000 	mov	r3, #0
    8624:	e3a02902 	mov	r2, #32768	; 0x8000
    8628:	e3433f20 	movt	r3, #16160	; 0x3f20
    862c:	e5832020 	str	r2, [r3, #32]
    8630:	e8bd8010 	pop	{r4, pc}

00008634 <mark_status_led>:
    8634:	e92d4070 	push	{r4, r5, r6, lr}
    8638:	e3a05000 	mov	r5, #0
    863c:	e3a0400a 	mov	r4, #10
    8640:	e3435f20 	movt	r5, #16160	; 0x3f20
    8644:	e3a06902 	mov	r6, #32768	; 0x8000
    8648:	ebffffcf 	bl	858c <output_enable_status_led.part.0>
    864c:	e5856020 	str	r6, [r5, #32]
    8650:	e30806a0 	movw	r0, #34464	; 0x86a0
    8654:	e3400001 	movt	r0, #1
    8658:	eb000729 	bl	a304 <usleep>
    865c:	e585602c 	str	r6, [r5, #44]	; 0x2c
    8660:	e30806a0 	movw	r0, #34464	; 0x86a0
    8664:	e3400001 	movt	r0, #1
    8668:	eb000725 	bl	a304 <usleep>
    866c:	e2544001 	subs	r4, r4, #1
    8670:	1afffff5 	bne	864c <mark_status_led+0x18>
    8674:	e8bd8070 	pop	{r4, r5, r6, pc}

00008678 <ArmToVc>:
    8678:	e2800103 	add	r0, r0, #-1073741824	; 0xc0000000
    867c:	e12fff1e 	bx	lr

00008680 <VcToArm>:
    8680:	e3c00103 	bic	r0, r0, #-1073741824	; 0xc0000000
    8684:	e12fff1e 	bx	lr

00008688 <mailbox_fb_getaddr>:
    8688:	e3050200 	movw	r0, #20992	; 0x5200
    868c:	e3400002 	movt	r0, #2
    8690:	e12fff1e 	bx	lr

00008694 <mailbox_read>:
    8694:	e92d40f0 	push	{r4, r5, r6, r7, lr}
    8698:	e3a04a0b 	mov	r4, #45056	; 0xb000
    869c:	e24dd00c 	sub	sp, sp, #12
    86a0:	e3a03000 	mov	r3, #0
    86a4:	e3434f00 	movt	r4, #16128	; 0x3f00
    86a8:	e1a06000 	mov	r6, r0
    86ac:	e58d3004 	str	r3, [sp, #4]
    86b0:	e1a07004 	mov	r7, r4
    86b4:	ebffffd0 	bl	85fc <on_status_led>
    86b8:	ebfffe7e 	bl	80b8 <MemoryBarrier>
    86bc:	e5943898 	ldr	r3, [r4, #2200]	; 0x898
    86c0:	e3a00801 	mov	r0, #65536	; 0x10000
    86c4:	e3130101 	tst	r3, #1073741824	; 0x40000000
    86c8:	0a00000a 	beq	86f8 <mailbox_read+0x64>
    86cc:	eb00070c 	bl	a304 <usleep>
    86d0:	e59d3004 	ldr	r3, [sp, #4]
    86d4:	e2833001 	add	r3, r3, #1
    86d8:	e58d3004 	str	r3, [sp, #4]
    86dc:	e59d3004 	ldr	r3, [sp, #4]
    86e0:	e3530a05 	cmp	r3, #20480	; 0x5000
    86e4:	dafffff4 	ble	86bc <mailbox_read+0x28>
    86e8:	ebffffca 	bl	8618 <off_status_led>
    86ec:	e3a00000 	mov	r0, #0
    86f0:	e28dd00c 	add	sp, sp, #12
    86f4:	e8bd80f0 	pop	{r4, r5, r6, r7, pc}
    86f8:	ebfffe6e 	bl	80b8 <MemoryBarrier>
    86fc:	e5975880 	ldr	r5, [r7, #2176]	; 0x880
    8700:	e205300f 	and	r3, r5, #15
    8704:	e1530006 	cmp	r3, r6
    8708:	1affffea 	bne	86b8 <mailbox_read+0x24>
    870c:	ebffffc1 	bl	8618 <off_status_led>
    8710:	e3c5000f 	bic	r0, r5, #15
    8714:	eafffff5 	b	86f0 <mailbox_read+0x5c>

00008718 <mailbox_write>:
    8718:	e92d4070 	push	{r4, r5, r6, lr}
    871c:	e1a04000 	mov	r4, r0
    8720:	e1a05001 	mov	r5, r1
    8724:	ebfffe63 	bl	80b8 <MemoryBarrier>
    8728:	ebffffb3 	bl	85fc <on_status_led>
    872c:	e3a03a0b 	mov	r3, #45056	; 0xb000
    8730:	e3433f00 	movt	r3, #16128	; 0x3f00
    8734:	e5932898 	ldr	r2, [r3, #2200]	; 0x898
    8738:	e3520000 	cmp	r2, #0
    873c:	ba000008 	blt	8764 <mailbox_write+0x4c>
    8740:	ebffffb4 	bl	8618 <off_status_led>
    8744:	ebfffe5b 	bl	80b8 <MemoryBarrier>
    8748:	e3c5000f 	bic	r0, r5, #15
    874c:	e3a03a0b 	mov	r3, #45056	; 0xb000
    8750:	e1800004 	orr	r0, r0, r4
    8754:	e3433f00 	movt	r3, #16128	; 0x3f00
    8758:	e58308a0 	str	r0, [r3, #2208]	; 0x8a0
    875c:	e3a00000 	mov	r0, #0
    8760:	e8bd8070 	pop	{r4, r5, r6, pc}
    8764:	e1a06003 	mov	r6, r3
    8768:	e3a00801 	mov	r0, #65536	; 0x10000
    876c:	eb0006e4 	bl	a304 <usleep>
    8770:	e5963898 	ldr	r3, [r6, #2200]	; 0x898
    8774:	e3530000 	cmp	r3, #0
    8778:	aafffff0 	bge	8740 <mailbox_write+0x28>
    877c:	eafffff9 	b	8768 <mailbox_write+0x50>

00008780 <mailbox_qpu_enable>:
    8780:	e92d4070 	push	{r4, r5, r6, lr}
    8784:	e3055200 	movw	r5, #20992	; 0x5200
    8788:	e3405002 	movt	r5, #2
    878c:	e308c002 	movw	ip, #32770	; 0x8002
    8790:	e3a03000 	mov	r3, #0
    8794:	e340c003 	movt	ip, #3
    8798:	e5853100 	str	r3, [r5, #256]	; 0x100
    879c:	e30b0280 	movw	r0, #45696	; 0xb280
    87a0:	e5853104 	str	r3, [r5, #260]	; 0x104
    87a4:	e3a02008 	mov	r2, #8
    87a8:	e585c108 	str	ip, [r5, #264]	; 0x108
    87ac:	e3400ee6 	movt	r0, #3814	; 0xee6
    87b0:	e585210c 	str	r2, [r5, #268]	; 0x10c
    87b4:	e3a0c005 	mov	ip, #5
    87b8:	e5852110 	str	r2, [r5, #272]	; 0x110
    87bc:	e3a01012 	mov	r1, #18
    87c0:	e585c114 	str	ip, [r5, #276]	; 0x114
    87c4:	e3a02004 	mov	r2, #4
    87c8:	e5850118 	str	r0, [r5, #280]	; 0x118
    87cc:	e3401003 	movt	r1, #3
    87d0:	e585111c 	str	r1, [r5, #284]	; 0x11c
    87d4:	e3a0c001 	mov	ip, #1
    87d8:	e5852120 	str	r2, [r5, #288]	; 0x120
    87dc:	e3a00030 	mov	r0, #48	; 0x30
    87e0:	e5852124 	str	r2, [r5, #292]	; 0x124
    87e4:	e1a06005 	mov	r6, r5
    87e8:	e585c128 	str	ip, [r5, #296]	; 0x128
    87ec:	e585312c 	str	r3, [r5, #300]	; 0x12c
    87f0:	e5850100 	str	r0, [r5, #256]	; 0x100
    87f4:	ea000001 	b	8800 <mailbox_qpu_enable+0x80>
    87f8:	e5961104 	ldr	r1, [r6, #260]	; 0x104
    87fc:	eb000595 	bl	9e58 <uart_debug_puts>
    8800:	e3051200 	movw	r1, #20992	; 0x5200
    8804:	e3a00008 	mov	r0, #8
    8808:	e3401002 	movt	r1, #2
    880c:	e3054200 	movw	r4, #20992	; 0x5200
    8810:	e2811103 	add	r1, r1, #-1073741824	; 0xc0000000
    8814:	e3404002 	movt	r4, #2
    8818:	e2811c01 	add	r1, r1, #256	; 0x100
    881c:	ebffffbd 	bl	8718 <mailbox_write>
    8820:	e3a00008 	mov	r0, #8
    8824:	ebffff9a 	bl	8694 <mailbox_read>
    8828:	e5953104 	ldr	r3, [r5, #260]	; 0x104
    882c:	e30b0298 	movw	r0, #45720	; 0xb298
    8830:	e3400001 	movt	r0, #1
    8834:	e3530102 	cmp	r3, #-2147483648	; 0x80000000
    8838:	1affffee 	bne	87f8 <mailbox_qpu_enable+0x78>
    883c:	e5941104 	ldr	r1, [r4, #260]	; 0x104
    8840:	e30b02bc 	movw	r0, #45756	; 0xb2bc
    8844:	e3400001 	movt	r0, #1
    8848:	eb000582 	bl	9e58 <uart_debug_puts>
    884c:	e5940104 	ldr	r0, [r4, #260]	; 0x104
    8850:	e8bd8070 	pop	{r4, r5, r6, pc}

00008854 <mailbox_allocate_memory>:
    8854:	e92d4070 	push	{r4, r5, r6, lr}
    8858:	e3055200 	movw	r5, #20992	; 0x5200
    885c:	e3405002 	movt	r5, #2
    8860:	e3a0e00c 	mov	lr, #12
    8864:	e3a03000 	mov	r3, #0
    8868:	e340e003 	movt	lr, #3
    886c:	e5853100 	str	r3, [r5, #256]	; 0x100
    8870:	e3a0c00c 	mov	ip, #12
    8874:	e5853104 	str	r3, [r5, #260]	; 0x104
    8878:	e1a06005 	mov	r6, r5
    887c:	e585e108 	str	lr, [r5, #264]	; 0x108
    8880:	e3a0e024 	mov	lr, #36	; 0x24
    8884:	e585c10c 	str	ip, [r5, #268]	; 0x10c
    8888:	e585c110 	str	ip, [r5, #272]	; 0x110
    888c:	e5850114 	str	r0, [r5, #276]	; 0x114
    8890:	e5851118 	str	r1, [r5, #280]	; 0x118
    8894:	e585211c 	str	r2, [r5, #284]	; 0x11c
    8898:	e5853120 	str	r3, [r5, #288]	; 0x120
    889c:	e585e100 	str	lr, [r5, #256]	; 0x100
    88a0:	ea000001 	b	88ac <mailbox_allocate_memory+0x58>
    88a4:	e5961104 	ldr	r1, [r6, #260]	; 0x104
    88a8:	eb00056a 	bl	9e58 <uart_debug_puts>
    88ac:	e3051200 	movw	r1, #20992	; 0x5200
    88b0:	e3a00008 	mov	r0, #8
    88b4:	e3401002 	movt	r1, #2
    88b8:	e3054200 	movw	r4, #20992	; 0x5200
    88bc:	e2811103 	add	r1, r1, #-1073741824	; 0xc0000000
    88c0:	e3404002 	movt	r4, #2
    88c4:	e2811c01 	add	r1, r1, #256	; 0x100
    88c8:	ebffff92 	bl	8718 <mailbox_write>
    88cc:	e3a00008 	mov	r0, #8
    88d0:	ebffff6f 	bl	8694 <mailbox_read>
    88d4:	e5953104 	ldr	r3, [r5, #260]	; 0x104
    88d8:	e30b02d4 	movw	r0, #45780	; 0xb2d4
    88dc:	e3400001 	movt	r0, #1
    88e0:	e3530102 	cmp	r3, #-2147483648	; 0x80000000
    88e4:	1affffee 	bne	88a4 <mailbox_allocate_memory+0x50>
    88e8:	e5941114 	ldr	r1, [r4, #276]	; 0x114
    88ec:	e30b02f8 	movw	r0, #45816	; 0xb2f8
    88f0:	e3400001 	movt	r0, #1
    88f4:	eb000557 	bl	9e58 <uart_debug_puts>
    88f8:	e5940114 	ldr	r0, [r4, #276]	; 0x114
    88fc:	e8bd8070 	pop	{r4, r5, r6, pc}

00008900 <mailbox_free_memory>:
    8900:	e92d4070 	push	{r4, r5, r6, lr}
    8904:	e3054200 	movw	r4, #20992	; 0x5200
    8908:	e3404002 	movt	r4, #2
    890c:	e3a0100f 	mov	r1, #15
    8910:	e3a03000 	mov	r3, #0
    8914:	e3401003 	movt	r1, #3
    8918:	e5843100 	str	r3, [r4, #256]	; 0x100
    891c:	e3a02004 	mov	r2, #4
    8920:	e5843104 	str	r3, [r4, #260]	; 0x104
    8924:	e1a05004 	mov	r5, r4
    8928:	e5841108 	str	r1, [r4, #264]	; 0x108
    892c:	e3a0101c 	mov	r1, #28
    8930:	e584210c 	str	r2, [r4, #268]	; 0x10c
    8934:	e5842110 	str	r2, [r4, #272]	; 0x110
    8938:	e5840114 	str	r0, [r4, #276]	; 0x114
    893c:	e5843118 	str	r3, [r4, #280]	; 0x118
    8940:	e5841100 	str	r1, [r4, #256]	; 0x100
    8944:	ea000001 	b	8950 <mailbox_free_memory+0x50>
    8948:	e5951104 	ldr	r1, [r5, #260]	; 0x104
    894c:	eb000541 	bl	9e58 <uart_debug_puts>
    8950:	e3051200 	movw	r1, #20992	; 0x5200
    8954:	e3a00008 	mov	r0, #8
    8958:	e3401002 	movt	r1, #2
    895c:	e2811103 	add	r1, r1, #-1073741824	; 0xc0000000
    8960:	e2811c01 	add	r1, r1, #256	; 0x100
    8964:	ebffff6b 	bl	8718 <mailbox_write>
    8968:	e3a00008 	mov	r0, #8
    896c:	ebffff48 	bl	8694 <mailbox_read>
    8970:	e5942104 	ldr	r2, [r4, #260]	; 0x104
    8974:	e30b02d4 	movw	r0, #45780	; 0xb2d4
    8978:	e3053200 	movw	r3, #20992	; 0x5200
    897c:	e3400001 	movt	r0, #1
    8980:	e3520102 	cmp	r2, #-2147483648	; 0x80000000
    8984:	e3403002 	movt	r3, #2
    8988:	1affffee 	bne	8948 <mailbox_free_memory+0x48>
    898c:	e5930114 	ldr	r0, [r3, #276]	; 0x114
    8990:	e8bd8070 	pop	{r4, r5, r6, pc}

00008994 <mailbox_lock_memory>:
    8994:	e92d4070 	push	{r4, r5, r6, lr}
    8998:	e3054200 	movw	r4, #20992	; 0x5200
    899c:	e3404002 	movt	r4, #2
    89a0:	e3a0100d 	mov	r1, #13
    89a4:	e3a03000 	mov	r3, #0
    89a8:	e3401003 	movt	r1, #3
    89ac:	e5843100 	str	r3, [r4, #256]	; 0x100
    89b0:	e3a02004 	mov	r2, #4
    89b4:	e5843104 	str	r3, [r4, #260]	; 0x104
    89b8:	e1a05004 	mov	r5, r4
    89bc:	e5841108 	str	r1, [r4, #264]	; 0x108
    89c0:	e3a0101c 	mov	r1, #28
    89c4:	e584210c 	str	r2, [r4, #268]	; 0x10c
    89c8:	e5842110 	str	r2, [r4, #272]	; 0x110
    89cc:	e5840114 	str	r0, [r4, #276]	; 0x114
    89d0:	e5843118 	str	r3, [r4, #280]	; 0x118
    89d4:	e5841100 	str	r1, [r4, #256]	; 0x100
    89d8:	ea000001 	b	89e4 <mailbox_lock_memory+0x50>
    89dc:	e5951104 	ldr	r1, [r5, #260]	; 0x104
    89e0:	eb00051c 	bl	9e58 <uart_debug_puts>
    89e4:	e3051200 	movw	r1, #20992	; 0x5200
    89e8:	e3a00008 	mov	r0, #8
    89ec:	e3401002 	movt	r1, #2
    89f0:	e2811103 	add	r1, r1, #-1073741824	; 0xc0000000
    89f4:	e2811c01 	add	r1, r1, #256	; 0x100
    89f8:	ebffff46 	bl	8718 <mailbox_write>
    89fc:	e3a00008 	mov	r0, #8
    8a00:	ebffff23 	bl	8694 <mailbox_read>
    8a04:	e5942104 	ldr	r2, [r4, #260]	; 0x104
    8a08:	e30b031c 	movw	r0, #45852	; 0xb31c
    8a0c:	e3053200 	movw	r3, #20992	; 0x5200
    8a10:	e3400001 	movt	r0, #1
    8a14:	e3520102 	cmp	r2, #-2147483648	; 0x80000000
    8a18:	e3403002 	movt	r3, #2
    8a1c:	1affffee 	bne	89dc <mailbox_lock_memory+0x48>
    8a20:	e5930114 	ldr	r0, [r3, #276]	; 0x114
    8a24:	e8bd8070 	pop	{r4, r5, r6, pc}

00008a28 <mailbox_unlock_memory>:
    8a28:	e92d4070 	push	{r4, r5, r6, lr}
    8a2c:	e3054200 	movw	r4, #20992	; 0x5200
    8a30:	e3404002 	movt	r4, #2
    8a34:	e3a0100e 	mov	r1, #14
    8a38:	e3a03000 	mov	r3, #0
    8a3c:	e3401003 	movt	r1, #3
    8a40:	e5843100 	str	r3, [r4, #256]	; 0x100
    8a44:	e3a02004 	mov	r2, #4
    8a48:	e5843104 	str	r3, [r4, #260]	; 0x104
    8a4c:	e1a05004 	mov	r5, r4
    8a50:	e5841108 	str	r1, [r4, #264]	; 0x108
    8a54:	e3a0101c 	mov	r1, #28
    8a58:	e584210c 	str	r2, [r4, #268]	; 0x10c
    8a5c:	e5842110 	str	r2, [r4, #272]	; 0x110
    8a60:	e5840114 	str	r0, [r4, #276]	; 0x114
    8a64:	e5843118 	str	r3, [r4, #280]	; 0x118
    8a68:	e5841100 	str	r1, [r4, #256]	; 0x100
    8a6c:	ea000001 	b	8a78 <mailbox_unlock_memory+0x50>
    8a70:	e5951104 	ldr	r1, [r5, #260]	; 0x104
    8a74:	eb0004f7 	bl	9e58 <uart_debug_puts>
    8a78:	e3051200 	movw	r1, #20992	; 0x5200
    8a7c:	e3a00008 	mov	r0, #8
    8a80:	e3401002 	movt	r1, #2
    8a84:	e2811103 	add	r1, r1, #-1073741824	; 0xc0000000
    8a88:	e2811c01 	add	r1, r1, #256	; 0x100
    8a8c:	ebffff21 	bl	8718 <mailbox_write>
    8a90:	e3a00008 	mov	r0, #8
    8a94:	ebfffefe 	bl	8694 <mailbox_read>
    8a98:	e5942104 	ldr	r2, [r4, #260]	; 0x104
    8a9c:	e30b02d4 	movw	r0, #45780	; 0xb2d4
    8aa0:	e3053200 	movw	r3, #20992	; 0x5200
    8aa4:	e3400001 	movt	r0, #1
    8aa8:	e3520102 	cmp	r2, #-2147483648	; 0x80000000
    8aac:	e3403002 	movt	r3, #2
    8ab0:	1affffee 	bne	8a70 <mailbox_unlock_memory+0x48>
    8ab4:	e5930114 	ldr	r0, [r3, #276]	; 0x114
    8ab8:	e8bd8070 	pop	{r4, r5, r6, pc}

00008abc <mailbox_fb_init>:
    8abc:	e92d4070 	push	{r4, r5, r6, lr}
    8ac0:	e3055200 	movw	r5, #20992	; 0x5200
    8ac4:	e3405002 	movt	r5, #2
    8ac8:	e3a03000 	mov	r3, #0
    8acc:	e3a02020 	mov	r2, #32
    8ad0:	e1a04003 	mov	r4, r3
    8ad4:	e5850000 	str	r0, [r5]
    8ad8:	e5851004 	str	r1, [r5, #4]
    8adc:	e5951000 	ldr	r1, [r5]
    8ae0:	e5851008 	str	r1, [r5, #8]
    8ae4:	e5951004 	ldr	r1, [r5, #4]
    8ae8:	e585100c 	str	r1, [r5, #12]
    8aec:	e5853010 	str	r3, [r5, #16]
    8af0:	e5852014 	str	r2, [r5, #20]
    8af4:	e5853018 	str	r3, [r5, #24]
    8af8:	e585301c 	str	r3, [r5, #28]
    8afc:	e5853020 	str	r3, [r5, #32]
    8b00:	e5853024 	str	r3, [r5, #36]	; 0x24
    8b04:	e5853028 	str	r3, [r5, #40]	; 0x28
    8b08:	ea000007 	b	8b2c <mailbox_fb_init+0x70>
    8b0c:	ebfffeba 	bl	85fc <on_status_led>
    8b10:	e3a00a01 	mov	r0, #4096	; 0x1000
    8b14:	e2844001 	add	r4, r4, #1
    8b18:	eb0005f9 	bl	a304 <usleep>
    8b1c:	e30b0340 	movw	r0, #45888	; 0xb340
    8b20:	e1a01004 	mov	r1, r4
    8b24:	e3400001 	movt	r0, #1
    8b28:	eb0004ca 	bl	9e58 <uart_debug_puts>
    8b2c:	e3051200 	movw	r1, #20992	; 0x5200
    8b30:	e3a00001 	mov	r0, #1
    8b34:	e3401002 	movt	r1, #2
    8b38:	e2811103 	add	r1, r1, #-1073741824	; 0xc0000000
    8b3c:	ebfffef5 	bl	8718 <mailbox_write>
    8b40:	e3a00001 	mov	r0, #1
    8b44:	ebfffed2 	bl	8694 <mailbox_read>
    8b48:	e5952020 	ldr	r2, [r5, #32]
    8b4c:	e3053200 	movw	r3, #20992	; 0x5200
    8b50:	e3403002 	movt	r3, #2
    8b54:	e3520000 	cmp	r2, #0
    8b58:	1a000003 	bne	8b6c <mailbox_fb_init+0xb0>
    8b5c:	e3140001 	tst	r4, #1
    8b60:	1affffe9 	bne	8b0c <mailbox_fb_init+0x50>
    8b64:	ebfffeab 	bl	8618 <off_status_led>
    8b68:	eaffffe8 	b	8b10 <mailbox_fb_init+0x54>
    8b6c:	e5931020 	ldr	r1, [r3, #32]
    8b70:	e3a0c001 	mov	ip, #1
    8b74:	e5932020 	ldr	r2, [r3, #32]
    8b78:	e3a00000 	mov	r0, #0
    8b7c:	e583c500 	str	ip, [r3, #1280]	; 0x500
    8b80:	e3c22103 	bic	r2, r2, #-1073741824	; 0xc0000000
    8b84:	e5832020 	str	r2, [r3, #32]
    8b88:	e5831028 	str	r1, [r3, #40]	; 0x28
    8b8c:	e8bd8070 	pop	{r4, r5, r6, pc}

00008b90 <mailbox_fb_test>:
    8b90:	e92d4070 	push	{r4, r5, r6, lr}
    8b94:	e3a01e2d 	mov	r1, #720	; 0x2d0
    8b98:	e1a04000 	mov	r4, r0
    8b9c:	e3a00c05 	mov	r0, #1280	; 0x500
    8ba0:	ebffffc5 	bl	8abc <mailbox_fb_init>
    8ba4:	e3053200 	movw	r3, #20992	; 0x5200
    8ba8:	e3403002 	movt	r3, #2
    8bac:	e5932500 	ldr	r2, [r3, #1280]	; 0x500
    8bb0:	e3520000 	cmp	r2, #0
    8bb4:	0a00001b 	beq	8c28 <mailbox_fb_test+0x98>
    8bb8:	e593e504 	ldr	lr, [r3, #1284]	; 0x504
    8bbc:	e3a00501 	mov	r0, #4194304	; 0x400000
    8bc0:	e5906020 	ldr	r6, [r0, #32]
    8bc4:	e28ee001 	add	lr, lr, #1
    8bc8:	e583e504 	str	lr, [r3, #1284]	; 0x504
    8bcc:	e5903004 	ldr	r3, [r0, #4]
    8bd0:	e3530000 	cmp	r3, #0
    8bd4:	13a0c000 	movne	ip, #0
    8bd8:	0a000012 	beq	8c28 <mailbox_fb_test+0x98>
    8bdc:	e5903000 	ldr	r3, [r0]
    8be0:	e3530000 	cmp	r3, #0
    8be4:	0a00000b 	beq	8c18 <mailbox_fb_test+0x88>
    8be8:	e08e500c 	add	r5, lr, ip
    8bec:	e3a02000 	mov	r2, #0
    8bf0:	e5901000 	ldr	r1, [r0]
    8bf4:	e08e3002 	add	r3, lr, r2
    8bf8:	e0233005 	eor	r3, r3, r5
    8bfc:	e021219c 	mla	r1, ip, r1, r2
    8c00:	e1a03413 	lsl	r3, r3, r4
    8c04:	e2822001 	add	r2, r2, #1
    8c08:	e7863101 	str	r3, [r6, r1, lsl #2]
    8c0c:	e5903000 	ldr	r3, [r0]
    8c10:	e1530002 	cmp	r3, r2
    8c14:	8afffff5 	bhi	8bf0 <mailbox_fb_test+0x60>
    8c18:	e5903004 	ldr	r3, [r0, #4]
    8c1c:	e28cc001 	add	ip, ip, #1
    8c20:	e153000c 	cmp	r3, ip
    8c24:	8affffec 	bhi	8bdc <mailbox_fb_test+0x4c>
    8c28:	e3a00000 	mov	r0, #0
    8c2c:	e8bd8070 	pop	{r4, r5, r6, pc}

00008c30 <mailbox_fb_ptr>:
    8c30:	e3053200 	movw	r3, #20992	; 0x5200
    8c34:	e3403002 	movt	r3, #2
    8c38:	e5930500 	ldr	r0, [r3, #1280]	; 0x500
    8c3c:	e3500000 	cmp	r0, #0
    8c40:	15930020 	ldrne	r0, [r3, #32]
    8c44:	e12fff1e 	bx	lr

00008c48 <mailbox_fb_set_pixel>:
    8c48:	e3053200 	movw	r3, #20992	; 0x5200
    8c4c:	e3403002 	movt	r3, #2
    8c50:	e593c500 	ldr	ip, [r3, #1280]	; 0x500
    8c54:	e35c0000 	cmp	ip, #0
    8c58:	012fff1e 	bxeq	lr
    8c5c:	e191c002 	orrs	ip, r1, r2
    8c60:	412fff1e 	bxmi	lr
    8c64:	e593c000 	ldr	ip, [r3]
    8c68:	e15c0001 	cmp	ip, r1
    8c6c:	912fff1e 	bxls	lr
    8c70:	e593c004 	ldr	ip, [r3, #4]
    8c74:	e15c0002 	cmp	ip, r2
    8c78:	8593c000 	ldrhi	ip, [r3]
    8c7c:	85933020 	ldrhi	r3, [r3, #32]
    8c80:	8022129c 	mlahi	r2, ip, r2, r1
    8c84:	87830102 	strhi	r0, [r3, r2, lsl #2]
    8c88:	e12fff1e 	bx	lr

00008c8c <init_render_chunk_buffer>:
    8c8c:	e3010c00 	movw	r0, #7168	; 0x1c00
    8c90:	e3a02502 	mov	r2, #8388608	; 0x800000
    8c94:	e3400015 	movt	r0, #21
    8c98:	e3a0105a 	mov	r1, #90	; 0x5a
    8c9c:	ea0005a5 	b	a338 <memset_t>

00008ca0 <V3DControlSetShaderInfo>:
    8ca0:	e92d4010 	push	{r4, lr}
    8ca4:	e3a01801 	mov	r1, #65536	; 0x10000
    8ca8:	e1a04000 	mov	r4, r0
    8cac:	eb000622 	bl	a53c <V3DSetOffset>
    8cb0:	e1a00004 	mov	r0, r4
    8cb4:	e3a01000 	mov	r1, #0
    8cb8:	eb0006c0 	bl	a7c0 <V3DWrite8>
    8cbc:	e1a00004 	mov	r0, r4
    8cc0:	e3a01018 	mov	r1, #24
    8cc4:	eb0006bd 	bl	a7c0 <V3DWrite8>
    8cc8:	e1a00004 	mov	r0, r4
    8ccc:	e3a01000 	mov	r1, #0
    8cd0:	eb0006ba 	bl	a7c0 <V3DWrite8>
    8cd4:	e1a00004 	mov	r0, r4
    8cd8:	e3a01003 	mov	r1, #3
    8cdc:	eb0006b7 	bl	a7c0 <V3DWrite8>
    8ce0:	e5941008 	ldr	r1, [r4, #8]
    8ce4:	e1a00004 	mov	r0, r4
    8ce8:	e2811809 	add	r1, r1, #589824	; 0x90000
    8cec:	eb000675 	bl	a6c8 <V3DWrite32>
    8cf0:	e1a00004 	mov	r0, r4
    8cf4:	e3a01000 	mov	r1, #0
    8cf8:	eb000672 	bl	a6c8 <V3DWrite32>
    8cfc:	e5941008 	ldr	r1, [r4, #8]
    8d00:	e1a00004 	mov	r0, r4
    8d04:	e281181b 	add	r1, r1, #1769472	; 0x1b0000
    8d08:	eb00066e 	bl	a6c8 <V3DWrite32>
    8d0c:	e1a00004 	mov	r0, r4
    8d10:	e3a0180b 	mov	r1, #720896	; 0xb0000
    8d14:	eb000608 	bl	a53c <V3DSetOffset>
    8d18:	e1a00004 	mov	r0, r4
    8d1c:	e3a01000 	mov	r1, #0
    8d20:	eb0006a6 	bl	a7c0 <V3DWrite8>
    8d24:	e1a00004 	mov	r0, r4
    8d28:	e3a01001 	mov	r1, #1
    8d2c:	eb0006a3 	bl	a7c0 <V3DWrite8>
    8d30:	e1a00004 	mov	r0, r4
    8d34:	e3a01002 	mov	r1, #2
    8d38:	e8bd4010 	pop	{r4, lr}
    8d3c:	ea00069f 	b	a7c0 <V3DWrite8>

00008d40 <V3DControlSetFragmentShader>:
    8d40:	e92d4070 	push	{r4, r5, r6, lr}
    8d44:	e3a01809 	mov	r1, #589824	; 0x90000
    8d48:	e1a04000 	mov	r4, r0
    8d4c:	eb0005fa 	bl	a53c <V3DSetOffset>
    8d50:	e3001dbf 	movw	r1, #3519	; 0xdbf
    8d54:	e1a00004 	mov	r0, r4
    8d58:	e349158e 	movt	r1, #38286	; 0x958e
    8d5c:	e3a05a07 	mov	r5, #28672	; 0x7000
    8d60:	e340509e 	movt	r5, #158	; 0x9e
    8d64:	eb000657 	bl	a6c8 <V3DWrite32>
    8d68:	e3041823 	movw	r1, #18467	; 0x4823
    8d6c:	e1a00004 	mov	r0, r4
    8d70:	e34d1172 	movt	r1, #53618	; 0xd172
    8d74:	eb000653 	bl	a6c8 <V3DWrite32>
    8d78:	e3071176 	movw	r1, #29046	; 0x7176
    8d7c:	e1a00004 	mov	r0, r4
    8d80:	e348118e 	movt	r1, #33166	; 0x818e
    8d84:	eb00064f 	bl	a6c8 <V3DWrite32>
    8d88:	e3041821 	movw	r1, #18465	; 0x4821
    8d8c:	e1a00004 	mov	r0, r4
    8d90:	e3441002 	movt	r1, #16386	; 0x4002
    8d94:	eb00064b 	bl	a6c8 <V3DWrite32>
    8d98:	e3071376 	movw	r1, #29558	; 0x7376
    8d9c:	e1a00004 	mov	r0, r4
    8da0:	e348118e 	movt	r1, #33166	; 0x818e
    8da4:	eb000647 	bl	a6c8 <V3DWrite32>
    8da8:	e3041862 	movw	r1, #18530	; 0x4862
    8dac:	e1a00004 	mov	r0, r4
    8db0:	e3411002 	movt	r1, #4098	; 0x1002
    8db4:	eb000643 	bl	a6c8 <V3DWrite32>
    8db8:	e3071540 	movw	r1, #30016	; 0x7540
    8dbc:	e1a00004 	mov	r0, r4
    8dc0:	e348119e 	movt	r1, #33182	; 0x819e
    8dc4:	eb00063f 	bl	a6c8 <V3DWrite32>
    8dc8:	e30418a3 	movw	r1, #18595	; 0x48a3
    8dcc:	e1a00004 	mov	r0, r4
    8dd0:	e3411142 	movt	r1, #4418	; 0x1142
    8dd4:	eb00063b 	bl	a6c8 <V3DWrite32>
    8dd8:	e3071009 	movw	r1, #28681	; 0x7009
    8ddc:	e1a00004 	mov	r0, r4
    8de0:	e348109e 	movt	r1, #32926	; 0x809e
    8de4:	eb000637 	bl	a6c8 <V3DWrite32>
    8de8:	e30419e3 	movw	r1, #18915	; 0x49e3
    8dec:	e1a00004 	mov	r0, r4
    8df0:	e3411150 	movt	r1, #4432	; 0x1150
    8df4:	eb000633 	bl	a6c8 <V3DWrite32>
    8df8:	e3071012 	movw	r1, #28690	; 0x7012
    8dfc:	e1a00004 	mov	r0, r4
    8e00:	e348109e 	movt	r1, #32926	; 0x809e
    8e04:	eb00062f 	bl	a6c8 <V3DWrite32>
    8e08:	e30419e3 	movw	r1, #18915	; 0x49e3
    8e0c:	e1a00004 	mov	r0, r4
    8e10:	e3411160 	movt	r1, #4448	; 0x1160
    8e14:	eb00062b 	bl	a6c8 <V3DWrite32>
    8e18:	e30716c0 	movw	r1, #30400	; 0x76c0
    8e1c:	e1a00004 	mov	r0, r4
    8e20:	e341159e 	movt	r1, #5534	; 0x159e
    8e24:	eb000627 	bl	a6c8 <V3DWrite32>
    8e28:	e3001ba7 	movw	r1, #2983	; 0xba7
    8e2c:	e1a00004 	mov	r0, r4
    8e30:	e3431002 	movt	r1, #12290	; 0x3002
    8e34:	eb000623 	bl	a6c8 <V3DWrite32>
    8e38:	e1a01005 	mov	r1, r5
    8e3c:	e1a00004 	mov	r0, r4
    8e40:	eb000620 	bl	a6c8 <V3DWrite32>
    8e44:	e30019e7 	movw	r1, #2535	; 0x9e7
    8e48:	e1a00004 	mov	r0, r4
    8e4c:	e3411000 	movt	r1, #4096	; 0x1000
    8e50:	eb00061c 	bl	a6c8 <V3DWrite32>
    8e54:	e1a01005 	mov	r1, r5
    8e58:	e1a00004 	mov	r0, r4
    8e5c:	eb000619 	bl	a6c8 <V3DWrite32>
    8e60:	e30019e7 	movw	r1, #2535	; 0x9e7
    8e64:	e1a00004 	mov	r0, r4
    8e68:	e3451000 	movt	r1, #20480	; 0x5000
    8e6c:	e8bd4070 	pop	{r4, r5, r6, lr}
    8e70:	ea000614 	b	a6c8 <V3DWrite32>

00008e74 <V3DControlListFlush>:
    8e74:	e3a01004 	mov	r1, #4
    8e78:	ea000650 	b	a7c0 <V3DWrite8>

00008e7c <V3DControlListNop>:
    8e7c:	e3a01001 	mov	r1, #1
    8e80:	ea00064e 	b	a7c0 <V3DWrite8>

00008e84 <V3DControlListHalt>:
    8e84:	e3a01000 	mov	r1, #0
    8e88:	ea00064c 	b	a7c0 <V3DWrite8>

00008e8c <V3DControlListCreateBinning>:
    8e8c:	e92d4010 	push	{r4, lr}
    8e90:	e3a01000 	mov	r1, #0
    8e94:	e1a04000 	mov	r4, r0
    8e98:	eb0005a7 	bl	a53c <V3DSetOffset>
    8e9c:	e1a00004 	mov	r0, r4
    8ea0:	e3a01070 	mov	r1, #112	; 0x70
    8ea4:	eb000645 	bl	a7c0 <V3DWrite8>
    8ea8:	e5941008 	ldr	r1, [r4, #8]
    8eac:	e1a00004 	mov	r0, r4
    8eb0:	e2811602 	add	r1, r1, #2097152	; 0x200000
    8eb4:	eb000603 	bl	a6c8 <V3DWrite32>
    8eb8:	e1a00004 	mov	r0, r4
    8ebc:	e3a01a01 	mov	r1, #4096	; 0x1000
    8ec0:	eb000600 	bl	a6c8 <V3DWrite32>
    8ec4:	e5941008 	ldr	r1, [r4, #8]
    8ec8:	e1a00004 	mov	r0, r4
    8ecc:	e2811802 	add	r1, r1, #131072	; 0x20000
    8ed0:	eb0005fc 	bl	a6c8 <V3DWrite32>
    8ed4:	e1a00004 	mov	r0, r4
    8ed8:	e3a01014 	mov	r1, #20
    8edc:	eb000637 	bl	a7c0 <V3DWrite8>
    8ee0:	e1a00004 	mov	r0, r4
    8ee4:	e3a0100f 	mov	r1, #15
    8ee8:	eb000634 	bl	a7c0 <V3DWrite8>
    8eec:	e1a00004 	mov	r0, r4
    8ef0:	e3a01005 	mov	r1, #5
    8ef4:	eb000631 	bl	a7c0 <V3DWrite8>
    8ef8:	e1a00004 	mov	r0, r4
    8efc:	e3a01006 	mov	r1, #6
    8f00:	eb00062e 	bl	a7c0 <V3DWrite8>
    8f04:	e1a00004 	mov	r0, r4
    8f08:	e3a01066 	mov	r1, #102	; 0x66
    8f0c:	eb00062b 	bl	a7c0 <V3DWrite8>
    8f10:	e1a00004 	mov	r0, r4
    8f14:	e3a01000 	mov	r1, #0
    8f18:	eb000618 	bl	a780 <V3DWrite16>
    8f1c:	e1a00004 	mov	r0, r4
    8f20:	e3a01000 	mov	r1, #0
    8f24:	eb000615 	bl	a780 <V3DWrite16>
    8f28:	e1a00004 	mov	r0, r4
    8f2c:	e3a01d0a 	mov	r1, #640	; 0x280
    8f30:	eb000612 	bl	a780 <V3DWrite16>
    8f34:	e1a00004 	mov	r0, r4
    8f38:	e3a01e1e 	mov	r1, #480	; 0x1e0
    8f3c:	eb00060f 	bl	a780 <V3DWrite16>
    8f40:	e1a00004 	mov	r0, r4
    8f44:	e3a01067 	mov	r1, #103	; 0x67
    8f48:	eb00061c 	bl	a7c0 <V3DWrite8>
    8f4c:	e1a00004 	mov	r0, r4
    8f50:	e3a01000 	mov	r1, #0
    8f54:	eb000609 	bl	a780 <V3DWrite16>
    8f58:	e1a00004 	mov	r0, r4
    8f5c:	e3a01000 	mov	r1, #0
    8f60:	eb000606 	bl	a780 <V3DWrite16>
    8f64:	e1a00004 	mov	r0, r4
    8f68:	e3a01060 	mov	r1, #96	; 0x60
    8f6c:	eb000613 	bl	a7c0 <V3DWrite8>
    8f70:	e1a00004 	mov	r0, r4
    8f74:	e3a01047 	mov	r1, #71	; 0x47
    8f78:	eb000610 	bl	a7c0 <V3DWrite8>
    8f7c:	e1a00004 	mov	r0, r4
    8f80:	e3a01002 	mov	r1, #2
    8f84:	eb00060d 	bl	a7c0 <V3DWrite8>
    8f88:	e1a00004 	mov	r0, r4
    8f8c:	e3a01000 	mov	r1, #0
    8f90:	eb00060a 	bl	a7c0 <V3DWrite8>
    8f94:	e1a00004 	mov	r0, r4
    8f98:	e3a01041 	mov	r1, #65	; 0x41
    8f9c:	eb000607 	bl	a7c0 <V3DWrite8>
    8fa0:	e5941008 	ldr	r1, [r4, #8]
    8fa4:	e1a00004 	mov	r0, r4
    8fa8:	e2811801 	add	r1, r1, #65536	; 0x10000
    8fac:	eb0005c5 	bl	a6c8 <V3DWrite32>
    8fb0:	e1a00004 	mov	r0, r4
    8fb4:	e3a01021 	mov	r1, #33	; 0x21
    8fb8:	eb000600 	bl	a7c0 <V3DWrite8>
    8fbc:	e1a00004 	mov	r0, r4
    8fc0:	e3a01005 	mov	r1, #5
    8fc4:	eb0005fd 	bl	a7c0 <V3DWrite8>
    8fc8:	e5941034 	ldr	r1, [r4, #52]	; 0x34
    8fcc:	e1a00004 	mov	r0, r4
    8fd0:	eb0005bc 	bl	a6c8 <V3DWrite32>
    8fd4:	e1a00004 	mov	r0, r4
    8fd8:	e3a01000 	mov	r1, #0
    8fdc:	eb0005b9 	bl	a6c8 <V3DWrite32>
    8fe0:	e1a00004 	mov	r0, r4
    8fe4:	e3a01004 	mov	r1, #4
    8fe8:	eb0005f4 	bl	a7c0 <V3DWrite8>
    8fec:	e1a00004 	mov	r0, r4
    8ff0:	e3a01001 	mov	r1, #1
    8ff4:	eb0005f1 	bl	a7c0 <V3DWrite8>
    8ff8:	e1a00004 	mov	r0, r4
    8ffc:	e3a01000 	mov	r1, #0
    9000:	eb000551 	bl	a54c <V3DSaveOffset>
    9004:	e1a00004 	mov	r0, r4
    9008:	ebffff4c 	bl	8d40 <V3DControlSetFragmentShader>
    900c:	e1a00004 	mov	r0, r4
    9010:	e8bd4010 	pop	{r4, lr}
    9014:	eaffff21 	b	8ca0 <V3DControlSetShaderInfo>

00009018 <V3DControlListClearColor>:
    9018:	e92d4070 	push	{r4, r5, r6, lr}
    901c:	e1a04000 	mov	r4, r0
    9020:	e1a06001 	mov	r6, r1
    9024:	e3a01072 	mov	r1, #114	; 0x72
    9028:	e1a05002 	mov	r5, r2
    902c:	eb0005e3 	bl	a7c0 <V3DWrite8>
    9030:	e1a01006 	mov	r1, r6
    9034:	e1a00004 	mov	r0, r4
    9038:	eb0005a2 	bl	a6c8 <V3DWrite32>
    903c:	e1a01005 	mov	r1, r5
    9040:	e1a00004 	mov	r0, r4
    9044:	eb00059f 	bl	a6c8 <V3DWrite32>
    9048:	e1a00004 	mov	r0, r4
    904c:	e3a01000 	mov	r1, #0
    9050:	eb00059c 	bl	a6c8 <V3DWrite32>
    9054:	e1a00004 	mov	r0, r4
    9058:	e3a01000 	mov	r1, #0
    905c:	e8bd4070 	pop	{r4, r5, r6, lr}
    9060:	ea0005d6 	b	a7c0 <V3DWrite8>

00009064 <V3DControlListRenderModeConfig>:
    9064:	e92d47f0 	push	{r4, r5, r6, r7, r8, r9, sl, lr}
    9068:	e1a04000 	mov	r4, r0
    906c:	e5dd6020 	ldrb	r6, [sp, #32]
    9070:	e1a09001 	mov	r9, r1
    9074:	e5dd5024 	ldrb	r5, [sp, #36]	; 0x24
    9078:	e3a01071 	mov	r1, #113	; 0x71
    907c:	e1a08002 	mov	r8, r2
    9080:	e1a07003 	mov	r7, r3
    9084:	eb0005cd 	bl	a7c0 <V3DWrite8>
    9088:	e1a01009 	mov	r1, r9
    908c:	e1a00004 	mov	r0, r4
    9090:	eb00058c 	bl	a6c8 <V3DWrite32>
    9094:	e1a01008 	mov	r1, r8
    9098:	e1a00004 	mov	r0, r4
    909c:	eb0005b7 	bl	a780 <V3DWrite16>
    90a0:	e1a01007 	mov	r1, r7
    90a4:	e1a00004 	mov	r0, r4
    90a8:	eb0005b4 	bl	a780 <V3DWrite16>
    90ac:	e1a01006 	mov	r1, r6
    90b0:	e1a00004 	mov	r0, r4
    90b4:	eb0005c1 	bl	a7c0 <V3DWrite8>
    90b8:	e1a01005 	mov	r1, r5
    90bc:	e1a00004 	mov	r0, r4
    90c0:	e8bd47f0 	pop	{r4, r5, r6, r7, r8, r9, sl, lr}
    90c4:	ea0005bd 	b	a7c0 <V3DWrite8>

000090c8 <V3DControlListRenderTileCoord>:
    90c8:	e92d4070 	push	{r4, r5, r6, lr}
    90cc:	e1a04000 	mov	r4, r0
    90d0:	e1a06001 	mov	r6, r1
    90d4:	e3a01073 	mov	r1, #115	; 0x73
    90d8:	e1a05002 	mov	r5, r2
    90dc:	eb0005b7 	bl	a7c0 <V3DWrite8>
    90e0:	e1a01006 	mov	r1, r6
    90e4:	e1a00004 	mov	r0, r4
    90e8:	eb0005b4 	bl	a7c0 <V3DWrite8>
    90ec:	e1a01005 	mov	r1, r5
    90f0:	e1a00004 	mov	r0, r4
    90f4:	e8bd4070 	pop	{r4, r5, r6, lr}
    90f8:	ea0005b0 	b	a7c0 <V3DWrite8>

000090fc <V3DControlListStoreGeneral>:
    90fc:	e92d4070 	push	{r4, r5, r6, lr}
    9100:	e1a04000 	mov	r4, r0
    9104:	e1a06001 	mov	r6, r1
    9108:	e3a0101c 	mov	r1, #28
    910c:	e1a05002 	mov	r5, r2
    9110:	eb0005aa 	bl	a7c0 <V3DWrite8>
    9114:	e1a01006 	mov	r1, r6
    9118:	e1a00004 	mov	r0, r4
    911c:	eb000597 	bl	a780 <V3DWrite16>
    9120:	e1a01005 	mov	r1, r5
    9124:	e1a00004 	mov	r0, r4
    9128:	e8bd4070 	pop	{r4, r5, r6, lr}
    912c:	ea000565 	b	a6c8 <V3DWrite32>

00009130 <V3DControlListBranchToSublist>:
    9130:	e92d4070 	push	{r4, r5, r6, lr}
    9134:	e1a05001 	mov	r5, r1
    9138:	e1a04000 	mov	r4, r0
    913c:	e3a01011 	mov	r1, #17
    9140:	eb00059e 	bl	a7c0 <V3DWrite8>
    9144:	e1a01005 	mov	r1, r5
    9148:	e1a00004 	mov	r0, r4
    914c:	e8bd4070 	pop	{r4, r5, r6, lr}
    9150:	ea00055c 	b	a6c8 <V3DWrite32>

00009154 <V3DControlListStoreMsResolvedBufferAndEndFrame>:
    9154:	e3a01019 	mov	r1, #25
    9158:	ea000598 	b	a7c0 <V3DWrite8>

0000915c <V3DControlListStoreMsResolvedBuffer>:
    915c:	e3a01018 	mov	r1, #24
    9160:	ea000596 	b	a7c0 <V3DWrite8>

00009164 <V3DControlListCreateRendering>:
    9164:	e92d4ff0 	push	{r4, r5, r6, r7, r8, r9, sl, fp, lr}
    9168:	e1a06001 	mov	r6, r1
    916c:	e24dd00c 	sub	sp, sp, #12
    9170:	e3a01902 	mov	r1, #32768	; 0x8000
    9174:	e1a05000 	mov	r5, r0
    9178:	eb0004ef 	bl	a53c <V3DSetOffset>
    917c:	e3e020ff 	mvn	r2, #255	; 0xff
    9180:	e1a00005 	mov	r0, r5
    9184:	e1a01002 	mov	r1, r2
    9188:	e3a04000 	mov	r4, #0
    918c:	e1a0a004 	mov	sl, r4
    9190:	ebffffa0 	bl	9018 <V3DControlListClearColor>
    9194:	e1a00005 	mov	r0, r5
    9198:	e3a01038 	mov	r1, #56	; 0x38
    919c:	e300912b 	movw	r9, #299	; 0x12b
    91a0:	eb000586 	bl	a7c0 <V3DWrite8>
    91a4:	e1a00005 	mov	r0, r5
    91a8:	e3a01032 	mov	r1, #50	; 0x32
    91ac:	eb000583 	bl	a7c0 <V3DWrite8>
    91b0:	e58d4004 	str	r4, [sp, #4]
    91b4:	e3a03005 	mov	r3, #5
    91b8:	e58d3000 	str	r3, [sp]
    91bc:	e1a01006 	mov	r1, r6
    91c0:	e3a03e1e 	mov	r3, #480	; 0x1e0
    91c4:	e1a00005 	mov	r0, r5
    91c8:	e3a02d0a 	mov	r2, #640	; 0x280
    91cc:	ebffffa4 	bl	9064 <V3DControlListRenderModeConfig>
    91d0:	e1a02004 	mov	r2, r4
    91d4:	e1a01004 	mov	r1, r4
    91d8:	e1a00005 	mov	r0, r5
    91dc:	ebffffb9 	bl	90c8 <V3DControlListRenderTileCoord>
    91e0:	e1a02004 	mov	r2, r4
    91e4:	e1a01004 	mov	r1, r4
    91e8:	e1a00005 	mov	r0, r5
    91ec:	ebffffc2 	bl	90fc <V3DControlListStoreGeneral>
    91f0:	e3a07014 	mov	r7, #20
    91f4:	e3a03d0a 	mov	r3, #640	; 0x280
    91f8:	e6ef807a 	uxtb	r8, sl
    91fc:	e3a0b000 	mov	fp, #0
    9200:	e0070a97 	mul	r7, r7, sl
    9204:	e0060a93 	mul	r6, r3, sl
    9208:	e1a02008 	mov	r2, r8
    920c:	e6ef107b 	uxtb	r1, fp
    9210:	e1a00005 	mov	r0, r5
    9214:	ebffffab 	bl	90c8 <V3DControlListRenderTileCoord>
    9218:	e5954008 	ldr	r4, [r5, #8]
    921c:	e3a01011 	mov	r1, #17
    9220:	e1a00005 	mov	r0, r5
    9224:	e2844602 	add	r4, r4, #2097152	; 0x200000
    9228:	eb000564 	bl	a7c0 <V3DWrite8>
    922c:	e0844006 	add	r4, r4, r6
    9230:	e1a00005 	mov	r0, r5
    9234:	e1a01004 	mov	r1, r4
    9238:	e2866020 	add	r6, r6, #32
    923c:	eb000521 	bl	a6c8 <V3DWrite32>
    9240:	e08b2007 	add	r2, fp, r7
    9244:	e3a01018 	mov	r1, #24
    9248:	e1520009 	cmp	r2, r9
    924c:	e1a00005 	mov	r0, r5
    9250:	03a01019 	moveq	r1, #25
    9254:	e28bb001 	add	fp, fp, #1
    9258:	eb000558 	bl	a7c0 <V3DWrite8>
    925c:	e35b0014 	cmp	fp, #20
    9260:	1affffe8 	bne	9208 <V3DControlListCreateRendering+0xa4>
    9264:	e28aa001 	add	sl, sl, #1
    9268:	e35a000f 	cmp	sl, #15
    926c:	1affffdf 	bne	91f0 <V3DControlListCreateRendering+0x8c>
    9270:	e1a00005 	mov	r0, r5
    9274:	e3a01001 	mov	r1, #1
    9278:	eb000550 	bl	a7c0 <V3DWrite8>
    927c:	e1a00005 	mov	r0, r5
    9280:	e3a01001 	mov	r1, #1
    9284:	e28dd00c 	add	sp, sp, #12
    9288:	e8bd4ff0 	pop	{r4, r5, r6, r7, r8, r9, sl, fp, lr}
    928c:	ea0004ae 	b	a54c <V3DSaveOffset>

00009290 <V3DControlReset>:
    9290:	e3a035ff 	mov	r3, #1069547520	; 0x3fc00000
    9294:	e3a02902 	mov	r2, #32768	; 0x8000
    9298:	e5832100 	str	r2, [r3, #256]	; 0x100
    929c:	e5832104 	str	r2, [r3, #260]	; 0x104
    92a0:	e12fff1e 	bx	lr

000092a4 <V3DControlPresentBinning>:
    92a4:	e3a035ff 	mov	r3, #1069547520	; 0x3fc00000
    92a8:	e3a01001 	mov	r1, #1
    92ac:	e1a02003 	mov	r2, r3
    92b0:	e5831134 	str	r1, [r3, #308]	; 0x134
    92b4:	e5901008 	ldr	r1, [r0, #8]
    92b8:	e590c018 	ldr	ip, [r0, #24]
    92bc:	e081100c 	add	r1, r1, ip
    92c0:	e5831110 	str	r1, [r3, #272]	; 0x110
    92c4:	e5901008 	ldr	r1, [r0, #8]
    92c8:	e590001c 	ldr	r0, [r0, #28]
    92cc:	e0811000 	add	r1, r1, r0
    92d0:	e5831108 	str	r1, [r3, #264]	; 0x108
    92d4:	e5923134 	ldr	r3, [r2, #308]	; 0x134
    92d8:	e3530000 	cmp	r3, #0
    92dc:	0afffffc 	beq	92d4 <V3DControlPresentBinning+0x30>
    92e0:	e12fff1e 	bx	lr

000092e4 <V3DControlPresentRendering>:
    92e4:	e3a035ff 	mov	r3, #1069547520	; 0x3fc00000
    92e8:	e3a01001 	mov	r1, #1
    92ec:	e1a02003 	mov	r2, r3
    92f0:	e5831138 	str	r1, [r3, #312]	; 0x138
    92f4:	e590c020 	ldr	ip, [r0, #32]
    92f8:	e5901008 	ldr	r1, [r0, #8]
    92fc:	e081100c 	add	r1, r1, ip
    9300:	e5831114 	str	r1, [r3, #276]	; 0x114
    9304:	e5901008 	ldr	r1, [r0, #8]
    9308:	e590c024 	ldr	ip, [r0, #36]	; 0x24
    930c:	e081100c 	add	r1, r1, ip
    9310:	e583110c 	str	r1, [r3, #268]	; 0x10c
    9314:	e5923138 	ldr	r3, [r2, #312]	; 0x138
    9318:	e3530000 	cmp	r3, #0
    931c:	0afffffc 	beq	9314 <V3DControlPresentRendering+0x30>
    9320:	e5903038 	ldr	r3, [r0, #56]	; 0x38
    9324:	e2833001 	add	r3, r3, #1
    9328:	e5803038 	str	r3, [r0, #56]	; 0x38
    932c:	e12fff1e 	bx	lr

00009330 <send_framebuffer>:
    9330:	e3510000 	cmp	r1, #0
    9334:	d12fff1e 	bxle	lr
    9338:	e92d4070 	push	{r4, r5, r6, lr}
    933c:	e1a04000 	mov	r4, r0
    9340:	e0815000 	add	r5, r1, r0
    9344:	e4d40001 	ldrb	r0, [r4], #1
    9348:	eb00023a 	bl	9c38 <uart_putc>
    934c:	e1540005 	cmp	r4, r5
    9350:	1afffffb 	bne	9344 <send_framebuffer+0x14>
    9354:	e8bd8070 	pop	{r4, r5, r6, pc}

00009358 <V3DAddPreVertex>:
    9358:	e92d43f0 	push	{r4, r5, r6, r7, r8, r9, lr}
    935c:	e2504000 	subs	r4, r0, #0
    9360:	e24dd00c 	sub	sp, sp, #12
    9364:	0a00001b 	beq	93d8 <V3DAddPreVertex+0x80>
    9368:	ee109a10 	vmov	r9, s0
    936c:	e6ff1071 	uxth	r1, r1
    9370:	e1812802 	orr	r2, r1, r2, lsl #16
    9374:	e58d2004 	str	r2, [sp, #4]
    9378:	ee108a90 	vmov	r8, s1
    937c:	e59d1004 	ldr	r1, [sp, #4]
    9380:	ee125a10 	vmov	r5, s4
    9384:	ee116a90 	vmov	r6, s3
    9388:	ee117a10 	vmov	r7, s2
    938c:	eb0004cd 	bl	a6c8 <V3DWrite32>
    9390:	ee009a10 	vmov	s0, r9
    9394:	e1a00004 	mov	r0, r4
    9398:	eb0004e2 	bl	a728 <V3DFloat32>
    939c:	ee008a10 	vmov	s0, r8
    93a0:	e1a00004 	mov	r0, r4
    93a4:	eb0004df 	bl	a728 <V3DFloat32>
    93a8:	ee007a10 	vmov	s0, r7
    93ac:	e1a00004 	mov	r0, r4
    93b0:	eb0004dc 	bl	a728 <V3DFloat32>
    93b4:	ee006a10 	vmov	s0, r6
    93b8:	e1a00004 	mov	r0, r4
    93bc:	eb0004d9 	bl	a728 <V3DFloat32>
    93c0:	ee005a10 	vmov	s0, r5
    93c4:	e1a00004 	mov	r0, r4
    93c8:	eb0004d6 	bl	a728 <V3DFloat32>
    93cc:	e5943034 	ldr	r3, [r4, #52]	; 0x34
    93d0:	e2833001 	add	r3, r3, #1
    93d4:	e5843034 	str	r3, [r4, #52]	; 0x34
    93d8:	e28dd00c 	add	sp, sp, #12
    93dc:	e8bd83f0 	pop	{r4, r5, r6, r7, r8, r9, pc}

000093e0 <AddVertex>:
    93e0:	e92d4ff0 	push	{r4, r5, r6, r7, r8, r9, sl, fp, lr}
    93e4:	e305b708 	movw	fp, #22280	; 0x5708
    93e8:	e24dd024 	sub	sp, sp, #36	; 0x24
    93ec:	e1a06000 	mov	r6, r0
    93f0:	e340b002 	movt	fp, #2
    93f4:	eb00048b 	bl	a628 <V3DClearOffsetVertex>
    93f8:	e1a00006 	mov	r0, r6
    93fc:	e30c4024 	movw	r4, #49188	; 0xc024
    9400:	e3404001 	movt	r4, #1
    9404:	eb00048c 	bl	a63c <V3DSetOffsetBeginVertex>
    9408:	e59b2008 	ldr	r2, [fp, #8]
    940c:	e3a02064 	mov	r2, #100	; 0x64
    9410:	e59bc008 	ldr	ip, [fp, #8]
    9414:	e1a00006 	mov	r0, r6
    9418:	e59b1008 	ldr	r1, [fp, #8]
    941c:	e00c0c92 	mul	ip, r2, ip
    9420:	e0020192 	mul	r2, r2, r1
    9424:	e1a05fcc 	asr	r5, ip, #31
    9428:	eddb7a01 	vldr	s15, [fp, #4]
    942c:	e2821b02 	add	r1, r2, #2048	; 0x800
    9430:	e1a059a5 	lsr	r5, r5, #19
    9434:	e3a02000 	mov	r2, #0
    9438:	e1a0efc1 	asr	lr, r1, #31
    943c:	e08cc005 	add	ip, ip, r5
    9440:	e1a0e9ae 	lsr	lr, lr, #19
    9444:	e081100e 	add	r1, r1, lr
    9448:	e7ecc05c 	ubfx	ip, ip, #0, #13
    944c:	e7ec1051 	ubfx	r1, r1, #0, #13
    9450:	e065c00c 	rsb	ip, r5, ip
    9454:	eddf6af5 	vldr	s13, [pc, #980]	; 9830 <AddVertex+0x450>
    9458:	e06e1001 	rsb	r1, lr, r1
    945c:	e084c10c 	add	ip, r4, ip, lsl #2
    9460:	e0841101 	add	r1, r4, r1, lsl #2
    9464:	ed9c7a00 	vldr	s14, [ip]
    9468:	eef80be7 	vcvt.f64.s32	d16, s15
    946c:	edd17a00 	vldr	s15, [r1]
    9470:	ee277a26 	vmul.f32	s14, s14, s13
    9474:	ee677aa6 	vmul.f32	s15, s15, s13
    9478:	eddf1bea 	vldr	d17, [pc, #936]	; 9828 <AddVertex+0x448>
    947c:	eeb71a00 	vmov.f32	s2, #112	; 0x3f800000  1.0
    9480:	eebd7ac7 	vcvt.s32.f32	s14, s14
    9484:	ee700ba1 	vadd.f64	d16, d16, d17
    9488:	eefd7ae7 	vcvt.s32.f32	s15, s15
    948c:	e59be000 	ldr	lr, [fp]
    9490:	ee177a10 	vmov	r7, s14
    9494:	ed9f2ae6 	vldr	s4, [pc, #920]	; 9834 <AddVertex+0x454>
    9498:	e28ee010 	add	lr, lr, #16
    949c:	ee175a90 	vmov	r5, s15
    94a0:	e2877a01 	add	r7, r7, #4096	; 0x1000
    94a4:	eefd7be0 	vcvt.s32.f64	s15, d16
    94a8:	e6bf7077 	sxth	r7, r7
    94ac:	eef00a41 	vmov.f32	s1, s2
    94b0:	e1a01007 	mov	r1, r7
    94b4:	eeb00a41 	vmov.f32	s0, s2
    94b8:	e2855a01 	add	r5, r5, #4096	; 0x1000
    94bc:	eef01a42 	vmov.f32	s3, s4
    94c0:	e6ff5075 	uxth	r5, r5
    94c4:	e58be000 	str	lr, [fp]
    94c8:	e6bf5075 	sxth	r5, r5
    94cc:	edcb7a01 	vstr	s15, [fp, #4]
    94d0:	ebffffa0 	bl	9358 <V3DAddPreVertex>
    94d4:	eef71a00 	vmov.f32	s3, #112	; 0x3f800000  1.0
    94d8:	e1a00006 	mov	r0, r6
    94dc:	ed9f2ad4 	vldr	s4, [pc, #848]	; 9834 <AddVertex+0x454>
    94e0:	e3a02c0f 	mov	r2, #3840	; 0xf00
    94e4:	e3a01b0a 	mov	r1, #10240	; 0x2800
    94e8:	eef00a61 	vmov.f32	s1, s3
    94ec:	eeb00a61 	vmov.f32	s0, s3
    94f0:	eeb01a42 	vmov.f32	s2, s4
    94f4:	ebffff97 	bl	9358 <V3DAddPreVertex>
    94f8:	eeb72a00 	vmov.f32	s4, #112	; 0x3f800000  1.0
    94fc:	e1a00006 	mov	r0, r6
    9500:	eddf1acb 	vldr	s3, [pc, #812]	; 9834 <AddVertex+0x454>
    9504:	e3a02000 	mov	r2, #0
    9508:	e3a01b0a 	mov	r1, #10240	; 0x2800
    950c:	eef00a42 	vmov.f32	s1, s4
    9510:	eeb00a42 	vmov.f32	s0, s4
    9514:	eeb01a61 	vmov.f32	s2, s3
    9518:	ebffff8e 	bl	9358 <V3DAddPreVertex>
    951c:	eeb71a00 	vmov.f32	s2, #112	; 0x3f800000  1.0
    9520:	e1a01007 	mov	r1, r7
    9524:	ed9f2ac2 	vldr	s4, [pc, #776]	; 9834 <AddVertex+0x454>
    9528:	e1a00006 	mov	r0, r6
    952c:	e3a02000 	mov	r2, #0
    9530:	eef00a41 	vmov.f32	s1, s2
    9534:	eeb00a41 	vmov.f32	s0, s2
    9538:	eef01a42 	vmov.f32	s3, s4
    953c:	ebffff85 	bl	9358 <V3DAddPreVertex>
    9540:	eeb72a00 	vmov.f32	s4, #112	; 0x3f800000  1.0
    9544:	e1a01007 	mov	r1, r7
    9548:	eddf1ab9 	vldr	s3, [pc, #740]	; 9834 <AddVertex+0x454>
    954c:	e1a00006 	mov	r0, r6
    9550:	e3a02c0f 	mov	r2, #3840	; 0xf00
    9554:	eef00a42 	vmov.f32	s1, s4
    9558:	eeb00a42 	vmov.f32	s0, s4
    955c:	eeb01a61 	vmov.f32	s2, s3
    9560:	ebffff7c 	bl	9358 <V3DAddPreVertex>
    9564:	eef71a00 	vmov.f32	s3, #112	; 0x3f800000  1.0
    9568:	e1a00006 	mov	r0, r6
    956c:	ed9f2ab0 	vldr	s4, [pc, #704]	; 9834 <AddVertex+0x454>
    9570:	e3a02c0f 	mov	r2, #3840	; 0xf00
    9574:	e3a01b0a 	mov	r1, #10240	; 0x2800
    9578:	eef00a61 	vmov.f32	s1, s3
    957c:	eeb00a61 	vmov.f32	s0, s3
    9580:	eeb01a42 	vmov.f32	s2, s4
    9584:	ebffff73 	bl	9358 <V3DAddPreVertex>
    9588:	eeb71a00 	vmov.f32	s2, #112	; 0x3f800000  1.0
    958c:	e1a01005 	mov	r1, r5
    9590:	ed9f2aa7 	vldr	s4, [pc, #668]	; 9834 <AddVertex+0x454>
    9594:	e1a00006 	mov	r0, r6
    9598:	e3a02c0f 	mov	r2, #3840	; 0xf00
    959c:	eef00a41 	vmov.f32	s1, s2
    95a0:	eeb00a41 	vmov.f32	s0, s2
    95a4:	eef01a42 	vmov.f32	s3, s4
    95a8:	ebffff6a 	bl	9358 <V3DAddPreVertex>
    95ac:	eef71a00 	vmov.f32	s3, #112	; 0x3f800000  1.0
    95b0:	e1a01005 	mov	r1, r5
    95b4:	ed9f2a9e 	vldr	s4, [pc, #632]	; 9834 <AddVertex+0x454>
    95b8:	e1a00006 	mov	r0, r6
    95bc:	e3a02c1e 	mov	r2, #7680	; 0x1e00
    95c0:	eef00a61 	vmov.f32	s1, s3
    95c4:	eeb00a61 	vmov.f32	s0, s3
    95c8:	eeb01a42 	vmov.f32	s2, s4
    95cc:	ebffff61 	bl	9358 <V3DAddPreVertex>
    95d0:	eeb72a00 	vmov.f32	s4, #112	; 0x3f800000  1.0
    95d4:	e1a00006 	mov	r0, r6
    95d8:	eddf1a95 	vldr	s3, [pc, #596]	; 9834 <AddVertex+0x454>
    95dc:	e3a02c1e 	mov	r2, #7680	; 0x1e00
    95e0:	e3a01b0a 	mov	r1, #10240	; 0x2800
    95e4:	eef00a42 	vmov.f32	s1, s4
    95e8:	eeb00a42 	vmov.f32	s0, s4
    95ec:	eeb01a61 	vmov.f32	s2, s3
    95f0:	ebffff58 	bl	9358 <V3DAddPreVertex>
    95f4:	eeb71a00 	vmov.f32	s2, #112	; 0x3f800000  1.0
    95f8:	e1a01005 	mov	r1, r5
    95fc:	ed9f2a8c 	vldr	s4, [pc, #560]	; 9834 <AddVertex+0x454>
    9600:	e1a00006 	mov	r0, r6
    9604:	e3a02c0f 	mov	r2, #3840	; 0xf00
    9608:	eef00a41 	vmov.f32	s1, s2
    960c:	eeb00a41 	vmov.f32	s0, s2
    9610:	eef01a42 	vmov.f32	s3, s4
    9614:	ebffff4f 	bl	9358 <V3DAddPreVertex>
    9618:	eeb72a00 	vmov.f32	s4, #112	; 0x3f800000  1.0
    961c:	e3063667 	movw	r3, #26215	; 0x6667
    9620:	eddf1a83 	vldr	s3, [pc, #524]	; 9834 <AddVertex+0x454>
    9624:	e3463666 	movt	r3, #26214	; 0x6666
    9628:	e58d300c 	str	r3, [sp, #12]
    962c:	e1a00006 	mov	r0, r6
    9630:	eef00a42 	vmov.f32	s1, s4
    9634:	e3a02c1e 	mov	r2, #7680	; 0x1e00
    9638:	eeb00a42 	vmov.f32	s0, s4
    963c:	e3a01b0a 	mov	r1, #10240	; 0x2800
    9640:	eeb01a61 	vmov.f32	s2, s3
    9644:	ebffff43 	bl	9358 <V3DAddPreVertex>
    9648:	eef71a00 	vmov.f32	s3, #112	; 0x3f800000  1.0
    964c:	e1a00006 	mov	r0, r6
    9650:	ed9f2a77 	vldr	s4, [pc, #476]	; 9834 <AddVertex+0x454>
    9654:	e3a02c0f 	mov	r2, #3840	; 0xf00
    9658:	e3a01b0a 	mov	r1, #10240	; 0x2800
    965c:	eef00a61 	vmov.f32	s1, s3
    9660:	eeb00a61 	vmov.f32	s0, s3
    9664:	eeb01a42 	vmov.f32	s2, s4
    9668:	ebffff3a 	bl	9358 <V3DAddPreVertex>
    966c:	eb00030e 	bl	a2ac <init_random>
    9670:	e59b2008 	ldr	r2, [fp, #8]
    9674:	e3a01007 	mov	r1, #7
    9678:	eef27a08 	vmov.f32	s15, #40	; 0x41400000  12.0
    967c:	e3a0e014 	mov	lr, #20
    9680:	e1a02202 	lsl	r2, r2, #4
    9684:	e0020291 	mul	r2, r1, r2
    9688:	e2820eaa 	add	r0, r2, #2720	; 0xaa0
    968c:	e2825d4a 	add	r5, r2, #4736	; 0x1280
    9690:	e280000a 	add	r0, r0, #10
    9694:	e2829d75 	add	r9, r2, #7488	; 0x1d40
    9698:	e089900e 	add	r9, r9, lr
    969c:	e285502a 	add	r5, r5, #42	; 0x2a
    96a0:	e1a07fc0 	asr	r7, r0, #31
    96a4:	e2821d55 	add	r1, r2, #5440	; 0x1540
    96a8:	e1a08fc5 	asr	r8, r5, #31
    96ac:	e282cb02 	add	ip, r2, #2048	; 0x800
    96b0:	e1a079a7 	lsr	r7, r7, #19
    96b4:	e1a0afc9 	asr	sl, r9, #31
    96b8:	e0800007 	add	r0, r0, r7
    96bc:	e7ec0050 	ubfx	r0, r0, #0, #13
    96c0:	e1a089a8 	lsr	r8, r8, #19
    96c4:	e0670000 	rsb	r0, r7, r0
    96c8:	e1a0a9aa 	lsr	sl, sl, #19
    96cc:	e1a07fc2 	asr	r7, r2, #31
    96d0:	e0853008 	add	r3, r5, r8
    96d4:	e081100e 	add	r1, r1, lr
    96d8:	e089500a 	add	r5, r9, sl
    96dc:	e58d5004 	str	r5, [sp, #4]
    96e0:	e1a079a7 	lsr	r7, r7, #19
    96e4:	e7ec5053 	ubfx	r5, r3, #0, #13
    96e8:	e0822007 	add	r2, r2, r7
    96ec:	e0683005 	rsb	r3, r8, r5
    96f0:	e1a09fc1 	asr	r9, r1, #31
    96f4:	e1a08fcc 	asr	r8, ip, #31
    96f8:	e7ec2052 	ubfx	r2, r2, #0, #13
    96fc:	e1a099a9 	lsr	r9, r9, #19
    9700:	e0677002 	rsb	r7, r7, r2
    9704:	e1a089a8 	lsr	r8, r8, #19
    9708:	e3a02000 	mov	r2, #0
    970c:	e59d5004 	ldr	r5, [sp, #4]
    9710:	e0811009 	add	r1, r1, r9
    9714:	e08cc008 	add	ip, ip, r8
    9718:	e58d2010 	str	r2, [sp, #16]
    971c:	e0842103 	add	r2, r4, r3, lsl #2
    9720:	e7ec5055 	ubfx	r5, r5, #0, #13
    9724:	e7ec1051 	ubfx	r1, r1, #0, #13
    9728:	e06a5005 	rsb	r5, sl, r5
    972c:	e7ecc05c 	ubfx	ip, ip, #0, #13
    9730:	e0691001 	rsb	r1, r9, r1
    9734:	edd24a00 	vldr	s9, [r2]
    9738:	e068c00c 	rsb	ip, r8, ip
    973c:	e0840100 	add	r0, r4, r0, lsl #2
    9740:	e0841101 	add	r1, r4, r1, lsl #2
    9744:	e084c10c 	add	ip, r4, ip, lsl #2
    9748:	e0845105 	add	r5, r4, r5, lsl #2
    974c:	ee644aa7 	vmul.f32	s9, s9, s15
    9750:	e0844107 	add	r4, r4, r7, lsl #2
    9754:	ed905a00 	vldr	s10, [r0]
    9758:	ed916a00 	vldr	s12, [r1]
    975c:	eddc6a00 	vldr	s13, [ip]
    9760:	ed947a00 	vldr	s14, [r4]
    9764:	edd55a00 	vldr	s11, [r5]
    9768:	ee255a27 	vmul.f32	s10, s10, s15
    976c:	ee655aa7 	vmul.f32	s11, s11, s15
    9770:	ee266a27 	vmul.f32	s12, s12, s15
    9774:	ee666aa7 	vmul.f32	s13, s13, s15
    9778:	ee677a27 	vmul.f32	s15, s14, s15
    977c:	eebd7ae4 	vcvt.s32.f32	s14, s9
    9780:	eefd7ae7 	vcvt.s32.f32	s15, s15
    9784:	ee17aa10 	vmov	sl, s14
    9788:	eebd7ac5 	vcvt.s32.f32	s14, s10
    978c:	e00a0a9e 	mul	sl, lr, sl
    9790:	ee173a90 	vmov	r3, s15
    9794:	e6ffa07a 	uxth	sl, sl
    9798:	ee17ca10 	vmov	ip, s14
    979c:	eebd7ae5 	vcvt.s32.f32	s14, s11
    97a0:	e00c0c9e 	mul	ip, lr, ip
    97a4:	ee170a10 	vmov	r0, s14
    97a8:	eebd7ac6 	vcvt.s32.f32	s14, s12
    97ac:	e000009e 	mul	r0, lr, r0
    97b0:	ee171a10 	vmov	r1, s14
    97b4:	eebd7ae6 	vcvt.s32.f32	s14, s13
    97b8:	e001019e 	mul	r1, lr, r1
    97bc:	ee172a10 	vmov	r2, s14
    97c0:	e002029e 	mul	r2, lr, r2
    97c4:	e00e039e 	mul	lr, lr, r3
    97c8:	e6ff307c 	uxth	r3, ip
    97cc:	e58d3018 	str	r3, [sp, #24]
    97d0:	e6ff3070 	uxth	r3, r0
    97d4:	e58d3008 	str	r3, [sp, #8]
    97d8:	e6ff3071 	uxth	r3, r1
    97dc:	e58d301c 	str	r3, [sp, #28]
    97e0:	e6ff3072 	uxth	r3, r2
    97e4:	e58d3004 	str	r3, [sp, #4]
    97e8:	e6ff307e 	uxth	r3, lr
    97ec:	e58d3014 	str	r3, [sp, #20]
    97f0:	e59d3010 	ldr	r3, [sp, #16]
    97f4:	e3a05000 	mov	r5, #0
    97f8:	e1a07203 	lsl	r7, r3, #4
    97fc:	e59d3014 	ldr	r3, [sp, #20]
    9800:	e6ff7077 	uxth	r7, r7
    9804:	e0839007 	add	r9, r3, r7
    9808:	e59d3018 	ldr	r3, [sp, #24]
    980c:	e6bf9079 	sxth	r9, r9
    9810:	e0838007 	add	r8, r3, r7
    9814:	e59d301c 	ldr	r3, [sp, #28]
    9818:	e6bf8078 	sxth	r8, r8
    981c:	e0837007 	add	r7, r3, r7
    9820:	e6bf7077 	sxth	r7, r7
    9824:	ea000003 	b	9838 <AddVertex+0x458>
    9828:	47ae147b 			; <UNDEFINED> instruction: 0x47ae147b
    982c:	3f847ae1 	svccc	0x00847ae1
    9830:	42c80000 	sbcmi	r0, r8, #0
    9834:	00000000 	andeq	r0, r0, r0
    9838:	e59b4000 	ldr	r4, [fp]
    983c:	e1a02009 	mov	r2, r9
    9840:	e59d300c 	ldr	r3, [sp, #12]
    9844:	e084c205 	add	ip, r4, r5, lsl #4
    9848:	e2855028 	add	r5, r5, #40	; 0x28
    984c:	e0c1039c 	smull	r0, r1, ip, r3
    9850:	e1a04fcc 	asr	r4, ip, #31
    9854:	e3a03b0a 	mov	r3, #10240	; 0x2800
    9858:	e0644641 	rsb	r4, r4, r1, asr #12
    985c:	e1a00006 	mov	r0, r6
    9860:	e064c493 	mls	r4, r3, r4, ip
    9864:	eeb71a00 	vmov.f32	s2, #112	; 0x3f800000  1.0
    9868:	e59d3004 	ldr	r3, [sp, #4]
    986c:	e6ff4074 	uxth	r4, r4
    9870:	ed1f2a11 	vldr	s4, [pc, #-68]	; 9834 <AddVertex+0x454>
    9874:	e0841003 	add	r1, r4, r3
    9878:	eef00a41 	vmov.f32	s1, s2
    987c:	e6bf1071 	sxth	r1, r1
    9880:	eeb00a41 	vmov.f32	s0, s2
    9884:	eef01a42 	vmov.f32	s3, s4
    9888:	ebfffeb2 	bl	9358 <V3DAddPreVertex>
    988c:	eef71a00 	vmov.f32	s3, #112	; 0x3f800000  1.0
    9890:	e1a02008 	mov	r2, r8
    9894:	ed1f2a1a 	vldr	s4, [pc, #-104]	; 9834 <AddVertex+0x454>
    9898:	e1a00006 	mov	r0, r6
    989c:	e084100a 	add	r1, r4, sl
    98a0:	eef00a61 	vmov.f32	s1, s3
    98a4:	e6bf1071 	sxth	r1, r1
    98a8:	eeb00a61 	vmov.f32	s0, s3
    98ac:	eeb01a42 	vmov.f32	s2, s4
    98b0:	ebfffea8 	bl	9358 <V3DAddPreVertex>
    98b4:	eeb72a00 	vmov.f32	s4, #112	; 0x3f800000  1.0
    98b8:	e1a02007 	mov	r2, r7
    98bc:	e59d3008 	ldr	r3, [sp, #8]
    98c0:	e1a00006 	mov	r0, r6
    98c4:	ed5f1a26 	vldr	s3, [pc, #-152]	; 9834 <AddVertex+0x454>
    98c8:	e0841003 	add	r1, r4, r3
    98cc:	eef00a42 	vmov.f32	s1, s4
    98d0:	e6bf1071 	sxth	r1, r1
    98d4:	eeb00a42 	vmov.f32	s0, s4
    98d8:	eeb01a61 	vmov.f32	s2, s3
    98dc:	ebfffe9d 	bl	9358 <V3DAddPreVertex>
    98e0:	e3550d0a 	cmp	r5, #640	; 0x280
    98e4:	1affffd3 	bne	9838 <AddVertex+0x458>
    98e8:	e59d3010 	ldr	r3, [sp, #16]
    98ec:	e2833028 	add	r3, r3, #40	; 0x28
    98f0:	e58d3010 	str	r3, [sp, #16]
    98f4:	e3530e1e 	cmp	r3, #480	; 0x1e0
    98f8:	1affffbc 	bne	97f0 <AddVertex+0x410>
    98fc:	e1a00006 	mov	r0, r6
    9900:	e28dd024 	add	sp, sp, #36	; 0x24
    9904:	e8bd4ff0 	pop	{r4, r5, r6, r7, r8, r9, sl, fp, lr}
    9908:	ea000351 	b	a654 <V3DSetOffsetEndVertex>

0000990c <L2CacheAndMiscCacheClear>:
    990c:	e3a025ff 	mov	r2, #1069547520	; 0x3fc00000
    9910:	e3003f0f 	movw	r3, #3855	; 0xf0f
    9914:	e7df3813 	bfi	r3, r3, #16, #16
    9918:	e3a01004 	mov	r1, #4
    991c:	e5821020 	str	r1, [r2, #32]
    9920:	e5823024 	str	r3, [r2, #36]	; 0x24
    9924:	f57ff05f 	dmb	sy
    9928:	e12fff1e 	bx	lr

0000992c <Present>:
    992c:	e30c2000 	movw	r2, #49152	; 0xc000
    9930:	e3a035ff 	mov	r3, #1069547520	; 0x3fc00000
    9934:	e3402001 	movt	r2, #1
    9938:	e3a0c001 	mov	ip, #1
    993c:	e1a01003 	mov	r1, r3
    9940:	e5920000 	ldr	r0, [r2]
    9944:	e583c134 	str	ip, [r3, #308]	; 0x134
    9948:	e590c018 	ldr	ip, [r0, #24]
    994c:	e5902008 	ldr	r2, [r0, #8]
    9950:	e082200c 	add	r2, r2, ip
    9954:	e5832110 	str	r2, [r3, #272]	; 0x110
    9958:	e5902008 	ldr	r2, [r0, #8]
    995c:	e590c01c 	ldr	ip, [r0, #28]
    9960:	e082200c 	add	r2, r2, ip
    9964:	e5832108 	str	r2, [r3, #264]	; 0x108
    9968:	e5913134 	ldr	r3, [r1, #308]	; 0x134
    996c:	e3a025ff 	mov	r2, #1069547520	; 0x3fc00000
    9970:	e3530000 	cmp	r3, #0
    9974:	0afffffb 	beq	9968 <Present+0x3c>
    9978:	e3a03001 	mov	r3, #1
    997c:	e1a01002 	mov	r1, r2
    9980:	e5823138 	str	r3, [r2, #312]	; 0x138
    9984:	e590c020 	ldr	ip, [r0, #32]
    9988:	e5903008 	ldr	r3, [r0, #8]
    998c:	e083300c 	add	r3, r3, ip
    9990:	e5823114 	str	r3, [r2, #276]	; 0x114
    9994:	e5903008 	ldr	r3, [r0, #8]
    9998:	e590c024 	ldr	ip, [r0, #36]	; 0x24
    999c:	e083300c 	add	r3, r3, ip
    99a0:	e582310c 	str	r3, [r2, #268]	; 0x10c
    99a4:	e5913138 	ldr	r3, [r1, #312]	; 0x138
    99a8:	e3530000 	cmp	r3, #0
    99ac:	0afffffc 	beq	99a4 <Present+0x78>
    99b0:	e5903038 	ldr	r3, [r0, #56]	; 0x38
    99b4:	e2833001 	add	r3, r3, #1
    99b8:	e5803038 	str	r3, [r0, #56]	; 0x38
    99bc:	e12fff1e 	bx	lr

000099c0 <debug_output>:
    99c0:	e92d4010 	push	{r4, lr}
    99c4:	e3a045ff 	mov	r4, #1069547520	; 0x3fc00000
    99c8:	e30b035c 	movw	r0, #45916	; 0xb35c
    99cc:	e5941f20 	ldr	r1, [r4, #3872]	; 0xf20
    99d0:	e3400001 	movt	r0, #1
    99d4:	eb00011f 	bl	9e58 <uart_debug_puts>
    99d8:	e5941410 	ldr	r1, [r4, #1040]	; 0x410
    99dc:	e30b0370 	movw	r0, #45936	; 0xb370
    99e0:	e3400001 	movt	r0, #1
    99e4:	eb00011b 	bl	9e58 <uart_debug_puts>
    99e8:	e594143c 	ldr	r1, [r4, #1084]	; 0x43c
    99ec:	e30b0384 	movw	r0, #45956	; 0xb384
    99f0:	e3400001 	movt	r0, #1
    99f4:	eb000117 	bl	9e58 <uart_debug_puts>
    99f8:	e5941500 	ldr	r1, [r4, #1280]	; 0x500
    99fc:	e30b0398 	movw	r0, #45976	; 0xb398
    9a00:	e3400001 	movt	r0, #1
    9a04:	eb000113 	bl	9e58 <uart_debug_puts>
    9a08:	e5941f00 	ldr	r1, [r4, #3840]	; 0xf00
    9a0c:	e30b03ac 	movw	r0, #45996	; 0xb3ac
    9a10:	e3400001 	movt	r0, #1
    9a14:	eb00010f 	bl	9e58 <uart_debug_puts>
    9a18:	e5941f04 	ldr	r1, [r4, #3844]	; 0xf04
    9a1c:	e30b03c0 	movw	r0, #46016	; 0xb3c0
    9a20:	e3400001 	movt	r0, #1
    9a24:	eb00010b 	bl	9e58 <uart_debug_puts>
    9a28:	e5941f10 	ldr	r1, [r4, #3856]	; 0xf10
    9a2c:	e30b03d4 	movw	r0, #46036	; 0xb3d4
    9a30:	e3400001 	movt	r0, #1
    9a34:	eb000107 	bl	9e58 <uart_debug_puts>
    9a38:	e5941310 	ldr	r1, [r4, #784]	; 0x310
    9a3c:	e30b03e8 	movw	r0, #46056	; 0xb3e8
    9a40:	e3400001 	movt	r0, #1
    9a44:	e8bd4010 	pop	{r4, lr}
    9a48:	ea000102 	b	9e58 <uart_debug_puts>

00009a4c <DmaBlit>:
    9a4c:	e92d4070 	push	{r4, r5, r6, lr}
    9a50:	e1a05000 	mov	r5, r0
    9a54:	e3020710 	movw	r0, #10000	; 0x2710
    9a58:	e1a06001 	mov	r6, r1
    9a5c:	e1a04002 	mov	r4, r2
    9a60:	eb000227 	bl	a304 <usleep>
    9a64:	e3a00a07 	mov	r0, #28672	; 0x7000
    9a68:	e3053708 	movw	r3, #22280	; 0x5708
    9a6c:	e1a02000 	mov	r2, r0
    9a70:	e3403002 	movt	r3, #2
    9a74:	e3430f00 	movt	r0, #16128	; 0x3f00
    9a78:	e3a0c001 	mov	ip, #1
    9a7c:	e582cff0 	str	ip, [r2, #4080]	; 0xff0
    9a80:	e3a0e000 	mov	lr, #0
    9a84:	e3a02e11 	mov	r2, #272	; 0x110
    9a88:	e283100c 	add	r1, r3, #12
    9a8c:	e583200c 	str	r2, [r3, #12]
    9a90:	e5836010 	str	r6, [r3, #16]
    9a94:	e5835014 	str	r5, [r3, #20]
    9a98:	e5834018 	str	r4, [r3, #24]
    9a9c:	e583e01c 	str	lr, [r3, #28]
    9aa0:	e583e020 	str	lr, [r3, #32]
    9aa4:	e5801004 	str	r1, [r0, #4]
    9aa8:	e580c000 	str	ip, [r0]
    9aac:	e8bd8070 	pop	{r4, r5, r6, pc}

00009ab0 <show_fps>:
    9ab0:	e92d4010 	push	{r4, lr}
    9ab4:	eb00024a 	bl	a3e4 <get_systime_ms>
    9ab8:	e3053708 	movw	r3, #22280	; 0x5708
    9abc:	e3403002 	movt	r3, #2
    9ac0:	e5931410 	ldr	r1, [r3, #1040]	; 0x410
    9ac4:	e593240c 	ldr	r2, [r3, #1036]	; 0x40c
    9ac8:	e0611000 	rsb	r1, r1, r0
    9acc:	e3510ffa 	cmp	r1, #1000	; 0x3e8
    9ad0:	e2822001 	add	r2, r2, #1
    9ad4:	e583240c 	str	r2, [r3, #1036]	; 0x40c
    9ad8:	38bd8010 	popcc	{r4, pc}
    9adc:	ee071a90 	vmov	s15, r1
    9ae0:	ed9f6a0e 	vldr	s12, [pc, #56]	; 9b20 <show_fps+0x70>
    9ae4:	e1a0c000 	mov	ip, r0
    9ae8:	e583c410 	str	ip, [r3, #1040]	; 0x410
    9aec:	e30b03fc 	movw	r0, #46076	; 0xb3fc
    9af0:	e3400001 	movt	r0, #1
    9af4:	eeb87a67 	vcvt.f32.u32	s14, s15
    9af8:	ee072a90 	vmov	s15, r2
    9afc:	e8bd4010 	pop	{r4, lr}
    9b00:	eec76a06 	vdiv.f32	s13, s14, s12
    9b04:	e3a02000 	mov	r2, #0
    9b08:	eef87a67 	vcvt.f32.u32	s15, s15
    9b0c:	e583240c 	str	r2, [r3, #1036]	; 0x40c
    9b10:	ee877aa6 	vdiv.f32	s14, s15, s13
    9b14:	eefc7ac7 	vcvt.u32.f32	s15, s14
    9b18:	ee171a90 	vmov	r1, s15
    9b1c:	ea0000cd 	b	9e58 <uart_debug_puts>
    9b20:	447a0000 	ldrbtmi	r0, [sl], #-0

00009b24 <testTriangle>:
    9b24:	e92d41f0 	push	{r4, r5, r6, r7, r8, lr}
    9b28:	e3054708 	movw	r4, #22280	; 0x5708
    9b2c:	e30c5000 	movw	r5, #49152	; 0xc000
    9b30:	e1a07000 	mov	r7, r0
    9b34:	e3405001 	movt	r5, #1
    9b38:	e3404002 	movt	r4, #2
    9b3c:	e3a06000 	mov	r6, #0
    9b40:	e5846008 	str	r6, [r4, #8]
    9b44:	ebfffc50 	bl	8c8c <init_render_chunk_buffer>
    9b48:	e5971020 	ldr	r1, [r7, #32]
    9b4c:	e5950000 	ldr	r0, [r5]
    9b50:	eb00029b 	bl	a5c4 <V3DAlloc>
    9b54:	e5950000 	ldr	r0, [r5]
    9b58:	eb0002c1 	bl	a664 <V3DLock>
    9b5c:	e5950000 	ldr	r0, [r5]
    9b60:	ebfffe1e 	bl	93e0 <AddVertex>
    9b64:	e30b0404 	movw	r0, #46084	; 0xb404
    9b68:	e1a01006 	mov	r1, r6
    9b6c:	e3400001 	movt	r0, #1
    9b70:	eb0000b8 	bl	9e58 <uart_debug_puts>
    9b74:	e5950000 	ldr	r0, [r5]
    9b78:	ebfffcc3 	bl	8e8c <V3DControlListCreateBinning>
    9b7c:	e30b0414 	movw	r0, #46100	; 0xb414
    9b80:	e1a01006 	mov	r1, r6
    9b84:	e3400001 	movt	r0, #1
    9b88:	eb0000b2 	bl	9e58 <uart_debug_puts>
    9b8c:	e5971028 	ldr	r1, [r7, #40]	; 0x28
    9b90:	e5950000 	ldr	r0, [r5]
    9b94:	ebfffd72 	bl	9164 <V3DControlListCreateRendering>
    9b98:	e30b0438 	movw	r0, #46136	; 0xb438
    9b9c:	e1a01006 	mov	r1, r6
    9ba0:	e3400001 	movt	r0, #1
    9ba4:	eb0000ab 	bl	9e58 <uart_debug_puts>
    9ba8:	e5950000 	ldr	r0, [r5]
    9bac:	eb0002b9 	bl	a698 <V3DUnlock>
    9bb0:	e5950000 	ldr	r0, [r5]
    9bb4:	eb0002aa 	bl	a664 <V3DLock>
    9bb8:	e5943008 	ldr	r3, [r4, #8]
    9bbc:	e2833001 	add	r3, r3, #1
    9bc0:	e5843008 	str	r3, [r4, #8]
    9bc4:	ebffffb9 	bl	9ab0 <show_fps>
    9bc8:	e5950000 	ldr	r0, [r5]
    9bcc:	ebfffe03 	bl	93e0 <AddVertex>
    9bd0:	ebffff55 	bl	992c <Present>
    9bd4:	eafffff7 	b	9bb8 <testTriangle+0x94>

00009bd8 <uart_init>:
    9bd8:	e3a03a01 	mov	r3, #4096	; 0x1000
    9bdc:	e3a02000 	mov	r2, #0
    9be0:	e3433f20 	movt	r3, #16160	; 0x3f20
    9be4:	e3432f20 	movt	r2, #16160	; 0x3f20
    9be8:	e3a01000 	mov	r1, #0
    9bec:	e3a00903 	mov	r0, #49152	; 0xc000
    9bf0:	e92d4010 	push	{r4, lr}
    9bf4:	e3a0c028 	mov	ip, #40	; 0x28
    9bf8:	e5831030 	str	r1, [r3, #48]	; 0x30
    9bfc:	e30047ff 	movw	r4, #2047	; 0x7ff
    9c00:	e5821094 	str	r1, [r2, #148]	; 0x94
    9c04:	e3a0e001 	mov	lr, #1
    9c08:	e5820098 	str	r0, [r2, #152]	; 0x98
    9c0c:	e3a00070 	mov	r0, #112	; 0x70
    9c10:	e5821098 	str	r1, [r2, #152]	; 0x98
    9c14:	e30017f2 	movw	r1, #2034	; 0x7f2
    9c18:	e5834044 	str	r4, [r3, #68]	; 0x44
    9c1c:	e3002301 	movw	r2, #769	; 0x301
    9c20:	e583e024 	str	lr, [r3, #36]	; 0x24
    9c24:	e583c028 	str	ip, [r3, #40]	; 0x28
    9c28:	e583002c 	str	r0, [r3, #44]	; 0x2c
    9c2c:	e5831038 	str	r1, [r3, #56]	; 0x38
    9c30:	e5832030 	str	r2, [r3, #48]	; 0x30
    9c34:	e8bd8010 	pop	{r4, pc}

00009c38 <uart_putc>:
    9c38:	e3a01a01 	mov	r1, #4096	; 0x1000
    9c3c:	e3431f20 	movt	r1, #16160	; 0x3f20
    9c40:	e5912018 	ldr	r2, [r1, #24]
    9c44:	e3a03a01 	mov	r3, #4096	; 0x1000
    9c48:	e3433f20 	movt	r3, #16160	; 0x3f20
    9c4c:	e3120020 	tst	r2, #32
    9c50:	1afffffa 	bne	9c40 <uart_putc+0x8>
    9c54:	e5830000 	str	r0, [r3]
    9c58:	e12fff1e 	bx	lr

00009c5c <uart_getc>:
    9c5c:	e3a03a01 	mov	r3, #4096	; 0x1000
    9c60:	e3433f20 	movt	r3, #16160	; 0x3f20
    9c64:	e5930018 	ldr	r0, [r3, #24]
    9c68:	e2100010 	ands	r0, r0, #16
    9c6c:	15930000 	ldrne	r0, [r3]
    9c70:	16ef0070 	uxtbne	r0, r0
    9c74:	e12fff1e 	bx	lr

00009c78 <uart_puts>:
    9c78:	e5d01000 	ldrb	r1, [r0]
    9c7c:	e3510000 	cmp	r1, #0
    9c80:	012fff1e 	bxeq	lr
    9c84:	e3a02a01 	mov	r2, #4096	; 0x1000
    9c88:	e3432f20 	movt	r2, #16160	; 0x3f20
    9c8c:	e52de004 	push	{lr}		; (str lr, [sp, #-4]!)
    9c90:	e1a0c002 	mov	ip, r2
    9c94:	e3a0e00d 	mov	lr, #13
    9c98:	e5923018 	ldr	r3, [r2, #24]
    9c9c:	e3130020 	tst	r3, #32
    9ca0:	1afffffc 	bne	9c98 <uart_puts+0x20>
    9ca4:	e58c1000 	str	r1, [ip]
    9ca8:	e5d03000 	ldrb	r3, [r0]
    9cac:	e353000a 	cmp	r3, #10
    9cb0:	0a000003 	beq	9cc4 <uart_puts+0x4c>
    9cb4:	e5f01001 	ldrb	r1, [r0, #1]!
    9cb8:	e3510000 	cmp	r1, #0
    9cbc:	1afffff5 	bne	9c98 <uart_puts+0x20>
    9cc0:	e49df004 	pop	{pc}		; (ldr pc, [sp], #4)
    9cc4:	e5923018 	ldr	r3, [r2, #24]
    9cc8:	e3130020 	tst	r3, #32
    9ccc:	1afffffc 	bne	9cc4 <uart_puts+0x4c>
    9cd0:	e58ce000 	str	lr, [ip]
    9cd4:	eafffff6 	b	9cb4 <uart_puts+0x3c>

00009cd8 <uart_char_putc>:
    9cd8:	e30cc008 	movw	ip, #49160	; 0xc008
    9cdc:	e3a01a01 	mov	r1, #4096	; 0x1000
    9ce0:	e340c001 	movt	ip, #1
    9ce4:	e3431f20 	movt	r1, #16160	; 0x3f20
    9ce8:	e52de004 	push	{lr}		; (str lr, [sp, #-4]!)
    9cec:	e7dce220 	ldrb	lr, [ip, r0, lsr #4]
    9cf0:	e5912018 	ldr	r2, [r1, #24]
    9cf4:	e3a03a01 	mov	r3, #4096	; 0x1000
    9cf8:	e3433f20 	movt	r3, #16160	; 0x3f20
    9cfc:	e3120020 	tst	r2, #32
    9d00:	1afffffa 	bne	9cf0 <uart_char_putc+0x18>
    9d04:	e583e000 	str	lr, [r3]
    9d08:	e200000f 	and	r0, r0, #15
    9d0c:	e7dc0000 	ldrb	r0, [ip, r0]
    9d10:	e5931018 	ldr	r1, [r3, #24]
    9d14:	e3a02a01 	mov	r2, #4096	; 0x1000
    9d18:	e3432f20 	movt	r2, #16160	; 0x3f20
    9d1c:	e3110020 	tst	r1, #32
    9d20:	1afffffa 	bne	9d10 <uart_char_putc+0x38>
    9d24:	e5820000 	str	r0, [r2]
    9d28:	e49df004 	pop	{pc}		; (ldr pc, [sp], #4)

00009d2c <uart_put_dword>:
    9d2c:	e30c1008 	movw	r1, #49160	; 0xc008
    9d30:	e3a0ca01 	mov	ip, #4096	; 0x1000
    9d34:	e3401001 	movt	r1, #1
    9d38:	e343cf20 	movt	ip, #16160	; 0x3f20
    9d3c:	e52de004 	push	{lr}		; (str lr, [sp, #-4]!)
    9d40:	e7d1ee20 	ldrb	lr, [r1, r0, lsr #28]
    9d44:	e59c2018 	ldr	r2, [ip, #24]
    9d48:	e3a03a01 	mov	r3, #4096	; 0x1000
    9d4c:	e3433f20 	movt	r3, #16160	; 0x3f20
    9d50:	e3120020 	tst	r2, #32
    9d54:	1afffffa 	bne	9d44 <uart_put_dword+0x18>
    9d58:	e7e32c50 	ubfx	r2, r0, #24, #4
    9d5c:	e1a0c003 	mov	ip, r3
    9d60:	e583e000 	str	lr, [r3]
    9d64:	e7d1e002 	ldrb	lr, [r1, r2]
    9d68:	e59c2018 	ldr	r2, [ip, #24]
    9d6c:	e3a03a01 	mov	r3, #4096	; 0x1000
    9d70:	e3433f20 	movt	r3, #16160	; 0x3f20
    9d74:	e3120020 	tst	r2, #32
    9d78:	1afffffa 	bne	9d68 <uart_put_dword+0x3c>
    9d7c:	e7e32a50 	ubfx	r2, r0, #20, #4
    9d80:	e1a0c003 	mov	ip, r3
    9d84:	e583e000 	str	lr, [r3]
    9d88:	e7d1e002 	ldrb	lr, [r1, r2]
    9d8c:	e59c2018 	ldr	r2, [ip, #24]
    9d90:	e3a03a01 	mov	r3, #4096	; 0x1000
    9d94:	e3433f20 	movt	r3, #16160	; 0x3f20
    9d98:	e3120020 	tst	r2, #32
    9d9c:	1afffffa 	bne	9d8c <uart_put_dword+0x60>
    9da0:	e7e32850 	ubfx	r2, r0, #16, #4
    9da4:	e1a0c003 	mov	ip, r3
    9da8:	e583e000 	str	lr, [r3]
    9dac:	e7d1e002 	ldrb	lr, [r1, r2]
    9db0:	e59c2018 	ldr	r2, [ip, #24]
    9db4:	e3a03a01 	mov	r3, #4096	; 0x1000
    9db8:	e3433f20 	movt	r3, #16160	; 0x3f20
    9dbc:	e3120020 	tst	r2, #32
    9dc0:	1afffffa 	bne	9db0 <uart_put_dword+0x84>
    9dc4:	e7e32650 	ubfx	r2, r0, #12, #4
    9dc8:	e1a0c003 	mov	ip, r3
    9dcc:	e583e000 	str	lr, [r3]
    9dd0:	e7d1e002 	ldrb	lr, [r1, r2]
    9dd4:	e59c2018 	ldr	r2, [ip, #24]
    9dd8:	e3a03a01 	mov	r3, #4096	; 0x1000
    9ddc:	e3433f20 	movt	r3, #16160	; 0x3f20
    9de0:	e3120020 	tst	r2, #32
    9de4:	1afffffa 	bne	9dd4 <uart_put_dword+0xa8>
    9de8:	e7e32450 	ubfx	r2, r0, #8, #4
    9dec:	e1a0c003 	mov	ip, r3
    9df0:	e583e000 	str	lr, [r3]
    9df4:	e7d1e002 	ldrb	lr, [r1, r2]
    9df8:	e59c2018 	ldr	r2, [ip, #24]
    9dfc:	e3a03a01 	mov	r3, #4096	; 0x1000
    9e00:	e3433f20 	movt	r3, #16160	; 0x3f20
    9e04:	e3120020 	tst	r2, #32
    9e08:	1afffffa 	bne	9df8 <uart_put_dword+0xcc>
    9e0c:	e7e32250 	ubfx	r2, r0, #4, #4
    9e10:	e1a0c003 	mov	ip, r3
    9e14:	e583e000 	str	lr, [r3]
    9e18:	e7d1e002 	ldrb	lr, [r1, r2]
    9e1c:	e59c2018 	ldr	r2, [ip, #24]
    9e20:	e3a03a01 	mov	r3, #4096	; 0x1000
    9e24:	e3433f20 	movt	r3, #16160	; 0x3f20
    9e28:	e3120020 	tst	r2, #32
    9e2c:	1afffffa 	bne	9e1c <uart_put_dword+0xf0>
    9e30:	e583e000 	str	lr, [r3]
    9e34:	e200000f 	and	r0, r0, #15
    9e38:	e7d10000 	ldrb	r0, [r1, r0]
    9e3c:	e5931018 	ldr	r1, [r3, #24]
    9e40:	e3a02a01 	mov	r2, #4096	; 0x1000
    9e44:	e3432f20 	movt	r2, #16160	; 0x3f20
    9e48:	e3110020 	tst	r1, #32
    9e4c:	1afffffa 	bne	9e3c <uart_put_dword+0x110>
    9e50:	e5820000 	str	r0, [r2]
    9e54:	e49df004 	pop	{pc}		; (ldr pc, [sp], #4)

00009e58 <uart_debug_puts>:
    9e58:	e5d03000 	ldrb	r3, [r0]
    9e5c:	e3530000 	cmp	r3, #0
    9e60:	012fff1e 	bxeq	lr
    9e64:	e92d41f0 	push	{r4, r5, r6, r7, r8, lr}
    9e68:	e3a04a01 	mov	r4, #4096	; 0x1000
    9e6c:	e3434f20 	movt	r4, #16160	; 0x3f20
    9e70:	e1a05000 	mov	r5, r0
    9e74:	e1a07001 	mov	r7, r1
    9e78:	e3a06020 	mov	r6, #32
    9e7c:	e1a08004 	mov	r8, r4
    9e80:	e353000a 	cmp	r3, #10
    9e84:	0a000008 	beq	9eac <uart_debug_puts+0x54>
    9e88:	e5d52000 	ldrb	r2, [r5]
    9e8c:	e5943018 	ldr	r3, [r4, #24]
    9e90:	e3130020 	tst	r3, #32
    9e94:	1afffffc 	bne	9e8c <uart_debug_puts+0x34>
    9e98:	e5882000 	str	r2, [r8]
    9e9c:	e5f53001 	ldrb	r3, [r5, #1]!
    9ea0:	e3530000 	cmp	r3, #0
    9ea4:	1afffff5 	bne	9e80 <uart_debug_puts+0x28>
    9ea8:	e8bd81f0 	pop	{r4, r5, r6, r7, r8, pc}
    9eac:	e5943018 	ldr	r3, [r4, #24]
    9eb0:	e3130020 	tst	r3, #32
    9eb4:	1afffffc 	bne	9eac <uart_debug_puts+0x54>
    9eb8:	e5886000 	str	r6, [r8]
    9ebc:	e1a00007 	mov	r0, r7
    9ec0:	ebffff99 	bl	9d2c <uart_put_dword>
    9ec4:	e5943018 	ldr	r3, [r4, #24]
    9ec8:	e3130020 	tst	r3, #32
    9ecc:	1afffffc 	bne	9ec4 <uart_debug_puts+0x6c>
    9ed0:	e3a0300d 	mov	r3, #13
    9ed4:	e5883000 	str	r3, [r8]
    9ed8:	eaffffea 	b	9e88 <uart_debug_puts+0x30>

00009edc <uart_dump>:
    9edc:	e92d41f0 	push	{r4, r5, r6, r7, r8, lr}
    9ee0:	e2105003 	ands	r5, r0, #3
    9ee4:	18bd81f0 	popne	{r4, r5, r6, r7, r8, pc}
    9ee8:	e1b07121 	lsrs	r7, r1, #2
    9eec:	13a04a01 	movne	r4, #4096	; 0x1000
    9ef0:	11a06000 	movne	r6, r0
    9ef4:	13434f20 	movtne	r4, #16160	; 0x3f20
    9ef8:	11a08004 	movne	r8, r4
    9efc:	0a00000b 	beq	9f30 <uart_dump+0x54>
    9f00:	e3150003 	tst	r5, #3
    9f04:	0a000010 	beq	9f4c <uart_dump+0x70>
    9f08:	e4960004 	ldr	r0, [r6], #4
    9f0c:	ebffff86 	bl	9d2c <uart_put_dword>
    9f10:	e5943018 	ldr	r3, [r4, #24]
    9f14:	e3130020 	tst	r3, #32
    9f18:	1afffffc 	bne	9f10 <uart_dump+0x34>
    9f1c:	e2855001 	add	r5, r5, #1
    9f20:	e3a03020 	mov	r3, #32
    9f24:	e1550007 	cmp	r5, r7
    9f28:	e5883000 	str	r3, [r8]
    9f2c:	1afffff3 	bne	9f00 <uart_dump+0x24>
    9f30:	e30b0294 	movw	r0, #45716	; 0xb294
    9f34:	e3400001 	movt	r0, #1
    9f38:	ebffff4e 	bl	9c78 <uart_puts>
    9f3c:	e30b0294 	movw	r0, #45716	; 0xb294
    9f40:	e3400001 	movt	r0, #1
    9f44:	e8bd41f0 	pop	{r4, r5, r6, r7, r8, lr}
    9f48:	eaffff4a 	b	9c78 <uart_puts>
    9f4c:	e30b0294 	movw	r0, #45716	; 0xb294
    9f50:	e3400001 	movt	r0, #1
    9f54:	ebffff47 	bl	9c78 <uart_puts>
    9f58:	e1a00006 	mov	r0, r6
    9f5c:	ebffff72 	bl	9d2c <uart_put_dword>
    9f60:	e30b045c 	movw	r0, #46172	; 0xb45c
    9f64:	e3400001 	movt	r0, #1
    9f68:	ebffff42 	bl	9c78 <uart_puts>
    9f6c:	eaffffe5 	b	9f08 <uart_dump+0x2c>

00009f70 <uart_bytedump>:
    9f70:	e92d47f0 	push	{r4, r5, r6, r7, r8, r9, sl, lr}
    9f74:	e2519000 	subs	r9, r1, #0
    9f78:	0a00001c 	beq	9ff0 <uart_bytedump+0x80>
    9f7c:	e3a04a01 	mov	r4, #4096	; 0x1000
    9f80:	e30c8008 	movw	r8, #49160	; 0xc008
    9f84:	e3434f20 	movt	r4, #16160	; 0x3f20
    9f88:	e1a07000 	mov	r7, r0
    9f8c:	e1a06004 	mov	r6, r4
    9f90:	e3408001 	movt	r8, #1
    9f94:	e3a05000 	mov	r5, #0
    9f98:	e315000f 	tst	r5, #15
    9f9c:	0a00001a 	beq	a00c <uart_bytedump+0x9c>
    9fa0:	e4d72001 	ldrb	r2, [r7], #1
    9fa4:	e7d81222 	ldrb	r1, [r8, r2, lsr #4]
    9fa8:	e5943018 	ldr	r3, [r4, #24]
    9fac:	e3130020 	tst	r3, #32
    9fb0:	1afffffc 	bne	9fa8 <uart_bytedump+0x38>
    9fb4:	e5861000 	str	r1, [r6]
    9fb8:	e202200f 	and	r2, r2, #15
    9fbc:	e7d82002 	ldrb	r2, [r8, r2]
    9fc0:	e5943018 	ldr	r3, [r4, #24]
    9fc4:	e3130020 	tst	r3, #32
    9fc8:	1afffffc 	bne	9fc0 <uart_bytedump+0x50>
    9fcc:	e5862000 	str	r2, [r6]
    9fd0:	e5943018 	ldr	r3, [r4, #24]
    9fd4:	e3130020 	tst	r3, #32
    9fd8:	1afffffc 	bne	9fd0 <uart_bytedump+0x60>
    9fdc:	e2855001 	add	r5, r5, #1
    9fe0:	e3a03020 	mov	r3, #32
    9fe4:	e1550009 	cmp	r5, r9
    9fe8:	e5863000 	str	r3, [r6]
    9fec:	1affffe9 	bne	9f98 <uart_bytedump+0x28>
    9ff0:	e30b0294 	movw	r0, #45716	; 0xb294
    9ff4:	e3400001 	movt	r0, #1
    9ff8:	ebffff1e 	bl	9c78 <uart_puts>
    9ffc:	e30b0294 	movw	r0, #45716	; 0xb294
    a000:	e3400001 	movt	r0, #1
    a004:	e8bd47f0 	pop	{r4, r5, r6, r7, r8, r9, sl, lr}
    a008:	eaffff1a 	b	9c78 <uart_puts>
    a00c:	e30b0294 	movw	r0, #45716	; 0xb294
    a010:	e3400001 	movt	r0, #1
    a014:	ebffff17 	bl	9c78 <uart_puts>
    a018:	e1a00007 	mov	r0, r7
    a01c:	ebffff42 	bl	9d2c <uart_put_dword>
    a020:	e30b045c 	movw	r0, #46172	; 0xb45c
    a024:	e3400001 	movt	r0, #1
    a028:	ebffff12 	bl	9c78 <uart_puts>
    a02c:	eaffffdb 	b	9fa0 <uart_bytedump+0x30>

0000a030 <draw_char.part.0>:
    a030:	e92d4ff8 	push	{r3, r4, r5, r6, r7, r8, r9, sl, fp, lr}
    a034:	e1a04000 	mov	r4, r0
    a038:	e1a05002 	mov	r5, r2
    a03c:	e1a06001 	mov	r6, r1
    a040:	e30c7004 	movw	r7, #49156	; 0xc004
    a044:	ebfff933 	bl	8518 <get_fontdata16x16>
    a048:	e1a03fc4 	asr	r3, r4, #31
    a04c:	e3540000 	cmp	r4, #0
    a050:	e1a09fc6 	asr	r9, r6, #31
    a054:	e284c00f 	add	ip, r4, #15
    a058:	e1a02e23 	lsr	r2, r3, #28
    a05c:	a1a0c004 	movge	ip, r4
    a060:	e1a0efc5 	asr	lr, r5, #31
    a064:	e3407001 	movt	r7, #1
    a068:	e0844002 	add	r4, r4, r2
    a06c:	e1a09d29 	lsr	r9, r9, #26
    a070:	e204300f 	and	r3, r4, #15
    a074:	e1a0ed2e 	lsr	lr, lr, #26
    a078:	e0623003 	rsb	r3, r2, r3
    a07c:	e0861009 	add	r1, r6, r9
    a080:	e085200e 	add	r2, r5, lr
    a084:	e201103f 	and	r1, r1, #63	; 0x3f
    a088:	e1a0c24c 	asr	ip, ip, #4
    a08c:	e202203f 	and	r2, r2, #63	; 0x3f
    a090:	e0699001 	rsb	r9, r9, r1
    a094:	e06e5002 	rsb	r5, lr, r2
    a098:	e083340c 	add	r3, r3, ip, lsl #8
    a09c:	e1a09209 	lsl	r9, r9, #4
    a0a0:	e0800203 	add	r0, r0, r3, lsl #4
    a0a4:	e2896010 	add	r6, r9, #16
    a0a8:	e1a05205 	lsl	r5, r5, #4
    a0ac:	e2408001 	sub	r8, r0, #1
    a0b0:	e285a010 	add	sl, r5, #16
    a0b4:	e1a0b008 	mov	fp, r8
    a0b8:	e1a04009 	mov	r4, r9
    a0bc:	e5fb0001 	ldrb	r0, [fp, #1]!
    a0c0:	e1a01004 	mov	r1, r4
    a0c4:	e1a02005 	mov	r2, r5
    a0c8:	e2844001 	add	r4, r4, #1
    a0cc:	e3500000 	cmp	r0, #0
    a0d0:	15970000 	ldrne	r0, [r7]
    a0d4:	ebfffadb 	bl	8c48 <mailbox_fb_set_pixel>
    a0d8:	e1540006 	cmp	r4, r6
    a0dc:	1afffff6 	bne	a0bc <draw_char.part.0+0x8c>
    a0e0:	e2855001 	add	r5, r5, #1
    a0e4:	e2888c01 	add	r8, r8, #256	; 0x100
    a0e8:	e15a0005 	cmp	sl, r5
    a0ec:	1afffff0 	bne	a0b4 <draw_char.part.0+0x84>
    a0f0:	e8bd8ff8 	pop	{r3, r4, r5, r6, r7, r8, r9, sl, fp, pc}

0000a0f4 <set_char_color>:
    a0f4:	e30c3004 	movw	r3, #49156	; 0xc004
    a0f8:	e3403001 	movt	r3, #1
    a0fc:	e5830000 	str	r0, [r3]
    a100:	e12fff1e 	bx	lr

0000a104 <reset_char_color>:
    a104:	e30c3004 	movw	r3, #49156	; 0xc004
    a108:	e3e02000 	mvn	r2, #0
    a10c:	e3403001 	movt	r3, #1
    a110:	e5832000 	str	r2, [r3]
    a114:	e12fff1e 	bx	lr

0000a118 <draw_char>:
    a118:	e3500c01 	cmp	r0, #256	; 0x100
    a11c:	812fff1e 	bxhi	lr
    a120:	eaffffc2 	b	a030 <draw_char.part.0>

0000a124 <draw_text>:
    a124:	e92d4070 	push	{r4, r5, r6, lr}
    a128:	e1a04000 	mov	r4, r0
    a12c:	e5d00000 	ldrb	r0, [r0]
    a130:	e3500000 	cmp	r0, #0
    a134:	08bd8070 	popeq	{r4, r5, r6, pc}
    a138:	e1a06002 	mov	r6, r2
    a13c:	e0645001 	rsb	r5, r4, r1
    a140:	e0841005 	add	r1, r4, r5
    a144:	e1a02006 	mov	r2, r6
    a148:	ebffffb8 	bl	a030 <draw_char.part.0>
    a14c:	e5f40001 	ldrb	r0, [r4, #1]!
    a150:	e3500000 	cmp	r0, #0
    a154:	1afffff9 	bne	a140 <draw_text+0x1c>
    a158:	e8bd8070 	pop	{r4, r5, r6, pc}

0000a15c <draw_dword>:
    a15c:	e92d41f0 	push	{r4, r5, r6, r7, r8, lr}
    a160:	e30c4004 	movw	r4, #49156	; 0xc004
    a164:	e3404001 	movt	r4, #1
    a168:	e1a05000 	mov	r5, r0
    a16c:	e0843e20 	add	r3, r4, r0, lsr #28
    a170:	e1a06001 	mov	r6, r1
    a174:	e1a07002 	mov	r7, r2
    a178:	e5d30004 	ldrb	r0, [r3, #4]
    a17c:	ebffffab 	bl	a030 <draw_char.part.0>
    a180:	e7e33c55 	ubfx	r3, r5, #24, #4
    a184:	e1a02007 	mov	r2, r7
    a188:	e0843003 	add	r3, r4, r3
    a18c:	e2861001 	add	r1, r6, #1
    a190:	e5d30004 	ldrb	r0, [r3, #4]
    a194:	ebffffa5 	bl	a030 <draw_char.part.0>
    a198:	e7e33a55 	ubfx	r3, r5, #20, #4
    a19c:	e1a02007 	mov	r2, r7
    a1a0:	e0843003 	add	r3, r4, r3
    a1a4:	e2861002 	add	r1, r6, #2
    a1a8:	e5d30004 	ldrb	r0, [r3, #4]
    a1ac:	ebffff9f 	bl	a030 <draw_char.part.0>
    a1b0:	e7e33855 	ubfx	r3, r5, #16, #4
    a1b4:	e1a02007 	mov	r2, r7
    a1b8:	e0843003 	add	r3, r4, r3
    a1bc:	e2861003 	add	r1, r6, #3
    a1c0:	e5d30004 	ldrb	r0, [r3, #4]
    a1c4:	ebffff99 	bl	a030 <draw_char.part.0>
    a1c8:	e7e33655 	ubfx	r3, r5, #12, #4
    a1cc:	e1a02007 	mov	r2, r7
    a1d0:	e0843003 	add	r3, r4, r3
    a1d4:	e2861004 	add	r1, r6, #4
    a1d8:	e5d30004 	ldrb	r0, [r3, #4]
    a1dc:	ebffff93 	bl	a030 <draw_char.part.0>
    a1e0:	e7e33455 	ubfx	r3, r5, #8, #4
    a1e4:	e1a02007 	mov	r2, r7
    a1e8:	e0843003 	add	r3, r4, r3
    a1ec:	e2861005 	add	r1, r6, #5
    a1f0:	e5d30004 	ldrb	r0, [r3, #4]
    a1f4:	ebffff8d 	bl	a030 <draw_char.part.0>
    a1f8:	e7e33255 	ubfx	r3, r5, #4, #4
    a1fc:	e205500f 	and	r5, r5, #15
    a200:	e0843003 	add	r3, r4, r3
    a204:	e1a02007 	mov	r2, r7
    a208:	e0844005 	add	r4, r4, r5
    a20c:	e2861006 	add	r1, r6, #6
    a210:	e5d30004 	ldrb	r0, [r3, #4]
    a214:	ebffff85 	bl	a030 <draw_char.part.0>
    a218:	e5d40004 	ldrb	r0, [r4, #4]
    a21c:	e1a02007 	mov	r2, r7
    a220:	e2861007 	add	r1, r6, #7
    a224:	e8bd41f0 	pop	{r4, r5, r6, r7, r8, lr}
    a228:	eaffff80 	b	a030 <draw_char.part.0>

0000a22c <draw_dump_data>:
    a22c:	e92d47f0 	push	{r4, r5, r6, r7, r8, r9, sl, lr}
    a230:	e30c7004 	movw	r7, #49156	; 0xc004
    a234:	e2408001 	sub	r8, r0, #1
    a238:	e3407001 	movt	r7, #1
    a23c:	e3a06000 	mov	r6, #0
    a240:	e3a04000 	mov	r4, #0
    a244:	e1a05008 	mov	r5, r8
    a248:	e1a09004 	mov	r9, r4
    a24c:	e5f53001 	ldrb	r3, [r5, #1]!
    a250:	e3190003 	tst	r9, #3
    a254:	02844001 	addeq	r4, r4, #1
    a258:	e1a02006 	mov	r2, r6
    a25c:	e0873223 	add	r3, r7, r3, lsr #4
    a260:	e1a01004 	mov	r1, r4
    a264:	e2899001 	add	r9, r9, #1
    a268:	e5d30004 	ldrb	r0, [r3, #4]
    a26c:	ebffff6f 	bl	a030 <draw_char.part.0>
    a270:	e5d53000 	ldrb	r3, [r5]
    a274:	e2841001 	add	r1, r4, #1
    a278:	e1a02006 	mov	r2, r6
    a27c:	e2844002 	add	r4, r4, #2
    a280:	e203300f 	and	r3, r3, #15
    a284:	e0873003 	add	r3, r7, r3
    a288:	e5d30004 	ldrb	r0, [r3, #4]
    a28c:	ebffff67 	bl	a030 <draw_char.part.0>
    a290:	e3590010 	cmp	r9, #16
    a294:	1affffec 	bne	a24c <draw_dump_data+0x20>
    a298:	e2866001 	add	r6, r6, #1
    a29c:	e2888010 	add	r8, r8, #16
    a2a0:	e356001c 	cmp	r6, #28
    a2a4:	1affffe5 	bne	a240 <draw_dump_data+0x14>
    a2a8:	e8bd87f0 	pop	{r4, r5, r6, r7, r8, r9, sl, pc}

0000a2ac <init_random>:
    a2ac:	e30c3004 	movw	r3, #49156	; 0xc004
    a2b0:	e3a01001 	mov	r1, #1
    a2b4:	e3403001 	movt	r3, #1
    a2b8:	e30624cb 	movw	r2, #25803	; 0x64cb
    a2bc:	e3402078 	movt	r2, #120	; 0x78
    a2c0:	e5831014 	str	r1, [r3, #20]
    a2c4:	e3051ba0 	movw	r1, #23456	; 0x5ba0
    a2c8:	e5831018 	str	r1, [r3, #24]
    a2cc:	e583201c 	str	r2, [r3, #28]
    a2d0:	e12fff1e 	bx	lr

0000a2d4 <random>:
    a2d4:	e30c3004 	movw	r3, #49156	; 0xc004
    a2d8:	e3403001 	movt	r3, #1
    a2dc:	e2830014 	add	r0, r3, #20
    a2e0:	e8900007 	ldm	r0, {r0, r1, r2}
    a2e4:	e0810000 	add	r0, r1, r0
    a2e8:	e0811002 	add	r1, r1, r2
    a2ec:	e0802002 	add	r2, r0, r2
    a2f0:	e5830014 	str	r0, [r3, #20]
    a2f4:	e5831018 	str	r1, [r3, #24]
    a2f8:	e583201c 	str	r2, [r3, #28]
    a2fc:	e1a00820 	lsr	r0, r0, #16
    a300:	e12fff1e 	bx	lr

0000a304 <usleep>:
    a304:	e24dd008 	sub	sp, sp, #8
    a308:	e58d0004 	str	r0, [sp, #4]
    a30c:	e59d3004 	ldr	r3, [sp, #4]
    a310:	e3530000 	cmp	r3, #0
    a314:	da000005 	ble	a330 <usleep+0x2c>
    a318:	e59d3004 	ldr	r3, [sp, #4]
    a31c:	e2433001 	sub	r3, r3, #1
    a320:	e58d3004 	str	r3, [sp, #4]
    a324:	e59d3004 	ldr	r3, [sp, #4]
    a328:	e3530000 	cmp	r3, #0
    a32c:	cafffff9 	bgt	a318 <usleep+0x14>
    a330:	e28dd008 	add	sp, sp, #8
    a334:	e12fff1e 	bx	lr

0000a338 <memset_t>:
    a338:	e3120003 	tst	r2, #3
    a33c:	0a000004 	beq	a354 <memset_t+0x1c>
    a340:	e0802002 	add	r2, r0, r2
    a344:	e4c01001 	strb	r1, [r0], #1
    a348:	e1520000 	cmp	r2, r0
    a34c:	1afffffc 	bne	a344 <memset_t+0xc>
    a350:	e12fff1e 	bx	lr
    a354:	e1a03801 	lsl	r3, r1, #16
    a358:	e1833401 	orr	r3, r3, r1, lsl #8
    a35c:	e1b02122 	lsrs	r2, r2, #2
    a360:	e1833001 	orr	r3, r3, r1
    a364:	e1831c01 	orr	r1, r3, r1, lsl #24
    a368:	012fff1e 	bxeq	lr
    a36c:	e0802102 	add	r2, r0, r2, lsl #2
    a370:	e4801004 	str	r1, [r0], #4
    a374:	e1520000 	cmp	r2, r0
    a378:	1afffffc 	bne	a370 <memset_t+0x38>
    a37c:	e12fff1e 	bx	lr

0000a380 <get_systime>:
    a380:	e3a03a03 	mov	r3, #12288	; 0x3000
    a384:	e3433f00 	movt	r3, #16128	; 0x3f00
    a388:	e92d0030 	push	{r4, r5}
    a38c:	e24dd008 	sub	sp, sp, #8
    a390:	e5932008 	ldr	r2, [r3, #8]
    a394:	e58d2000 	str	r2, [sp]
    a398:	e5932004 	ldr	r2, [r3, #4]
    a39c:	e58d2004 	str	r2, [sp, #4]
    a3a0:	e5931008 	ldr	r1, [r3, #8]
    a3a4:	e59d2000 	ldr	r2, [sp]
    a3a8:	e1510002 	cmp	r1, r2
    a3ac:	15932008 	ldrne	r2, [r3, #8]
    a3b0:	158d2000 	strne	r2, [sp]
    a3b4:	e3a02000 	mov	r2, #0
    a3b8:	15933004 	ldrne	r3, [r3, #4]
    a3bc:	158d3004 	strne	r3, [sp, #4]
    a3c0:	e59d1000 	ldr	r1, [sp]
    a3c4:	e59d0004 	ldr	r0, [sp, #4]
    a3c8:	e0924000 	adds	r4, r2, r0
    a3cc:	e2a15000 	adc	r5, r1, #0
    a3d0:	e1a00004 	mov	r0, r4
    a3d4:	e1a01005 	mov	r1, r5
    a3d8:	e28dd008 	add	sp, sp, #8
    a3dc:	e8bd0030 	pop	{r4, r5}
    a3e0:	e12fff1e 	bx	lr

0000a3e4 <get_systime_ms>:
    a3e4:	eddf6a16 	vldr	s13, [pc, #88]	; a444 <get_systime_ms+0x60>
    a3e8:	e3a03a03 	mov	r3, #12288	; 0x3000
    a3ec:	e3433f00 	movt	r3, #16128	; 0x3f00
    a3f0:	e24dd008 	sub	sp, sp, #8
    a3f4:	e5932008 	ldr	r2, [r3, #8]
    a3f8:	e58d2000 	str	r2, [sp]
    a3fc:	e5932004 	ldr	r2, [r3, #4]
    a400:	e58d2004 	str	r2, [sp, #4]
    a404:	e5931008 	ldr	r1, [r3, #8]
    a408:	e59d2000 	ldr	r2, [sp]
    a40c:	e1510002 	cmp	r1, r2
    a410:	15932008 	ldrne	r2, [r3, #8]
    a414:	158d2000 	strne	r2, [sp]
    a418:	15933004 	ldrne	r3, [r3, #4]
    a41c:	158d3004 	strne	r3, [sp, #4]
    a420:	e59d3000 	ldr	r3, [sp]
    a424:	e59d3004 	ldr	r3, [sp, #4]
    a428:	eddd7a01 	vldr	s15, [sp, #4]
    a42c:	eef87a67 	vcvt.f32.u32	s15, s15
    a430:	ee877aa6 	vdiv.f32	s14, s15, s13
    a434:	eefc7ac7 	vcvt.u32.f32	s15, s14
    a438:	ee170a90 	vmov	r0, s15
    a43c:	e28dd008 	add	sp, sp, #8
    a440:	e12fff1e 	bx	lr
    a444:	447a0000 	ldrbtmi	r0, [sl], #-0

0000a448 <get_systime32>:
    a448:	e3a03a03 	mov	r3, #12288	; 0x3000
    a44c:	e3433f00 	movt	r3, #16128	; 0x3f00
    a450:	e5930004 	ldr	r0, [r3, #4]
    a454:	e12fff1e 	bx	lr

0000a458 <msleep>:
    a458:	e3a03a03 	mov	r3, #12288	; 0x3000
    a45c:	e3433f00 	movt	r3, #16128	; 0x3f00
    a460:	e92d00f0 	push	{r4, r5, r6, r7}
    a464:	e24dd010 	sub	sp, sp, #16
    a468:	e5932008 	ldr	r2, [r3, #8]
    a46c:	e3a06000 	mov	r6, #0
    a470:	e58d2000 	str	r2, [sp]
    a474:	e5932004 	ldr	r2, [r3, #4]
    a478:	e58d2004 	str	r2, [sp, #4]
    a47c:	e5931008 	ldr	r1, [r3, #8]
    a480:	e59d2000 	ldr	r2, [sp]
    a484:	e1510002 	cmp	r1, r2
    a488:	15932008 	ldrne	r2, [r3, #8]
    a48c:	158d2000 	strne	r2, [sp]
    a490:	e3a02ffa 	mov	r2, #1000	; 0x3e8
    a494:	15933004 	ldrne	r3, [r3, #4]
    a498:	e0000092 	mul	r0, r2, r0
    a49c:	158d3004 	strne	r3, [sp, #4]
    a4a0:	e3a03a03 	mov	r3, #12288	; 0x3000
    a4a4:	e59dc000 	ldr	ip, [sp]
    a4a8:	e3433f00 	movt	r3, #16128	; 0x3f00
    a4ac:	e59d1004 	ldr	r1, [sp, #4]
    a4b0:	e0966001 	adds	r6, r6, r1
    a4b4:	e2ac7000 	adc	r7, ip, #0
    a4b8:	e0966000 	adds	r6, r6, r0
    a4bc:	e2a77000 	adc	r7, r7, #0
    a4c0:	e5932008 	ldr	r2, [r3, #8]
    a4c4:	e3a04000 	mov	r4, #0
    a4c8:	e58d2008 	str	r2, [sp, #8]
    a4cc:	e5932004 	ldr	r2, [r3, #4]
    a4d0:	e58d200c 	str	r2, [sp, #12]
    a4d4:	e5931008 	ldr	r1, [r3, #8]
    a4d8:	e59d2008 	ldr	r2, [sp, #8]
    a4dc:	e1510002 	cmp	r1, r2
    a4e0:	15932008 	ldrne	r2, [r3, #8]
    a4e4:	158d2008 	strne	r2, [sp, #8]
    a4e8:	15932004 	ldrne	r2, [r3, #4]
    a4ec:	158d200c 	strne	r2, [sp, #12]
    a4f0:	e59d1008 	ldr	r1, [sp, #8]
    a4f4:	e59d200c 	ldr	r2, [sp, #12]
    a4f8:	e0940002 	adds	r0, r4, r2
    a4fc:	e2a11000 	adc	r1, r1, #0
    a500:	e1570001 	cmp	r7, r1
    a504:	01560000 	cmpeq	r6, r0
    a508:	8affffec 	bhi	a4c0 <msleep+0x68>
    a50c:	e28dd010 	add	sp, sp, #16
    a510:	e8bd00f0 	pop	{r4, r5, r6, r7}
    a514:	e12fff1e 	bx	lr

0000a518 <msleep32>:
    a518:	e3a02a03 	mov	r2, #12288	; 0x3000
    a51c:	e3a03ffa 	mov	r3, #1000	; 0x3e8
    a520:	e3432f00 	movt	r2, #16128	; 0x3f00
    a524:	e5921004 	ldr	r1, [r2, #4]
    a528:	e0201093 	mla	r0, r3, r0, r1
    a52c:	e5923004 	ldr	r3, [r2, #4]
    a530:	e1530000 	cmp	r3, r0
    a534:	3afffffc 	bcc	a52c <msleep32+0x14>
    a538:	e12fff1e 	bx	lr

0000a53c <V3DSetOffset>:
    a53c:	e3500000 	cmp	r0, #0
    a540:	1580100c 	strne	r1, [r0, #12]
    a544:	15801010 	strne	r1, [r0, #16]
    a548:	e12fff1e 	bx	lr

0000a54c <V3DSaveOffset>:
    a54c:	e3500000 	cmp	r0, #0
    a550:	012fff1e 	bxeq	lr
    a554:	e3510000 	cmp	r1, #0
    a558:	1a000005 	bne	a574 <V3DSaveOffset+0x28>
    a55c:	e590300c 	ldr	r3, [r0, #12]
    a560:	e5902010 	ldr	r2, [r0, #16]
    a564:	e2433001 	sub	r3, r3, #1
    a568:	e5802018 	str	r2, [r0, #24]
    a56c:	e580301c 	str	r3, [r0, #28]
    a570:	e12fff1e 	bx	lr
    a574:	e3510001 	cmp	r1, #1
    a578:	0590300c 	ldreq	r3, [r0, #12]
    a57c:	05902010 	ldreq	r2, [r0, #16]
    a580:	02433001 	subeq	r3, r3, #1
    a584:	05802020 	streq	r2, [r0, #32]
    a588:	05803024 	streq	r3, [r0, #36]	; 0x24
    a58c:	e12fff1e 	bx	lr

0000a590 <V3DFree>:
    a590:	e3500000 	cmp	r0, #0
    a594:	012fff1e 	bxeq	lr
    a598:	e92d4010 	push	{r4, lr}
    a59c:	e1a04000 	mov	r4, r0
    a5a0:	e5900000 	ldr	r0, [r0]
    a5a4:	e3500000 	cmp	r0, #0
    a5a8:	1a000003 	bne	a5bc <V3DFree+0x2c>
    a5ac:	e3a03000 	mov	r3, #0
    a5b0:	e5843000 	str	r3, [r4]
    a5b4:	e5843004 	str	r3, [r4, #4]
    a5b8:	e8bd8010 	pop	{r4, pc}
    a5bc:	ebfff8cf 	bl	8900 <mailbox_free_memory>
    a5c0:	eafffff9 	b	a5ac <V3DFree+0x1c>

0000a5c4 <V3DAlloc>:
    a5c4:	e3500000 	cmp	r0, #0
    a5c8:	012fff1e 	bxeq	lr
    a5cc:	e92d4070 	push	{r4, r5, r6, lr}
    a5d0:	e3a0200d 	mov	r2, #13
    a5d4:	e1a05001 	mov	r5, r1
    a5d8:	e1a04000 	mov	r4, r0
    a5dc:	e3a01a01 	mov	r1, #4096	; 0x1000
    a5e0:	e3a00502 	mov	r0, #8388608	; 0x800000
    a5e4:	ebfff89a 	bl	8854 <mailbox_allocate_memory>
    a5e8:	e3500000 	cmp	r0, #0
    a5ec:	08bd8070 	popeq	{r4, r5, r6, pc}
    a5f0:	e5840000 	str	r0, [r4]
    a5f4:	e3a03000 	mov	r3, #0
    a5f8:	e5845014 	str	r5, [r4, #20]
    a5fc:	e5843004 	str	r3, [r4, #4]
    a600:	e584300c 	str	r3, [r4, #12]
    a604:	e5843010 	str	r3, [r4, #16]
    a608:	e5843018 	str	r3, [r4, #24]
    a60c:	e584301c 	str	r3, [r4, #28]
    a610:	e5843020 	str	r3, [r4, #32]
    a614:	e5843024 	str	r3, [r4, #36]	; 0x24
    a618:	e5843030 	str	r3, [r4, #48]	; 0x30
    a61c:	e5843034 	str	r3, [r4, #52]	; 0x34
    a620:	e5843038 	str	r3, [r4, #56]	; 0x38
    a624:	e8bd8070 	pop	{r4, r5, r6, pc}

0000a628 <V3DClearOffsetVertex>:
    a628:	e3500000 	cmp	r0, #0
    a62c:	13a03000 	movne	r3, #0
    a630:	15803030 	strne	r3, [r0, #48]	; 0x30
    a634:	15803034 	strne	r3, [r0, #52]	; 0x34
    a638:	e12fff1e 	bx	lr

0000a63c <V3DSetOffsetBeginVertex>:
    a63c:	e3500000 	cmp	r0, #0
    a640:	15903030 	ldrne	r3, [r0, #48]	; 0x30
    a644:	1283381b 	addne	r3, r3, #1769472	; 0x1b0000
    a648:	1580300c 	strne	r3, [r0, #12]
    a64c:	15803010 	strne	r3, [r0, #16]
    a650:	e12fff1e 	bx	lr

0000a654 <V3DSetOffsetEndVertex>:
    a654:	e3500000 	cmp	r0, #0
    a658:	1590300c 	ldrne	r3, [r0, #12]
    a65c:	15803030 	strne	r3, [r0, #48]	; 0x30
    a660:	e12fff1e 	bx	lr

0000a664 <V3DLock>:
    a664:	e2503000 	subs	r3, r0, #0
    a668:	012fff1e 	bxeq	lr
    a66c:	e5930000 	ldr	r0, [r3]
    a670:	e3500000 	cmp	r0, #0
    a674:	012fff1e 	bxeq	lr
    a678:	e92d4010 	push	{r4, lr}
    a67c:	e1a04003 	mov	r4, r3
    a680:	ebfff8c3 	bl	8994 <mailbox_lock_memory>
    a684:	e5840008 	str	r0, [r4, #8]
    a688:	ebfff7fc 	bl	8680 <VcToArm>
    a68c:	e5840004 	str	r0, [r4, #4]
    a690:	e8bd8010 	pop	{r4, pc}

0000a694 <V3DUpdate>:
    a694:	e12fff1e 	bx	lr

0000a698 <V3DUnlock>:
    a698:	e2503000 	subs	r3, r0, #0
    a69c:	012fff1e 	bxeq	lr
    a6a0:	e5930000 	ldr	r0, [r3]
    a6a4:	e3500000 	cmp	r0, #0
    a6a8:	012fff1e 	bxeq	lr
    a6ac:	e92d4010 	push	{r4, lr}
    a6b0:	e1a04003 	mov	r4, r3
    a6b4:	ebfff8db 	bl	8a28 <mailbox_unlock_memory>
    a6b8:	e3a03000 	mov	r3, #0
    a6bc:	e5843008 	str	r3, [r4, #8]
    a6c0:	e5843004 	str	r3, [r4, #4]
    a6c4:	e8bd8010 	pop	{r4, pc}

0000a6c8 <V3DWrite32>:
    a6c8:	e590200c 	ldr	r2, [r0, #12]
    a6cc:	e24dd010 	sub	sp, sp, #16
    a6d0:	e5903004 	ldr	r3, [r0, #4]
    a6d4:	e58d1004 	str	r1, [sp, #4]
    a6d8:	e0833002 	add	r3, r3, r2
    a6dc:	e58d300c 	str	r3, [sp, #12]
    a6e0:	e59d300c 	ldr	r3, [sp, #12]
    a6e4:	e5dd2004 	ldrb	r2, [sp, #4]
    a6e8:	e6ef2072 	uxtb	r2, r2
    a6ec:	e5c32000 	strb	r2, [r3]
    a6f0:	e5dd2005 	ldrb	r2, [sp, #5]
    a6f4:	e6ef2072 	uxtb	r2, r2
    a6f8:	e5c32001 	strb	r2, [r3, #1]
    a6fc:	e5dd2006 	ldrb	r2, [sp, #6]
    a700:	e6ef2072 	uxtb	r2, r2
    a704:	e5c32002 	strb	r2, [r3, #2]
    a708:	e5dd2007 	ldrb	r2, [sp, #7]
    a70c:	e6ef2072 	uxtb	r2, r2
    a710:	e5c32003 	strb	r2, [r3, #3]
    a714:	e590300c 	ldr	r3, [r0, #12]
    a718:	e2833004 	add	r3, r3, #4
    a71c:	e580300c 	str	r3, [r0, #12]
    a720:	e28dd010 	add	sp, sp, #16
    a724:	e12fff1e 	bx	lr

0000a728 <V3DFloat32>:
    a728:	e590100c 	ldr	r1, [r0, #12]
    a72c:	e24dd008 	sub	sp, sp, #8
    a730:	e5903004 	ldr	r3, [r0, #4]
    a734:	ed8d0a01 	vstr	s0, [sp, #4]
    a738:	e5dd2004 	ldrb	r2, [sp, #4]
    a73c:	e6ef2072 	uxtb	r2, r2
    a740:	e7c32001 	strb	r2, [r3, r1]
    a744:	e5dd2005 	ldrb	r2, [sp, #5]
    a748:	e0833001 	add	r3, r3, r1
    a74c:	e6ef2072 	uxtb	r2, r2
    a750:	e5c32001 	strb	r2, [r3, #1]
    a754:	e5dd2006 	ldrb	r2, [sp, #6]
    a758:	e6ef2072 	uxtb	r2, r2
    a75c:	e5c32002 	strb	r2, [r3, #2]
    a760:	e5dd2007 	ldrb	r2, [sp, #7]
    a764:	e6ef2072 	uxtb	r2, r2
    a768:	e5c32003 	strb	r2, [r3, #3]
    a76c:	e590300c 	ldr	r3, [r0, #12]
    a770:	e2833004 	add	r3, r3, #4
    a774:	e580300c 	str	r3, [r0, #12]
    a778:	e28dd008 	add	sp, sp, #8
    a77c:	e12fff1e 	bx	lr

0000a780 <V3DWrite16>:
    a780:	e5903004 	ldr	r3, [r0, #4]
    a784:	e24dd008 	sub	sp, sp, #8
    a788:	e1cd10b6 	strh	r1, [sp, #6]
    a78c:	e5dd2006 	ldrb	r2, [sp, #6]
    a790:	e590100c 	ldr	r1, [r0, #12]
    a794:	e6ef2072 	uxtb	r2, r2
    a798:	e7c32001 	strb	r2, [r3, r1]
    a79c:	e5dd2007 	ldrb	r2, [sp, #7]
    a7a0:	e0833001 	add	r3, r3, r1
    a7a4:	e6ef2072 	uxtb	r2, r2
    a7a8:	e5c32001 	strb	r2, [r3, #1]
    a7ac:	e590300c 	ldr	r3, [r0, #12]
    a7b0:	e2833002 	add	r3, r3, #2
    a7b4:	e580300c 	str	r3, [r0, #12]
    a7b8:	e28dd008 	add	sp, sp, #8
    a7bc:	e12fff1e 	bx	lr

0000a7c0 <V3DWrite8>:
    a7c0:	e590200c 	ldr	r2, [r0, #12]
    a7c4:	e24dd008 	sub	sp, sp, #8
    a7c8:	e5cd1007 	strb	r1, [sp, #7]
    a7cc:	e5dd3007 	ldrb	r3, [sp, #7]
    a7d0:	e5901004 	ldr	r1, [r0, #4]
    a7d4:	e6ef3073 	uxtb	r3, r3
    a7d8:	e7c13002 	strb	r3, [r1, r2]
    a7dc:	e590300c 	ldr	r3, [r0, #12]
    a7e0:	e2833001 	add	r3, r3, #1
    a7e4:	e580300c 	str	r3, [r0, #12]
    a7e8:	e28dd008 	add	sp, sp, #8
    a7ec:	e12fff1e 	bx	lr

Disassembly of section .text.startup:

0000a7f0 <main>:
    a7f0:	e92d4070 	push	{r4, r5, r6, lr}
    a7f4:	ebfffcf7 	bl	9bd8 <uart_init>
    a7f8:	e30b01b4 	movw	r0, #45492	; 0xb1b4
    a7fc:	e3400001 	movt	r0, #1
    a800:	ebfffd1c 	bl	9c78 <uart_puts>
    a804:	e30b01e8 	movw	r0, #45544	; 0xb1e8
    a808:	e3400001 	movt	r0, #1
    a80c:	ebfffd19 	bl	9c78 <uart_puts>
    a810:	e30b01b4 	movw	r0, #45492	; 0xb1b4
    a814:	e3400001 	movt	r0, #1
    a818:	ebfffd16 	bl	9c78 <uart_puts>
    a81c:	e30b01f8 	movw	r0, #45560	; 0xb1f8
    a820:	e3400001 	movt	r0, #1
    a824:	ebfffd13 	bl	9c78 <uart_puts>
    a828:	e30b01b4 	movw	r0, #45492	; 0xb1b4
    a82c:	e3400001 	movt	r0, #1
    a830:	ebfffd10 	bl	9c78 <uart_puts>
    a834:	ebfff7d1 	bl	8780 <mailbox_qpu_enable>
    a838:	e3a025ff 	mov	r2, #1069547520	; 0x3fc00000
    a83c:	e3033356 	movw	r3, #13142	; 0x3356
    a840:	e3403244 	movt	r3, #580	; 0x244
    a844:	e5922000 	ldr	r2, [r2]
    a848:	e1520003 	cmp	r2, r3
    a84c:	0a000045 	beq	a968 <main+0x178>
    a850:	e30b021c 	movw	r0, #45596	; 0xb21c
    a854:	e3400001 	movt	r0, #1
    a858:	ebfffd06 	bl	9c78 <uart_puts>
    a85c:	ebfff75f 	bl	85e0 <halt_led0>
    a860:	e30b01b4 	movw	r0, #45492	; 0xb1b4
    a864:	e3400001 	movt	r0, #1
    a868:	ebfffd02 	bl	9c78 <uart_puts>
    a86c:	e3a01e1e 	mov	r1, #480	; 0x1e0
    a870:	e3a00d0a 	mov	r0, #640	; 0x280
    a874:	ebfff890 	bl	8abc <mailbox_fb_init>
    a878:	e1a05000 	mov	r5, r0
    a87c:	ebfff781 	bl	8688 <mailbox_fb_getaddr>
    a880:	e5903020 	ldr	r3, [r0, #32]
    a884:	e1a04000 	mov	r4, r0
    a888:	e3530000 	cmp	r3, #0
    a88c:	0a000033 	beq	a960 <main+0x170>
    a890:	e30b0224 	movw	r0, #45604	; 0xb224
    a894:	e3400001 	movt	r0, #1
    a898:	ebfffcf6 	bl	9c78 <uart_puts>
    a89c:	e5941000 	ldr	r1, [r4]
    a8a0:	e30b0238 	movw	r0, #45624	; 0xb238
    a8a4:	e3400001 	movt	r0, #1
    a8a8:	ebfffd6a 	bl	9e58 <uart_debug_puts>
    a8ac:	e5941004 	ldr	r1, [r4, #4]
    a8b0:	e30b0248 	movw	r0, #45640	; 0xb248
    a8b4:	e3400001 	movt	r0, #1
    a8b8:	ebfffd66 	bl	9e58 <uart_debug_puts>
    a8bc:	e30b0258 	movw	r0, #45656	; 0xb258
    a8c0:	e1a01005 	mov	r1, r5
    a8c4:	e3400001 	movt	r0, #1
    a8c8:	ebfffd62 	bl	9e58 <uart_debug_puts>
    a8cc:	e5941020 	ldr	r1, [r4, #32]
    a8d0:	e30b0268 	movw	r0, #45672	; 0xb268
    a8d4:	e3400001 	movt	r0, #1
    a8d8:	ebfffd5e 	bl	9e58 <uart_debug_puts>
    a8dc:	e5942004 	ldr	r2, [r4, #4]
    a8e0:	e594c020 	ldr	ip, [r4, #32]
    a8e4:	e3520001 	cmp	r2, #1
    a8e8:	9a000010 	bls	a930 <main+0x140>
    a8ec:	e5943000 	ldr	r3, [r4]
    a8f0:	e3a00000 	mov	r0, #0
    a8f4:	e34f0fff 	movt	r0, #65535	; 0xffff
    a8f8:	e3a01001 	mov	r1, #1
    a8fc:	e3530001 	cmp	r3, #1
    a900:	83a02001 	movhi	r2, #1
    a904:	9a000006 	bls	a924 <main+0x134>
    a908:	e0232193 	mla	r3, r3, r1, r2
    a90c:	e2822001 	add	r2, r2, #1
    a910:	e78c0103 	str	r0, [ip, r3, lsl #2]
    a914:	e5943000 	ldr	r3, [r4]
    a918:	e1530002 	cmp	r3, r2
    a91c:	8afffff9 	bhi	a908 <main+0x118>
    a920:	e5942004 	ldr	r2, [r4, #4]
    a924:	e2811001 	add	r1, r1, #1
    a928:	e1520001 	cmp	r2, r1
    a92c:	8afffff2 	bhi	a8fc <main+0x10c>
    a930:	e3a00801 	mov	r0, #65536	; 0x10000
    a934:	ebfffe72 	bl	a304 <usleep>
    a938:	e30b0278 	movw	r0, #45688	; 0xb278
    a93c:	e3400001 	movt	r0, #1
    a940:	ebfffccc 	bl	9c78 <uart_puts>
    a944:	e30b0288 	movw	r0, #45704	; 0xb288
    a948:	e3400001 	movt	r0, #1
    a94c:	ebfffcc9 	bl	9c78 <uart_puts>
    a950:	e1a00004 	mov	r0, r4
    a954:	ebfffc72 	bl	9b24 <testTriangle>
    a958:	e3a00000 	mov	r0, #0
    a95c:	e8bd8070 	pop	{r4, r5, r6, pc}
    a960:	ebfff71e 	bl	85e0 <halt_led0>
    a964:	eaffffc9 	b	a890 <main+0xa0>
    a968:	e30b0204 	movw	r0, #45572	; 0xb204
    a96c:	e3400001 	movt	r0, #1
    a970:	ebfffcc0 	bl	9c78 <uart_puts>
    a974:	ebfff72e 	bl	8634 <mark_status_led>
    a978:	eaffffb8 	b	a860 <main+0x70>

Disassembly of section .rodata:

0000b000 <__rodata_start>:
	...
    d020:	ff000000 			; <UNDEFINED> instruction: 0xff000000
    d024:	ff0000ff 			; <UNDEFINED> instruction: 0xff0000ff
    d028:	000000ff 	strdeq	r0, [r0], -pc	; <UNPREDICTABLE>
	...
    d074:	ffffff00 			; <UNDEFINED> instruction: 0xffffff00
    d078:	000000ff 	strdeq	r0, [r0], -pc	; <UNPREDICTABLE>
	...
    d084:	ffffff00 			; <UNDEFINED> instruction: 0xffffff00
    d088:	000000ff 	strdeq	r0, [r0], -pc	; <UNPREDICTABLE>
	...
    d094:	ffffff00 			; <UNDEFINED> instruction: 0xffffff00
    d098:	000000ff 	strdeq	r0, [r0], -pc	; <UNPREDICTABLE>
	...
    d0fc:	00ffff00 	rscseq	pc, pc, r0, lsl #30
	...
    d120:	ff000000 			; <UNDEFINED> instruction: 0xff000000
    d124:	ff0000ff 			; <UNDEFINED> instruction: 0xff0000ff
    d128:	000000ff 	strdeq	r0, [r0], -pc	; <UNPREDICTABLE>
	...
    d174:	ffffff00 			; <UNDEFINED> instruction: 0xffffff00
    d178:	000000ff 	strdeq	r0, [r0], -pc	; <UNPREDICTABLE>
	...
    d184:	ffffff00 			; <UNDEFINED> instruction: 0xffffff00
    d188:	000000ff 	strdeq	r0, [r0], -pc	; <UNPREDICTABLE>
	...
    d194:	ffffff00 			; <UNDEFINED> instruction: 0xffffff00
    d198:	000000ff 	strdeq	r0, [r0], -pc	; <UNPREDICTABLE>
	...
    d1fc:	00ffff00 	rscseq	pc, pc, r0, lsl #30
	...
    d214:	ffffff00 			; <UNDEFINED> instruction: 0xffffff00
    d218:	000000ff 	strdeq	r0, [r0], -pc	; <UNPREDICTABLE>
    d21c:	00000000 	andeq	r0, r0, r0
    d220:	ff000000 			; <UNDEFINED> instruction: 0xff000000
    d224:	ff0000ff 			; <UNDEFINED> instruction: 0xff0000ff
    d228:	000000ff 	strdeq	r0, [r0], -pc	; <UNPREDICTABLE>
    d22c:	00000000 	andeq	r0, r0, r0
    d230:	ff000000 			; <UNDEFINED> instruction: 0xff000000
    d234:	ff0000ff 			; <UNDEFINED> instruction: 0xff0000ff
    d238:	00ffffff 	ldrshteq	pc, [pc], #255	; <UNPREDICTABLE>
	...
    d244:	ffffff00 			; <UNDEFINED> instruction: 0xffffff00
    d248:	000000ff 	strdeq	r0, [r0], -pc	; <UNPREDICTABLE>
    d24c:	00000000 	andeq	r0, r0, r0
    d250:	00ffff00 	rscseq	pc, pc, r0, lsl #30
    d254:	00000000 	andeq	r0, r0, r0
    d258:	ff000000 			; <UNDEFINED> instruction: 0xff000000
    d25c:	000000ff 	strdeq	r0, [r0], -pc	; <UNPREDICTABLE>
    d260:	ffffff00 			; <UNDEFINED> instruction: 0xffffff00
    d264:	00ffffff 	ldrshteq	pc, [pc], #255	; <UNPREDICTABLE>
	...
    d274:	ffffff00 			; <UNDEFINED> instruction: 0xffffff00
    d278:	000000ff 	strdeq	r0, [r0], -pc	; <UNPREDICTABLE>
    d27c:	00000000 	andeq	r0, r0, r0
    d280:	ff000000 			; <UNDEFINED> instruction: 0xff000000
    d284:	000000ff 	strdeq	r0, [r0], -pc	; <UNPREDICTABLE>
	...
    d298:	00ffff00 	rscseq	pc, pc, r0, lsl #30
    d29c:	00000000 	andeq	r0, r0, r0
    d2a0:	00ffff00 	rscseq	pc, pc, r0, lsl #30
    d2a4:	00000000 	andeq	r0, r0, r0
    d2a8:	ff000000 			; <UNDEFINED> instruction: 0xff000000
    d2ac:	000000ff 	strdeq	r0, [r0], -pc	; <UNPREDICTABLE>
    d2b0:	00000000 	andeq	r0, r0, r0
    d2b4:	ffffff00 			; <UNDEFINED> instruction: 0xffffff00
    d2b8:	000000ff 	strdeq	r0, [r0], -pc	; <UNPREDICTABLE>
	...
    d2f8:	ff000000 			; <UNDEFINED> instruction: 0xff000000
    d2fc:	000000ff 	strdeq	r0, [r0], -pc	; <UNPREDICTABLE>
	...
    d314:	ffffff00 			; <UNDEFINED> instruction: 0xffffff00
    d318:	000000ff 	strdeq	r0, [r0], -pc	; <UNPREDICTABLE>
    d31c:	00000000 	andeq	r0, r0, r0
    d320:	ff000000 			; <UNDEFINED> instruction: 0xff000000
    d324:	ff0000ff 			; <UNDEFINED> instruction: 0xff0000ff
    d328:	000000ff 	strdeq	r0, [r0], -pc	; <UNPREDICTABLE>
    d32c:	00000000 	andeq	r0, r0, r0
    d330:	ff000000 			; <UNDEFINED> instruction: 0xff000000
    d334:	ff0000ff 			; <UNDEFINED> instruction: 0xff0000ff
    d338:	00ffffff 	ldrshteq	pc, [pc], #255	; <UNPREDICTABLE>
	...
    d344:	ffffff00 			; <UNDEFINED> instruction: 0xffffff00
    d348:	000000ff 	strdeq	r0, [r0], -pc	; <UNPREDICTABLE>
    d34c:	00000000 	andeq	r0, r0, r0
    d350:	00ffff00 	rscseq	pc, pc, r0, lsl #30
    d354:	00000000 	andeq	r0, r0, r0
    d358:	ff000000 			; <UNDEFINED> instruction: 0xff000000
    d35c:	000000ff 	strdeq	r0, [r0], -pc	; <UNPREDICTABLE>
    d360:	ffffff00 			; <UNDEFINED> instruction: 0xffffff00
    d364:	00ffffff 	ldrshteq	pc, [pc], #255	; <UNPREDICTABLE>
	...
    d374:	ffffff00 			; <UNDEFINED> instruction: 0xffffff00
    d378:	000000ff 	strdeq	r0, [r0], -pc	; <UNPREDICTABLE>
    d37c:	00000000 	andeq	r0, r0, r0
    d380:	ff000000 			; <UNDEFINED> instruction: 0xff000000
    d384:	000000ff 	strdeq	r0, [r0], -pc	; <UNPREDICTABLE>
	...
    d398:	00ffff00 	rscseq	pc, pc, r0, lsl #30
    d39c:	00000000 	andeq	r0, r0, r0
    d3a0:	00ffff00 	rscseq	pc, pc, r0, lsl #30
    d3a4:	00000000 	andeq	r0, r0, r0
    d3a8:	ff000000 			; <UNDEFINED> instruction: 0xff000000
    d3ac:	000000ff 	strdeq	r0, [r0], -pc	; <UNPREDICTABLE>
    d3b0:	00000000 	andeq	r0, r0, r0
    d3b4:	ffffff00 			; <UNDEFINED> instruction: 0xffffff00
    d3b8:	000000ff 	strdeq	r0, [r0], -pc	; <UNPREDICTABLE>
	...
    d3f8:	ff000000 			; <UNDEFINED> instruction: 0xff000000
    d3fc:	000000ff 	strdeq	r0, [r0], -pc	; <UNPREDICTABLE>
	...
    d414:	ffffff00 			; <UNDEFINED> instruction: 0xffffff00
    d418:	000000ff 	strdeq	r0, [r0], -pc	; <UNPREDICTABLE>
	...
    d42c:	ff000000 			; <UNDEFINED> instruction: 0xff000000
    d430:	ffffffff 			; <UNDEFINED> instruction: 0xffffffff
    d434:	ffffffff 			; <UNDEFINED> instruction: 0xffffffff
    d438:	ffffffff 			; <UNDEFINED> instruction: 0xffffffff
    d43c:	00ffffff 	ldrshteq	pc, [pc], #255	; <UNPREDICTABLE>
    d440:	ffffff00 			; <UNDEFINED> instruction: 0xffffff00
    d444:	ffffffff 			; <UNDEFINED> instruction: 0xffffffff
    d448:	ffffffff 			; <UNDEFINED> instruction: 0xffffffff
    d44c:	ff0000ff 			; <UNDEFINED> instruction: 0xff0000ff
    d450:	ff0000ff 			; <UNDEFINED> instruction: 0xff0000ff
    d454:	000000ff 	strdeq	r0, [r0], -pc	; <UNPREDICTABLE>
    d458:	00ffff00 	rscseq	pc, pc, r0, lsl #30
    d45c:	00000000 	andeq	r0, r0, r0
    d460:	00ffff00 	rscseq	pc, pc, r0, lsl #30
    d464:	ff000000 			; <UNDEFINED> instruction: 0xff000000
    d468:	000000ff 	strdeq	r0, [r0], -pc	; <UNPREDICTABLE>
	...
    d474:	ff000000 			; <UNDEFINED> instruction: 0xff000000
    d478:	000000ff 	strdeq	r0, [r0], -pc	; <UNPREDICTABLE>
    d47c:	00000000 	andeq	r0, r0, r0
    d480:	00ffff00 	rscseq	pc, pc, r0, lsl #30
	...
    d498:	ff000000 			; <UNDEFINED> instruction: 0xff000000
    d49c:	000000ff 	strdeq	r0, [r0], -pc	; <UNPREDICTABLE>
    d4a0:	ff000000 			; <UNDEFINED> instruction: 0xff000000
    d4a4:	000000ff 	strdeq	r0, [r0], -pc	; <UNPREDICTABLE>
    d4a8:	00ffff00 	rscseq	pc, pc, r0, lsl #30
	...
    d4b4:	ffffff00 			; <UNDEFINED> instruction: 0xffffff00
    d4b8:	000000ff 	strdeq	r0, [r0], -pc	; <UNPREDICTABLE>
	...
    d4f8:	00ffff00 	rscseq	pc, pc, r0, lsl #30
	...
    d514:	ffffff00 			; <UNDEFINED> instruction: 0xffffff00
    d518:	000000ff 	strdeq	r0, [r0], -pc	; <UNPREDICTABLE>
	...
    d52c:	ff000000 			; <UNDEFINED> instruction: 0xff000000
    d530:	ffffffff 			; <UNDEFINED> instruction: 0xffffffff
    d534:	ffffffff 			; <UNDEFINED> instruction: 0xffffffff
    d538:	ffffffff 			; <UNDEFINED> instruction: 0xffffffff
    d53c:	00ffffff 	ldrshteq	pc, [pc], #255	; <UNPREDICTABLE>
    d540:	ffffff00 			; <UNDEFINED> instruction: 0xffffff00
    d544:	ffffffff 			; <UNDEFINED> instruction: 0xffffffff
    d548:	ffffffff 			; <UNDEFINED> instruction: 0xffffffff
    d54c:	ff0000ff 			; <UNDEFINED> instruction: 0xff0000ff
    d550:	ff0000ff 			; <UNDEFINED> instruction: 0xff0000ff
    d554:	000000ff 	strdeq	r0, [r0], -pc	; <UNPREDICTABLE>
    d558:	00ffff00 	rscseq	pc, pc, r0, lsl #30
    d55c:	00000000 	andeq	r0, r0, r0
    d560:	00ffff00 	rscseq	pc, pc, r0, lsl #30
    d564:	ff000000 			; <UNDEFINED> instruction: 0xff000000
    d568:	000000ff 	strdeq	r0, [r0], -pc	; <UNPREDICTABLE>
	...
    d574:	ff000000 			; <UNDEFINED> instruction: 0xff000000
    d578:	000000ff 	strdeq	r0, [r0], -pc	; <UNPREDICTABLE>
    d57c:	00000000 	andeq	r0, r0, r0
    d580:	00ffff00 	rscseq	pc, pc, r0, lsl #30
	...
    d598:	ff000000 			; <UNDEFINED> instruction: 0xff000000
    d59c:	000000ff 	strdeq	r0, [r0], -pc	; <UNPREDICTABLE>
    d5a0:	ff000000 			; <UNDEFINED> instruction: 0xff000000
    d5a4:	000000ff 	strdeq	r0, [r0], -pc	; <UNPREDICTABLE>
    d5a8:	00ffff00 	rscseq	pc, pc, r0, lsl #30
	...
    d5b4:	ffffff00 			; <UNDEFINED> instruction: 0xffffff00
    d5b8:	000000ff 	strdeq	r0, [r0], -pc	; <UNPREDICTABLE>
	...
    d5f8:	00ffff00 	rscseq	pc, pc, r0, lsl #30
	...
    d614:	ffffff00 			; <UNDEFINED> instruction: 0xffffff00
    d618:	000000ff 	strdeq	r0, [r0], -pc	; <UNPREDICTABLE>
	...
    d630:	ff000000 			; <UNDEFINED> instruction: 0xff000000
    d634:	ff0000ff 			; <UNDEFINED> instruction: 0xff0000ff
    d638:	00ffffff 	ldrshteq	pc, [pc], #255	; <UNPREDICTABLE>
    d63c:	00000000 	andeq	r0, r0, r0
    d640:	00ffff00 	rscseq	pc, pc, r0, lsl #30
    d644:	ffffff00 			; <UNDEFINED> instruction: 0xffffff00
    d648:	000000ff 	strdeq	r0, [r0], -pc	; <UNPREDICTABLE>
    d64c:	00000000 	andeq	r0, r0, r0
    d650:	00ffff00 	rscseq	pc, pc, r0, lsl #30
    d654:	ff000000 			; <UNDEFINED> instruction: 0xff000000
    d658:	000000ff 	strdeq	r0, [r0], -pc	; <UNPREDICTABLE>
    d65c:	00000000 	andeq	r0, r0, r0
    d660:	ffffff00 			; <UNDEFINED> instruction: 0xffffff00
    d664:	ffffffff 			; <UNDEFINED> instruction: 0xffffffff
    d668:	000000ff 	strdeq	r0, [r0], -pc	; <UNPREDICTABLE>
	...
    d680:	00ffff00 	rscseq	pc, pc, r0, lsl #30
	...
    d698:	ff000000 			; <UNDEFINED> instruction: 0xff000000
    d69c:	000000ff 	strdeq	r0, [r0], -pc	; <UNPREDICTABLE>
    d6a0:	ffffff00 			; <UNDEFINED> instruction: 0xffffff00
    d6a4:	ffffffff 			; <UNDEFINED> instruction: 0xffffffff
    d6a8:	ffffffff 			; <UNDEFINED> instruction: 0xffffffff
    d6ac:	000000ff 	strdeq	r0, [r0], -pc	; <UNPREDICTABLE>
    d6b0:	ffffff00 			; <UNDEFINED> instruction: 0xffffff00
    d6b4:	ffffffff 			; <UNDEFINED> instruction: 0xffffffff
    d6b8:	ffffffff 			; <UNDEFINED> instruction: 0xffffffff
    d6bc:	000000ff 	strdeq	r0, [r0], -pc	; <UNPREDICTABLE>
	...
    d6f4:	ff000000 			; <UNDEFINED> instruction: 0xff000000
    d6f8:	000000ff 	strdeq	r0, [r0], -pc	; <UNPREDICTABLE>
	...
    d714:	ffffff00 			; <UNDEFINED> instruction: 0xffffff00
    d718:	000000ff 	strdeq	r0, [r0], -pc	; <UNPREDICTABLE>
	...
    d730:	ff000000 			; <UNDEFINED> instruction: 0xff000000
    d734:	ff0000ff 			; <UNDEFINED> instruction: 0xff0000ff
    d738:	00ffffff 	ldrshteq	pc, [pc], #255	; <UNPREDICTABLE>
    d73c:	00000000 	andeq	r0, r0, r0
    d740:	00ffff00 	rscseq	pc, pc, r0, lsl #30
    d744:	ffffff00 			; <UNDEFINED> instruction: 0xffffff00
    d748:	000000ff 	strdeq	r0, [r0], -pc	; <UNPREDICTABLE>
    d74c:	00000000 	andeq	r0, r0, r0
    d750:	00ffff00 	rscseq	pc, pc, r0, lsl #30
    d754:	ff000000 			; <UNDEFINED> instruction: 0xff000000
    d758:	000000ff 	strdeq	r0, [r0], -pc	; <UNPREDICTABLE>
    d75c:	00000000 	andeq	r0, r0, r0
    d760:	ffffff00 			; <UNDEFINED> instruction: 0xffffff00
    d764:	ffffffff 			; <UNDEFINED> instruction: 0xffffffff
    d768:	000000ff 	strdeq	r0, [r0], -pc	; <UNPREDICTABLE>
	...
    d780:	00ffff00 	rscseq	pc, pc, r0, lsl #30
	...
    d798:	ff000000 			; <UNDEFINED> instruction: 0xff000000
    d79c:	000000ff 	strdeq	r0, [r0], -pc	; <UNPREDICTABLE>
    d7a0:	ffffff00 			; <UNDEFINED> instruction: 0xffffff00
    d7a4:	ffffffff 			; <UNDEFINED> instruction: 0xffffffff
    d7a8:	ffffffff 			; <UNDEFINED> instruction: 0xffffffff
    d7ac:	000000ff 	strdeq	r0, [r0], -pc	; <UNPREDICTABLE>
    d7b0:	ffffff00 			; <UNDEFINED> instruction: 0xffffff00
    d7b4:	ffffffff 			; <UNDEFINED> instruction: 0xffffffff
    d7b8:	ffffffff 			; <UNDEFINED> instruction: 0xffffffff
    d7bc:	000000ff 	strdeq	r0, [r0], -pc	; <UNPREDICTABLE>
	...
    d7f4:	ff000000 			; <UNDEFINED> instruction: 0xff000000
    d7f8:	000000ff 	strdeq	r0, [r0], -pc	; <UNPREDICTABLE>
	...
    d814:	ffffff00 			; <UNDEFINED> instruction: 0xffffff00
    d818:	000000ff 	strdeq	r0, [r0], -pc	; <UNPREDICTABLE>
	...
    d830:	ff000000 			; <UNDEFINED> instruction: 0xff000000
    d834:	ff0000ff 			; <UNDEFINED> instruction: 0xff0000ff
    d838:	00ffffff 	ldrshteq	pc, [pc], #255	; <UNPREDICTABLE>
    d83c:	00000000 	andeq	r0, r0, r0
    d840:	ffffff00 			; <UNDEFINED> instruction: 0xffffff00
    d844:	ffffffff 			; <UNDEFINED> instruction: 0xffffffff
    d848:	ffffffff 			; <UNDEFINED> instruction: 0xffffffff
    d84c:	000000ff 	strdeq	r0, [r0], -pc	; <UNPREDICTABLE>
    d850:	00000000 	andeq	r0, r0, r0
    d854:	00ffff00 	rscseq	pc, pc, r0, lsl #30
    d858:	ff000000 			; <UNDEFINED> instruction: 0xff000000
    d85c:	000000ff 	strdeq	r0, [r0], -pc	; <UNPREDICTABLE>
    d860:	00000000 	andeq	r0, r0, r0
    d864:	ff000000 			; <UNDEFINED> instruction: 0xff000000
    d868:	ff0000ff 			; <UNDEFINED> instruction: 0xff0000ff
    d86c:	000000ff 	strdeq	r0, [r0], -pc	; <UNPREDICTABLE>
	...
    d880:	00ffff00 	rscseq	pc, pc, r0, lsl #30
	...
    d898:	ff000000 			; <UNDEFINED> instruction: 0xff000000
    d89c:	000000ff 	strdeq	r0, [r0], -pc	; <UNPREDICTABLE>
    d8a0:	ffffff00 			; <UNDEFINED> instruction: 0xffffff00
    d8a4:	ffffffff 			; <UNDEFINED> instruction: 0xffffffff
    d8a8:	ffffffff 			; <UNDEFINED> instruction: 0xffffffff
    d8ac:	000000ff 	strdeq	r0, [r0], -pc	; <UNPREDICTABLE>
    d8b0:	ffffff00 			; <UNDEFINED> instruction: 0xffffff00
    d8b4:	ffffffff 			; <UNDEFINED> instruction: 0xffffffff
    d8b8:	ffffffff 			; <UNDEFINED> instruction: 0xffffffff
    d8bc:	000000ff 	strdeq	r0, [r0], -pc	; <UNPREDICTABLE>
	...
    d8d0:	ffffff00 			; <UNDEFINED> instruction: 0xffffff00
    d8d4:	ffffffff 			; <UNDEFINED> instruction: 0xffffffff
    d8d8:	ffffffff 			; <UNDEFINED> instruction: 0xffffffff
    d8dc:	000000ff 	strdeq	r0, [r0], -pc	; <UNPREDICTABLE>
	...
    d8f4:	00ffff00 	rscseq	pc, pc, r0, lsl #30
	...
    d914:	ffffff00 			; <UNDEFINED> instruction: 0xffffff00
    d918:	000000ff 	strdeq	r0, [r0], -pc	; <UNPREDICTABLE>
	...
    d930:	ff000000 			; <UNDEFINED> instruction: 0xff000000
    d934:	ff0000ff 			; <UNDEFINED> instruction: 0xff0000ff
    d938:	00ffffff 	ldrshteq	pc, [pc], #255	; <UNPREDICTABLE>
    d93c:	00000000 	andeq	r0, r0, r0
    d940:	ffffff00 			; <UNDEFINED> instruction: 0xffffff00
    d944:	ffffffff 			; <UNDEFINED> instruction: 0xffffffff
    d948:	ffffffff 			; <UNDEFINED> instruction: 0xffffffff
    d94c:	000000ff 	strdeq	r0, [r0], -pc	; <UNPREDICTABLE>
    d950:	00000000 	andeq	r0, r0, r0
    d954:	00ffff00 	rscseq	pc, pc, r0, lsl #30
    d958:	ff000000 			; <UNDEFINED> instruction: 0xff000000
    d95c:	000000ff 	strdeq	r0, [r0], -pc	; <UNPREDICTABLE>
    d960:	00000000 	andeq	r0, r0, r0
    d964:	ff000000 			; <UNDEFINED> instruction: 0xff000000
    d968:	ff0000ff 			; <UNDEFINED> instruction: 0xff0000ff
    d96c:	000000ff 	strdeq	r0, [r0], -pc	; <UNPREDICTABLE>
	...
    d980:	00ffff00 	rscseq	pc, pc, r0, lsl #30
	...
    d998:	ff000000 			; <UNDEFINED> instruction: 0xff000000
    d99c:	000000ff 	strdeq	r0, [r0], -pc	; <UNPREDICTABLE>
    d9a0:	ffffff00 			; <UNDEFINED> instruction: 0xffffff00
    d9a4:	ffffffff 			; <UNDEFINED> instruction: 0xffffffff
    d9a8:	ffffffff 			; <UNDEFINED> instruction: 0xffffffff
    d9ac:	000000ff 	strdeq	r0, [r0], -pc	; <UNPREDICTABLE>
    d9b0:	ffffff00 			; <UNDEFINED> instruction: 0xffffff00
    d9b4:	ffffffff 			; <UNDEFINED> instruction: 0xffffffff
    d9b8:	ffffffff 			; <UNDEFINED> instruction: 0xffffffff
    d9bc:	000000ff 	strdeq	r0, [r0], -pc	; <UNPREDICTABLE>
	...
    d9d0:	ffffff00 			; <UNDEFINED> instruction: 0xffffff00
    d9d4:	ffffffff 			; <UNDEFINED> instruction: 0xffffffff
    d9d8:	ffffffff 			; <UNDEFINED> instruction: 0xffffffff
    d9dc:	000000ff 	strdeq	r0, [r0], -pc	; <UNPREDICTABLE>
	...
    d9f4:	00ffff00 	rscseq	pc, pc, r0, lsl #30
	...
    da2c:	ff000000 			; <UNDEFINED> instruction: 0xff000000
    da30:	ffffffff 			; <UNDEFINED> instruction: 0xffffffff
    da34:	ffffffff 			; <UNDEFINED> instruction: 0xffffffff
    da38:	ffffffff 			; <UNDEFINED> instruction: 0xffffffff
    da3c:	00ffffff 	ldrshteq	pc, [pc], #255	; <UNPREDICTABLE>
    da40:	00000000 	andeq	r0, r0, r0
    da44:	ffffff00 			; <UNDEFINED> instruction: 0xffffff00
    da48:	ff0000ff 			; <UNDEFINED> instruction: 0xff0000ff
    da4c:	000000ff 	strdeq	r0, [r0], -pc	; <UNPREDICTABLE>
    da50:	ff000000 			; <UNDEFINED> instruction: 0xff000000
    da54:	000000ff 	strdeq	r0, [r0], -pc	; <UNPREDICTABLE>
    da58:	00ffff00 	rscseq	pc, pc, r0, lsl #30
    da5c:	00ffff00 	rscseq	pc, pc, r0, lsl #30
    da60:	ff000000 			; <UNDEFINED> instruction: 0xff000000
    da64:	00ffffff 	ldrshteq	pc, [pc], #255	; <UNPREDICTABLE>
    da68:	ffffff00 			; <UNDEFINED> instruction: 0xffffff00
    da6c:	00ffffff 	ldrshteq	pc, [pc], #255	; <UNPREDICTABLE>
	...
    da80:	00ffff00 	rscseq	pc, pc, r0, lsl #30
	...
    da98:	ff000000 			; <UNDEFINED> instruction: 0xff000000
    da9c:	000000ff 	strdeq	r0, [r0], -pc	; <UNPREDICTABLE>
    daa0:	ff000000 			; <UNDEFINED> instruction: 0xff000000
    daa4:	000000ff 	strdeq	r0, [r0], -pc	; <UNPREDICTABLE>
    daa8:	00ffff00 	rscseq	pc, pc, r0, lsl #30
	...
    dab4:	ffffff00 			; <UNDEFINED> instruction: 0xffffff00
    dab8:	000000ff 	strdeq	r0, [r0], -pc	; <UNPREDICTABLE>
	...
    dac4:	ffffff00 			; <UNDEFINED> instruction: 0xffffff00
    dac8:	000000ff 	strdeq	r0, [r0], -pc	; <UNPREDICTABLE>
	...
    daf0:	ff000000 			; <UNDEFINED> instruction: 0xff000000
    daf4:	000000ff 	strdeq	r0, [r0], -pc	; <UNPREDICTABLE>
	...
    db2c:	ff000000 			; <UNDEFINED> instruction: 0xff000000
    db30:	ffffffff 			; <UNDEFINED> instruction: 0xffffffff
    db34:	ffffffff 			; <UNDEFINED> instruction: 0xffffffff
    db38:	ffffffff 			; <UNDEFINED> instruction: 0xffffffff
    db3c:	00ffffff 	ldrshteq	pc, [pc], #255	; <UNPREDICTABLE>
    db40:	00000000 	andeq	r0, r0, r0
    db44:	ffffff00 			; <UNDEFINED> instruction: 0xffffff00
    db48:	ff0000ff 			; <UNDEFINED> instruction: 0xff0000ff
    db4c:	000000ff 	strdeq	r0, [r0], -pc	; <UNPREDICTABLE>
    db50:	ff000000 			; <UNDEFINED> instruction: 0xff000000
    db54:	000000ff 	strdeq	r0, [r0], -pc	; <UNPREDICTABLE>
    db58:	00ffff00 	rscseq	pc, pc, r0, lsl #30
    db5c:	00ffff00 	rscseq	pc, pc, r0, lsl #30
    db60:	ff000000 			; <UNDEFINED> instruction: 0xff000000
    db64:	00ffffff 	ldrshteq	pc, [pc], #255	; <UNPREDICTABLE>
    db68:	ffffff00 			; <UNDEFINED> instruction: 0xffffff00
    db6c:	00ffffff 	ldrshteq	pc, [pc], #255	; <UNPREDICTABLE>
	...
    db80:	00ffff00 	rscseq	pc, pc, r0, lsl #30
	...
    db98:	ff000000 			; <UNDEFINED> instruction: 0xff000000
    db9c:	000000ff 	strdeq	r0, [r0], -pc	; <UNPREDICTABLE>
    dba0:	ff000000 			; <UNDEFINED> instruction: 0xff000000
    dba4:	000000ff 	strdeq	r0, [r0], -pc	; <UNPREDICTABLE>
    dba8:	00ffff00 	rscseq	pc, pc, r0, lsl #30
	...
    dbb4:	ffffff00 			; <UNDEFINED> instruction: 0xffffff00
    dbb8:	000000ff 	strdeq	r0, [r0], -pc	; <UNPREDICTABLE>
	...
    dbc4:	ffffff00 			; <UNDEFINED> instruction: 0xffffff00
    dbc8:	000000ff 	strdeq	r0, [r0], -pc	; <UNPREDICTABLE>
	...
    dbf0:	ff000000 			; <UNDEFINED> instruction: 0xff000000
    dbf4:	000000ff 	strdeq	r0, [r0], -pc	; <UNPREDICTABLE>
	...
    dc14:	ffffff00 			; <UNDEFINED> instruction: 0xffffff00
    dc18:	000000ff 	strdeq	r0, [r0], -pc	; <UNPREDICTABLE>
	...
    dc30:	ff000000 			; <UNDEFINED> instruction: 0xff000000
    dc34:	ff0000ff 			; <UNDEFINED> instruction: 0xff0000ff
    dc38:	00ffffff 	ldrshteq	pc, [pc], #255	; <UNPREDICTABLE>
    dc3c:	00000000 	andeq	r0, r0, r0
    dc40:	ffffff00 			; <UNDEFINED> instruction: 0xffffff00
    dc44:	ffffffff 			; <UNDEFINED> instruction: 0xffffffff
    dc48:	ffffffff 			; <UNDEFINED> instruction: 0xffffffff
    dc4c:	000000ff 	strdeq	r0, [r0], -pc	; <UNPREDICTABLE>
    dc50:	00ffff00 	rscseq	pc, pc, r0, lsl #30
    dc54:	00000000 	andeq	r0, r0, r0
    dc58:	ff000000 			; <UNDEFINED> instruction: 0xff000000
    dc5c:	000000ff 	strdeq	r0, [r0], -pc	; <UNPREDICTABLE>
    dc60:	00ffff00 	rscseq	pc, pc, r0, lsl #30
    dc64:	00000000 	andeq	r0, r0, r0
    dc68:	ff000000 			; <UNDEFINED> instruction: 0xff000000
    dc6c:	000000ff 	strdeq	r0, [r0], -pc	; <UNPREDICTABLE>
	...
    dc80:	ff000000 			; <UNDEFINED> instruction: 0xff000000
    dc84:	000000ff 	strdeq	r0, [r0], -pc	; <UNPREDICTABLE>
	...
    dc98:	00ffff00 	rscseq	pc, pc, r0, lsl #30
    dc9c:	00000000 	andeq	r0, r0, r0
    dca0:	00ffff00 	rscseq	pc, pc, r0, lsl #30
    dca4:	00000000 	andeq	r0, r0, r0
    dca8:	ff000000 			; <UNDEFINED> instruction: 0xff000000
    dcac:	000000ff 	strdeq	r0, [r0], -pc	; <UNPREDICTABLE>
    dcb0:	00000000 	andeq	r0, r0, r0
    dcb4:	ffffff00 			; <UNDEFINED> instruction: 0xffffff00
    dcb8:	000000ff 	strdeq	r0, [r0], -pc	; <UNPREDICTABLE>
	...
    dcc4:	ffffff00 			; <UNDEFINED> instruction: 0xffffff00
    dcc8:	000000ff 	strdeq	r0, [r0], -pc	; <UNPREDICTABLE>
	...
    dce4:	ffffff00 			; <UNDEFINED> instruction: 0xffffff00
    dce8:	000000ff 	strdeq	r0, [r0], -pc	; <UNPREDICTABLE>
    dcec:	00000000 	andeq	r0, r0, r0
    dcf0:	00ffff00 	rscseq	pc, pc, r0, lsl #30
	...
    dd14:	ffffff00 			; <UNDEFINED> instruction: 0xffffff00
    dd18:	000000ff 	strdeq	r0, [r0], -pc	; <UNPREDICTABLE>
	...
    dd30:	ff000000 			; <UNDEFINED> instruction: 0xff000000
    dd34:	ff0000ff 			; <UNDEFINED> instruction: 0xff0000ff
    dd38:	00ffffff 	ldrshteq	pc, [pc], #255	; <UNPREDICTABLE>
    dd3c:	00000000 	andeq	r0, r0, r0
    dd40:	ffffff00 			; <UNDEFINED> instruction: 0xffffff00
    dd44:	ffffffff 			; <UNDEFINED> instruction: 0xffffffff
    dd48:	ffffffff 			; <UNDEFINED> instruction: 0xffffffff
    dd4c:	000000ff 	strdeq	r0, [r0], -pc	; <UNPREDICTABLE>
    dd50:	00ffff00 	rscseq	pc, pc, r0, lsl #30
    dd54:	00000000 	andeq	r0, r0, r0
    dd58:	ff000000 			; <UNDEFINED> instruction: 0xff000000
    dd5c:	000000ff 	strdeq	r0, [r0], -pc	; <UNPREDICTABLE>
    dd60:	00ffff00 	rscseq	pc, pc, r0, lsl #30
    dd64:	00000000 	andeq	r0, r0, r0
    dd68:	ff000000 			; <UNDEFINED> instruction: 0xff000000
    dd6c:	000000ff 	strdeq	r0, [r0], -pc	; <UNPREDICTABLE>
	...
    dd80:	ff000000 			; <UNDEFINED> instruction: 0xff000000
    dd84:	000000ff 	strdeq	r0, [r0], -pc	; <UNPREDICTABLE>
	...
    dd98:	00ffff00 	rscseq	pc, pc, r0, lsl #30
    dd9c:	00000000 	andeq	r0, r0, r0
    dda0:	00ffff00 	rscseq	pc, pc, r0, lsl #30
    dda4:	00000000 	andeq	r0, r0, r0
    dda8:	ff000000 			; <UNDEFINED> instruction: 0xff000000
    ddac:	000000ff 	strdeq	r0, [r0], -pc	; <UNPREDICTABLE>
    ddb0:	00000000 	andeq	r0, r0, r0
    ddb4:	ffffff00 			; <UNDEFINED> instruction: 0xffffff00
    ddb8:	000000ff 	strdeq	r0, [r0], -pc	; <UNPREDICTABLE>
	...
    ddc4:	ffffff00 			; <UNDEFINED> instruction: 0xffffff00
    ddc8:	000000ff 	strdeq	r0, [r0], -pc	; <UNPREDICTABLE>
	...
    dde4:	ffffff00 			; <UNDEFINED> instruction: 0xffffff00
    dde8:	000000ff 	strdeq	r0, [r0], -pc	; <UNPREDICTABLE>
    ddec:	00000000 	andeq	r0, r0, r0
    ddf0:	00ffff00 	rscseq	pc, pc, r0, lsl #30
	...
    de14:	ffffff00 			; <UNDEFINED> instruction: 0xffffff00
    de18:	000000ff 	strdeq	r0, [r0], -pc	; <UNPREDICTABLE>
	...
    de44:	ffffff00 			; <UNDEFINED> instruction: 0xffffff00
    de48:	000000ff 	strdeq	r0, [r0], -pc	; <UNPREDICTABLE>
	...
    de60:	ff000000 			; <UNDEFINED> instruction: 0xff000000
    de64:	ffffffff 			; <UNDEFINED> instruction: 0xffffffff
    de68:	00ffffff 	ldrshteq	pc, [pc], #255	; <UNPREDICTABLE>
	...
    de84:	ffffff00 			; <UNDEFINED> instruction: 0xffffff00
    de88:	000000ff 	strdeq	r0, [r0], -pc	; <UNPREDICTABLE>
	...
    de94:	ffffff00 			; <UNDEFINED> instruction: 0xffffff00
    de98:	000000ff 	strdeq	r0, [r0], -pc	; <UNPREDICTABLE>
	...
    dec4:	ff000000 			; <UNDEFINED> instruction: 0xff000000
    dec8:	000000ff 	strdeq	r0, [r0], -pc	; <UNPREDICTABLE>
	...
    dee4:	ffffff00 			; <UNDEFINED> instruction: 0xffffff00
    dee8:	000000ff 	strdeq	r0, [r0], -pc	; <UNPREDICTABLE>
    deec:	ff000000 			; <UNDEFINED> instruction: 0xff000000
    def0:	000000ff 	strdeq	r0, [r0], -pc	; <UNPREDICTABLE>
	...
    df14:	ffffff00 			; <UNDEFINED> instruction: 0xffffff00
    df18:	000000ff 	strdeq	r0, [r0], -pc	; <UNPREDICTABLE>
	...
    df44:	ffffff00 			; <UNDEFINED> instruction: 0xffffff00
    df48:	000000ff 	strdeq	r0, [r0], -pc	; <UNPREDICTABLE>
	...
    df60:	ff000000 			; <UNDEFINED> instruction: 0xff000000
    df64:	ffffffff 			; <UNDEFINED> instruction: 0xffffffff
    df68:	00ffffff 	ldrshteq	pc, [pc], #255	; <UNPREDICTABLE>
	...
    df84:	ffffff00 			; <UNDEFINED> instruction: 0xffffff00
    df88:	000000ff 	strdeq	r0, [r0], -pc	; <UNPREDICTABLE>
	...
    df94:	ffffff00 			; <UNDEFINED> instruction: 0xffffff00
    df98:	000000ff 	strdeq	r0, [r0], -pc	; <UNPREDICTABLE>
	...
    dfc4:	ff000000 			; <UNDEFINED> instruction: 0xff000000
    dfc8:	000000ff 	strdeq	r0, [r0], -pc	; <UNPREDICTABLE>
	...
    dfe4:	ffffff00 			; <UNDEFINED> instruction: 0xffffff00
    dfe8:	000000ff 	strdeq	r0, [r0], -pc	; <UNPREDICTABLE>
    dfec:	ff000000 			; <UNDEFINED> instruction: 0xff000000
    dff0:	000000ff 	strdeq	r0, [r0], -pc	; <UNPREDICTABLE>
	...
    e0c4:	ff000000 			; <UNDEFINED> instruction: 0xff000000
    e0c8:	000000ff 	strdeq	r0, [r0], -pc	; <UNPREDICTABLE>
	...
    e0e4:	00ffff00 	rscseq	pc, pc, r0, lsl #30
	...
    e1c4:	ff000000 			; <UNDEFINED> instruction: 0xff000000
    e1c8:	000000ff 	strdeq	r0, [r0], -pc	; <UNPREDICTABLE>
	...
    e1e4:	00ffff00 	rscseq	pc, pc, r0, lsl #30
	...
    e2c4:	00ffff00 	rscseq	pc, pc, r0, lsl #30
	...
    e2e4:	ff000000 			; <UNDEFINED> instruction: 0xff000000
    e2e8:	000000ff 	strdeq	r0, [r0], -pc	; <UNPREDICTABLE>
    e2ec:	00000000 	andeq	r0, r0, r0
    e2f0:	ff000000 			; <UNDEFINED> instruction: 0xff000000
    e2f4:	ffffffff 			; <UNDEFINED> instruction: 0xffffffff
    e2f8:	00ffffff 	ldrshteq	pc, [pc], #255	; <UNPREDICTABLE>
	...
    e3c4:	00ffff00 	rscseq	pc, pc, r0, lsl #30
	...
    e3e4:	ff000000 			; <UNDEFINED> instruction: 0xff000000
    e3e8:	000000ff 	strdeq	r0, [r0], -pc	; <UNPREDICTABLE>
    e3ec:	00000000 	andeq	r0, r0, r0
    e3f0:	ff000000 			; <UNDEFINED> instruction: 0xff000000
    e3f4:	ffffffff 			; <UNDEFINED> instruction: 0xffffffff
    e3f8:	00ffffff 	ldrshteq	pc, [pc], #255	; <UNPREDICTABLE>
	...
    e404:	ffffff00 			; <UNDEFINED> instruction: 0xffffff00
    e408:	00ffffff 	ldrshteq	pc, [pc], #255	; <UNPREDICTABLE>
	...
    e418:	ff000000 			; <UNDEFINED> instruction: 0xff000000
    e41c:	000000ff 	strdeq	r0, [r0], -pc	; <UNPREDICTABLE>
    e420:	ff000000 			; <UNDEFINED> instruction: 0xff000000
    e424:	ffffffff 			; <UNDEFINED> instruction: 0xffffffff
    e428:	ffffffff 			; <UNDEFINED> instruction: 0xffffffff
    e42c:	000000ff 	strdeq	r0, [r0], -pc	; <UNPREDICTABLE>
    e430:	00000000 	andeq	r0, r0, r0
    e434:	ffffff00 			; <UNDEFINED> instruction: 0xffffff00
    e438:	ffffffff 			; <UNDEFINED> instruction: 0xffffffff
    e43c:	000000ff 	strdeq	r0, [r0], -pc	; <UNPREDICTABLE>
    e440:	00000000 	andeq	r0, r0, r0
    e444:	00ffff00 	rscseq	pc, pc, r0, lsl #30
    e448:	ff000000 			; <UNDEFINED> instruction: 0xff000000
    e44c:	000000ff 	strdeq	r0, [r0], -pc	; <UNPREDICTABLE>
    e450:	00000000 	andeq	r0, r0, r0
    e454:	ffffff00 			; <UNDEFINED> instruction: 0xffffff00
    e458:	ffffffff 			; <UNDEFINED> instruction: 0xffffffff
    e45c:	000000ff 	strdeq	r0, [r0], -pc	; <UNPREDICTABLE>
    e460:	00000000 	andeq	r0, r0, r0
    e464:	ffffff00 			; <UNDEFINED> instruction: 0xffffff00
    e468:	ffffffff 			; <UNDEFINED> instruction: 0xffffffff
    e46c:	000000ff 	strdeq	r0, [r0], -pc	; <UNPREDICTABLE>
    e470:	00000000 	andeq	r0, r0, r0
    e474:	ffffff00 			; <UNDEFINED> instruction: 0xffffff00
    e478:	ffffffff 			; <UNDEFINED> instruction: 0xffffffff
    e47c:	000000ff 	strdeq	r0, [r0], -pc	; <UNPREDICTABLE>
    e480:	00000000 	andeq	r0, r0, r0
    e484:	ffffff00 			; <UNDEFINED> instruction: 0xffffff00
    e488:	ffffffff 			; <UNDEFINED> instruction: 0xffffffff
    e48c:	000000ff 	strdeq	r0, [r0], -pc	; <UNPREDICTABLE>
    e490:	00000000 	andeq	r0, r0, r0
    e494:	ffffff00 			; <UNDEFINED> instruction: 0xffffff00
    e498:	ffffffff 			; <UNDEFINED> instruction: 0xffffffff
    e49c:	000000ff 	strdeq	r0, [r0], -pc	; <UNPREDICTABLE>
    e4a0:	00000000 	andeq	r0, r0, r0
    e4a4:	ffffff00 			; <UNDEFINED> instruction: 0xffffff00
    e4a8:	000000ff 	strdeq	r0, [r0], -pc	; <UNPREDICTABLE>
	...
    e4b4:	ffffff00 			; <UNDEFINED> instruction: 0xffffff00
    e4b8:	000000ff 	strdeq	r0, [r0], -pc	; <UNPREDICTABLE>
    e4bc:	00000000 	andeq	r0, r0, r0
    e4c0:	ff000000 			; <UNDEFINED> instruction: 0xff000000
    e4c4:	000000ff 	strdeq	r0, [r0], -pc	; <UNPREDICTABLE>
	...
    e4d0:	ff000000 			; <UNDEFINED> instruction: 0xff000000
    e4d4:	ffffffff 			; <UNDEFINED> instruction: 0xffffffff
    e4d8:	00ffffff 	ldrshteq	pc, [pc], #255	; <UNPREDICTABLE>
	...
    e4e8:	00ffff00 	rscseq	pc, pc, r0, lsl #30
    e4ec:	00000000 	andeq	r0, r0, r0
    e4f0:	ff000000 			; <UNDEFINED> instruction: 0xff000000
    e4f4:	000000ff 	strdeq	r0, [r0], -pc	; <UNPREDICTABLE>
    e4f8:	00ffff00 	rscseq	pc, pc, r0, lsl #30
	...
    e504:	ffffff00 			; <UNDEFINED> instruction: 0xffffff00
    e508:	00ffffff 	ldrshteq	pc, [pc], #255	; <UNPREDICTABLE>
	...
    e518:	ff000000 			; <UNDEFINED> instruction: 0xff000000
    e51c:	000000ff 	strdeq	r0, [r0], -pc	; <UNPREDICTABLE>
    e520:	ff000000 			; <UNDEFINED> instruction: 0xff000000
    e524:	ffffffff 			; <UNDEFINED> instruction: 0xffffffff
    e528:	ffffffff 			; <UNDEFINED> instruction: 0xffffffff
    e52c:	000000ff 	strdeq	r0, [r0], -pc	; <UNPREDICTABLE>
    e530:	00000000 	andeq	r0, r0, r0
    e534:	ffffff00 			; <UNDEFINED> instruction: 0xffffff00
    e538:	ffffffff 			; <UNDEFINED> instruction: 0xffffffff
    e53c:	000000ff 	strdeq	r0, [r0], -pc	; <UNPREDICTABLE>
    e540:	00000000 	andeq	r0, r0, r0
    e544:	00ffff00 	rscseq	pc, pc, r0, lsl #30
    e548:	ff000000 			; <UNDEFINED> instruction: 0xff000000
    e54c:	000000ff 	strdeq	r0, [r0], -pc	; <UNPREDICTABLE>
    e550:	00000000 	andeq	r0, r0, r0
    e554:	ffffff00 			; <UNDEFINED> instruction: 0xffffff00
    e558:	ffffffff 			; <UNDEFINED> instruction: 0xffffffff
    e55c:	000000ff 	strdeq	r0, [r0], -pc	; <UNPREDICTABLE>
    e560:	00000000 	andeq	r0, r0, r0
    e564:	ffffff00 			; <UNDEFINED> instruction: 0xffffff00
    e568:	ffffffff 			; <UNDEFINED> instruction: 0xffffffff
    e56c:	000000ff 	strdeq	r0, [r0], -pc	; <UNPREDICTABLE>
    e570:	00000000 	andeq	r0, r0, r0
    e574:	ffffff00 			; <UNDEFINED> instruction: 0xffffff00
    e578:	ffffffff 			; <UNDEFINED> instruction: 0xffffffff
    e57c:	000000ff 	strdeq	r0, [r0], -pc	; <UNPREDICTABLE>
    e580:	00000000 	andeq	r0, r0, r0
    e584:	ffffff00 			; <UNDEFINED> instruction: 0xffffff00
    e588:	ffffffff 			; <UNDEFINED> instruction: 0xffffffff
    e58c:	000000ff 	strdeq	r0, [r0], -pc	; <UNPREDICTABLE>
    e590:	00000000 	andeq	r0, r0, r0
    e594:	ffffff00 			; <UNDEFINED> instruction: 0xffffff00
    e598:	ffffffff 			; <UNDEFINED> instruction: 0xffffffff
    e59c:	000000ff 	strdeq	r0, [r0], -pc	; <UNPREDICTABLE>
    e5a0:	00000000 	andeq	r0, r0, r0
    e5a4:	ffffff00 			; <UNDEFINED> instruction: 0xffffff00
    e5a8:	000000ff 	strdeq	r0, [r0], -pc	; <UNPREDICTABLE>
	...
    e5b4:	ffffff00 			; <UNDEFINED> instruction: 0xffffff00
    e5b8:	000000ff 	strdeq	r0, [r0], -pc	; <UNPREDICTABLE>
    e5bc:	00000000 	andeq	r0, r0, r0
    e5c0:	ff000000 			; <UNDEFINED> instruction: 0xff000000
    e5c4:	000000ff 	strdeq	r0, [r0], -pc	; <UNPREDICTABLE>
	...
    e5d0:	ff000000 			; <UNDEFINED> instruction: 0xff000000
    e5d4:	ffffffff 			; <UNDEFINED> instruction: 0xffffffff
    e5d8:	00ffffff 	ldrshteq	pc, [pc], #255	; <UNPREDICTABLE>
	...
    e5e8:	00ffff00 	rscseq	pc, pc, r0, lsl #30
    e5ec:	00000000 	andeq	r0, r0, r0
    e5f0:	ff000000 			; <UNDEFINED> instruction: 0xff000000
    e5f4:	000000ff 	strdeq	r0, [r0], -pc	; <UNPREDICTABLE>
    e5f8:	00ffff00 	rscseq	pc, pc, r0, lsl #30
    e5fc:	00000000 	andeq	r0, r0, r0
    e600:	ff000000 			; <UNDEFINED> instruction: 0xff000000
    e604:	000000ff 	strdeq	r0, [r0], -pc	; <UNPREDICTABLE>
    e608:	ff000000 			; <UNDEFINED> instruction: 0xff000000
    e60c:	000000ff 	strdeq	r0, [r0], -pc	; <UNPREDICTABLE>
	...
    e618:	ff000000 			; <UNDEFINED> instruction: 0xff000000
    e61c:	000000ff 	strdeq	r0, [r0], -pc	; <UNPREDICTABLE>
	...
    e628:	ff000000 			; <UNDEFINED> instruction: 0xff000000
    e62c:	000000ff 	strdeq	r0, [r0], -pc	; <UNPREDICTABLE>
	...
    e638:	ff000000 			; <UNDEFINED> instruction: 0xff000000
    e63c:	000000ff 	strdeq	r0, [r0], -pc	; <UNPREDICTABLE>
    e640:	00000000 	andeq	r0, r0, r0
    e644:	00ffff00 	rscseq	pc, pc, r0, lsl #30
    e648:	ff000000 			; <UNDEFINED> instruction: 0xff000000
    e64c:	000000ff 	strdeq	r0, [r0], -pc	; <UNPREDICTABLE>
    e650:	00000000 	andeq	r0, r0, r0
    e654:	00ffff00 	rscseq	pc, pc, r0, lsl #30
	...
    e664:	00ffff00 	rscseq	pc, pc, r0, lsl #30
	...
    e674:	00ffff00 	rscseq	pc, pc, r0, lsl #30
    e678:	ff000000 			; <UNDEFINED> instruction: 0xff000000
    e67c:	000000ff 	strdeq	r0, [r0], -pc	; <UNPREDICTABLE>
    e680:	00000000 	andeq	r0, r0, r0
    e684:	00ffff00 	rscseq	pc, pc, r0, lsl #30
    e688:	ff000000 			; <UNDEFINED> instruction: 0xff000000
    e68c:	000000ff 	strdeq	r0, [r0], -pc	; <UNPREDICTABLE>
    e690:	00000000 	andeq	r0, r0, r0
    e694:	00ffff00 	rscseq	pc, pc, r0, lsl #30
    e698:	ff000000 			; <UNDEFINED> instruction: 0xff000000
    e69c:	000000ff 	strdeq	r0, [r0], -pc	; <UNPREDICTABLE>
    e6a0:	00000000 	andeq	r0, r0, r0
    e6a4:	ffffff00 			; <UNDEFINED> instruction: 0xffffff00
    e6a8:	000000ff 	strdeq	r0, [r0], -pc	; <UNPREDICTABLE>
	...
    e6b4:	ffffff00 			; <UNDEFINED> instruction: 0xffffff00
    e6b8:	000000ff 	strdeq	r0, [r0], -pc	; <UNPREDICTABLE>
    e6bc:	00000000 	andeq	r0, r0, r0
    e6c0:	00ffff00 	rscseq	pc, pc, r0, lsl #30
	...
    e6e8:	ff000000 			; <UNDEFINED> instruction: 0xff000000
    e6ec:	000000ff 	strdeq	r0, [r0], -pc	; <UNPREDICTABLE>
	...
    e6f8:	00ffff00 	rscseq	pc, pc, r0, lsl #30
    e6fc:	00000000 	andeq	r0, r0, r0
    e700:	ff000000 			; <UNDEFINED> instruction: 0xff000000
    e704:	000000ff 	strdeq	r0, [r0], -pc	; <UNPREDICTABLE>
    e708:	ff000000 			; <UNDEFINED> instruction: 0xff000000
    e70c:	000000ff 	strdeq	r0, [r0], -pc	; <UNPREDICTABLE>
	...
    e718:	ff000000 			; <UNDEFINED> instruction: 0xff000000
    e71c:	000000ff 	strdeq	r0, [r0], -pc	; <UNPREDICTABLE>
	...
    e728:	ff000000 			; <UNDEFINED> instruction: 0xff000000
    e72c:	000000ff 	strdeq	r0, [r0], -pc	; <UNPREDICTABLE>
	...
    e738:	ff000000 			; <UNDEFINED> instruction: 0xff000000
    e73c:	000000ff 	strdeq	r0, [r0], -pc	; <UNPREDICTABLE>
    e740:	00000000 	andeq	r0, r0, r0
    e744:	00ffff00 	rscseq	pc, pc, r0, lsl #30
    e748:	ff000000 			; <UNDEFINED> instruction: 0xff000000
    e74c:	000000ff 	strdeq	r0, [r0], -pc	; <UNPREDICTABLE>
    e750:	00000000 	andeq	r0, r0, r0
    e754:	00ffff00 	rscseq	pc, pc, r0, lsl #30
	...
    e764:	00ffff00 	rscseq	pc, pc, r0, lsl #30
	...
    e774:	00ffff00 	rscseq	pc, pc, r0, lsl #30
    e778:	ff000000 			; <UNDEFINED> instruction: 0xff000000
    e77c:	000000ff 	strdeq	r0, [r0], -pc	; <UNPREDICTABLE>
    e780:	00000000 	andeq	r0, r0, r0
    e784:	00ffff00 	rscseq	pc, pc, r0, lsl #30
    e788:	ff000000 			; <UNDEFINED> instruction: 0xff000000
    e78c:	000000ff 	strdeq	r0, [r0], -pc	; <UNPREDICTABLE>
    e790:	00000000 	andeq	r0, r0, r0
    e794:	00ffff00 	rscseq	pc, pc, r0, lsl #30
    e798:	ff000000 			; <UNDEFINED> instruction: 0xff000000
    e79c:	000000ff 	strdeq	r0, [r0], -pc	; <UNPREDICTABLE>
    e7a0:	00000000 	andeq	r0, r0, r0
    e7a4:	ffffff00 			; <UNDEFINED> instruction: 0xffffff00
    e7a8:	000000ff 	strdeq	r0, [r0], -pc	; <UNPREDICTABLE>
	...
    e7b4:	ffffff00 			; <UNDEFINED> instruction: 0xffffff00
    e7b8:	000000ff 	strdeq	r0, [r0], -pc	; <UNPREDICTABLE>
    e7bc:	00000000 	andeq	r0, r0, r0
    e7c0:	00ffff00 	rscseq	pc, pc, r0, lsl #30
	...
    e7e8:	ff000000 			; <UNDEFINED> instruction: 0xff000000
    e7ec:	000000ff 	strdeq	r0, [r0], -pc	; <UNPREDICTABLE>
	...
    e7f8:	00ffff00 	rscseq	pc, pc, r0, lsl #30
    e7fc:	00000000 	andeq	r0, r0, r0
    e800:	ff000000 			; <UNDEFINED> instruction: 0xff000000
    e804:	000000ff 	strdeq	r0, [r0], -pc	; <UNPREDICTABLE>
    e808:	ff000000 			; <UNDEFINED> instruction: 0xff000000
    e80c:	000000ff 	strdeq	r0, [r0], -pc	; <UNPREDICTABLE>
	...
    e818:	ff000000 			; <UNDEFINED> instruction: 0xff000000
    e81c:	000000ff 	strdeq	r0, [r0], -pc	; <UNPREDICTABLE>
    e820:	ff000000 			; <UNDEFINED> instruction: 0xff000000
    e824:	ffffffff 			; <UNDEFINED> instruction: 0xffffffff
    e828:	ffffffff 			; <UNDEFINED> instruction: 0xffffffff
    e82c:	000000ff 	strdeq	r0, [r0], -pc	; <UNPREDICTABLE>
    e830:	00000000 	andeq	r0, r0, r0
    e834:	ffffff00 			; <UNDEFINED> instruction: 0xffffff00
    e838:	ffffffff 			; <UNDEFINED> instruction: 0xffffffff
    e83c:	000000ff 	strdeq	r0, [r0], -pc	; <UNPREDICTABLE>
    e840:	00000000 	andeq	r0, r0, r0
    e844:	ffffff00 			; <UNDEFINED> instruction: 0xffffff00
    e848:	ffffffff 			; <UNDEFINED> instruction: 0xffffffff
    e84c:	000000ff 	strdeq	r0, [r0], -pc	; <UNPREDICTABLE>
    e850:	00000000 	andeq	r0, r0, r0
    e854:	ffffff00 			; <UNDEFINED> instruction: 0xffffff00
    e858:	ffffffff 			; <UNDEFINED> instruction: 0xffffffff
    e85c:	000000ff 	strdeq	r0, [r0], -pc	; <UNPREDICTABLE>
    e860:	00000000 	andeq	r0, r0, r0
    e864:	ffffff00 			; <UNDEFINED> instruction: 0xffffff00
    e868:	ffffffff 			; <UNDEFINED> instruction: 0xffffffff
    e86c:	000000ff 	strdeq	r0, [r0], -pc	; <UNPREDICTABLE>
	...
    e878:	ff000000 			; <UNDEFINED> instruction: 0xff000000
    e87c:	000000ff 	strdeq	r0, [r0], -pc	; <UNPREDICTABLE>
    e880:	00000000 	andeq	r0, r0, r0
    e884:	ffffff00 			; <UNDEFINED> instruction: 0xffffff00
    e888:	ffffffff 			; <UNDEFINED> instruction: 0xffffffff
    e88c:	000000ff 	strdeq	r0, [r0], -pc	; <UNPREDICTABLE>
    e890:	00000000 	andeq	r0, r0, r0
    e894:	ffffff00 			; <UNDEFINED> instruction: 0xffffff00
    e898:	ffffffff 			; <UNDEFINED> instruction: 0xffffffff
    e89c:	000000ff 	strdeq	r0, [r0], -pc	; <UNPREDICTABLE>
	...
    e8c0:	00ffff00 	rscseq	pc, pc, r0, lsl #30
	...
    e8e8:	ff000000 			; <UNDEFINED> instruction: 0xff000000
    e8ec:	000000ff 	strdeq	r0, [r0], -pc	; <UNPREDICTABLE>
    e8f0:	00000000 	andeq	r0, r0, r0
    e8f4:	ffffff00 			; <UNDEFINED> instruction: 0xffffff00
    e8f8:	00ffffff 	ldrshteq	pc, [pc], #255	; <UNPREDICTABLE>
    e8fc:	00000000 	andeq	r0, r0, r0
    e900:	ff000000 			; <UNDEFINED> instruction: 0xff000000
    e904:	000000ff 	strdeq	r0, [r0], -pc	; <UNPREDICTABLE>
    e908:	ff000000 			; <UNDEFINED> instruction: 0xff000000
    e90c:	000000ff 	strdeq	r0, [r0], -pc	; <UNPREDICTABLE>
	...
    e918:	ff000000 			; <UNDEFINED> instruction: 0xff000000
    e91c:	000000ff 	strdeq	r0, [r0], -pc	; <UNPREDICTABLE>
    e920:	ff000000 			; <UNDEFINED> instruction: 0xff000000
    e924:	ffffffff 			; <UNDEFINED> instruction: 0xffffffff
    e928:	ffffffff 			; <UNDEFINED> instruction: 0xffffffff
    e92c:	000000ff 	strdeq	r0, [r0], -pc	; <UNPREDICTABLE>
    e930:	00000000 	andeq	r0, r0, r0
    e934:	ffffff00 			; <UNDEFINED> instruction: 0xffffff00
    e938:	ffffffff 			; <UNDEFINED> instruction: 0xffffffff
    e93c:	000000ff 	strdeq	r0, [r0], -pc	; <UNPREDICTABLE>
    e940:	00000000 	andeq	r0, r0, r0
    e944:	ffffff00 			; <UNDEFINED> instruction: 0xffffff00
    e948:	ffffffff 			; <UNDEFINED> instruction: 0xffffffff
    e94c:	000000ff 	strdeq	r0, [r0], -pc	; <UNPREDICTABLE>
    e950:	00000000 	andeq	r0, r0, r0
    e954:	ffffff00 			; <UNDEFINED> instruction: 0xffffff00
    e958:	ffffffff 			; <UNDEFINED> instruction: 0xffffffff
    e95c:	000000ff 	strdeq	r0, [r0], -pc	; <UNPREDICTABLE>
    e960:	00000000 	andeq	r0, r0, r0
    e964:	ffffff00 			; <UNDEFINED> instruction: 0xffffff00
    e968:	ffffffff 			; <UNDEFINED> instruction: 0xffffffff
    e96c:	000000ff 	strdeq	r0, [r0], -pc	; <UNPREDICTABLE>
	...
    e978:	ff000000 			; <UNDEFINED> instruction: 0xff000000
    e97c:	000000ff 	strdeq	r0, [r0], -pc	; <UNPREDICTABLE>
    e980:	00000000 	andeq	r0, r0, r0
    e984:	ffffff00 			; <UNDEFINED> instruction: 0xffffff00
    e988:	ffffffff 			; <UNDEFINED> instruction: 0xffffffff
    e98c:	000000ff 	strdeq	r0, [r0], -pc	; <UNPREDICTABLE>
    e990:	00000000 	andeq	r0, r0, r0
    e994:	ffffff00 			; <UNDEFINED> instruction: 0xffffff00
    e998:	ffffffff 			; <UNDEFINED> instruction: 0xffffffff
    e99c:	000000ff 	strdeq	r0, [r0], -pc	; <UNPREDICTABLE>
	...
    e9c0:	00ffff00 	rscseq	pc, pc, r0, lsl #30
	...
    e9e8:	ff000000 			; <UNDEFINED> instruction: 0xff000000
    e9ec:	000000ff 	strdeq	r0, [r0], -pc	; <UNPREDICTABLE>
    e9f0:	00000000 	andeq	r0, r0, r0
    e9f4:	ffffff00 			; <UNDEFINED> instruction: 0xffffff00
    e9f8:	00ffffff 	ldrshteq	pc, [pc], #255	; <UNPREDICTABLE>
    e9fc:	00000000 	andeq	r0, r0, r0
    ea00:	ff000000 			; <UNDEFINED> instruction: 0xff000000
    ea04:	000000ff 	strdeq	r0, [r0], -pc	; <UNPREDICTABLE>
    ea08:	ff000000 			; <UNDEFINED> instruction: 0xff000000
    ea0c:	000000ff 	strdeq	r0, [r0], -pc	; <UNPREDICTABLE>
	...
    ea18:	ff000000 			; <UNDEFINED> instruction: 0xff000000
    ea1c:	000000ff 	strdeq	r0, [r0], -pc	; <UNPREDICTABLE>
    ea20:	ff000000 			; <UNDEFINED> instruction: 0xff000000
    ea24:	000000ff 	strdeq	r0, [r0], -pc	; <UNPREDICTABLE>
	...
    ea38:	ff000000 			; <UNDEFINED> instruction: 0xff000000
    ea3c:	000000ff 	strdeq	r0, [r0], -pc	; <UNPREDICTABLE>
	...
    ea48:	ff000000 			; <UNDEFINED> instruction: 0xff000000
    ea4c:	000000ff 	strdeq	r0, [r0], -pc	; <UNPREDICTABLE>
	...
    ea58:	ff000000 			; <UNDEFINED> instruction: 0xff000000
    ea5c:	000000ff 	strdeq	r0, [r0], -pc	; <UNPREDICTABLE>
    ea60:	00000000 	andeq	r0, r0, r0
    ea64:	00ffff00 	rscseq	pc, pc, r0, lsl #30
    ea68:	ff000000 			; <UNDEFINED> instruction: 0xff000000
    ea6c:	000000ff 	strdeq	r0, [r0], -pc	; <UNPREDICTABLE>
	...
    ea78:	ff000000 			; <UNDEFINED> instruction: 0xff000000
    ea7c:	000000ff 	strdeq	r0, [r0], -pc	; <UNPREDICTABLE>
    ea80:	00000000 	andeq	r0, r0, r0
    ea84:	00ffff00 	rscseq	pc, pc, r0, lsl #30
    ea88:	ff000000 			; <UNDEFINED> instruction: 0xff000000
    ea8c:	000000ff 	strdeq	r0, [r0], -pc	; <UNPREDICTABLE>
	...
    ea98:	ff000000 			; <UNDEFINED> instruction: 0xff000000
    ea9c:	000000ff 	strdeq	r0, [r0], -pc	; <UNPREDICTABLE>
    eaa0:	00000000 	andeq	r0, r0, r0
    eaa4:	ffffff00 			; <UNDEFINED> instruction: 0xffffff00
    eaa8:	000000ff 	strdeq	r0, [r0], -pc	; <UNPREDICTABLE>
	...
    eab4:	ffffff00 			; <UNDEFINED> instruction: 0xffffff00
    eab8:	000000ff 	strdeq	r0, [r0], -pc	; <UNPREDICTABLE>
    eabc:	00000000 	andeq	r0, r0, r0
    eac0:	ff000000 			; <UNDEFINED> instruction: 0xff000000
    eac4:	000000ff 	strdeq	r0, [r0], -pc	; <UNPREDICTABLE>
	...
    ead0:	ff000000 			; <UNDEFINED> instruction: 0xff000000
    ead4:	ffffffff 			; <UNDEFINED> instruction: 0xffffffff
    ead8:	00ffffff 	ldrshteq	pc, [pc], #255	; <UNPREDICTABLE>
	...
    eae8:	00ffff00 	rscseq	pc, pc, r0, lsl #30
	...
    eaf4:	ffffff00 			; <UNDEFINED> instruction: 0xffffff00
    eaf8:	000000ff 	strdeq	r0, [r0], -pc	; <UNPREDICTABLE>
    eafc:	00000000 	andeq	r0, r0, r0
    eb00:	ff000000 			; <UNDEFINED> instruction: 0xff000000
    eb04:	000000ff 	strdeq	r0, [r0], -pc	; <UNPREDICTABLE>
    eb08:	ff000000 			; <UNDEFINED> instruction: 0xff000000
    eb0c:	000000ff 	strdeq	r0, [r0], -pc	; <UNPREDICTABLE>
	...
    eb18:	ff000000 			; <UNDEFINED> instruction: 0xff000000
    eb1c:	000000ff 	strdeq	r0, [r0], -pc	; <UNPREDICTABLE>
    eb20:	ff000000 			; <UNDEFINED> instruction: 0xff000000
    eb24:	000000ff 	strdeq	r0, [r0], -pc	; <UNPREDICTABLE>
	...
    eb38:	ff000000 			; <UNDEFINED> instruction: 0xff000000
    eb3c:	000000ff 	strdeq	r0, [r0], -pc	; <UNPREDICTABLE>
	...
    eb48:	ff000000 			; <UNDEFINED> instruction: 0xff000000
    eb4c:	000000ff 	strdeq	r0, [r0], -pc	; <UNPREDICTABLE>
	...
    eb58:	ff000000 			; <UNDEFINED> instruction: 0xff000000
    eb5c:	000000ff 	strdeq	r0, [r0], -pc	; <UNPREDICTABLE>
    eb60:	00000000 	andeq	r0, r0, r0
    eb64:	00ffff00 	rscseq	pc, pc, r0, lsl #30
    eb68:	ff000000 			; <UNDEFINED> instruction: 0xff000000
    eb6c:	000000ff 	strdeq	r0, [r0], -pc	; <UNPREDICTABLE>
	...
    eb78:	ff000000 			; <UNDEFINED> instruction: 0xff000000
    eb7c:	000000ff 	strdeq	r0, [r0], -pc	; <UNPREDICTABLE>
    eb80:	00000000 	andeq	r0, r0, r0
    eb84:	00ffff00 	rscseq	pc, pc, r0, lsl #30
    eb88:	ff000000 			; <UNDEFINED> instruction: 0xff000000
    eb8c:	000000ff 	strdeq	r0, [r0], -pc	; <UNPREDICTABLE>
	...
    eb98:	ff000000 			; <UNDEFINED> instruction: 0xff000000
    eb9c:	000000ff 	strdeq	r0, [r0], -pc	; <UNPREDICTABLE>
    eba0:	00000000 	andeq	r0, r0, r0
    eba4:	ffffff00 			; <UNDEFINED> instruction: 0xffffff00
    eba8:	000000ff 	strdeq	r0, [r0], -pc	; <UNPREDICTABLE>
	...
    ebb4:	ffffff00 			; <UNDEFINED> instruction: 0xffffff00
    ebb8:	000000ff 	strdeq	r0, [r0], -pc	; <UNPREDICTABLE>
    ebbc:	00000000 	andeq	r0, r0, r0
    ebc0:	ff000000 			; <UNDEFINED> instruction: 0xff000000
    ebc4:	000000ff 	strdeq	r0, [r0], -pc	; <UNPREDICTABLE>
	...
    ebd0:	ff000000 			; <UNDEFINED> instruction: 0xff000000
    ebd4:	ffffffff 			; <UNDEFINED> instruction: 0xffffffff
    ebd8:	00ffffff 	ldrshteq	pc, [pc], #255	; <UNPREDICTABLE>
	...
    ebe8:	00ffff00 	rscseq	pc, pc, r0, lsl #30
	...
    ebf4:	ffffff00 			; <UNDEFINED> instruction: 0xffffff00
    ebf8:	000000ff 	strdeq	r0, [r0], -pc	; <UNPREDICTABLE>
	...
    ec04:	ffffff00 			; <UNDEFINED> instruction: 0xffffff00
    ec08:	00ffffff 	ldrshteq	pc, [pc], #255	; <UNPREDICTABLE>
	...
    ec18:	ff000000 			; <UNDEFINED> instruction: 0xff000000
    ec1c:	000000ff 	strdeq	r0, [r0], -pc	; <UNPREDICTABLE>
    ec20:	ff000000 			; <UNDEFINED> instruction: 0xff000000
    ec24:	ffffffff 			; <UNDEFINED> instruction: 0xffffffff
    ec28:	ffffffff 			; <UNDEFINED> instruction: 0xffffffff
    ec2c:	000000ff 	strdeq	r0, [r0], -pc	; <UNPREDICTABLE>
    ec30:	00000000 	andeq	r0, r0, r0
    ec34:	ffffff00 			; <UNDEFINED> instruction: 0xffffff00
    ec38:	ffffffff 			; <UNDEFINED> instruction: 0xffffffff
    ec3c:	000000ff 	strdeq	r0, [r0], -pc	; <UNPREDICTABLE>
	...
    ec48:	ff000000 			; <UNDEFINED> instruction: 0xff000000
    ec4c:	000000ff 	strdeq	r0, [r0], -pc	; <UNPREDICTABLE>
    ec50:	00000000 	andeq	r0, r0, r0
    ec54:	ffffff00 			; <UNDEFINED> instruction: 0xffffff00
    ec58:	ffffffff 			; <UNDEFINED> instruction: 0xffffffff
    ec5c:	000000ff 	strdeq	r0, [r0], -pc	; <UNPREDICTABLE>
    ec60:	00000000 	andeq	r0, r0, r0
    ec64:	ffffff00 			; <UNDEFINED> instruction: 0xffffff00
    ec68:	ffffffff 			; <UNDEFINED> instruction: 0xffffffff
    ec6c:	000000ff 	strdeq	r0, [r0], -pc	; <UNPREDICTABLE>
	...
    ec78:	ff000000 			; <UNDEFINED> instruction: 0xff000000
    ec7c:	000000ff 	strdeq	r0, [r0], -pc	; <UNPREDICTABLE>
    ec80:	00000000 	andeq	r0, r0, r0
    ec84:	ffffff00 			; <UNDEFINED> instruction: 0xffffff00
    ec88:	ffffffff 			; <UNDEFINED> instruction: 0xffffffff
    ec8c:	000000ff 	strdeq	r0, [r0], -pc	; <UNPREDICTABLE>
	...
    ec98:	ff000000 			; <UNDEFINED> instruction: 0xff000000
    ec9c:	000000ff 	strdeq	r0, [r0], -pc	; <UNPREDICTABLE>
    eca0:	00000000 	andeq	r0, r0, r0
    eca4:	ffffff00 			; <UNDEFINED> instruction: 0xffffff00
    eca8:	000000ff 	strdeq	r0, [r0], -pc	; <UNPREDICTABLE>
	...
    ecb4:	ffffff00 			; <UNDEFINED> instruction: 0xffffff00
    ecb8:	000000ff 	strdeq	r0, [r0], -pc	; <UNPREDICTABLE>
	...
    ecc4:	00ffff00 	rscseq	pc, pc, r0, lsl #30
	...
    ece4:	ff000000 			; <UNDEFINED> instruction: 0xff000000
    ece8:	000000ff 	strdeq	r0, [r0], -pc	; <UNPREDICTABLE>
	...
    ed04:	ffffff00 			; <UNDEFINED> instruction: 0xffffff00
    ed08:	00ffffff 	ldrshteq	pc, [pc], #255	; <UNPREDICTABLE>
	...
    ed18:	ff000000 			; <UNDEFINED> instruction: 0xff000000
    ed1c:	000000ff 	strdeq	r0, [r0], -pc	; <UNPREDICTABLE>
    ed20:	ff000000 			; <UNDEFINED> instruction: 0xff000000
    ed24:	ffffffff 			; <UNDEFINED> instruction: 0xffffffff
    ed28:	ffffffff 			; <UNDEFINED> instruction: 0xffffffff
    ed2c:	000000ff 	strdeq	r0, [r0], -pc	; <UNPREDICTABLE>
    ed30:	00000000 	andeq	r0, r0, r0
    ed34:	ffffff00 			; <UNDEFINED> instruction: 0xffffff00
    ed38:	ffffffff 			; <UNDEFINED> instruction: 0xffffffff
    ed3c:	000000ff 	strdeq	r0, [r0], -pc	; <UNPREDICTABLE>
	...
    ed48:	ff000000 			; <UNDEFINED> instruction: 0xff000000
    ed4c:	000000ff 	strdeq	r0, [r0], -pc	; <UNPREDICTABLE>
    ed50:	00000000 	andeq	r0, r0, r0
    ed54:	ffffff00 			; <UNDEFINED> instruction: 0xffffff00
    ed58:	ffffffff 			; <UNDEFINED> instruction: 0xffffffff
    ed5c:	000000ff 	strdeq	r0, [r0], -pc	; <UNPREDICTABLE>
    ed60:	00000000 	andeq	r0, r0, r0
    ed64:	ffffff00 			; <UNDEFINED> instruction: 0xffffff00
    ed68:	ffffffff 			; <UNDEFINED> instruction: 0xffffffff
    ed6c:	000000ff 	strdeq	r0, [r0], -pc	; <UNPREDICTABLE>
	...
    ed78:	ff000000 			; <UNDEFINED> instruction: 0xff000000
    ed7c:	000000ff 	strdeq	r0, [r0], -pc	; <UNPREDICTABLE>
    ed80:	00000000 	andeq	r0, r0, r0
    ed84:	ffffff00 			; <UNDEFINED> instruction: 0xffffff00
    ed88:	ffffffff 			; <UNDEFINED> instruction: 0xffffffff
    ed8c:	000000ff 	strdeq	r0, [r0], -pc	; <UNPREDICTABLE>
	...
    ed98:	ff000000 			; <UNDEFINED> instruction: 0xff000000
    ed9c:	000000ff 	strdeq	r0, [r0], -pc	; <UNPREDICTABLE>
    eda0:	00000000 	andeq	r0, r0, r0
    eda4:	ffffff00 			; <UNDEFINED> instruction: 0xffffff00
    eda8:	000000ff 	strdeq	r0, [r0], -pc	; <UNPREDICTABLE>
	...
    edb4:	ffffff00 			; <UNDEFINED> instruction: 0xffffff00
    edb8:	000000ff 	strdeq	r0, [r0], -pc	; <UNPREDICTABLE>
	...
    edc4:	00ffff00 	rscseq	pc, pc, r0, lsl #30
	...
    ede4:	ff000000 			; <UNDEFINED> instruction: 0xff000000
    ede8:	000000ff 	strdeq	r0, [r0], -pc	; <UNPREDICTABLE>
	...
    eeb4:	ff000000 			; <UNDEFINED> instruction: 0xff000000
    eeb8:	000000ff 	strdeq	r0, [r0], -pc	; <UNPREDICTABLE>
	...
    eec4:	ff000000 			; <UNDEFINED> instruction: 0xff000000
    eec8:	000000ff 	strdeq	r0, [r0], -pc	; <UNPREDICTABLE>
	...
    eee4:	00ffff00 	rscseq	pc, pc, r0, lsl #30
	...
    eef4:	ffffff00 			; <UNDEFINED> instruction: 0xffffff00
    eef8:	000000ff 	strdeq	r0, [r0], -pc	; <UNPREDICTABLE>
	...
    efb4:	ff000000 			; <UNDEFINED> instruction: 0xff000000
    efb8:	000000ff 	strdeq	r0, [r0], -pc	; <UNPREDICTABLE>
	...
    efc4:	ff000000 			; <UNDEFINED> instruction: 0xff000000
    efc8:	000000ff 	strdeq	r0, [r0], -pc	; <UNPREDICTABLE>
	...
    efe4:	00ffff00 	rscseq	pc, pc, r0, lsl #30
	...
    eff4:	ffffff00 			; <UNDEFINED> instruction: 0xffffff00
    eff8:	000000ff 	strdeq	r0, [r0], -pc	; <UNPREDICTABLE>
	...
    f210:	ff000000 			; <UNDEFINED> instruction: 0xff000000
    f214:	ffffffff 			; <UNDEFINED> instruction: 0xffffffff
    f218:	ffffffff 			; <UNDEFINED> instruction: 0xffffffff
    f21c:	000000ff 	strdeq	r0, [r0], -pc	; <UNPREDICTABLE>
    f220:	ff000000 			; <UNDEFINED> instruction: 0xff000000
    f224:	ffffffff 			; <UNDEFINED> instruction: 0xffffffff
    f228:	00ffffff 	ldrshteq	pc, [pc], #255	; <UNPREDICTABLE>
	...
    f234:	ffffff00 			; <UNDEFINED> instruction: 0xffffff00
    f238:	00ffffff 	ldrshteq	pc, [pc], #255	; <UNPREDICTABLE>
    f23c:	00000000 	andeq	r0, r0, r0
    f240:	ff000000 			; <UNDEFINED> instruction: 0xff000000
    f244:	ffffffff 			; <UNDEFINED> instruction: 0xffffffff
    f248:	00ffffff 	ldrshteq	pc, [pc], #255	; <UNPREDICTABLE>
    f24c:	00000000 	andeq	r0, r0, r0
    f250:	ff000000 			; <UNDEFINED> instruction: 0xff000000
    f254:	ffffffff 			; <UNDEFINED> instruction: 0xffffffff
    f258:	ffffffff 			; <UNDEFINED> instruction: 0xffffffff
    f25c:	000000ff 	strdeq	r0, [r0], -pc	; <UNPREDICTABLE>
    f260:	ff000000 			; <UNDEFINED> instruction: 0xff000000
    f264:	ffffffff 			; <UNDEFINED> instruction: 0xffffffff
    f268:	ffffffff 			; <UNDEFINED> instruction: 0xffffffff
    f26c:	000000ff 	strdeq	r0, [r0], -pc	; <UNPREDICTABLE>
    f270:	ff000000 			; <UNDEFINED> instruction: 0xff000000
    f274:	ffffffff 			; <UNDEFINED> instruction: 0xffffffff
    f278:	ffffffff 			; <UNDEFINED> instruction: 0xffffffff
    f27c:	000000ff 	strdeq	r0, [r0], -pc	; <UNPREDICTABLE>
    f280:	ff000000 			; <UNDEFINED> instruction: 0xff000000
    f284:	000000ff 	strdeq	r0, [r0], -pc	; <UNPREDICTABLE>
    f288:	ff000000 			; <UNDEFINED> instruction: 0xff000000
    f28c:	000000ff 	strdeq	r0, [r0], -pc	; <UNPREDICTABLE>
    f290:	ff000000 			; <UNDEFINED> instruction: 0xff000000
    f294:	ffffffff 			; <UNDEFINED> instruction: 0xffffffff
    f298:	00ffffff 	ldrshteq	pc, [pc], #255	; <UNPREDICTABLE>
    f29c:	00000000 	andeq	r0, r0, r0
    f2a0:	ff000000 			; <UNDEFINED> instruction: 0xff000000
    f2a4:	ffffffff 			; <UNDEFINED> instruction: 0xffffffff
    f2a8:	ffffffff 			; <UNDEFINED> instruction: 0xffffffff
    f2ac:	000000ff 	strdeq	r0, [r0], -pc	; <UNPREDICTABLE>
    f2b0:	ff000000 			; <UNDEFINED> instruction: 0xff000000
    f2b4:	000000ff 	strdeq	r0, [r0], -pc	; <UNPREDICTABLE>
    f2b8:	ff000000 			; <UNDEFINED> instruction: 0xff000000
    f2bc:	000000ff 	strdeq	r0, [r0], -pc	; <UNPREDICTABLE>
    f2c0:	ff000000 			; <UNDEFINED> instruction: 0xff000000
    f2c4:	000000ff 	strdeq	r0, [r0], -pc	; <UNPREDICTABLE>
	...
    f2d0:	ff000000 			; <UNDEFINED> instruction: 0xff000000
    f2d4:	000000ff 	strdeq	r0, [r0], -pc	; <UNPREDICTABLE>
    f2d8:	ff000000 			; <UNDEFINED> instruction: 0xff000000
    f2dc:	000000ff 	strdeq	r0, [r0], -pc	; <UNPREDICTABLE>
    f2e0:	ff000000 			; <UNDEFINED> instruction: 0xff000000
    f2e4:	000000ff 	strdeq	r0, [r0], -pc	; <UNPREDICTABLE>
    f2e8:	ff000000 			; <UNDEFINED> instruction: 0xff000000
    f2ec:	000000ff 	strdeq	r0, [r0], -pc	; <UNPREDICTABLE>
    f2f0:	00000000 	andeq	r0, r0, r0
    f2f4:	ffffff00 			; <UNDEFINED> instruction: 0xffffff00
    f2f8:	00ffffff 	ldrshteq	pc, [pc], #255	; <UNPREDICTABLE>
	...
    f310:	ff000000 			; <UNDEFINED> instruction: 0xff000000
    f314:	ffffffff 			; <UNDEFINED> instruction: 0xffffffff
    f318:	ffffffff 			; <UNDEFINED> instruction: 0xffffffff
    f31c:	000000ff 	strdeq	r0, [r0], -pc	; <UNPREDICTABLE>
    f320:	ff000000 			; <UNDEFINED> instruction: 0xff000000
    f324:	ffffffff 			; <UNDEFINED> instruction: 0xffffffff
    f328:	00ffffff 	ldrshteq	pc, [pc], #255	; <UNPREDICTABLE>
	...
    f334:	ffffff00 			; <UNDEFINED> instruction: 0xffffff00
    f338:	00ffffff 	ldrshteq	pc, [pc], #255	; <UNPREDICTABLE>
    f33c:	00000000 	andeq	r0, r0, r0
    f340:	ff000000 			; <UNDEFINED> instruction: 0xff000000
    f344:	ffffffff 			; <UNDEFINED> instruction: 0xffffffff
    f348:	00ffffff 	ldrshteq	pc, [pc], #255	; <UNPREDICTABLE>
    f34c:	00000000 	andeq	r0, r0, r0
    f350:	ff000000 			; <UNDEFINED> instruction: 0xff000000
    f354:	ffffffff 			; <UNDEFINED> instruction: 0xffffffff
    f358:	ffffffff 			; <UNDEFINED> instruction: 0xffffffff
    f35c:	000000ff 	strdeq	r0, [r0], -pc	; <UNPREDICTABLE>
    f360:	ff000000 			; <UNDEFINED> instruction: 0xff000000
    f364:	ffffffff 			; <UNDEFINED> instruction: 0xffffffff
    f368:	ffffffff 			; <UNDEFINED> instruction: 0xffffffff
    f36c:	000000ff 	strdeq	r0, [r0], -pc	; <UNPREDICTABLE>
    f370:	ff000000 			; <UNDEFINED> instruction: 0xff000000
    f374:	ffffffff 			; <UNDEFINED> instruction: 0xffffffff
    f378:	ffffffff 			; <UNDEFINED> instruction: 0xffffffff
    f37c:	000000ff 	strdeq	r0, [r0], -pc	; <UNPREDICTABLE>
    f380:	ff000000 			; <UNDEFINED> instruction: 0xff000000
    f384:	000000ff 	strdeq	r0, [r0], -pc	; <UNPREDICTABLE>
    f388:	ff000000 			; <UNDEFINED> instruction: 0xff000000
    f38c:	000000ff 	strdeq	r0, [r0], -pc	; <UNPREDICTABLE>
    f390:	ff000000 			; <UNDEFINED> instruction: 0xff000000
    f394:	ffffffff 			; <UNDEFINED> instruction: 0xffffffff
    f398:	00ffffff 	ldrshteq	pc, [pc], #255	; <UNPREDICTABLE>
    f39c:	00000000 	andeq	r0, r0, r0
    f3a0:	ff000000 			; <UNDEFINED> instruction: 0xff000000
    f3a4:	ffffffff 			; <UNDEFINED> instruction: 0xffffffff
    f3a8:	ffffffff 			; <UNDEFINED> instruction: 0xffffffff
    f3ac:	000000ff 	strdeq	r0, [r0], -pc	; <UNPREDICTABLE>
    f3b0:	ff000000 			; <UNDEFINED> instruction: 0xff000000
    f3b4:	000000ff 	strdeq	r0, [r0], -pc	; <UNPREDICTABLE>
    f3b8:	ff000000 			; <UNDEFINED> instruction: 0xff000000
    f3bc:	000000ff 	strdeq	r0, [r0], -pc	; <UNPREDICTABLE>
    f3c0:	ff000000 			; <UNDEFINED> instruction: 0xff000000
    f3c4:	000000ff 	strdeq	r0, [r0], -pc	; <UNPREDICTABLE>
	...
    f3d0:	ff000000 			; <UNDEFINED> instruction: 0xff000000
    f3d4:	000000ff 	strdeq	r0, [r0], -pc	; <UNPREDICTABLE>
    f3d8:	ff000000 			; <UNDEFINED> instruction: 0xff000000
    f3dc:	000000ff 	strdeq	r0, [r0], -pc	; <UNPREDICTABLE>
    f3e0:	ff000000 			; <UNDEFINED> instruction: 0xff000000
    f3e4:	000000ff 	strdeq	r0, [r0], -pc	; <UNPREDICTABLE>
    f3e8:	ff000000 			; <UNDEFINED> instruction: 0xff000000
    f3ec:	000000ff 	strdeq	r0, [r0], -pc	; <UNPREDICTABLE>
    f3f0:	00000000 	andeq	r0, r0, r0
    f3f4:	ffffff00 			; <UNDEFINED> instruction: 0xffffff00
    f3f8:	00ffffff 	ldrshteq	pc, [pc], #255	; <UNPREDICTABLE>
    f3fc:	00000000 	andeq	r0, r0, r0
    f400:	ffffff00 			; <UNDEFINED> instruction: 0xffffff00
    f404:	ffffffff 			; <UNDEFINED> instruction: 0xffffffff
    f408:	ffffffff 			; <UNDEFINED> instruction: 0xffffffff
    f40c:	000000ff 	strdeq	r0, [r0], -pc	; <UNPREDICTABLE>
    f410:	ff000000 			; <UNDEFINED> instruction: 0xff000000
    f414:	000000ff 	strdeq	r0, [r0], -pc	; <UNPREDICTABLE>
    f418:	ff000000 			; <UNDEFINED> instruction: 0xff000000
    f41c:	000000ff 	strdeq	r0, [r0], -pc	; <UNPREDICTABLE>
    f420:	ff000000 			; <UNDEFINED> instruction: 0xff000000
    f424:	000000ff 	strdeq	r0, [r0], -pc	; <UNPREDICTABLE>
    f428:	ff000000 			; <UNDEFINED> instruction: 0xff000000
    f42c:	000000ff 	strdeq	r0, [r0], -pc	; <UNPREDICTABLE>
    f430:	ff000000 			; <UNDEFINED> instruction: 0xff000000
    f434:	000000ff 	strdeq	r0, [r0], -pc	; <UNPREDICTABLE>
    f438:	ff000000 			; <UNDEFINED> instruction: 0xff000000
    f43c:	000000ff 	strdeq	r0, [r0], -pc	; <UNPREDICTABLE>
    f440:	ff000000 			; <UNDEFINED> instruction: 0xff000000
    f444:	000000ff 	strdeq	r0, [r0], -pc	; <UNPREDICTABLE>
    f448:	ff000000 			; <UNDEFINED> instruction: 0xff000000
    f44c:	000000ff 	strdeq	r0, [r0], -pc	; <UNPREDICTABLE>
    f450:	ff000000 			; <UNDEFINED> instruction: 0xff000000
    f454:	000000ff 	strdeq	r0, [r0], -pc	; <UNPREDICTABLE>
	...
    f460:	ff000000 			; <UNDEFINED> instruction: 0xff000000
    f464:	000000ff 	strdeq	r0, [r0], -pc	; <UNPREDICTABLE>
	...
    f470:	ff000000 			; <UNDEFINED> instruction: 0xff000000
    f474:	000000ff 	strdeq	r0, [r0], -pc	; <UNPREDICTABLE>
	...
    f480:	ff000000 			; <UNDEFINED> instruction: 0xff000000
    f484:	000000ff 	strdeq	r0, [r0], -pc	; <UNPREDICTABLE>
    f488:	ff000000 			; <UNDEFINED> instruction: 0xff000000
    f48c:	000000ff 	strdeq	r0, [r0], -pc	; <UNPREDICTABLE>
    f490:	00000000 	andeq	r0, r0, r0
    f494:	ff000000 			; <UNDEFINED> instruction: 0xff000000
    f498:	000000ff 	strdeq	r0, [r0], -pc	; <UNPREDICTABLE>
	...
    f4a8:	00ffff00 	rscseq	pc, pc, r0, lsl #30
    f4ac:	00000000 	andeq	r0, r0, r0
    f4b0:	ff000000 			; <UNDEFINED> instruction: 0xff000000
    f4b4:	000000ff 	strdeq	r0, [r0], -pc	; <UNPREDICTABLE>
    f4b8:	00ffff00 	rscseq	pc, pc, r0, lsl #30
    f4bc:	00000000 	andeq	r0, r0, r0
    f4c0:	ff000000 			; <UNDEFINED> instruction: 0xff000000
    f4c4:	000000ff 	strdeq	r0, [r0], -pc	; <UNPREDICTABLE>
	...
    f4d0:	ff000000 			; <UNDEFINED> instruction: 0xff000000
    f4d4:	00ffffff 	ldrshteq	pc, [pc], #255	; <UNPREDICTABLE>
    f4d8:	ffffff00 			; <UNDEFINED> instruction: 0xffffff00
    f4dc:	000000ff 	strdeq	r0, [r0], -pc	; <UNPREDICTABLE>
    f4e0:	ff000000 			; <UNDEFINED> instruction: 0xff000000
    f4e4:	00ffffff 	ldrshteq	pc, [pc], #255	; <UNPREDICTABLE>
    f4e8:	ff000000 			; <UNDEFINED> instruction: 0xff000000
    f4ec:	000000ff 	strdeq	r0, [r0], -pc	; <UNPREDICTABLE>
    f4f0:	ff000000 			; <UNDEFINED> instruction: 0xff000000
    f4f4:	000000ff 	strdeq	r0, [r0], -pc	; <UNPREDICTABLE>
    f4f8:	ff000000 			; <UNDEFINED> instruction: 0xff000000
    f4fc:	000000ff 	strdeq	r0, [r0], -pc	; <UNPREDICTABLE>
    f500:	ffffff00 			; <UNDEFINED> instruction: 0xffffff00
    f504:	ffffffff 			; <UNDEFINED> instruction: 0xffffffff
    f508:	ffffffff 			; <UNDEFINED> instruction: 0xffffffff
    f50c:	000000ff 	strdeq	r0, [r0], -pc	; <UNPREDICTABLE>
    f510:	ff000000 			; <UNDEFINED> instruction: 0xff000000
    f514:	000000ff 	strdeq	r0, [r0], -pc	; <UNPREDICTABLE>
    f518:	ff000000 			; <UNDEFINED> instruction: 0xff000000
    f51c:	000000ff 	strdeq	r0, [r0], -pc	; <UNPREDICTABLE>
    f520:	ff000000 			; <UNDEFINED> instruction: 0xff000000
    f524:	000000ff 	strdeq	r0, [r0], -pc	; <UNPREDICTABLE>
    f528:	ff000000 			; <UNDEFINED> instruction: 0xff000000
    f52c:	000000ff 	strdeq	r0, [r0], -pc	; <UNPREDICTABLE>
    f530:	ff000000 			; <UNDEFINED> instruction: 0xff000000
    f534:	000000ff 	strdeq	r0, [r0], -pc	; <UNPREDICTABLE>
    f538:	ff000000 			; <UNDEFINED> instruction: 0xff000000
    f53c:	000000ff 	strdeq	r0, [r0], -pc	; <UNPREDICTABLE>
    f540:	ff000000 			; <UNDEFINED> instruction: 0xff000000
    f544:	000000ff 	strdeq	r0, [r0], -pc	; <UNPREDICTABLE>
    f548:	ff000000 			; <UNDEFINED> instruction: 0xff000000
    f54c:	000000ff 	strdeq	r0, [r0], -pc	; <UNPREDICTABLE>
    f550:	ff000000 			; <UNDEFINED> instruction: 0xff000000
    f554:	000000ff 	strdeq	r0, [r0], -pc	; <UNPREDICTABLE>
	...
    f560:	ff000000 			; <UNDEFINED> instruction: 0xff000000
    f564:	000000ff 	strdeq	r0, [r0], -pc	; <UNPREDICTABLE>
	...
    f570:	ff000000 			; <UNDEFINED> instruction: 0xff000000
    f574:	000000ff 	strdeq	r0, [r0], -pc	; <UNPREDICTABLE>
	...
    f580:	ff000000 			; <UNDEFINED> instruction: 0xff000000
    f584:	000000ff 	strdeq	r0, [r0], -pc	; <UNPREDICTABLE>
    f588:	ff000000 			; <UNDEFINED> instruction: 0xff000000
    f58c:	000000ff 	strdeq	r0, [r0], -pc	; <UNPREDICTABLE>
    f590:	00000000 	andeq	r0, r0, r0
    f594:	ff000000 			; <UNDEFINED> instruction: 0xff000000
    f598:	000000ff 	strdeq	r0, [r0], -pc	; <UNPREDICTABLE>
	...
    f5a8:	00ffff00 	rscseq	pc, pc, r0, lsl #30
    f5ac:	00000000 	andeq	r0, r0, r0
    f5b0:	ff000000 			; <UNDEFINED> instruction: 0xff000000
    f5b4:	000000ff 	strdeq	r0, [r0], -pc	; <UNPREDICTABLE>
    f5b8:	00ffff00 	rscseq	pc, pc, r0, lsl #30
    f5bc:	00000000 	andeq	r0, r0, r0
    f5c0:	ff000000 			; <UNDEFINED> instruction: 0xff000000
    f5c4:	000000ff 	strdeq	r0, [r0], -pc	; <UNPREDICTABLE>
	...
    f5d0:	ff000000 			; <UNDEFINED> instruction: 0xff000000
    f5d4:	00ffffff 	ldrshteq	pc, [pc], #255	; <UNPREDICTABLE>
    f5d8:	ffffff00 			; <UNDEFINED> instruction: 0xffffff00
    f5dc:	000000ff 	strdeq	r0, [r0], -pc	; <UNPREDICTABLE>
    f5e0:	ff000000 			; <UNDEFINED> instruction: 0xff000000
    f5e4:	00ffffff 	ldrshteq	pc, [pc], #255	; <UNPREDICTABLE>
    f5e8:	ff000000 			; <UNDEFINED> instruction: 0xff000000
    f5ec:	000000ff 	strdeq	r0, [r0], -pc	; <UNPREDICTABLE>
    f5f0:	ff000000 			; <UNDEFINED> instruction: 0xff000000
    f5f4:	000000ff 	strdeq	r0, [r0], -pc	; <UNPREDICTABLE>
    f5f8:	ff000000 			; <UNDEFINED> instruction: 0xff000000
    f5fc:	000000ff 	strdeq	r0, [r0], -pc	; <UNPREDICTABLE>
    f600:	00ffff00 	rscseq	pc, pc, r0, lsl #30
    f604:	00000000 	andeq	r0, r0, r0
    f608:	ff000000 			; <UNDEFINED> instruction: 0xff000000
    f60c:	000000ff 	strdeq	r0, [r0], -pc	; <UNPREDICTABLE>
    f610:	ff000000 			; <UNDEFINED> instruction: 0xff000000
    f614:	000000ff 	strdeq	r0, [r0], -pc	; <UNPREDICTABLE>
    f618:	ff000000 			; <UNDEFINED> instruction: 0xff000000
    f61c:	000000ff 	strdeq	r0, [r0], -pc	; <UNPREDICTABLE>
    f620:	ff000000 			; <UNDEFINED> instruction: 0xff000000
    f624:	000000ff 	strdeq	r0, [r0], -pc	; <UNPREDICTABLE>
    f628:	ff000000 			; <UNDEFINED> instruction: 0xff000000
    f62c:	000000ff 	strdeq	r0, [r0], -pc	; <UNPREDICTABLE>
    f630:	ff000000 			; <UNDEFINED> instruction: 0xff000000
    f634:	000000ff 	strdeq	r0, [r0], -pc	; <UNPREDICTABLE>
	...
    f640:	ff000000 			; <UNDEFINED> instruction: 0xff000000
    f644:	000000ff 	strdeq	r0, [r0], -pc	; <UNPREDICTABLE>
    f648:	ff000000 			; <UNDEFINED> instruction: 0xff000000
    f64c:	000000ff 	strdeq	r0, [r0], -pc	; <UNPREDICTABLE>
    f650:	ff000000 			; <UNDEFINED> instruction: 0xff000000
    f654:	000000ff 	strdeq	r0, [r0], -pc	; <UNPREDICTABLE>
	...
    f660:	ff000000 			; <UNDEFINED> instruction: 0xff000000
    f664:	000000ff 	strdeq	r0, [r0], -pc	; <UNPREDICTABLE>
	...
    f670:	ff000000 			; <UNDEFINED> instruction: 0xff000000
    f674:	000000ff 	strdeq	r0, [r0], -pc	; <UNPREDICTABLE>
	...
    f680:	ff000000 			; <UNDEFINED> instruction: 0xff000000
    f684:	000000ff 	strdeq	r0, [r0], -pc	; <UNPREDICTABLE>
    f688:	ff000000 			; <UNDEFINED> instruction: 0xff000000
    f68c:	000000ff 	strdeq	r0, [r0], -pc	; <UNPREDICTABLE>
    f690:	00000000 	andeq	r0, r0, r0
    f694:	ff000000 			; <UNDEFINED> instruction: 0xff000000
    f698:	000000ff 	strdeq	r0, [r0], -pc	; <UNPREDICTABLE>
	...
    f6a8:	00ffff00 	rscseq	pc, pc, r0, lsl #30
    f6ac:	00000000 	andeq	r0, r0, r0
    f6b0:	ff000000 			; <UNDEFINED> instruction: 0xff000000
    f6b4:	000000ff 	strdeq	r0, [r0], -pc	; <UNPREDICTABLE>
    f6b8:	00ffff00 	rscseq	pc, pc, r0, lsl #30
    f6bc:	00000000 	andeq	r0, r0, r0
    f6c0:	ff000000 			; <UNDEFINED> instruction: 0xff000000
    f6c4:	000000ff 	strdeq	r0, [r0], -pc	; <UNPREDICTABLE>
	...
    f6d0:	ff000000 			; <UNDEFINED> instruction: 0xff000000
    f6d4:	ff0000ff 			; <UNDEFINED> instruction: 0xff0000ff
    f6d8:	ff0000ff 			; <UNDEFINED> instruction: 0xff0000ff
    f6dc:	000000ff 	strdeq	r0, [r0], -pc	; <UNPREDICTABLE>
    f6e0:	ff000000 			; <UNDEFINED> instruction: 0xff000000
    f6e4:	00ffffff 	ldrshteq	pc, [pc], #255	; <UNPREDICTABLE>
    f6e8:	ff000000 			; <UNDEFINED> instruction: 0xff000000
    f6ec:	000000ff 	strdeq	r0, [r0], -pc	; <UNPREDICTABLE>
    f6f0:	ff000000 			; <UNDEFINED> instruction: 0xff000000
    f6f4:	000000ff 	strdeq	r0, [r0], -pc	; <UNPREDICTABLE>
    f6f8:	ff000000 			; <UNDEFINED> instruction: 0xff000000
    f6fc:	000000ff 	strdeq	r0, [r0], -pc	; <UNPREDICTABLE>
    f700:	00ffff00 	rscseq	pc, pc, r0, lsl #30
    f704:	00000000 	andeq	r0, r0, r0
    f708:	ff000000 			; <UNDEFINED> instruction: 0xff000000
    f70c:	000000ff 	strdeq	r0, [r0], -pc	; <UNPREDICTABLE>
    f710:	ff000000 			; <UNDEFINED> instruction: 0xff000000
    f714:	000000ff 	strdeq	r0, [r0], -pc	; <UNPREDICTABLE>
    f718:	ff000000 			; <UNDEFINED> instruction: 0xff000000
    f71c:	000000ff 	strdeq	r0, [r0], -pc	; <UNPREDICTABLE>
    f720:	ff000000 			; <UNDEFINED> instruction: 0xff000000
    f724:	000000ff 	strdeq	r0, [r0], -pc	; <UNPREDICTABLE>
    f728:	ff000000 			; <UNDEFINED> instruction: 0xff000000
    f72c:	000000ff 	strdeq	r0, [r0], -pc	; <UNPREDICTABLE>
    f730:	ff000000 			; <UNDEFINED> instruction: 0xff000000
    f734:	000000ff 	strdeq	r0, [r0], -pc	; <UNPREDICTABLE>
	...
    f740:	ff000000 			; <UNDEFINED> instruction: 0xff000000
    f744:	000000ff 	strdeq	r0, [r0], -pc	; <UNPREDICTABLE>
    f748:	ff000000 			; <UNDEFINED> instruction: 0xff000000
    f74c:	000000ff 	strdeq	r0, [r0], -pc	; <UNPREDICTABLE>
    f750:	ff000000 			; <UNDEFINED> instruction: 0xff000000
    f754:	000000ff 	strdeq	r0, [r0], -pc	; <UNPREDICTABLE>
	...
    f760:	ff000000 			; <UNDEFINED> instruction: 0xff000000
    f764:	000000ff 	strdeq	r0, [r0], -pc	; <UNPREDICTABLE>
	...
    f770:	ff000000 			; <UNDEFINED> instruction: 0xff000000
    f774:	000000ff 	strdeq	r0, [r0], -pc	; <UNPREDICTABLE>
	...
    f780:	ff000000 			; <UNDEFINED> instruction: 0xff000000
    f784:	000000ff 	strdeq	r0, [r0], -pc	; <UNPREDICTABLE>
    f788:	ff000000 			; <UNDEFINED> instruction: 0xff000000
    f78c:	000000ff 	strdeq	r0, [r0], -pc	; <UNPREDICTABLE>
    f790:	00000000 	andeq	r0, r0, r0
    f794:	ff000000 			; <UNDEFINED> instruction: 0xff000000
    f798:	000000ff 	strdeq	r0, [r0], -pc	; <UNPREDICTABLE>
	...
    f7a8:	00ffff00 	rscseq	pc, pc, r0, lsl #30
    f7ac:	00000000 	andeq	r0, r0, r0
    f7b0:	ff000000 			; <UNDEFINED> instruction: 0xff000000
    f7b4:	000000ff 	strdeq	r0, [r0], -pc	; <UNPREDICTABLE>
    f7b8:	00ffff00 	rscseq	pc, pc, r0, lsl #30
    f7bc:	00000000 	andeq	r0, r0, r0
    f7c0:	ff000000 			; <UNDEFINED> instruction: 0xff000000
    f7c4:	000000ff 	strdeq	r0, [r0], -pc	; <UNPREDICTABLE>
	...
    f7d0:	ff000000 			; <UNDEFINED> instruction: 0xff000000
    f7d4:	ff0000ff 			; <UNDEFINED> instruction: 0xff0000ff
    f7d8:	ff0000ff 			; <UNDEFINED> instruction: 0xff0000ff
    f7dc:	000000ff 	strdeq	r0, [r0], -pc	; <UNPREDICTABLE>
    f7e0:	ff000000 			; <UNDEFINED> instruction: 0xff000000
    f7e4:	00ffffff 	ldrshteq	pc, [pc], #255	; <UNPREDICTABLE>
    f7e8:	ff000000 			; <UNDEFINED> instruction: 0xff000000
    f7ec:	000000ff 	strdeq	r0, [r0], -pc	; <UNPREDICTABLE>
    f7f0:	ff000000 			; <UNDEFINED> instruction: 0xff000000
    f7f4:	000000ff 	strdeq	r0, [r0], -pc	; <UNPREDICTABLE>
    f7f8:	ff000000 			; <UNDEFINED> instruction: 0xff000000
    f7fc:	000000ff 	strdeq	r0, [r0], -pc	; <UNPREDICTABLE>
	...
    f808:	ff000000 			; <UNDEFINED> instruction: 0xff000000
    f80c:	000000ff 	strdeq	r0, [r0], -pc	; <UNPREDICTABLE>
    f810:	ff000000 			; <UNDEFINED> instruction: 0xff000000
    f814:	ffffffff 			; <UNDEFINED> instruction: 0xffffffff
    f818:	ffffffff 			; <UNDEFINED> instruction: 0xffffffff
    f81c:	000000ff 	strdeq	r0, [r0], -pc	; <UNPREDICTABLE>
    f820:	ff000000 			; <UNDEFINED> instruction: 0xff000000
    f824:	ffffffff 			; <UNDEFINED> instruction: 0xffffffff
    f828:	00ffffff 	ldrshteq	pc, [pc], #255	; <UNPREDICTABLE>
    f82c:	00000000 	andeq	r0, r0, r0
    f830:	ff000000 			; <UNDEFINED> instruction: 0xff000000
    f834:	000000ff 	strdeq	r0, [r0], -pc	; <UNPREDICTABLE>
	...
    f840:	ff000000 			; <UNDEFINED> instruction: 0xff000000
    f844:	000000ff 	strdeq	r0, [r0], -pc	; <UNPREDICTABLE>
    f848:	ff000000 			; <UNDEFINED> instruction: 0xff000000
    f84c:	000000ff 	strdeq	r0, [r0], -pc	; <UNPREDICTABLE>
    f850:	ff000000 			; <UNDEFINED> instruction: 0xff000000
    f854:	ffffffff 			; <UNDEFINED> instruction: 0xffffffff
    f858:	00ffffff 	ldrshteq	pc, [pc], #255	; <UNPREDICTABLE>
    f85c:	00000000 	andeq	r0, r0, r0
    f860:	ff000000 			; <UNDEFINED> instruction: 0xff000000
    f864:	ffffffff 			; <UNDEFINED> instruction: 0xffffffff
    f868:	00ffffff 	ldrshteq	pc, [pc], #255	; <UNPREDICTABLE>
    f86c:	00000000 	andeq	r0, r0, r0
    f870:	ff000000 			; <UNDEFINED> instruction: 0xff000000
    f874:	000000ff 	strdeq	r0, [r0], -pc	; <UNPREDICTABLE>
    f878:	ffffff00 			; <UNDEFINED> instruction: 0xffffff00
    f87c:	000000ff 	strdeq	r0, [r0], -pc	; <UNPREDICTABLE>
    f880:	ff000000 			; <UNDEFINED> instruction: 0xff000000
    f884:	ffffffff 			; <UNDEFINED> instruction: 0xffffffff
    f888:	ffffffff 			; <UNDEFINED> instruction: 0xffffffff
    f88c:	000000ff 	strdeq	r0, [r0], -pc	; <UNPREDICTABLE>
    f890:	00000000 	andeq	r0, r0, r0
    f894:	ff000000 			; <UNDEFINED> instruction: 0xff000000
    f898:	000000ff 	strdeq	r0, [r0], -pc	; <UNPREDICTABLE>
	...
    f8a8:	00ffff00 	rscseq	pc, pc, r0, lsl #30
    f8ac:	00000000 	andeq	r0, r0, r0
    f8b0:	ff000000 			; <UNDEFINED> instruction: 0xff000000
    f8b4:	ffffffff 			; <UNDEFINED> instruction: 0xffffffff
    f8b8:	000000ff 	strdeq	r0, [r0], -pc	; <UNPREDICTABLE>
    f8bc:	00000000 	andeq	r0, r0, r0
    f8c0:	ff000000 			; <UNDEFINED> instruction: 0xff000000
    f8c4:	000000ff 	strdeq	r0, [r0], -pc	; <UNPREDICTABLE>
	...
    f8d0:	ff000000 			; <UNDEFINED> instruction: 0xff000000
    f8d4:	ff0000ff 			; <UNDEFINED> instruction: 0xff0000ff
    f8d8:	ff0000ff 			; <UNDEFINED> instruction: 0xff0000ff
    f8dc:	000000ff 	strdeq	r0, [r0], -pc	; <UNPREDICTABLE>
    f8e0:	ff000000 			; <UNDEFINED> instruction: 0xff000000
    f8e4:	ff0000ff 			; <UNDEFINED> instruction: 0xff0000ff
    f8e8:	ff0000ff 			; <UNDEFINED> instruction: 0xff0000ff
    f8ec:	000000ff 	strdeq	r0, [r0], -pc	; <UNPREDICTABLE>
    f8f0:	ff000000 			; <UNDEFINED> instruction: 0xff000000
    f8f4:	000000ff 	strdeq	r0, [r0], -pc	; <UNPREDICTABLE>
    f8f8:	ff000000 			; <UNDEFINED> instruction: 0xff000000
    f8fc:	000000ff 	strdeq	r0, [r0], -pc	; <UNPREDICTABLE>
	...
    f908:	ff000000 			; <UNDEFINED> instruction: 0xff000000
    f90c:	000000ff 	strdeq	r0, [r0], -pc	; <UNPREDICTABLE>
    f910:	ff000000 			; <UNDEFINED> instruction: 0xff000000
    f914:	ffffffff 			; <UNDEFINED> instruction: 0xffffffff
    f918:	ffffffff 			; <UNDEFINED> instruction: 0xffffffff
    f91c:	000000ff 	strdeq	r0, [r0], -pc	; <UNPREDICTABLE>
    f920:	ff000000 			; <UNDEFINED> instruction: 0xff000000
    f924:	ffffffff 			; <UNDEFINED> instruction: 0xffffffff
    f928:	00ffffff 	ldrshteq	pc, [pc], #255	; <UNPREDICTABLE>
    f92c:	00000000 	andeq	r0, r0, r0
    f930:	ff000000 			; <UNDEFINED> instruction: 0xff000000
    f934:	000000ff 	strdeq	r0, [r0], -pc	; <UNPREDICTABLE>
	...
    f940:	ff000000 			; <UNDEFINED> instruction: 0xff000000
    f944:	000000ff 	strdeq	r0, [r0], -pc	; <UNPREDICTABLE>
    f948:	ff000000 			; <UNDEFINED> instruction: 0xff000000
    f94c:	000000ff 	strdeq	r0, [r0], -pc	; <UNPREDICTABLE>
    f950:	ff000000 			; <UNDEFINED> instruction: 0xff000000
    f954:	ffffffff 			; <UNDEFINED> instruction: 0xffffffff
    f958:	00ffffff 	ldrshteq	pc, [pc], #255	; <UNPREDICTABLE>
    f95c:	00000000 	andeq	r0, r0, r0
    f960:	ff000000 			; <UNDEFINED> instruction: 0xff000000
    f964:	ffffffff 			; <UNDEFINED> instruction: 0xffffffff
    f968:	00ffffff 	ldrshteq	pc, [pc], #255	; <UNPREDICTABLE>
    f96c:	00000000 	andeq	r0, r0, r0
    f970:	ff000000 			; <UNDEFINED> instruction: 0xff000000
    f974:	000000ff 	strdeq	r0, [r0], -pc	; <UNPREDICTABLE>
    f978:	ffffff00 			; <UNDEFINED> instruction: 0xffffff00
    f97c:	000000ff 	strdeq	r0, [r0], -pc	; <UNPREDICTABLE>
    f980:	ff000000 			; <UNDEFINED> instruction: 0xff000000
    f984:	ffffffff 			; <UNDEFINED> instruction: 0xffffffff
    f988:	ffffffff 			; <UNDEFINED> instruction: 0xffffffff
    f98c:	000000ff 	strdeq	r0, [r0], -pc	; <UNPREDICTABLE>
    f990:	00000000 	andeq	r0, r0, r0
    f994:	ff000000 			; <UNDEFINED> instruction: 0xff000000
    f998:	000000ff 	strdeq	r0, [r0], -pc	; <UNPREDICTABLE>
	...
    f9a8:	00ffff00 	rscseq	pc, pc, r0, lsl #30
    f9ac:	00000000 	andeq	r0, r0, r0
    f9b0:	ff000000 			; <UNDEFINED> instruction: 0xff000000
    f9b4:	ffffffff 			; <UNDEFINED> instruction: 0xffffffff
    f9b8:	000000ff 	strdeq	r0, [r0], -pc	; <UNPREDICTABLE>
    f9bc:	00000000 	andeq	r0, r0, r0
    f9c0:	ff000000 			; <UNDEFINED> instruction: 0xff000000
    f9c4:	000000ff 	strdeq	r0, [r0], -pc	; <UNPREDICTABLE>
	...
    f9d0:	ff000000 			; <UNDEFINED> instruction: 0xff000000
    f9d4:	ff0000ff 			; <UNDEFINED> instruction: 0xff0000ff
    f9d8:	ff0000ff 			; <UNDEFINED> instruction: 0xff0000ff
    f9dc:	000000ff 	strdeq	r0, [r0], -pc	; <UNPREDICTABLE>
    f9e0:	ff000000 			; <UNDEFINED> instruction: 0xff000000
    f9e4:	ff0000ff 			; <UNDEFINED> instruction: 0xff0000ff
    f9e8:	ff0000ff 			; <UNDEFINED> instruction: 0xff0000ff
    f9ec:	000000ff 	strdeq	r0, [r0], -pc	; <UNPREDICTABLE>
    f9f0:	ff000000 			; <UNDEFINED> instruction: 0xff000000
    f9f4:	000000ff 	strdeq	r0, [r0], -pc	; <UNPREDICTABLE>
    f9f8:	ff000000 			; <UNDEFINED> instruction: 0xff000000
    f9fc:	000000ff 	strdeq	r0, [r0], -pc	; <UNPREDICTABLE>
    fa00:	ff000000 			; <UNDEFINED> instruction: 0xff000000
    fa04:	ffffffff 			; <UNDEFINED> instruction: 0xffffffff
    fa08:	ff0000ff 			; <UNDEFINED> instruction: 0xff0000ff
    fa0c:	000000ff 	strdeq	r0, [r0], -pc	; <UNPREDICTABLE>
    fa10:	ff000000 			; <UNDEFINED> instruction: 0xff000000
    fa14:	000000ff 	strdeq	r0, [r0], -pc	; <UNPREDICTABLE>
    fa18:	ff000000 			; <UNDEFINED> instruction: 0xff000000
    fa1c:	000000ff 	strdeq	r0, [r0], -pc	; <UNPREDICTABLE>
    fa20:	ff000000 			; <UNDEFINED> instruction: 0xff000000
    fa24:	000000ff 	strdeq	r0, [r0], -pc	; <UNPREDICTABLE>
    fa28:	ff000000 			; <UNDEFINED> instruction: 0xff000000
    fa2c:	000000ff 	strdeq	r0, [r0], -pc	; <UNPREDICTABLE>
    fa30:	ff000000 			; <UNDEFINED> instruction: 0xff000000
    fa34:	000000ff 	strdeq	r0, [r0], -pc	; <UNPREDICTABLE>
	...
    fa40:	ff000000 			; <UNDEFINED> instruction: 0xff000000
    fa44:	000000ff 	strdeq	r0, [r0], -pc	; <UNPREDICTABLE>
    fa48:	ff000000 			; <UNDEFINED> instruction: 0xff000000
    fa4c:	000000ff 	strdeq	r0, [r0], -pc	; <UNPREDICTABLE>
    fa50:	ff000000 			; <UNDEFINED> instruction: 0xff000000
    fa54:	000000ff 	strdeq	r0, [r0], -pc	; <UNPREDICTABLE>
	...
    fa60:	ff000000 			; <UNDEFINED> instruction: 0xff000000
    fa64:	000000ff 	strdeq	r0, [r0], -pc	; <UNPREDICTABLE>
	...
    fa70:	ff000000 			; <UNDEFINED> instruction: 0xff000000
    fa74:	000000ff 	strdeq	r0, [r0], -pc	; <UNPREDICTABLE>
    fa78:	ff000000 			; <UNDEFINED> instruction: 0xff000000
    fa7c:	000000ff 	strdeq	r0, [r0], -pc	; <UNPREDICTABLE>
    fa80:	ff000000 			; <UNDEFINED> instruction: 0xff000000
    fa84:	000000ff 	strdeq	r0, [r0], -pc	; <UNPREDICTABLE>
    fa88:	ff000000 			; <UNDEFINED> instruction: 0xff000000
    fa8c:	000000ff 	strdeq	r0, [r0], -pc	; <UNPREDICTABLE>
    fa90:	00000000 	andeq	r0, r0, r0
    fa94:	ff000000 			; <UNDEFINED> instruction: 0xff000000
    fa98:	000000ff 	strdeq	r0, [r0], -pc	; <UNPREDICTABLE>
    fa9c:	00000000 	andeq	r0, r0, r0
    faa0:	ff000000 			; <UNDEFINED> instruction: 0xff000000
    faa4:	000000ff 	strdeq	r0, [r0], -pc	; <UNPREDICTABLE>
    faa8:	00ffff00 	rscseq	pc, pc, r0, lsl #30
    faac:	00000000 	andeq	r0, r0, r0
    fab0:	ff000000 			; <UNDEFINED> instruction: 0xff000000
    fab4:	000000ff 	strdeq	r0, [r0], -pc	; <UNPREDICTABLE>
    fab8:	00ffff00 	rscseq	pc, pc, r0, lsl #30
    fabc:	00000000 	andeq	r0, r0, r0
    fac0:	ff000000 			; <UNDEFINED> instruction: 0xff000000
    fac4:	000000ff 	strdeq	r0, [r0], -pc	; <UNPREDICTABLE>
	...
    fad0:	ff000000 			; <UNDEFINED> instruction: 0xff000000
    fad4:	ff0000ff 			; <UNDEFINED> instruction: 0xff0000ff
    fad8:	ff0000ff 			; <UNDEFINED> instruction: 0xff0000ff
    fadc:	000000ff 	strdeq	r0, [r0], -pc	; <UNPREDICTABLE>
    fae0:	ff000000 			; <UNDEFINED> instruction: 0xff000000
    fae4:	000000ff 	strdeq	r0, [r0], -pc	; <UNPREDICTABLE>
    fae8:	ffffff00 			; <UNDEFINED> instruction: 0xffffff00
    faec:	000000ff 	strdeq	r0, [r0], -pc	; <UNPREDICTABLE>
    faf0:	ff000000 			; <UNDEFINED> instruction: 0xff000000
    faf4:	000000ff 	strdeq	r0, [r0], -pc	; <UNPREDICTABLE>
    faf8:	ff000000 			; <UNDEFINED> instruction: 0xff000000
    fafc:	000000ff 	strdeq	r0, [r0], -pc	; <UNPREDICTABLE>
    fb00:	ff000000 			; <UNDEFINED> instruction: 0xff000000
    fb04:	ffffffff 			; <UNDEFINED> instruction: 0xffffffff
    fb08:	ff0000ff 			; <UNDEFINED> instruction: 0xff0000ff
    fb0c:	000000ff 	strdeq	r0, [r0], -pc	; <UNPREDICTABLE>
    fb10:	ff000000 			; <UNDEFINED> instruction: 0xff000000
    fb14:	000000ff 	strdeq	r0, [r0], -pc	; <UNPREDICTABLE>
    fb18:	ff000000 			; <UNDEFINED> instruction: 0xff000000
    fb1c:	000000ff 	strdeq	r0, [r0], -pc	; <UNPREDICTABLE>
    fb20:	ff000000 			; <UNDEFINED> instruction: 0xff000000
    fb24:	000000ff 	strdeq	r0, [r0], -pc	; <UNPREDICTABLE>
    fb28:	ff000000 			; <UNDEFINED> instruction: 0xff000000
    fb2c:	000000ff 	strdeq	r0, [r0], -pc	; <UNPREDICTABLE>
    fb30:	ff000000 			; <UNDEFINED> instruction: 0xff000000
    fb34:	000000ff 	strdeq	r0, [r0], -pc	; <UNPREDICTABLE>
	...
    fb40:	ff000000 			; <UNDEFINED> instruction: 0xff000000
    fb44:	000000ff 	strdeq	r0, [r0], -pc	; <UNPREDICTABLE>
    fb48:	ff000000 			; <UNDEFINED> instruction: 0xff000000
    fb4c:	000000ff 	strdeq	r0, [r0], -pc	; <UNPREDICTABLE>
    fb50:	ff000000 			; <UNDEFINED> instruction: 0xff000000
    fb54:	000000ff 	strdeq	r0, [r0], -pc	; <UNPREDICTABLE>
	...
    fb60:	ff000000 			; <UNDEFINED> instruction: 0xff000000
    fb64:	000000ff 	strdeq	r0, [r0], -pc	; <UNPREDICTABLE>
	...
    fb70:	ff000000 			; <UNDEFINED> instruction: 0xff000000
    fb74:	000000ff 	strdeq	r0, [r0], -pc	; <UNPREDICTABLE>
    fb78:	ff000000 			; <UNDEFINED> instruction: 0xff000000
    fb7c:	000000ff 	strdeq	r0, [r0], -pc	; <UNPREDICTABLE>
    fb80:	ff000000 			; <UNDEFINED> instruction: 0xff000000
    fb84:	000000ff 	strdeq	r0, [r0], -pc	; <UNPREDICTABLE>
    fb88:	ff000000 			; <UNDEFINED> instruction: 0xff000000
    fb8c:	000000ff 	strdeq	r0, [r0], -pc	; <UNPREDICTABLE>
    fb90:	00000000 	andeq	r0, r0, r0
    fb94:	ff000000 			; <UNDEFINED> instruction: 0xff000000
    fb98:	000000ff 	strdeq	r0, [r0], -pc	; <UNPREDICTABLE>
    fb9c:	00000000 	andeq	r0, r0, r0
    fba0:	ff000000 			; <UNDEFINED> instruction: 0xff000000
    fba4:	000000ff 	strdeq	r0, [r0], -pc	; <UNPREDICTABLE>
    fba8:	00ffff00 	rscseq	pc, pc, r0, lsl #30
    fbac:	00000000 	andeq	r0, r0, r0
    fbb0:	ff000000 			; <UNDEFINED> instruction: 0xff000000
    fbb4:	000000ff 	strdeq	r0, [r0], -pc	; <UNPREDICTABLE>
    fbb8:	00ffff00 	rscseq	pc, pc, r0, lsl #30
    fbbc:	00000000 	andeq	r0, r0, r0
    fbc0:	ff000000 			; <UNDEFINED> instruction: 0xff000000
    fbc4:	000000ff 	strdeq	r0, [r0], -pc	; <UNPREDICTABLE>
	...
    fbd0:	ff000000 			; <UNDEFINED> instruction: 0xff000000
    fbd4:	ff0000ff 			; <UNDEFINED> instruction: 0xff0000ff
    fbd8:	ff0000ff 			; <UNDEFINED> instruction: 0xff0000ff
    fbdc:	000000ff 	strdeq	r0, [r0], -pc	; <UNPREDICTABLE>
    fbe0:	ff000000 			; <UNDEFINED> instruction: 0xff000000
    fbe4:	000000ff 	strdeq	r0, [r0], -pc	; <UNPREDICTABLE>
    fbe8:	ffffff00 			; <UNDEFINED> instruction: 0xffffff00
    fbec:	000000ff 	strdeq	r0, [r0], -pc	; <UNPREDICTABLE>
    fbf0:	ff000000 			; <UNDEFINED> instruction: 0xff000000
    fbf4:	000000ff 	strdeq	r0, [r0], -pc	; <UNPREDICTABLE>
    fbf8:	ff000000 			; <UNDEFINED> instruction: 0xff000000
    fbfc:	000000ff 	strdeq	r0, [r0], -pc	; <UNPREDICTABLE>
    fc00:	ff000000 			; <UNDEFINED> instruction: 0xff000000
    fc04:	ff0000ff 			; <UNDEFINED> instruction: 0xff0000ff
    fc08:	ff0000ff 			; <UNDEFINED> instruction: 0xff0000ff
    fc0c:	000000ff 	strdeq	r0, [r0], -pc	; <UNPREDICTABLE>
    fc10:	ff000000 			; <UNDEFINED> instruction: 0xff000000
    fc14:	000000ff 	strdeq	r0, [r0], -pc	; <UNPREDICTABLE>
    fc18:	ff000000 			; <UNDEFINED> instruction: 0xff000000
    fc1c:	000000ff 	strdeq	r0, [r0], -pc	; <UNPREDICTABLE>
    fc20:	ff000000 			; <UNDEFINED> instruction: 0xff000000
    fc24:	000000ff 	strdeq	r0, [r0], -pc	; <UNPREDICTABLE>
    fc28:	ff000000 			; <UNDEFINED> instruction: 0xff000000
    fc2c:	000000ff 	strdeq	r0, [r0], -pc	; <UNPREDICTABLE>
    fc30:	ff000000 			; <UNDEFINED> instruction: 0xff000000
    fc34:	000000ff 	strdeq	r0, [r0], -pc	; <UNPREDICTABLE>
    fc38:	ff000000 			; <UNDEFINED> instruction: 0xff000000
    fc3c:	000000ff 	strdeq	r0, [r0], -pc	; <UNPREDICTABLE>
    fc40:	ff000000 			; <UNDEFINED> instruction: 0xff000000
    fc44:	000000ff 	strdeq	r0, [r0], -pc	; <UNPREDICTABLE>
    fc48:	ff000000 			; <UNDEFINED> instruction: 0xff000000
    fc4c:	000000ff 	strdeq	r0, [r0], -pc	; <UNPREDICTABLE>
    fc50:	ff000000 			; <UNDEFINED> instruction: 0xff000000
    fc54:	000000ff 	strdeq	r0, [r0], -pc	; <UNPREDICTABLE>
	...
    fc60:	ff000000 			; <UNDEFINED> instruction: 0xff000000
    fc64:	000000ff 	strdeq	r0, [r0], -pc	; <UNPREDICTABLE>
	...
    fc70:	ff000000 			; <UNDEFINED> instruction: 0xff000000
    fc74:	000000ff 	strdeq	r0, [r0], -pc	; <UNPREDICTABLE>
    fc78:	ff000000 			; <UNDEFINED> instruction: 0xff000000
    fc7c:	000000ff 	strdeq	r0, [r0], -pc	; <UNPREDICTABLE>
    fc80:	ff000000 			; <UNDEFINED> instruction: 0xff000000
    fc84:	000000ff 	strdeq	r0, [r0], -pc	; <UNPREDICTABLE>
    fc88:	ff000000 			; <UNDEFINED> instruction: 0xff000000
    fc8c:	000000ff 	strdeq	r0, [r0], -pc	; <UNPREDICTABLE>
    fc90:	00000000 	andeq	r0, r0, r0
    fc94:	ff000000 			; <UNDEFINED> instruction: 0xff000000
    fc98:	000000ff 	strdeq	r0, [r0], -pc	; <UNPREDICTABLE>
    fc9c:	00000000 	andeq	r0, r0, r0
    fca0:	ff000000 			; <UNDEFINED> instruction: 0xff000000
    fca4:	000000ff 	strdeq	r0, [r0], -pc	; <UNPREDICTABLE>
    fca8:	00ffff00 	rscseq	pc, pc, r0, lsl #30
    fcac:	00000000 	andeq	r0, r0, r0
    fcb0:	ff000000 			; <UNDEFINED> instruction: 0xff000000
    fcb4:	000000ff 	strdeq	r0, [r0], -pc	; <UNPREDICTABLE>
    fcb8:	00ffff00 	rscseq	pc, pc, r0, lsl #30
    fcbc:	00000000 	andeq	r0, r0, r0
    fcc0:	ff000000 			; <UNDEFINED> instruction: 0xff000000
    fcc4:	000000ff 	strdeq	r0, [r0], -pc	; <UNPREDICTABLE>
	...
    fcd0:	ff000000 			; <UNDEFINED> instruction: 0xff000000
    fcd4:	ff0000ff 			; <UNDEFINED> instruction: 0xff0000ff
    fcd8:	ff0000ff 			; <UNDEFINED> instruction: 0xff0000ff
    fcdc:	000000ff 	strdeq	r0, [r0], -pc	; <UNPREDICTABLE>
    fce0:	ff000000 			; <UNDEFINED> instruction: 0xff000000
    fce4:	000000ff 	strdeq	r0, [r0], -pc	; <UNPREDICTABLE>
    fce8:	ffffff00 			; <UNDEFINED> instruction: 0xffffff00
    fcec:	000000ff 	strdeq	r0, [r0], -pc	; <UNPREDICTABLE>
    fcf0:	ff000000 			; <UNDEFINED> instruction: 0xff000000
    fcf4:	000000ff 	strdeq	r0, [r0], -pc	; <UNPREDICTABLE>
    fcf8:	ff000000 			; <UNDEFINED> instruction: 0xff000000
    fcfc:	000000ff 	strdeq	r0, [r0], -pc	; <UNPREDICTABLE>
    fd00:	ff000000 			; <UNDEFINED> instruction: 0xff000000
    fd04:	ff0000ff 			; <UNDEFINED> instruction: 0xff0000ff
    fd08:	ff0000ff 			; <UNDEFINED> instruction: 0xff0000ff
    fd0c:	000000ff 	strdeq	r0, [r0], -pc	; <UNPREDICTABLE>
    fd10:	ff000000 			; <UNDEFINED> instruction: 0xff000000
    fd14:	000000ff 	strdeq	r0, [r0], -pc	; <UNPREDICTABLE>
    fd18:	ff000000 			; <UNDEFINED> instruction: 0xff000000
    fd1c:	000000ff 	strdeq	r0, [r0], -pc	; <UNPREDICTABLE>
    fd20:	ff000000 			; <UNDEFINED> instruction: 0xff000000
    fd24:	000000ff 	strdeq	r0, [r0], -pc	; <UNPREDICTABLE>
    fd28:	ff000000 			; <UNDEFINED> instruction: 0xff000000
    fd2c:	000000ff 	strdeq	r0, [r0], -pc	; <UNPREDICTABLE>
    fd30:	ff000000 			; <UNDEFINED> instruction: 0xff000000
    fd34:	000000ff 	strdeq	r0, [r0], -pc	; <UNPREDICTABLE>
    fd38:	ff000000 			; <UNDEFINED> instruction: 0xff000000
    fd3c:	000000ff 	strdeq	r0, [r0], -pc	; <UNPREDICTABLE>
    fd40:	ff000000 			; <UNDEFINED> instruction: 0xff000000
    fd44:	000000ff 	strdeq	r0, [r0], -pc	; <UNPREDICTABLE>
    fd48:	ff000000 			; <UNDEFINED> instruction: 0xff000000
    fd4c:	000000ff 	strdeq	r0, [r0], -pc	; <UNPREDICTABLE>
    fd50:	ff000000 			; <UNDEFINED> instruction: 0xff000000
    fd54:	000000ff 	strdeq	r0, [r0], -pc	; <UNPREDICTABLE>
	...
    fd60:	ff000000 			; <UNDEFINED> instruction: 0xff000000
    fd64:	000000ff 	strdeq	r0, [r0], -pc	; <UNPREDICTABLE>
	...
    fd70:	ff000000 			; <UNDEFINED> instruction: 0xff000000
    fd74:	000000ff 	strdeq	r0, [r0], -pc	; <UNPREDICTABLE>
    fd78:	ff000000 			; <UNDEFINED> instruction: 0xff000000
    fd7c:	000000ff 	strdeq	r0, [r0], -pc	; <UNPREDICTABLE>
    fd80:	ff000000 			; <UNDEFINED> instruction: 0xff000000
    fd84:	000000ff 	strdeq	r0, [r0], -pc	; <UNPREDICTABLE>
    fd88:	ff000000 			; <UNDEFINED> instruction: 0xff000000
    fd8c:	000000ff 	strdeq	r0, [r0], -pc	; <UNPREDICTABLE>
    fd90:	00000000 	andeq	r0, r0, r0
    fd94:	ff000000 			; <UNDEFINED> instruction: 0xff000000
    fd98:	000000ff 	strdeq	r0, [r0], -pc	; <UNPREDICTABLE>
    fd9c:	00000000 	andeq	r0, r0, r0
    fda0:	ff000000 			; <UNDEFINED> instruction: 0xff000000
    fda4:	000000ff 	strdeq	r0, [r0], -pc	; <UNPREDICTABLE>
    fda8:	00ffff00 	rscseq	pc, pc, r0, lsl #30
    fdac:	00000000 	andeq	r0, r0, r0
    fdb0:	ff000000 			; <UNDEFINED> instruction: 0xff000000
    fdb4:	000000ff 	strdeq	r0, [r0], -pc	; <UNPREDICTABLE>
    fdb8:	00ffff00 	rscseq	pc, pc, r0, lsl #30
    fdbc:	00000000 	andeq	r0, r0, r0
    fdc0:	ff000000 			; <UNDEFINED> instruction: 0xff000000
    fdc4:	000000ff 	strdeq	r0, [r0], -pc	; <UNPREDICTABLE>
	...
    fdd0:	ff000000 			; <UNDEFINED> instruction: 0xff000000
    fdd4:	ff0000ff 			; <UNDEFINED> instruction: 0xff0000ff
    fdd8:	ff0000ff 			; <UNDEFINED> instruction: 0xff0000ff
    fddc:	000000ff 	strdeq	r0, [r0], -pc	; <UNPREDICTABLE>
    fde0:	ff000000 			; <UNDEFINED> instruction: 0xff000000
    fde4:	000000ff 	strdeq	r0, [r0], -pc	; <UNPREDICTABLE>
    fde8:	ffffff00 			; <UNDEFINED> instruction: 0xffffff00
    fdec:	000000ff 	strdeq	r0, [r0], -pc	; <UNPREDICTABLE>
    fdf0:	ff000000 			; <UNDEFINED> instruction: 0xff000000
    fdf4:	000000ff 	strdeq	r0, [r0], -pc	; <UNPREDICTABLE>
    fdf8:	ff000000 			; <UNDEFINED> instruction: 0xff000000
    fdfc:	000000ff 	strdeq	r0, [r0], -pc	; <UNPREDICTABLE>
    fe00:	ff000000 			; <UNDEFINED> instruction: 0xff000000
    fe04:	ffffffff 			; <UNDEFINED> instruction: 0xffffffff
    fe08:	ffffffff 			; <UNDEFINED> instruction: 0xffffffff
    fe0c:	000000ff 	strdeq	r0, [r0], -pc	; <UNPREDICTABLE>
    fe10:	ff000000 			; <UNDEFINED> instruction: 0xff000000
    fe14:	000000ff 	strdeq	r0, [r0], -pc	; <UNPREDICTABLE>
    fe18:	ff000000 			; <UNDEFINED> instruction: 0xff000000
    fe1c:	000000ff 	strdeq	r0, [r0], -pc	; <UNPREDICTABLE>
    fe20:	ff000000 			; <UNDEFINED> instruction: 0xff000000
    fe24:	ffffffff 			; <UNDEFINED> instruction: 0xffffffff
    fe28:	00ffffff 	ldrshteq	pc, [pc], #255	; <UNPREDICTABLE>
	...
    fe34:	ffffff00 			; <UNDEFINED> instruction: 0xffffff00
    fe38:	00ffffff 	ldrshteq	pc, [pc], #255	; <UNPREDICTABLE>
    fe3c:	00000000 	andeq	r0, r0, r0
    fe40:	ff000000 			; <UNDEFINED> instruction: 0xff000000
    fe44:	ffffffff 			; <UNDEFINED> instruction: 0xffffffff
    fe48:	00ffffff 	ldrshteq	pc, [pc], #255	; <UNPREDICTABLE>
    fe4c:	00000000 	andeq	r0, r0, r0
    fe50:	ff000000 			; <UNDEFINED> instruction: 0xff000000
    fe54:	ffffffff 			; <UNDEFINED> instruction: 0xffffffff
    fe58:	ffffffff 			; <UNDEFINED> instruction: 0xffffffff
    fe5c:	000000ff 	strdeq	r0, [r0], -pc	; <UNPREDICTABLE>
    fe60:	ff000000 			; <UNDEFINED> instruction: 0xff000000
    fe64:	000000ff 	strdeq	r0, [r0], -pc	; <UNPREDICTABLE>
	...
    fe70:	ff000000 			; <UNDEFINED> instruction: 0xff000000
    fe74:	ffffffff 			; <UNDEFINED> instruction: 0xffffffff
    fe78:	ffffffff 			; <UNDEFINED> instruction: 0xffffffff
    fe7c:	000000ff 	strdeq	r0, [r0], -pc	; <UNPREDICTABLE>
    fe80:	ff000000 			; <UNDEFINED> instruction: 0xff000000
    fe84:	000000ff 	strdeq	r0, [r0], -pc	; <UNPREDICTABLE>
    fe88:	ff000000 			; <UNDEFINED> instruction: 0xff000000
    fe8c:	000000ff 	strdeq	r0, [r0], -pc	; <UNPREDICTABLE>
    fe90:	ff000000 			; <UNDEFINED> instruction: 0xff000000
    fe94:	ffffffff 			; <UNDEFINED> instruction: 0xffffffff
    fe98:	00ffffff 	ldrshteq	pc, [pc], #255	; <UNPREDICTABLE>
    fe9c:	00000000 	andeq	r0, r0, r0
    fea0:	ff000000 			; <UNDEFINED> instruction: 0xff000000
    fea4:	ffffffff 			; <UNDEFINED> instruction: 0xffffffff
    fea8:	00ffffff 	ldrshteq	pc, [pc], #255	; <UNPREDICTABLE>
    feac:	00000000 	andeq	r0, r0, r0
    feb0:	ff000000 			; <UNDEFINED> instruction: 0xff000000
    feb4:	000000ff 	strdeq	r0, [r0], -pc	; <UNPREDICTABLE>
    feb8:	ff000000 			; <UNDEFINED> instruction: 0xff000000
    febc:	000000ff 	strdeq	r0, [r0], -pc	; <UNPREDICTABLE>
    fec0:	ff000000 			; <UNDEFINED> instruction: 0xff000000
    fec4:	ffffffff 			; <UNDEFINED> instruction: 0xffffffff
    fec8:	ffffffff 			; <UNDEFINED> instruction: 0xffffffff
    fecc:	000000ff 	strdeq	r0, [r0], -pc	; <UNPREDICTABLE>
    fed0:	ff000000 			; <UNDEFINED> instruction: 0xff000000
    fed4:	ff0000ff 			; <UNDEFINED> instruction: 0xff0000ff
    fed8:	ff0000ff 			; <UNDEFINED> instruction: 0xff0000ff
    fedc:	000000ff 	strdeq	r0, [r0], -pc	; <UNPREDICTABLE>
    fee0:	ff000000 			; <UNDEFINED> instruction: 0xff000000
    fee4:	000000ff 	strdeq	r0, [r0], -pc	; <UNPREDICTABLE>
    fee8:	ff000000 			; <UNDEFINED> instruction: 0xff000000
    feec:	000000ff 	strdeq	r0, [r0], -pc	; <UNPREDICTABLE>
    fef0:	00000000 	andeq	r0, r0, r0
    fef4:	ffffff00 			; <UNDEFINED> instruction: 0xffffff00
    fef8:	00ffffff 	ldrshteq	pc, [pc], #255	; <UNPREDICTABLE>
    fefc:	00000000 	andeq	r0, r0, r0
    ff00:	ff000000 			; <UNDEFINED> instruction: 0xff000000
    ff04:	ffffffff 			; <UNDEFINED> instruction: 0xffffffff
    ff08:	ffffffff 			; <UNDEFINED> instruction: 0xffffffff
    ff0c:	000000ff 	strdeq	r0, [r0], -pc	; <UNPREDICTABLE>
    ff10:	ff000000 			; <UNDEFINED> instruction: 0xff000000
    ff14:	000000ff 	strdeq	r0, [r0], -pc	; <UNPREDICTABLE>
    ff18:	ff000000 			; <UNDEFINED> instruction: 0xff000000
    ff1c:	000000ff 	strdeq	r0, [r0], -pc	; <UNPREDICTABLE>
    ff20:	ff000000 			; <UNDEFINED> instruction: 0xff000000
    ff24:	ffffffff 			; <UNDEFINED> instruction: 0xffffffff
    ff28:	00ffffff 	ldrshteq	pc, [pc], #255	; <UNPREDICTABLE>
	...
    ff34:	ffffff00 			; <UNDEFINED> instruction: 0xffffff00
    ff38:	00ffffff 	ldrshteq	pc, [pc], #255	; <UNPREDICTABLE>
    ff3c:	00000000 	andeq	r0, r0, r0
    ff40:	ff000000 			; <UNDEFINED> instruction: 0xff000000
    ff44:	ffffffff 			; <UNDEFINED> instruction: 0xffffffff
    ff48:	00ffffff 	ldrshteq	pc, [pc], #255	; <UNPREDICTABLE>
    ff4c:	00000000 	andeq	r0, r0, r0
    ff50:	ff000000 			; <UNDEFINED> instruction: 0xff000000
    ff54:	ffffffff 			; <UNDEFINED> instruction: 0xffffffff
    ff58:	ffffffff 			; <UNDEFINED> instruction: 0xffffffff
    ff5c:	000000ff 	strdeq	r0, [r0], -pc	; <UNPREDICTABLE>
    ff60:	ff000000 			; <UNDEFINED> instruction: 0xff000000
    ff64:	000000ff 	strdeq	r0, [r0], -pc	; <UNPREDICTABLE>
	...
    ff70:	ff000000 			; <UNDEFINED> instruction: 0xff000000
    ff74:	ffffffff 			; <UNDEFINED> instruction: 0xffffffff
    ff78:	ffffffff 			; <UNDEFINED> instruction: 0xffffffff
    ff7c:	000000ff 	strdeq	r0, [r0], -pc	; <UNPREDICTABLE>
    ff80:	ff000000 			; <UNDEFINED> instruction: 0xff000000
    ff84:	000000ff 	strdeq	r0, [r0], -pc	; <UNPREDICTABLE>
    ff88:	ff000000 			; <UNDEFINED> instruction: 0xff000000
    ff8c:	000000ff 	strdeq	r0, [r0], -pc	; <UNPREDICTABLE>
    ff90:	ff000000 			; <UNDEFINED> instruction: 0xff000000
    ff94:	ffffffff 			; <UNDEFINED> instruction: 0xffffffff
    ff98:	00ffffff 	ldrshteq	pc, [pc], #255	; <UNPREDICTABLE>
    ff9c:	00000000 	andeq	r0, r0, r0
    ffa0:	ff000000 			; <UNDEFINED> instruction: 0xff000000
    ffa4:	ffffffff 			; <UNDEFINED> instruction: 0xffffffff
    ffa8:	00ffffff 	ldrshteq	pc, [pc], #255	; <UNPREDICTABLE>
    ffac:	00000000 	andeq	r0, r0, r0
    ffb0:	ff000000 			; <UNDEFINED> instruction: 0xff000000
    ffb4:	000000ff 	strdeq	r0, [r0], -pc	; <UNPREDICTABLE>
    ffb8:	ff000000 			; <UNDEFINED> instruction: 0xff000000
    ffbc:	000000ff 	strdeq	r0, [r0], -pc	; <UNPREDICTABLE>
    ffc0:	ff000000 			; <UNDEFINED> instruction: 0xff000000
    ffc4:	ffffffff 			; <UNDEFINED> instruction: 0xffffffff
    ffc8:	ffffffff 			; <UNDEFINED> instruction: 0xffffffff
    ffcc:	000000ff 	strdeq	r0, [r0], -pc	; <UNPREDICTABLE>
    ffd0:	ff000000 			; <UNDEFINED> instruction: 0xff000000
    ffd4:	ff0000ff 			; <UNDEFINED> instruction: 0xff0000ff
    ffd8:	ff0000ff 			; <UNDEFINED> instruction: 0xff0000ff
    ffdc:	000000ff 	strdeq	r0, [r0], -pc	; <UNPREDICTABLE>
    ffe0:	ff000000 			; <UNDEFINED> instruction: 0xff000000
    ffe4:	000000ff 	strdeq	r0, [r0], -pc	; <UNPREDICTABLE>
    ffe8:	ff000000 			; <UNDEFINED> instruction: 0xff000000
    ffec:	000000ff 	strdeq	r0, [r0], -pc	; <UNPREDICTABLE>
    fff0:	00000000 	andeq	r0, r0, r0
    fff4:	ffffff00 			; <UNDEFINED> instruction: 0xffffff00
    fff8:	00ffffff 	ldrshteq	pc, [pc], #255	; <UNPREDICTABLE>
	...
   100b0:	ff000000 			; <UNDEFINED> instruction: 0xff000000
   100b4:	ffffffff 			; <UNDEFINED> instruction: 0xffffffff
   100b8:	00ffffff 	ldrshteq	pc, [pc], #255	; <UNPREDICTABLE>
   100bc:	00000000 	andeq	r0, r0, r0
   100c0:	ff000000 			; <UNDEFINED> instruction: 0xff000000
   100c4:	000000ff 	strdeq	r0, [r0], -pc	; <UNPREDICTABLE>
   100c8:	ff000000 			; <UNDEFINED> instruction: 0xff000000
   100cc:	000000ff 	strdeq	r0, [r0], -pc	; <UNPREDICTABLE>
   100d0:	00000000 	andeq	r0, r0, r0
   100d4:	ffffff00 			; <UNDEFINED> instruction: 0xffffff00
   100d8:	ffffffff 			; <UNDEFINED> instruction: 0xffffffff
   100dc:	000000ff 	strdeq	r0, [r0], -pc	; <UNPREDICTABLE>
   100e0:	00000000 	andeq	r0, r0, r0
   100e4:	ff000000 			; <UNDEFINED> instruction: 0xff000000
   100e8:	000000ff 	strdeq	r0, [r0], -pc	; <UNPREDICTABLE>
	...
   101b0:	ff000000 			; <UNDEFINED> instruction: 0xff000000
   101b4:	ffffffff 			; <UNDEFINED> instruction: 0xffffffff
   101b8:	00ffffff 	ldrshteq	pc, [pc], #255	; <UNPREDICTABLE>
   101bc:	00000000 	andeq	r0, r0, r0
   101c0:	ff000000 			; <UNDEFINED> instruction: 0xff000000
   101c4:	000000ff 	strdeq	r0, [r0], -pc	; <UNPREDICTABLE>
   101c8:	ff000000 			; <UNDEFINED> instruction: 0xff000000
   101cc:	000000ff 	strdeq	r0, [r0], -pc	; <UNPREDICTABLE>
   101d0:	00000000 	andeq	r0, r0, r0
   101d4:	ffffff00 			; <UNDEFINED> instruction: 0xffffff00
   101d8:	ffffffff 			; <UNDEFINED> instruction: 0xffffffff
   101dc:	000000ff 	strdeq	r0, [r0], -pc	; <UNPREDICTABLE>
   101e0:	00000000 	andeq	r0, r0, r0
   101e4:	ff000000 			; <UNDEFINED> instruction: 0xff000000
   101e8:	000000ff 	strdeq	r0, [r0], -pc	; <UNPREDICTABLE>
	...
   10200:	ff000000 			; <UNDEFINED> instruction: 0xff000000
   10204:	ffffffff 			; <UNDEFINED> instruction: 0xffffffff
   10208:	00ffffff 	ldrshteq	pc, [pc], #255	; <UNPREDICTABLE>
	...
   10214:	ffffff00 			; <UNDEFINED> instruction: 0xffffff00
   10218:	00ffffff 	ldrshteq	pc, [pc], #255	; <UNPREDICTABLE>
   1021c:	00000000 	andeq	r0, r0, r0
   10220:	ff000000 			; <UNDEFINED> instruction: 0xff000000
   10224:	ffffffff 			; <UNDEFINED> instruction: 0xffffffff
   10228:	00ffffff 	ldrshteq	pc, [pc], #255	; <UNPREDICTABLE>
	...
   10234:	ffffff00 			; <UNDEFINED> instruction: 0xffffff00
   10238:	ffffffff 			; <UNDEFINED> instruction: 0xffffffff
   1023c:	000000ff 	strdeq	r0, [r0], -pc	; <UNPREDICTABLE>
   10240:	ff000000 			; <UNDEFINED> instruction: 0xff000000
   10244:	ffffffff 			; <UNDEFINED> instruction: 0xffffffff
   10248:	ffffffff 			; <UNDEFINED> instruction: 0xffffffff
   1024c:	000000ff 	strdeq	r0, [r0], -pc	; <UNPREDICTABLE>
   10250:	ff000000 			; <UNDEFINED> instruction: 0xff000000
   10254:	000000ff 	strdeq	r0, [r0], -pc	; <UNPREDICTABLE>
   10258:	ff000000 			; <UNDEFINED> instruction: 0xff000000
   1025c:	000000ff 	strdeq	r0, [r0], -pc	; <UNPREDICTABLE>
   10260:	ff000000 			; <UNDEFINED> instruction: 0xff000000
   10264:	000000ff 	strdeq	r0, [r0], -pc	; <UNPREDICTABLE>
   10268:	ff000000 			; <UNDEFINED> instruction: 0xff000000
   1026c:	000000ff 	strdeq	r0, [r0], -pc	; <UNPREDICTABLE>
   10270:	ff000000 			; <UNDEFINED> instruction: 0xff000000
   10274:	000000ff 	strdeq	r0, [r0], -pc	; <UNPREDICTABLE>
   10278:	ff000000 			; <UNDEFINED> instruction: 0xff000000
   1027c:	000000ff 	strdeq	r0, [r0], -pc	; <UNPREDICTABLE>
   10280:	ff000000 			; <UNDEFINED> instruction: 0xff000000
   10284:	000000ff 	strdeq	r0, [r0], -pc	; <UNPREDICTABLE>
   10288:	ff000000 			; <UNDEFINED> instruction: 0xff000000
   1028c:	000000ff 	strdeq	r0, [r0], -pc	; <UNPREDICTABLE>
   10290:	ff000000 			; <UNDEFINED> instruction: 0xff000000
   10294:	000000ff 	strdeq	r0, [r0], -pc	; <UNPREDICTABLE>
   10298:	ff000000 			; <UNDEFINED> instruction: 0xff000000
   1029c:	000000ff 	strdeq	r0, [r0], -pc	; <UNPREDICTABLE>
   102a0:	ff000000 			; <UNDEFINED> instruction: 0xff000000
   102a4:	ffffffff 			; <UNDEFINED> instruction: 0xffffffff
   102a8:	ffffffff 			; <UNDEFINED> instruction: 0xffffffff
   102ac:	000000ff 	strdeq	r0, [r0], -pc	; <UNPREDICTABLE>
   102b0:	ff000000 			; <UNDEFINED> instruction: 0xff000000
   102b4:	000000ff 	strdeq	r0, [r0], -pc	; <UNPREDICTABLE>
	...
   102c4:	00ffff00 	rscseq	pc, pc, r0, lsl #30
   102c8:	00ffff00 	rscseq	pc, pc, r0, lsl #30
	...
   102d8:	ff000000 			; <UNDEFINED> instruction: 0xff000000
   102dc:	000000ff 	strdeq	r0, [r0], -pc	; <UNPREDICTABLE>
   102e0:	00000000 	andeq	r0, r0, r0
   102e4:	00ffff00 	rscseq	pc, pc, r0, lsl #30
   102e8:	00ffff00 	rscseq	pc, pc, r0, lsl #30
	...
   10300:	ff000000 			; <UNDEFINED> instruction: 0xff000000
   10304:	ffffffff 			; <UNDEFINED> instruction: 0xffffffff
   10308:	00ffffff 	ldrshteq	pc, [pc], #255	; <UNPREDICTABLE>
	...
   10314:	ffffff00 			; <UNDEFINED> instruction: 0xffffff00
   10318:	00ffffff 	ldrshteq	pc, [pc], #255	; <UNPREDICTABLE>
   1031c:	00000000 	andeq	r0, r0, r0
   10320:	ff000000 			; <UNDEFINED> instruction: 0xff000000
   10324:	ffffffff 			; <UNDEFINED> instruction: 0xffffffff
   10328:	00ffffff 	ldrshteq	pc, [pc], #255	; <UNPREDICTABLE>
	...
   10334:	ffffff00 			; <UNDEFINED> instruction: 0xffffff00
   10338:	ffffffff 			; <UNDEFINED> instruction: 0xffffffff
   1033c:	000000ff 	strdeq	r0, [r0], -pc	; <UNPREDICTABLE>
   10340:	ff000000 			; <UNDEFINED> instruction: 0xff000000
   10344:	ffffffff 			; <UNDEFINED> instruction: 0xffffffff
   10348:	ffffffff 			; <UNDEFINED> instruction: 0xffffffff
   1034c:	000000ff 	strdeq	r0, [r0], -pc	; <UNPREDICTABLE>
   10350:	ff000000 			; <UNDEFINED> instruction: 0xff000000
   10354:	000000ff 	strdeq	r0, [r0], -pc	; <UNPREDICTABLE>
   10358:	ff000000 			; <UNDEFINED> instruction: 0xff000000
   1035c:	000000ff 	strdeq	r0, [r0], -pc	; <UNPREDICTABLE>
   10360:	ff000000 			; <UNDEFINED> instruction: 0xff000000
   10364:	000000ff 	strdeq	r0, [r0], -pc	; <UNPREDICTABLE>
   10368:	ff000000 			; <UNDEFINED> instruction: 0xff000000
   1036c:	000000ff 	strdeq	r0, [r0], -pc	; <UNPREDICTABLE>
   10370:	ff000000 			; <UNDEFINED> instruction: 0xff000000
   10374:	000000ff 	strdeq	r0, [r0], -pc	; <UNPREDICTABLE>
   10378:	ff000000 			; <UNDEFINED> instruction: 0xff000000
   1037c:	000000ff 	strdeq	r0, [r0], -pc	; <UNPREDICTABLE>
   10380:	ff000000 			; <UNDEFINED> instruction: 0xff000000
   10384:	000000ff 	strdeq	r0, [r0], -pc	; <UNPREDICTABLE>
   10388:	ff000000 			; <UNDEFINED> instruction: 0xff000000
   1038c:	000000ff 	strdeq	r0, [r0], -pc	; <UNPREDICTABLE>
   10390:	ff000000 			; <UNDEFINED> instruction: 0xff000000
   10394:	000000ff 	strdeq	r0, [r0], -pc	; <UNPREDICTABLE>
   10398:	ff000000 			; <UNDEFINED> instruction: 0xff000000
   1039c:	000000ff 	strdeq	r0, [r0], -pc	; <UNPREDICTABLE>
   103a0:	ff000000 			; <UNDEFINED> instruction: 0xff000000
   103a4:	ffffffff 			; <UNDEFINED> instruction: 0xffffffff
   103a8:	ffffffff 			; <UNDEFINED> instruction: 0xffffffff
   103ac:	000000ff 	strdeq	r0, [r0], -pc	; <UNPREDICTABLE>
   103b0:	ff000000 			; <UNDEFINED> instruction: 0xff000000
   103b4:	000000ff 	strdeq	r0, [r0], -pc	; <UNPREDICTABLE>
	...
   103c4:	00ffff00 	rscseq	pc, pc, r0, lsl #30
   103c8:	00ffff00 	rscseq	pc, pc, r0, lsl #30
	...
   103d8:	ff000000 			; <UNDEFINED> instruction: 0xff000000
   103dc:	000000ff 	strdeq	r0, [r0], -pc	; <UNPREDICTABLE>
   103e0:	00000000 	andeq	r0, r0, r0
   103e4:	00ffff00 	rscseq	pc, pc, r0, lsl #30
   103e8:	00ffff00 	rscseq	pc, pc, r0, lsl #30
	...
   10400:	ff000000 			; <UNDEFINED> instruction: 0xff000000
   10404:	000000ff 	strdeq	r0, [r0], -pc	; <UNPREDICTABLE>
   10408:	ff000000 			; <UNDEFINED> instruction: 0xff000000
   1040c:	000000ff 	strdeq	r0, [r0], -pc	; <UNPREDICTABLE>
   10410:	ff000000 			; <UNDEFINED> instruction: 0xff000000
   10414:	000000ff 	strdeq	r0, [r0], -pc	; <UNPREDICTABLE>
   10418:	ff000000 			; <UNDEFINED> instruction: 0xff000000
   1041c:	000000ff 	strdeq	r0, [r0], -pc	; <UNPREDICTABLE>
   10420:	ff000000 			; <UNDEFINED> instruction: 0xff000000
   10424:	000000ff 	strdeq	r0, [r0], -pc	; <UNPREDICTABLE>
   10428:	ff000000 			; <UNDEFINED> instruction: 0xff000000
   1042c:	000000ff 	strdeq	r0, [r0], -pc	; <UNPREDICTABLE>
   10430:	ff000000 			; <UNDEFINED> instruction: 0xff000000
   10434:	000000ff 	strdeq	r0, [r0], -pc	; <UNPREDICTABLE>
	...
   10444:	ff000000 			; <UNDEFINED> instruction: 0xff000000
   10448:	000000ff 	strdeq	r0, [r0], -pc	; <UNPREDICTABLE>
   1044c:	00000000 	andeq	r0, r0, r0
   10450:	ff000000 			; <UNDEFINED> instruction: 0xff000000
   10454:	000000ff 	strdeq	r0, [r0], -pc	; <UNPREDICTABLE>
   10458:	ff000000 			; <UNDEFINED> instruction: 0xff000000
   1045c:	000000ff 	strdeq	r0, [r0], -pc	; <UNPREDICTABLE>
   10460:	ff000000 			; <UNDEFINED> instruction: 0xff000000
   10464:	000000ff 	strdeq	r0, [r0], -pc	; <UNPREDICTABLE>
   10468:	ff000000 			; <UNDEFINED> instruction: 0xff000000
   1046c:	000000ff 	strdeq	r0, [r0], -pc	; <UNPREDICTABLE>
   10470:	ff000000 			; <UNDEFINED> instruction: 0xff000000
   10474:	000000ff 	strdeq	r0, [r0], -pc	; <UNPREDICTABLE>
   10478:	ff000000 			; <UNDEFINED> instruction: 0xff000000
   1047c:	000000ff 	strdeq	r0, [r0], -pc	; <UNPREDICTABLE>
   10480:	ff000000 			; <UNDEFINED> instruction: 0xff000000
   10484:	000000ff 	strdeq	r0, [r0], -pc	; <UNPREDICTABLE>
   10488:	ff000000 			; <UNDEFINED> instruction: 0xff000000
   1048c:	000000ff 	strdeq	r0, [r0], -pc	; <UNPREDICTABLE>
   10490:	ff000000 			; <UNDEFINED> instruction: 0xff000000
   10494:	000000ff 	strdeq	r0, [r0], -pc	; <UNPREDICTABLE>
   10498:	ff000000 			; <UNDEFINED> instruction: 0xff000000
   1049c:	000000ff 	strdeq	r0, [r0], -pc	; <UNPREDICTABLE>
	...
   104a8:	ff000000 			; <UNDEFINED> instruction: 0xff000000
   104ac:	000000ff 	strdeq	r0, [r0], -pc	; <UNPREDICTABLE>
   104b0:	ff000000 			; <UNDEFINED> instruction: 0xff000000
   104b4:	000000ff 	strdeq	r0, [r0], -pc	; <UNPREDICTABLE>
	...
   104c0:	ff000000 			; <UNDEFINED> instruction: 0xff000000
   104c4:	ffffffff 			; <UNDEFINED> instruction: 0xffffffff
   104c8:	ffffffff 			; <UNDEFINED> instruction: 0xffffffff
   104cc:	000000ff 	strdeq	r0, [r0], -pc	; <UNPREDICTABLE>
	...
   104d8:	ff000000 			; <UNDEFINED> instruction: 0xff000000
   104dc:	000000ff 	strdeq	r0, [r0], -pc	; <UNPREDICTABLE>
   104e0:	ff000000 			; <UNDEFINED> instruction: 0xff000000
   104e4:	000000ff 	strdeq	r0, [r0], -pc	; <UNPREDICTABLE>
   104e8:	ff000000 			; <UNDEFINED> instruction: 0xff000000
   104ec:	000000ff 	strdeq	r0, [r0], -pc	; <UNPREDICTABLE>
	...
   10500:	ff000000 			; <UNDEFINED> instruction: 0xff000000
   10504:	000000ff 	strdeq	r0, [r0], -pc	; <UNPREDICTABLE>
   10508:	ff000000 			; <UNDEFINED> instruction: 0xff000000
   1050c:	000000ff 	strdeq	r0, [r0], -pc	; <UNPREDICTABLE>
   10510:	ff000000 			; <UNDEFINED> instruction: 0xff000000
   10514:	000000ff 	strdeq	r0, [r0], -pc	; <UNPREDICTABLE>
   10518:	ff000000 			; <UNDEFINED> instruction: 0xff000000
   1051c:	000000ff 	strdeq	r0, [r0], -pc	; <UNPREDICTABLE>
   10520:	ff000000 			; <UNDEFINED> instruction: 0xff000000
   10524:	000000ff 	strdeq	r0, [r0], -pc	; <UNPREDICTABLE>
   10528:	ff000000 			; <UNDEFINED> instruction: 0xff000000
   1052c:	000000ff 	strdeq	r0, [r0], -pc	; <UNPREDICTABLE>
   10530:	ff000000 			; <UNDEFINED> instruction: 0xff000000
   10534:	000000ff 	strdeq	r0, [r0], -pc	; <UNPREDICTABLE>
	...
   10544:	ff000000 			; <UNDEFINED> instruction: 0xff000000
   10548:	000000ff 	strdeq	r0, [r0], -pc	; <UNPREDICTABLE>
   1054c:	00000000 	andeq	r0, r0, r0
   10550:	ff000000 			; <UNDEFINED> instruction: 0xff000000
   10554:	000000ff 	strdeq	r0, [r0], -pc	; <UNPREDICTABLE>
   10558:	ff000000 			; <UNDEFINED> instruction: 0xff000000
   1055c:	000000ff 	strdeq	r0, [r0], -pc	; <UNPREDICTABLE>
   10560:	ff000000 			; <UNDEFINED> instruction: 0xff000000
   10564:	000000ff 	strdeq	r0, [r0], -pc	; <UNPREDICTABLE>
   10568:	ff000000 			; <UNDEFINED> instruction: 0xff000000
   1056c:	000000ff 	strdeq	r0, [r0], -pc	; <UNPREDICTABLE>
   10570:	ff000000 			; <UNDEFINED> instruction: 0xff000000
   10574:	000000ff 	strdeq	r0, [r0], -pc	; <UNPREDICTABLE>
   10578:	ff000000 			; <UNDEFINED> instruction: 0xff000000
   1057c:	000000ff 	strdeq	r0, [r0], -pc	; <UNPREDICTABLE>
   10580:	ff000000 			; <UNDEFINED> instruction: 0xff000000
   10584:	000000ff 	strdeq	r0, [r0], -pc	; <UNPREDICTABLE>
   10588:	ff000000 			; <UNDEFINED> instruction: 0xff000000
   1058c:	000000ff 	strdeq	r0, [r0], -pc	; <UNPREDICTABLE>
   10590:	ff000000 			; <UNDEFINED> instruction: 0xff000000
   10594:	000000ff 	strdeq	r0, [r0], -pc	; <UNPREDICTABLE>
   10598:	ff000000 			; <UNDEFINED> instruction: 0xff000000
   1059c:	000000ff 	strdeq	r0, [r0], -pc	; <UNPREDICTABLE>
	...
   105a8:	ff000000 			; <UNDEFINED> instruction: 0xff000000
   105ac:	000000ff 	strdeq	r0, [r0], -pc	; <UNPREDICTABLE>
   105b0:	ff000000 			; <UNDEFINED> instruction: 0xff000000
   105b4:	000000ff 	strdeq	r0, [r0], -pc	; <UNPREDICTABLE>
	...
   105c0:	ff000000 			; <UNDEFINED> instruction: 0xff000000
   105c4:	ffffffff 			; <UNDEFINED> instruction: 0xffffffff
   105c8:	ffffffff 			; <UNDEFINED> instruction: 0xffffffff
   105cc:	000000ff 	strdeq	r0, [r0], -pc	; <UNPREDICTABLE>
	...
   105d8:	ff000000 			; <UNDEFINED> instruction: 0xff000000
   105dc:	000000ff 	strdeq	r0, [r0], -pc	; <UNPREDICTABLE>
   105e0:	ff000000 			; <UNDEFINED> instruction: 0xff000000
   105e4:	000000ff 	strdeq	r0, [r0], -pc	; <UNPREDICTABLE>
   105e8:	ff000000 			; <UNDEFINED> instruction: 0xff000000
   105ec:	000000ff 	strdeq	r0, [r0], -pc	; <UNPREDICTABLE>
	...
   10600:	ff000000 			; <UNDEFINED> instruction: 0xff000000
   10604:	000000ff 	strdeq	r0, [r0], -pc	; <UNPREDICTABLE>
   10608:	ff000000 			; <UNDEFINED> instruction: 0xff000000
   1060c:	000000ff 	strdeq	r0, [r0], -pc	; <UNPREDICTABLE>
   10610:	ff000000 			; <UNDEFINED> instruction: 0xff000000
   10614:	000000ff 	strdeq	r0, [r0], -pc	; <UNPREDICTABLE>
   10618:	ff000000 			; <UNDEFINED> instruction: 0xff000000
   1061c:	000000ff 	strdeq	r0, [r0], -pc	; <UNPREDICTABLE>
   10620:	ff000000 			; <UNDEFINED> instruction: 0xff000000
   10624:	000000ff 	strdeq	r0, [r0], -pc	; <UNPREDICTABLE>
   10628:	ff000000 			; <UNDEFINED> instruction: 0xff000000
   1062c:	000000ff 	strdeq	r0, [r0], -pc	; <UNPREDICTABLE>
   10630:	ff000000 			; <UNDEFINED> instruction: 0xff000000
   10634:	000000ff 	strdeq	r0, [r0], -pc	; <UNPREDICTABLE>
	...
   10644:	ff000000 			; <UNDEFINED> instruction: 0xff000000
   10648:	000000ff 	strdeq	r0, [r0], -pc	; <UNPREDICTABLE>
   1064c:	00000000 	andeq	r0, r0, r0
   10650:	ff000000 			; <UNDEFINED> instruction: 0xff000000
   10654:	000000ff 	strdeq	r0, [r0], -pc	; <UNPREDICTABLE>
   10658:	ff000000 			; <UNDEFINED> instruction: 0xff000000
   1065c:	000000ff 	strdeq	r0, [r0], -pc	; <UNPREDICTABLE>
   10660:	ff000000 			; <UNDEFINED> instruction: 0xff000000
   10664:	000000ff 	strdeq	r0, [r0], -pc	; <UNPREDICTABLE>
   10668:	ff000000 			; <UNDEFINED> instruction: 0xff000000
   1066c:	000000ff 	strdeq	r0, [r0], -pc	; <UNPREDICTABLE>
   10670:	ff000000 			; <UNDEFINED> instruction: 0xff000000
   10674:	ff0000ff 			; <UNDEFINED> instruction: 0xff0000ff
   10678:	ff0000ff 			; <UNDEFINED> instruction: 0xff0000ff
   1067c:	000000ff 	strdeq	r0, [r0], -pc	; <UNPREDICTABLE>
   10680:	00000000 	andeq	r0, r0, r0
   10684:	00ffff00 	rscseq	pc, pc, r0, lsl #30
   10688:	00ffff00 	rscseq	pc, pc, r0, lsl #30
   1068c:	00000000 	andeq	r0, r0, r0
   10690:	ff000000 			; <UNDEFINED> instruction: 0xff000000
   10694:	000000ff 	strdeq	r0, [r0], -pc	; <UNPREDICTABLE>
   10698:	ff000000 			; <UNDEFINED> instruction: 0xff000000
   1069c:	000000ff 	strdeq	r0, [r0], -pc	; <UNPREDICTABLE>
	...
   106a8:	00ffff00 	rscseq	pc, pc, r0, lsl #30
   106ac:	00000000 	andeq	r0, r0, r0
   106b0:	ff000000 			; <UNDEFINED> instruction: 0xff000000
   106b4:	000000ff 	strdeq	r0, [r0], -pc	; <UNPREDICTABLE>
	...
   106c4:	ff000000 			; <UNDEFINED> instruction: 0xff000000
   106c8:	000000ff 	strdeq	r0, [r0], -pc	; <UNPREDICTABLE>
	...
   106d8:	ff000000 			; <UNDEFINED> instruction: 0xff000000
   106dc:	000000ff 	strdeq	r0, [r0], -pc	; <UNPREDICTABLE>
	...
   10700:	ff000000 			; <UNDEFINED> instruction: 0xff000000
   10704:	000000ff 	strdeq	r0, [r0], -pc	; <UNPREDICTABLE>
   10708:	ff000000 			; <UNDEFINED> instruction: 0xff000000
   1070c:	000000ff 	strdeq	r0, [r0], -pc	; <UNPREDICTABLE>
   10710:	ff000000 			; <UNDEFINED> instruction: 0xff000000
   10714:	000000ff 	strdeq	r0, [r0], -pc	; <UNPREDICTABLE>
   10718:	ff000000 			; <UNDEFINED> instruction: 0xff000000
   1071c:	000000ff 	strdeq	r0, [r0], -pc	; <UNPREDICTABLE>
   10720:	ff000000 			; <UNDEFINED> instruction: 0xff000000
   10724:	000000ff 	strdeq	r0, [r0], -pc	; <UNPREDICTABLE>
   10728:	ff000000 			; <UNDEFINED> instruction: 0xff000000
   1072c:	000000ff 	strdeq	r0, [r0], -pc	; <UNPREDICTABLE>
   10730:	ff000000 			; <UNDEFINED> instruction: 0xff000000
   10734:	000000ff 	strdeq	r0, [r0], -pc	; <UNPREDICTABLE>
	...
   10744:	ff000000 			; <UNDEFINED> instruction: 0xff000000
   10748:	000000ff 	strdeq	r0, [r0], -pc	; <UNPREDICTABLE>
   1074c:	00000000 	andeq	r0, r0, r0
   10750:	ff000000 			; <UNDEFINED> instruction: 0xff000000
   10754:	000000ff 	strdeq	r0, [r0], -pc	; <UNPREDICTABLE>
   10758:	ff000000 			; <UNDEFINED> instruction: 0xff000000
   1075c:	000000ff 	strdeq	r0, [r0], -pc	; <UNPREDICTABLE>
   10760:	ff000000 			; <UNDEFINED> instruction: 0xff000000
   10764:	000000ff 	strdeq	r0, [r0], -pc	; <UNPREDICTABLE>
   10768:	ff000000 			; <UNDEFINED> instruction: 0xff000000
   1076c:	000000ff 	strdeq	r0, [r0], -pc	; <UNPREDICTABLE>
   10770:	ff000000 			; <UNDEFINED> instruction: 0xff000000
   10774:	ff0000ff 			; <UNDEFINED> instruction: 0xff0000ff
   10778:	ff0000ff 			; <UNDEFINED> instruction: 0xff0000ff
   1077c:	000000ff 	strdeq	r0, [r0], -pc	; <UNPREDICTABLE>
   10780:	00000000 	andeq	r0, r0, r0
   10784:	00ffff00 	rscseq	pc, pc, r0, lsl #30
   10788:	00ffff00 	rscseq	pc, pc, r0, lsl #30
   1078c:	00000000 	andeq	r0, r0, r0
   10790:	ff000000 			; <UNDEFINED> instruction: 0xff000000
   10794:	000000ff 	strdeq	r0, [r0], -pc	; <UNPREDICTABLE>
   10798:	ff000000 			; <UNDEFINED> instruction: 0xff000000
   1079c:	000000ff 	strdeq	r0, [r0], -pc	; <UNPREDICTABLE>
	...
   107a8:	00ffff00 	rscseq	pc, pc, r0, lsl #30
   107ac:	00000000 	andeq	r0, r0, r0
   107b0:	ff000000 			; <UNDEFINED> instruction: 0xff000000
   107b4:	000000ff 	strdeq	r0, [r0], -pc	; <UNPREDICTABLE>
	...
   107c4:	ff000000 			; <UNDEFINED> instruction: 0xff000000
   107c8:	000000ff 	strdeq	r0, [r0], -pc	; <UNPREDICTABLE>
	...
   107d8:	ff000000 			; <UNDEFINED> instruction: 0xff000000
   107dc:	000000ff 	strdeq	r0, [r0], -pc	; <UNPREDICTABLE>
	...
   10800:	ff000000 			; <UNDEFINED> instruction: 0xff000000
   10804:	ffffffff 			; <UNDEFINED> instruction: 0xffffffff
   10808:	00ffffff 	ldrshteq	pc, [pc], #255	; <UNPREDICTABLE>
   1080c:	00000000 	andeq	r0, r0, r0
   10810:	ff000000 			; <UNDEFINED> instruction: 0xff000000
   10814:	000000ff 	strdeq	r0, [r0], -pc	; <UNPREDICTABLE>
   10818:	ff000000 			; <UNDEFINED> instruction: 0xff000000
   1081c:	000000ff 	strdeq	r0, [r0], -pc	; <UNPREDICTABLE>
   10820:	ff000000 			; <UNDEFINED> instruction: 0xff000000
   10824:	ffffffff 			; <UNDEFINED> instruction: 0xffffffff
   10828:	00ffffff 	ldrshteq	pc, [pc], #255	; <UNPREDICTABLE>
	...
   10834:	ffffff00 			; <UNDEFINED> instruction: 0xffffff00
   10838:	00ffffff 	ldrshteq	pc, [pc], #255	; <UNPREDICTABLE>
	...
   10844:	ff000000 			; <UNDEFINED> instruction: 0xff000000
   10848:	000000ff 	strdeq	r0, [r0], -pc	; <UNPREDICTABLE>
   1084c:	00000000 	andeq	r0, r0, r0
   10850:	ff000000 			; <UNDEFINED> instruction: 0xff000000
   10854:	000000ff 	strdeq	r0, [r0], -pc	; <UNPREDICTABLE>
   10858:	ff000000 			; <UNDEFINED> instruction: 0xff000000
   1085c:	000000ff 	strdeq	r0, [r0], -pc	; <UNPREDICTABLE>
   10860:	ff000000 			; <UNDEFINED> instruction: 0xff000000
   10864:	000000ff 	strdeq	r0, [r0], -pc	; <UNPREDICTABLE>
   10868:	ff000000 			; <UNDEFINED> instruction: 0xff000000
   1086c:	000000ff 	strdeq	r0, [r0], -pc	; <UNPREDICTABLE>
   10870:	ff000000 			; <UNDEFINED> instruction: 0xff000000
   10874:	ff0000ff 			; <UNDEFINED> instruction: 0xff0000ff
   10878:	ff0000ff 			; <UNDEFINED> instruction: 0xff0000ff
   1087c:	000000ff 	strdeq	r0, [r0], -pc	; <UNPREDICTABLE>
   10880:	00000000 	andeq	r0, r0, r0
   10884:	ff000000 			; <UNDEFINED> instruction: 0xff000000
   10888:	000000ff 	strdeq	r0, [r0], -pc	; <UNPREDICTABLE>
	...
   10894:	00ffff00 	rscseq	pc, pc, r0, lsl #30
   10898:	00ffff00 	rscseq	pc, pc, r0, lsl #30
	...
   108a4:	ff000000 			; <UNDEFINED> instruction: 0xff000000
   108a8:	000000ff 	strdeq	r0, [r0], -pc	; <UNPREDICTABLE>
   108ac:	00000000 	andeq	r0, r0, r0
   108b0:	ff000000 			; <UNDEFINED> instruction: 0xff000000
   108b4:	000000ff 	strdeq	r0, [r0], -pc	; <UNPREDICTABLE>
	...
   108c0:	ff000000 			; <UNDEFINED> instruction: 0xff000000
   108c4:	ffffffff 			; <UNDEFINED> instruction: 0xffffffff
   108c8:	ffffffff 			; <UNDEFINED> instruction: 0xffffffff
   108cc:	000000ff 	strdeq	r0, [r0], -pc	; <UNPREDICTABLE>
	...
   108d8:	ff000000 			; <UNDEFINED> instruction: 0xff000000
   108dc:	000000ff 	strdeq	r0, [r0], -pc	; <UNPREDICTABLE>
	...
   10900:	ff000000 			; <UNDEFINED> instruction: 0xff000000
   10904:	ffffffff 			; <UNDEFINED> instruction: 0xffffffff
   10908:	00ffffff 	ldrshteq	pc, [pc], #255	; <UNPREDICTABLE>
   1090c:	00000000 	andeq	r0, r0, r0
   10910:	ff000000 			; <UNDEFINED> instruction: 0xff000000
   10914:	000000ff 	strdeq	r0, [r0], -pc	; <UNPREDICTABLE>
   10918:	ff000000 			; <UNDEFINED> instruction: 0xff000000
   1091c:	000000ff 	strdeq	r0, [r0], -pc	; <UNPREDICTABLE>
   10920:	ff000000 			; <UNDEFINED> instruction: 0xff000000
   10924:	ffffffff 			; <UNDEFINED> instruction: 0xffffffff
   10928:	00ffffff 	ldrshteq	pc, [pc], #255	; <UNPREDICTABLE>
	...
   10934:	ffffff00 			; <UNDEFINED> instruction: 0xffffff00
   10938:	00ffffff 	ldrshteq	pc, [pc], #255	; <UNPREDICTABLE>
	...
   10944:	ff000000 			; <UNDEFINED> instruction: 0xff000000
   10948:	000000ff 	strdeq	r0, [r0], -pc	; <UNPREDICTABLE>
   1094c:	00000000 	andeq	r0, r0, r0
   10950:	ff000000 			; <UNDEFINED> instruction: 0xff000000
   10954:	000000ff 	strdeq	r0, [r0], -pc	; <UNPREDICTABLE>
   10958:	ff000000 			; <UNDEFINED> instruction: 0xff000000
   1095c:	000000ff 	strdeq	r0, [r0], -pc	; <UNPREDICTABLE>
   10960:	ff000000 			; <UNDEFINED> instruction: 0xff000000
   10964:	000000ff 	strdeq	r0, [r0], -pc	; <UNPREDICTABLE>
   10968:	ff000000 			; <UNDEFINED> instruction: 0xff000000
   1096c:	000000ff 	strdeq	r0, [r0], -pc	; <UNPREDICTABLE>
   10970:	ff000000 			; <UNDEFINED> instruction: 0xff000000
   10974:	ff0000ff 			; <UNDEFINED> instruction: 0xff0000ff
   10978:	ff0000ff 			; <UNDEFINED> instruction: 0xff0000ff
   1097c:	000000ff 	strdeq	r0, [r0], -pc	; <UNPREDICTABLE>
   10980:	00000000 	andeq	r0, r0, r0
   10984:	ff000000 			; <UNDEFINED> instruction: 0xff000000
   10988:	000000ff 	strdeq	r0, [r0], -pc	; <UNPREDICTABLE>
	...
   10994:	00ffff00 	rscseq	pc, pc, r0, lsl #30
   10998:	00ffff00 	rscseq	pc, pc, r0, lsl #30
	...
   109a4:	ff000000 			; <UNDEFINED> instruction: 0xff000000
   109a8:	000000ff 	strdeq	r0, [r0], -pc	; <UNPREDICTABLE>
   109ac:	00000000 	andeq	r0, r0, r0
   109b0:	ff000000 			; <UNDEFINED> instruction: 0xff000000
   109b4:	000000ff 	strdeq	r0, [r0], -pc	; <UNPREDICTABLE>
	...
   109c0:	ff000000 			; <UNDEFINED> instruction: 0xff000000
   109c4:	ffffffff 			; <UNDEFINED> instruction: 0xffffffff
   109c8:	ffffffff 			; <UNDEFINED> instruction: 0xffffffff
   109cc:	000000ff 	strdeq	r0, [r0], -pc	; <UNPREDICTABLE>
	...
   109d8:	ff000000 			; <UNDEFINED> instruction: 0xff000000
   109dc:	000000ff 	strdeq	r0, [r0], -pc	; <UNPREDICTABLE>
	...
   10a00:	ff000000 			; <UNDEFINED> instruction: 0xff000000
   10a04:	000000ff 	strdeq	r0, [r0], -pc	; <UNPREDICTABLE>
	...
   10a10:	ff000000 			; <UNDEFINED> instruction: 0xff000000
   10a14:	ff0000ff 			; <UNDEFINED> instruction: 0xff0000ff
   10a18:	ff0000ff 			; <UNDEFINED> instruction: 0xff0000ff
   10a1c:	000000ff 	strdeq	r0, [r0], -pc	; <UNPREDICTABLE>
   10a20:	ff000000 			; <UNDEFINED> instruction: 0xff000000
   10a24:	000000ff 	strdeq	r0, [r0], -pc	; <UNPREDICTABLE>
   10a28:	ff000000 			; <UNDEFINED> instruction: 0xff000000
   10a2c:	000000ff 	strdeq	r0, [r0], -pc	; <UNPREDICTABLE>
	...
   10a38:	ff000000 			; <UNDEFINED> instruction: 0xff000000
   10a3c:	000000ff 	strdeq	r0, [r0], -pc	; <UNPREDICTABLE>
   10a40:	00000000 	andeq	r0, r0, r0
   10a44:	ff000000 			; <UNDEFINED> instruction: 0xff000000
   10a48:	000000ff 	strdeq	r0, [r0], -pc	; <UNPREDICTABLE>
   10a4c:	00000000 	andeq	r0, r0, r0
   10a50:	ff000000 			; <UNDEFINED> instruction: 0xff000000
   10a54:	000000ff 	strdeq	r0, [r0], -pc	; <UNPREDICTABLE>
   10a58:	ff000000 			; <UNDEFINED> instruction: 0xff000000
   10a5c:	000000ff 	strdeq	r0, [r0], -pc	; <UNPREDICTABLE>
   10a60:	ff000000 			; <UNDEFINED> instruction: 0xff000000
   10a64:	00ffffff 	ldrshteq	pc, [pc], #255	; <UNPREDICTABLE>
   10a68:	ffffff00 			; <UNDEFINED> instruction: 0xffffff00
   10a6c:	000000ff 	strdeq	r0, [r0], -pc	; <UNPREDICTABLE>
   10a70:	ff000000 			; <UNDEFINED> instruction: 0xff000000
   10a74:	ff0000ff 			; <UNDEFINED> instruction: 0xff0000ff
   10a78:	ff0000ff 			; <UNDEFINED> instruction: 0xff0000ff
   10a7c:	000000ff 	strdeq	r0, [r0], -pc	; <UNPREDICTABLE>
   10a80:	00000000 	andeq	r0, r0, r0
   10a84:	00ffff00 	rscseq	pc, pc, r0, lsl #30
   10a88:	00ffff00 	rscseq	pc, pc, r0, lsl #30
	...
   10a94:	ff000000 			; <UNDEFINED> instruction: 0xff000000
   10a98:	000000ff 	strdeq	r0, [r0], -pc	; <UNPREDICTABLE>
	...
   10aa4:	00ffff00 	rscseq	pc, pc, r0, lsl #30
	...
   10ab0:	ff000000 			; <UNDEFINED> instruction: 0xff000000
   10ab4:	000000ff 	strdeq	r0, [r0], -pc	; <UNPREDICTABLE>
	...
   10ac4:	ff000000 			; <UNDEFINED> instruction: 0xff000000
   10ac8:	000000ff 	strdeq	r0, [r0], -pc	; <UNPREDICTABLE>
	...
   10ad8:	ff000000 			; <UNDEFINED> instruction: 0xff000000
   10adc:	000000ff 	strdeq	r0, [r0], -pc	; <UNPREDICTABLE>
	...
   10b00:	ff000000 			; <UNDEFINED> instruction: 0xff000000
   10b04:	000000ff 	strdeq	r0, [r0], -pc	; <UNPREDICTABLE>
	...
   10b10:	ff000000 			; <UNDEFINED> instruction: 0xff000000
   10b14:	ff0000ff 			; <UNDEFINED> instruction: 0xff0000ff
   10b18:	ff0000ff 			; <UNDEFINED> instruction: 0xff0000ff
   10b1c:	000000ff 	strdeq	r0, [r0], -pc	; <UNPREDICTABLE>
   10b20:	ff000000 			; <UNDEFINED> instruction: 0xff000000
   10b24:	000000ff 	strdeq	r0, [r0], -pc	; <UNPREDICTABLE>
   10b28:	ff000000 			; <UNDEFINED> instruction: 0xff000000
   10b2c:	000000ff 	strdeq	r0, [r0], -pc	; <UNPREDICTABLE>
	...
   10b38:	ff000000 			; <UNDEFINED> instruction: 0xff000000
   10b3c:	000000ff 	strdeq	r0, [r0], -pc	; <UNPREDICTABLE>
   10b40:	00000000 	andeq	r0, r0, r0
   10b44:	ff000000 			; <UNDEFINED> instruction: 0xff000000
   10b48:	000000ff 	strdeq	r0, [r0], -pc	; <UNPREDICTABLE>
   10b4c:	00000000 	andeq	r0, r0, r0
   10b50:	ff000000 			; <UNDEFINED> instruction: 0xff000000
   10b54:	000000ff 	strdeq	r0, [r0], -pc	; <UNPREDICTABLE>
   10b58:	ff000000 			; <UNDEFINED> instruction: 0xff000000
   10b5c:	000000ff 	strdeq	r0, [r0], -pc	; <UNPREDICTABLE>
   10b60:	ff000000 			; <UNDEFINED> instruction: 0xff000000
   10b64:	00ffffff 	ldrshteq	pc, [pc], #255	; <UNPREDICTABLE>
   10b68:	ffffff00 			; <UNDEFINED> instruction: 0xffffff00
   10b6c:	000000ff 	strdeq	r0, [r0], -pc	; <UNPREDICTABLE>
   10b70:	ff000000 			; <UNDEFINED> instruction: 0xff000000
   10b74:	ff0000ff 			; <UNDEFINED> instruction: 0xff0000ff
   10b78:	ff0000ff 			; <UNDEFINED> instruction: 0xff0000ff
   10b7c:	000000ff 	strdeq	r0, [r0], -pc	; <UNPREDICTABLE>
   10b80:	00000000 	andeq	r0, r0, r0
   10b84:	00ffff00 	rscseq	pc, pc, r0, lsl #30
   10b88:	00ffff00 	rscseq	pc, pc, r0, lsl #30
	...
   10b94:	ff000000 			; <UNDEFINED> instruction: 0xff000000
   10b98:	000000ff 	strdeq	r0, [r0], -pc	; <UNPREDICTABLE>
	...
   10ba4:	00ffff00 	rscseq	pc, pc, r0, lsl #30
	...
   10bb0:	ff000000 			; <UNDEFINED> instruction: 0xff000000
   10bb4:	000000ff 	strdeq	r0, [r0], -pc	; <UNPREDICTABLE>
	...
   10bc4:	ff000000 			; <UNDEFINED> instruction: 0xff000000
   10bc8:	000000ff 	strdeq	r0, [r0], -pc	; <UNPREDICTABLE>
	...
   10bd8:	ff000000 			; <UNDEFINED> instruction: 0xff000000
   10bdc:	000000ff 	strdeq	r0, [r0], -pc	; <UNPREDICTABLE>
	...
   10c00:	ff000000 			; <UNDEFINED> instruction: 0xff000000
   10c04:	000000ff 	strdeq	r0, [r0], -pc	; <UNPREDICTABLE>
	...
   10c10:	ff000000 			; <UNDEFINED> instruction: 0xff000000
   10c14:	000000ff 	strdeq	r0, [r0], -pc	; <UNPREDICTABLE>
   10c18:	ffffff00 			; <UNDEFINED> instruction: 0xffffff00
   10c1c:	000000ff 	strdeq	r0, [r0], -pc	; <UNPREDICTABLE>
   10c20:	ff000000 			; <UNDEFINED> instruction: 0xff000000
   10c24:	000000ff 	strdeq	r0, [r0], -pc	; <UNPREDICTABLE>
   10c28:	ff000000 			; <UNDEFINED> instruction: 0xff000000
   10c2c:	000000ff 	strdeq	r0, [r0], -pc	; <UNPREDICTABLE>
	...
   10c38:	ff000000 			; <UNDEFINED> instruction: 0xff000000
   10c3c:	000000ff 	strdeq	r0, [r0], -pc	; <UNPREDICTABLE>
   10c40:	00000000 	andeq	r0, r0, r0
   10c44:	ff000000 			; <UNDEFINED> instruction: 0xff000000
   10c48:	000000ff 	strdeq	r0, [r0], -pc	; <UNPREDICTABLE>
   10c4c:	00000000 	andeq	r0, r0, r0
   10c50:	ff000000 			; <UNDEFINED> instruction: 0xff000000
   10c54:	000000ff 	strdeq	r0, [r0], -pc	; <UNPREDICTABLE>
   10c58:	ff000000 			; <UNDEFINED> instruction: 0xff000000
   10c5c:	000000ff 	strdeq	r0, [r0], -pc	; <UNPREDICTABLE>
   10c60:	00000000 	andeq	r0, r0, r0
   10c64:	ffffff00 			; <UNDEFINED> instruction: 0xffffff00
   10c68:	00ffffff 	ldrshteq	pc, [pc], #255	; <UNPREDICTABLE>
   10c6c:	00000000 	andeq	r0, r0, r0
   10c70:	ff000000 			; <UNDEFINED> instruction: 0xff000000
   10c74:	ff0000ff 			; <UNDEFINED> instruction: 0xff0000ff
   10c78:	ff0000ff 			; <UNDEFINED> instruction: 0xff0000ff
   10c7c:	000000ff 	strdeq	r0, [r0], -pc	; <UNPREDICTABLE>
   10c80:	ff000000 			; <UNDEFINED> instruction: 0xff000000
   10c84:	000000ff 	strdeq	r0, [r0], -pc	; <UNPREDICTABLE>
   10c88:	ff000000 			; <UNDEFINED> instruction: 0xff000000
   10c8c:	000000ff 	strdeq	r0, [r0], -pc	; <UNPREDICTABLE>
   10c90:	00000000 	andeq	r0, r0, r0
   10c94:	ff000000 			; <UNDEFINED> instruction: 0xff000000
   10c98:	000000ff 	strdeq	r0, [r0], -pc	; <UNPREDICTABLE>
   10c9c:	00000000 	andeq	r0, r0, r0
   10ca0:	ff000000 			; <UNDEFINED> instruction: 0xff000000
   10ca4:	000000ff 	strdeq	r0, [r0], -pc	; <UNPREDICTABLE>
	...
   10cb0:	ff000000 			; <UNDEFINED> instruction: 0xff000000
   10cb4:	000000ff 	strdeq	r0, [r0], -pc	; <UNPREDICTABLE>
	...
   10cc4:	ff000000 			; <UNDEFINED> instruction: 0xff000000
   10cc8:	000000ff 	strdeq	r0, [r0], -pc	; <UNPREDICTABLE>
	...
   10cd8:	ff000000 			; <UNDEFINED> instruction: 0xff000000
   10cdc:	000000ff 	strdeq	r0, [r0], -pc	; <UNPREDICTABLE>
	...
   10d00:	ff000000 			; <UNDEFINED> instruction: 0xff000000
   10d04:	000000ff 	strdeq	r0, [r0], -pc	; <UNPREDICTABLE>
	...
   10d10:	ff000000 			; <UNDEFINED> instruction: 0xff000000
   10d14:	000000ff 	strdeq	r0, [r0], -pc	; <UNPREDICTABLE>
   10d18:	ffffff00 			; <UNDEFINED> instruction: 0xffffff00
   10d1c:	000000ff 	strdeq	r0, [r0], -pc	; <UNPREDICTABLE>
   10d20:	ff000000 			; <UNDEFINED> instruction: 0xff000000
   10d24:	000000ff 	strdeq	r0, [r0], -pc	; <UNPREDICTABLE>
   10d28:	ff000000 			; <UNDEFINED> instruction: 0xff000000
   10d2c:	000000ff 	strdeq	r0, [r0], -pc	; <UNPREDICTABLE>
	...
   10d38:	ff000000 			; <UNDEFINED> instruction: 0xff000000
   10d3c:	000000ff 	strdeq	r0, [r0], -pc	; <UNPREDICTABLE>
   10d40:	00000000 	andeq	r0, r0, r0
   10d44:	ff000000 			; <UNDEFINED> instruction: 0xff000000
   10d48:	000000ff 	strdeq	r0, [r0], -pc	; <UNPREDICTABLE>
   10d4c:	00000000 	andeq	r0, r0, r0
   10d50:	ff000000 			; <UNDEFINED> instruction: 0xff000000
   10d54:	000000ff 	strdeq	r0, [r0], -pc	; <UNPREDICTABLE>
   10d58:	ff000000 			; <UNDEFINED> instruction: 0xff000000
   10d5c:	000000ff 	strdeq	r0, [r0], -pc	; <UNPREDICTABLE>
   10d60:	00000000 	andeq	r0, r0, r0
   10d64:	ffffff00 			; <UNDEFINED> instruction: 0xffffff00
   10d68:	00ffffff 	ldrshteq	pc, [pc], #255	; <UNPREDICTABLE>
   10d6c:	00000000 	andeq	r0, r0, r0
   10d70:	ff000000 			; <UNDEFINED> instruction: 0xff000000
   10d74:	ff0000ff 			; <UNDEFINED> instruction: 0xff0000ff
   10d78:	ff0000ff 			; <UNDEFINED> instruction: 0xff0000ff
   10d7c:	000000ff 	strdeq	r0, [r0], -pc	; <UNPREDICTABLE>
   10d80:	ff000000 			; <UNDEFINED> instruction: 0xff000000
   10d84:	000000ff 	strdeq	r0, [r0], -pc	; <UNPREDICTABLE>
   10d88:	ff000000 			; <UNDEFINED> instruction: 0xff000000
   10d8c:	000000ff 	strdeq	r0, [r0], -pc	; <UNPREDICTABLE>
   10d90:	00000000 	andeq	r0, r0, r0
   10d94:	ff000000 			; <UNDEFINED> instruction: 0xff000000
   10d98:	000000ff 	strdeq	r0, [r0], -pc	; <UNPREDICTABLE>
   10d9c:	00000000 	andeq	r0, r0, r0
   10da0:	ff000000 			; <UNDEFINED> instruction: 0xff000000
   10da4:	000000ff 	strdeq	r0, [r0], -pc	; <UNPREDICTABLE>
	...
   10db0:	ff000000 			; <UNDEFINED> instruction: 0xff000000
   10db4:	000000ff 	strdeq	r0, [r0], -pc	; <UNPREDICTABLE>
	...
   10dc4:	ff000000 			; <UNDEFINED> instruction: 0xff000000
   10dc8:	000000ff 	strdeq	r0, [r0], -pc	; <UNPREDICTABLE>
	...
   10dd8:	ff000000 			; <UNDEFINED> instruction: 0xff000000
   10ddc:	000000ff 	strdeq	r0, [r0], -pc	; <UNPREDICTABLE>
	...
   10e00:	ff000000 			; <UNDEFINED> instruction: 0xff000000
   10e04:	000000ff 	strdeq	r0, [r0], -pc	; <UNPREDICTABLE>
	...
   10e14:	ffffff00 			; <UNDEFINED> instruction: 0xffffff00
   10e18:	00ffffff 	ldrshteq	pc, [pc], #255	; <UNPREDICTABLE>
   10e1c:	00000000 	andeq	r0, r0, r0
   10e20:	ff000000 			; <UNDEFINED> instruction: 0xff000000
   10e24:	000000ff 	strdeq	r0, [r0], -pc	; <UNPREDICTABLE>
   10e28:	ff000000 			; <UNDEFINED> instruction: 0xff000000
   10e2c:	000000ff 	strdeq	r0, [r0], -pc	; <UNPREDICTABLE>
   10e30:	ff000000 			; <UNDEFINED> instruction: 0xff000000
   10e34:	ffffffff 			; <UNDEFINED> instruction: 0xffffffff
   10e38:	00ffffff 	ldrshteq	pc, [pc], #255	; <UNPREDICTABLE>
	...
   10e44:	ff000000 			; <UNDEFINED> instruction: 0xff000000
   10e48:	000000ff 	strdeq	r0, [r0], -pc	; <UNPREDICTABLE>
	...
   10e54:	ffffff00 			; <UNDEFINED> instruction: 0xffffff00
   10e58:	00ffffff 	ldrshteq	pc, [pc], #255	; <UNPREDICTABLE>
	...
   10e64:	ff000000 			; <UNDEFINED> instruction: 0xff000000
   10e68:	000000ff 	strdeq	r0, [r0], -pc	; <UNPREDICTABLE>
	...
   10e74:	00ffff00 	rscseq	pc, pc, r0, lsl #30
   10e78:	00ffff00 	rscseq	pc, pc, r0, lsl #30
   10e7c:	00000000 	andeq	r0, r0, r0
   10e80:	ff000000 			; <UNDEFINED> instruction: 0xff000000
   10e84:	000000ff 	strdeq	r0, [r0], -pc	; <UNPREDICTABLE>
   10e88:	ff000000 			; <UNDEFINED> instruction: 0xff000000
   10e8c:	000000ff 	strdeq	r0, [r0], -pc	; <UNPREDICTABLE>
   10e90:	00000000 	andeq	r0, r0, r0
   10e94:	ff000000 			; <UNDEFINED> instruction: 0xff000000
   10e98:	000000ff 	strdeq	r0, [r0], -pc	; <UNPREDICTABLE>
   10e9c:	00000000 	andeq	r0, r0, r0
   10ea0:	ff000000 			; <UNDEFINED> instruction: 0xff000000
   10ea4:	ffffffff 			; <UNDEFINED> instruction: 0xffffffff
   10ea8:	ffffffff 			; <UNDEFINED> instruction: 0xffffffff
   10eac:	000000ff 	strdeq	r0, [r0], -pc	; <UNPREDICTABLE>
   10eb0:	ff000000 			; <UNDEFINED> instruction: 0xff000000
   10eb4:	ffffffff 			; <UNDEFINED> instruction: 0xffffffff
   10eb8:	00ffffff 	ldrshteq	pc, [pc], #255	; <UNPREDICTABLE>
	...
   10ec4:	ff000000 			; <UNDEFINED> instruction: 0xff000000
   10ec8:	000000ff 	strdeq	r0, [r0], -pc	; <UNPREDICTABLE>
	...
   10ed4:	ffffff00 			; <UNDEFINED> instruction: 0xffffff00
   10ed8:	ffffffff 			; <UNDEFINED> instruction: 0xffffffff
   10edc:	000000ff 	strdeq	r0, [r0], -pc	; <UNPREDICTABLE>
	...
   10ef0:	ff000000 			; <UNDEFINED> instruction: 0xff000000
   10ef4:	ffffffff 			; <UNDEFINED> instruction: 0xffffffff
   10ef8:	ffffffff 			; <UNDEFINED> instruction: 0xffffffff
   10efc:	000000ff 	strdeq	r0, [r0], -pc	; <UNPREDICTABLE>
   10f00:	ff000000 			; <UNDEFINED> instruction: 0xff000000
   10f04:	000000ff 	strdeq	r0, [r0], -pc	; <UNPREDICTABLE>
	...
   10f14:	ffffff00 			; <UNDEFINED> instruction: 0xffffff00
   10f18:	00ffffff 	ldrshteq	pc, [pc], #255	; <UNPREDICTABLE>
   10f1c:	00000000 	andeq	r0, r0, r0
   10f20:	ff000000 			; <UNDEFINED> instruction: 0xff000000
   10f24:	000000ff 	strdeq	r0, [r0], -pc	; <UNPREDICTABLE>
   10f28:	ff000000 			; <UNDEFINED> instruction: 0xff000000
   10f2c:	000000ff 	strdeq	r0, [r0], -pc	; <UNPREDICTABLE>
   10f30:	ff000000 			; <UNDEFINED> instruction: 0xff000000
   10f34:	ffffffff 			; <UNDEFINED> instruction: 0xffffffff
   10f38:	00ffffff 	ldrshteq	pc, [pc], #255	; <UNPREDICTABLE>
	...
   10f44:	ff000000 			; <UNDEFINED> instruction: 0xff000000
   10f48:	000000ff 	strdeq	r0, [r0], -pc	; <UNPREDICTABLE>
	...
   10f54:	ffffff00 			; <UNDEFINED> instruction: 0xffffff00
   10f58:	00ffffff 	ldrshteq	pc, [pc], #255	; <UNPREDICTABLE>
	...
   10f64:	ff000000 			; <UNDEFINED> instruction: 0xff000000
   10f68:	000000ff 	strdeq	r0, [r0], -pc	; <UNPREDICTABLE>
	...
   10f74:	00ffff00 	rscseq	pc, pc, r0, lsl #30
   10f78:	00ffff00 	rscseq	pc, pc, r0, lsl #30
   10f7c:	00000000 	andeq	r0, r0, r0
   10f80:	ff000000 			; <UNDEFINED> instruction: 0xff000000
   10f84:	000000ff 	strdeq	r0, [r0], -pc	; <UNPREDICTABLE>
   10f88:	ff000000 			; <UNDEFINED> instruction: 0xff000000
   10f8c:	000000ff 	strdeq	r0, [r0], -pc	; <UNPREDICTABLE>
   10f90:	00000000 	andeq	r0, r0, r0
   10f94:	ff000000 			; <UNDEFINED> instruction: 0xff000000
   10f98:	000000ff 	strdeq	r0, [r0], -pc	; <UNPREDICTABLE>
   10f9c:	00000000 	andeq	r0, r0, r0
   10fa0:	ff000000 			; <UNDEFINED> instruction: 0xff000000
   10fa4:	ffffffff 			; <UNDEFINED> instruction: 0xffffffff
   10fa8:	ffffffff 			; <UNDEFINED> instruction: 0xffffffff
   10fac:	000000ff 	strdeq	r0, [r0], -pc	; <UNPREDICTABLE>
   10fb0:	ff000000 			; <UNDEFINED> instruction: 0xff000000
   10fb4:	ffffffff 			; <UNDEFINED> instruction: 0xffffffff
   10fb8:	00ffffff 	ldrshteq	pc, [pc], #255	; <UNPREDICTABLE>
	...
   10fc4:	ff000000 			; <UNDEFINED> instruction: 0xff000000
   10fc8:	000000ff 	strdeq	r0, [r0], -pc	; <UNPREDICTABLE>
	...
   10fd4:	ffffff00 			; <UNDEFINED> instruction: 0xffffff00
   10fd8:	ffffffff 			; <UNDEFINED> instruction: 0xffffffff
   10fdc:	000000ff 	strdeq	r0, [r0], -pc	; <UNPREDICTABLE>
	...
   10ff0:	ff000000 			; <UNDEFINED> instruction: 0xff000000
   10ff4:	ffffffff 			; <UNDEFINED> instruction: 0xffffffff
   10ff8:	ffffffff 			; <UNDEFINED> instruction: 0xffffffff
   10ffc:	000000ff 	strdeq	r0, [r0], -pc	; <UNPREDICTABLE>
	...
   11410:	ff000000 			; <UNDEFINED> instruction: 0xff000000
   11414:	ffffffff 			; <UNDEFINED> instruction: 0xffffffff
   11418:	00ffffff 	ldrshteq	pc, [pc], #255	; <UNPREDICTABLE>
   1141c:	00000000 	andeq	r0, r0, r0
   11420:	ff000000 			; <UNDEFINED> instruction: 0xff000000
   11424:	000000ff 	strdeq	r0, [r0], -pc	; <UNPREDICTABLE>
	...
   11434:	ffffff00 			; <UNDEFINED> instruction: 0xffffff00
   11438:	00ffffff 	ldrshteq	pc, [pc], #255	; <UNPREDICTABLE>
	...
   11448:	ff000000 			; <UNDEFINED> instruction: 0xff000000
   1144c:	000000ff 	strdeq	r0, [r0], -pc	; <UNPREDICTABLE>
   11450:	00000000 	andeq	r0, r0, r0
   11454:	ffffff00 			; <UNDEFINED> instruction: 0xffffff00
   11458:	00ffffff 	ldrshteq	pc, [pc], #255	; <UNPREDICTABLE>
	...
   11464:	ff000000 			; <UNDEFINED> instruction: 0xff000000
   11468:	ffffffff 			; <UNDEFINED> instruction: 0xffffffff
   1146c:	000000ff 	strdeq	r0, [r0], -pc	; <UNPREDICTABLE>
   11470:	00000000 	andeq	r0, r0, r0
   11474:	ffffff00 			; <UNDEFINED> instruction: 0xffffff00
   11478:	ffffffff 			; <UNDEFINED> instruction: 0xffffffff
   1147c:	000000ff 	strdeq	r0, [r0], -pc	; <UNPREDICTABLE>
   11480:	ff000000 			; <UNDEFINED> instruction: 0xff000000
   11484:	000000ff 	strdeq	r0, [r0], -pc	; <UNPREDICTABLE>
	...
   11494:	ff000000 			; <UNDEFINED> instruction: 0xff000000
   11498:	000000ff 	strdeq	r0, [r0], -pc	; <UNPREDICTABLE>
	...
   114a4:	ff000000 			; <UNDEFINED> instruction: 0xff000000
   114a8:	000000ff 	strdeq	r0, [r0], -pc	; <UNPREDICTABLE>
   114ac:	00000000 	andeq	r0, r0, r0
   114b0:	ff000000 			; <UNDEFINED> instruction: 0xff000000
   114b4:	000000ff 	strdeq	r0, [r0], -pc	; <UNPREDICTABLE>
   114b8:	ff000000 			; <UNDEFINED> instruction: 0xff000000
   114bc:	000000ff 	strdeq	r0, [r0], -pc	; <UNPREDICTABLE>
   114c0:	00000000 	andeq	r0, r0, r0
   114c4:	ff000000 			; <UNDEFINED> instruction: 0xff000000
   114c8:	000000ff 	strdeq	r0, [r0], -pc	; <UNPREDICTABLE>
	...
   11510:	ff000000 			; <UNDEFINED> instruction: 0xff000000
   11514:	ffffffff 			; <UNDEFINED> instruction: 0xffffffff
   11518:	00ffffff 	ldrshteq	pc, [pc], #255	; <UNPREDICTABLE>
   1151c:	00000000 	andeq	r0, r0, r0
   11520:	ff000000 			; <UNDEFINED> instruction: 0xff000000
   11524:	000000ff 	strdeq	r0, [r0], -pc	; <UNPREDICTABLE>
	...
   11534:	ffffff00 			; <UNDEFINED> instruction: 0xffffff00
   11538:	00ffffff 	ldrshteq	pc, [pc], #255	; <UNPREDICTABLE>
	...
   11548:	ff000000 			; <UNDEFINED> instruction: 0xff000000
   1154c:	000000ff 	strdeq	r0, [r0], -pc	; <UNPREDICTABLE>
   11550:	00000000 	andeq	r0, r0, r0
   11554:	ffffff00 			; <UNDEFINED> instruction: 0xffffff00
   11558:	00ffffff 	ldrshteq	pc, [pc], #255	; <UNPREDICTABLE>
	...
   11564:	ff000000 			; <UNDEFINED> instruction: 0xff000000
   11568:	ffffffff 			; <UNDEFINED> instruction: 0xffffffff
   1156c:	000000ff 	strdeq	r0, [r0], -pc	; <UNPREDICTABLE>
   11570:	00000000 	andeq	r0, r0, r0
   11574:	ffffff00 			; <UNDEFINED> instruction: 0xffffff00
   11578:	ffffffff 			; <UNDEFINED> instruction: 0xffffffff
   1157c:	000000ff 	strdeq	r0, [r0], -pc	; <UNPREDICTABLE>
   11580:	ff000000 			; <UNDEFINED> instruction: 0xff000000
   11584:	000000ff 	strdeq	r0, [r0], -pc	; <UNPREDICTABLE>
	...
   11594:	ff000000 			; <UNDEFINED> instruction: 0xff000000
   11598:	000000ff 	strdeq	r0, [r0], -pc	; <UNPREDICTABLE>
	...
   115a4:	ff000000 			; <UNDEFINED> instruction: 0xff000000
   115a8:	000000ff 	strdeq	r0, [r0], -pc	; <UNPREDICTABLE>
   115ac:	00000000 	andeq	r0, r0, r0
   115b0:	ff000000 			; <UNDEFINED> instruction: 0xff000000
   115b4:	000000ff 	strdeq	r0, [r0], -pc	; <UNPREDICTABLE>
   115b8:	ff000000 			; <UNDEFINED> instruction: 0xff000000
   115bc:	000000ff 	strdeq	r0, [r0], -pc	; <UNPREDICTABLE>
   115c0:	00000000 	andeq	r0, r0, r0
   115c4:	ff000000 			; <UNDEFINED> instruction: 0xff000000
   115c8:	000000ff 	strdeq	r0, [r0], -pc	; <UNPREDICTABLE>
	...
   11618:	ff000000 			; <UNDEFINED> instruction: 0xff000000
   1161c:	000000ff 	strdeq	r0, [r0], -pc	; <UNPREDICTABLE>
   11620:	ff000000 			; <UNDEFINED> instruction: 0xff000000
   11624:	000000ff 	strdeq	r0, [r0], -pc	; <UNPREDICTABLE>
	...
   11630:	ff000000 			; <UNDEFINED> instruction: 0xff000000
   11634:	000000ff 	strdeq	r0, [r0], -pc	; <UNPREDICTABLE>
   11638:	ff000000 			; <UNDEFINED> instruction: 0xff000000
   1163c:	000000ff 	strdeq	r0, [r0], -pc	; <UNPREDICTABLE>
	...
   11648:	ff000000 			; <UNDEFINED> instruction: 0xff000000
   1164c:	000000ff 	strdeq	r0, [r0], -pc	; <UNPREDICTABLE>
   11650:	ff000000 			; <UNDEFINED> instruction: 0xff000000
   11654:	000000ff 	strdeq	r0, [r0], -pc	; <UNPREDICTABLE>
   11658:	ff000000 			; <UNDEFINED> instruction: 0xff000000
   1165c:	000000ff 	strdeq	r0, [r0], -pc	; <UNPREDICTABLE>
   11660:	00000000 	andeq	r0, r0, r0
   11664:	ff000000 			; <UNDEFINED> instruction: 0xff000000
   11668:	000000ff 	strdeq	r0, [r0], -pc	; <UNPREDICTABLE>
   1166c:	00000000 	andeq	r0, r0, r0
   11670:	ff000000 			; <UNDEFINED> instruction: 0xff000000
   11674:	000000ff 	strdeq	r0, [r0], -pc	; <UNPREDICTABLE>
   11678:	ff000000 			; <UNDEFINED> instruction: 0xff000000
   1167c:	000000ff 	strdeq	r0, [r0], -pc	; <UNPREDICTABLE>
   11680:	ff000000 			; <UNDEFINED> instruction: 0xff000000
   11684:	000000ff 	strdeq	r0, [r0], -pc	; <UNPREDICTABLE>
	...
   116b0:	ff000000 			; <UNDEFINED> instruction: 0xff000000
   116b4:	000000ff 	strdeq	r0, [r0], -pc	; <UNPREDICTABLE>
   116b8:	00ffff00 	rscseq	pc, pc, r0, lsl #30
	...
   116c4:	ff000000 			; <UNDEFINED> instruction: 0xff000000
   116c8:	000000ff 	strdeq	r0, [r0], -pc	; <UNPREDICTABLE>
   116cc:	00000000 	andeq	r0, r0, r0
   116d0:	ff000000 			; <UNDEFINED> instruction: 0xff000000
   116d4:	ffffffff 			; <UNDEFINED> instruction: 0xffffffff
   116d8:	ffffffff 			; <UNDEFINED> instruction: 0xffffffff
   116dc:	000000ff 	strdeq	r0, [r0], -pc	; <UNPREDICTABLE>
   116e0:	ff000000 			; <UNDEFINED> instruction: 0xff000000
   116e4:	ffffffff 			; <UNDEFINED> instruction: 0xffffffff
   116e8:	ffffffff 			; <UNDEFINED> instruction: 0xffffffff
   116ec:	000000ff 	strdeq	r0, [r0], -pc	; <UNPREDICTABLE>
   116f0:	00000000 	andeq	r0, r0, r0
   116f4:	ffffff00 			; <UNDEFINED> instruction: 0xffffff00
   116f8:	00ffffff 	ldrshteq	pc, [pc], #255	; <UNPREDICTABLE>
	...
   11718:	ff000000 			; <UNDEFINED> instruction: 0xff000000
   1171c:	000000ff 	strdeq	r0, [r0], -pc	; <UNPREDICTABLE>
   11720:	ff000000 			; <UNDEFINED> instruction: 0xff000000
   11724:	000000ff 	strdeq	r0, [r0], -pc	; <UNPREDICTABLE>
	...
   11730:	ff000000 			; <UNDEFINED> instruction: 0xff000000
   11734:	000000ff 	strdeq	r0, [r0], -pc	; <UNPREDICTABLE>
   11738:	ff000000 			; <UNDEFINED> instruction: 0xff000000
   1173c:	000000ff 	strdeq	r0, [r0], -pc	; <UNPREDICTABLE>
	...
   11748:	ff000000 			; <UNDEFINED> instruction: 0xff000000
   1174c:	000000ff 	strdeq	r0, [r0], -pc	; <UNPREDICTABLE>
   11750:	ff000000 			; <UNDEFINED> instruction: 0xff000000
   11754:	000000ff 	strdeq	r0, [r0], -pc	; <UNPREDICTABLE>
   11758:	ff000000 			; <UNDEFINED> instruction: 0xff000000
   1175c:	000000ff 	strdeq	r0, [r0], -pc	; <UNPREDICTABLE>
   11760:	00000000 	andeq	r0, r0, r0
   11764:	ff000000 			; <UNDEFINED> instruction: 0xff000000
   11768:	000000ff 	strdeq	r0, [r0], -pc	; <UNPREDICTABLE>
   1176c:	00000000 	andeq	r0, r0, r0
   11770:	ff000000 			; <UNDEFINED> instruction: 0xff000000
   11774:	000000ff 	strdeq	r0, [r0], -pc	; <UNPREDICTABLE>
   11778:	ff000000 			; <UNDEFINED> instruction: 0xff000000
   1177c:	000000ff 	strdeq	r0, [r0], -pc	; <UNPREDICTABLE>
   11780:	ff000000 			; <UNDEFINED> instruction: 0xff000000
   11784:	000000ff 	strdeq	r0, [r0], -pc	; <UNPREDICTABLE>
	...
   117b0:	ff000000 			; <UNDEFINED> instruction: 0xff000000
   117b4:	000000ff 	strdeq	r0, [r0], -pc	; <UNPREDICTABLE>
   117b8:	00ffff00 	rscseq	pc, pc, r0, lsl #30
	...
   117c4:	ff000000 			; <UNDEFINED> instruction: 0xff000000
   117c8:	000000ff 	strdeq	r0, [r0], -pc	; <UNPREDICTABLE>
   117cc:	00000000 	andeq	r0, r0, r0
   117d0:	ff000000 			; <UNDEFINED> instruction: 0xff000000
   117d4:	ffffffff 			; <UNDEFINED> instruction: 0xffffffff
   117d8:	ffffffff 			; <UNDEFINED> instruction: 0xffffffff
   117dc:	000000ff 	strdeq	r0, [r0], -pc	; <UNPREDICTABLE>
   117e0:	ff000000 			; <UNDEFINED> instruction: 0xff000000
   117e4:	ffffffff 			; <UNDEFINED> instruction: 0xffffffff
   117e8:	ffffffff 			; <UNDEFINED> instruction: 0xffffffff
   117ec:	000000ff 	strdeq	r0, [r0], -pc	; <UNPREDICTABLE>
   117f0:	00000000 	andeq	r0, r0, r0
   117f4:	ffffff00 			; <UNDEFINED> instruction: 0xffffff00
   117f8:	00ffffff 	ldrshteq	pc, [pc], #255	; <UNPREDICTABLE>
	...
   11810:	ff000000 			; <UNDEFINED> instruction: 0xff000000
   11814:	ffffffff 			; <UNDEFINED> instruction: 0xffffffff
   11818:	ffffffff 			; <UNDEFINED> instruction: 0xffffffff
   1181c:	000000ff 	strdeq	r0, [r0], -pc	; <UNPREDICTABLE>
   11820:	ff000000 			; <UNDEFINED> instruction: 0xff000000
   11824:	ffffffff 			; <UNDEFINED> instruction: 0xffffffff
   11828:	ffffffff 			; <UNDEFINED> instruction: 0xffffffff
   1182c:	000000ff 	strdeq	r0, [r0], -pc	; <UNPREDICTABLE>
   11830:	ff000000 			; <UNDEFINED> instruction: 0xff000000
   11834:	000000ff 	strdeq	r0, [r0], -pc	; <UNPREDICTABLE>
	...
   11840:	ff000000 			; <UNDEFINED> instruction: 0xff000000
   11844:	ffffffff 			; <UNDEFINED> instruction: 0xffffffff
   11848:	ffffffff 			; <UNDEFINED> instruction: 0xffffffff
   1184c:	000000ff 	strdeq	r0, [r0], -pc	; <UNPREDICTABLE>
   11850:	ff000000 			; <UNDEFINED> instruction: 0xff000000
   11854:	ffffffff 			; <UNDEFINED> instruction: 0xffffffff
   11858:	ffffffff 			; <UNDEFINED> instruction: 0xffffffff
   1185c:	000000ff 	strdeq	r0, [r0], -pc	; <UNPREDICTABLE>
   11860:	ff000000 			; <UNDEFINED> instruction: 0xff000000
   11864:	ffffffff 			; <UNDEFINED> instruction: 0xffffffff
   11868:	00ffffff 	ldrshteq	pc, [pc], #255	; <UNPREDICTABLE>
	...
   11874:	ffffff00 			; <UNDEFINED> instruction: 0xffffff00
   11878:	ffffffff 			; <UNDEFINED> instruction: 0xffffffff
   1187c:	000000ff 	strdeq	r0, [r0], -pc	; <UNPREDICTABLE>
   11880:	ff000000 			; <UNDEFINED> instruction: 0xff000000
   11884:	ffffffff 			; <UNDEFINED> instruction: 0xffffffff
   11888:	ffffffff 			; <UNDEFINED> instruction: 0xffffffff
   1188c:	000000ff 	strdeq	r0, [r0], -pc	; <UNPREDICTABLE>
   11890:	00000000 	andeq	r0, r0, r0
   11894:	ff000000 			; <UNDEFINED> instruction: 0xff000000
   11898:	000000ff 	strdeq	r0, [r0], -pc	; <UNPREDICTABLE>
	...
   118a4:	ff000000 			; <UNDEFINED> instruction: 0xff000000
   118a8:	000000ff 	strdeq	r0, [r0], -pc	; <UNPREDICTABLE>
   118ac:	00000000 	andeq	r0, r0, r0
   118b0:	ff000000 			; <UNDEFINED> instruction: 0xff000000
   118b4:	ffffffff 			; <UNDEFINED> instruction: 0xffffffff
   118b8:	000000ff 	strdeq	r0, [r0], -pc	; <UNPREDICTABLE>
	...
   118c4:	ff000000 			; <UNDEFINED> instruction: 0xff000000
   118c8:	000000ff 	strdeq	r0, [r0], -pc	; <UNPREDICTABLE>
   118cc:	00000000 	andeq	r0, r0, r0
   118d0:	ff000000 			; <UNDEFINED> instruction: 0xff000000
   118d4:	ff0000ff 			; <UNDEFINED> instruction: 0xff0000ff
   118d8:	ff0000ff 			; <UNDEFINED> instruction: 0xff0000ff
   118dc:	000000ff 	strdeq	r0, [r0], -pc	; <UNPREDICTABLE>
   118e0:	ff000000 			; <UNDEFINED> instruction: 0xff000000
   118e4:	000000ff 	strdeq	r0, [r0], -pc	; <UNPREDICTABLE>
   118e8:	ff000000 			; <UNDEFINED> instruction: 0xff000000
   118ec:	000000ff 	strdeq	r0, [r0], -pc	; <UNPREDICTABLE>
   118f0:	ff000000 			; <UNDEFINED> instruction: 0xff000000
   118f4:	000000ff 	strdeq	r0, [r0], -pc	; <UNPREDICTABLE>
   118f8:	ff000000 			; <UNDEFINED> instruction: 0xff000000
   118fc:	000000ff 	strdeq	r0, [r0], -pc	; <UNPREDICTABLE>
	...
   11910:	ff000000 			; <UNDEFINED> instruction: 0xff000000
   11914:	ffffffff 			; <UNDEFINED> instruction: 0xffffffff
   11918:	ffffffff 			; <UNDEFINED> instruction: 0xffffffff
   1191c:	000000ff 	strdeq	r0, [r0], -pc	; <UNPREDICTABLE>
   11920:	ff000000 			; <UNDEFINED> instruction: 0xff000000
   11924:	ffffffff 			; <UNDEFINED> instruction: 0xffffffff
   11928:	ffffffff 			; <UNDEFINED> instruction: 0xffffffff
   1192c:	000000ff 	strdeq	r0, [r0], -pc	; <UNPREDICTABLE>
   11930:	ff000000 			; <UNDEFINED> instruction: 0xff000000
   11934:	000000ff 	strdeq	r0, [r0], -pc	; <UNPREDICTABLE>
	...
   11940:	ff000000 			; <UNDEFINED> instruction: 0xff000000
   11944:	ffffffff 			; <UNDEFINED> instruction: 0xffffffff
   11948:	ffffffff 			; <UNDEFINED> instruction: 0xffffffff
   1194c:	000000ff 	strdeq	r0, [r0], -pc	; <UNPREDICTABLE>
   11950:	ff000000 			; <UNDEFINED> instruction: 0xff000000
   11954:	ffffffff 			; <UNDEFINED> instruction: 0xffffffff
   11958:	ffffffff 			; <UNDEFINED> instruction: 0xffffffff
   1195c:	000000ff 	strdeq	r0, [r0], -pc	; <UNPREDICTABLE>
   11960:	ff000000 			; <UNDEFINED> instruction: 0xff000000
   11964:	ffffffff 			; <UNDEFINED> instruction: 0xffffffff
   11968:	00ffffff 	ldrshteq	pc, [pc], #255	; <UNPREDICTABLE>
	...
   11974:	ffffff00 			; <UNDEFINED> instruction: 0xffffff00
   11978:	ffffffff 			; <UNDEFINED> instruction: 0xffffffff
   1197c:	000000ff 	strdeq	r0, [r0], -pc	; <UNPREDICTABLE>
   11980:	ff000000 			; <UNDEFINED> instruction: 0xff000000
   11984:	ffffffff 			; <UNDEFINED> instruction: 0xffffffff
   11988:	ffffffff 			; <UNDEFINED> instruction: 0xffffffff
   1198c:	000000ff 	strdeq	r0, [r0], -pc	; <UNPREDICTABLE>
   11990:	00000000 	andeq	r0, r0, r0
   11994:	ff000000 			; <UNDEFINED> instruction: 0xff000000
   11998:	000000ff 	strdeq	r0, [r0], -pc	; <UNPREDICTABLE>
	...
   119a4:	ff000000 			; <UNDEFINED> instruction: 0xff000000
   119a8:	000000ff 	strdeq	r0, [r0], -pc	; <UNPREDICTABLE>
   119ac:	00000000 	andeq	r0, r0, r0
   119b0:	ff000000 			; <UNDEFINED> instruction: 0xff000000
   119b4:	ffffffff 			; <UNDEFINED> instruction: 0xffffffff
   119b8:	000000ff 	strdeq	r0, [r0], -pc	; <UNPREDICTABLE>
	...
   119c4:	ff000000 			; <UNDEFINED> instruction: 0xff000000
   119c8:	000000ff 	strdeq	r0, [r0], -pc	; <UNPREDICTABLE>
   119cc:	00000000 	andeq	r0, r0, r0
   119d0:	ff000000 			; <UNDEFINED> instruction: 0xff000000
   119d4:	ff0000ff 			; <UNDEFINED> instruction: 0xff0000ff
   119d8:	ff0000ff 			; <UNDEFINED> instruction: 0xff0000ff
   119dc:	000000ff 	strdeq	r0, [r0], -pc	; <UNPREDICTABLE>
   119e0:	ff000000 			; <UNDEFINED> instruction: 0xff000000
   119e4:	000000ff 	strdeq	r0, [r0], -pc	; <UNPREDICTABLE>
   119e8:	ff000000 			; <UNDEFINED> instruction: 0xff000000
   119ec:	000000ff 	strdeq	r0, [r0], -pc	; <UNPREDICTABLE>
   119f0:	ff000000 			; <UNDEFINED> instruction: 0xff000000
   119f4:	000000ff 	strdeq	r0, [r0], -pc	; <UNPREDICTABLE>
   119f8:	ff000000 			; <UNDEFINED> instruction: 0xff000000
   119fc:	000000ff 	strdeq	r0, [r0], -pc	; <UNPREDICTABLE>
	...
   11a10:	ff000000 			; <UNDEFINED> instruction: 0xff000000
   11a14:	000000ff 	strdeq	r0, [r0], -pc	; <UNPREDICTABLE>
   11a18:	ff000000 			; <UNDEFINED> instruction: 0xff000000
   11a1c:	000000ff 	strdeq	r0, [r0], -pc	; <UNPREDICTABLE>
   11a20:	ff000000 			; <UNDEFINED> instruction: 0xff000000
   11a24:	000000ff 	strdeq	r0, [r0], -pc	; <UNPREDICTABLE>
   11a28:	ff000000 			; <UNDEFINED> instruction: 0xff000000
   11a2c:	000000ff 	strdeq	r0, [r0], -pc	; <UNPREDICTABLE>
   11a30:	ff000000 			; <UNDEFINED> instruction: 0xff000000
   11a34:	000000ff 	strdeq	r0, [r0], -pc	; <UNPREDICTABLE>
	...
   11a40:	ff000000 			; <UNDEFINED> instruction: 0xff000000
   11a44:	000000ff 	strdeq	r0, [r0], -pc	; <UNPREDICTABLE>
   11a48:	ff000000 			; <UNDEFINED> instruction: 0xff000000
   11a4c:	000000ff 	strdeq	r0, [r0], -pc	; <UNPREDICTABLE>
   11a50:	ff000000 			; <UNDEFINED> instruction: 0xff000000
   11a54:	000000ff 	strdeq	r0, [r0], -pc	; <UNPREDICTABLE>
	...
   11a64:	ff000000 			; <UNDEFINED> instruction: 0xff000000
   11a68:	000000ff 	strdeq	r0, [r0], -pc	; <UNPREDICTABLE>
	...
   11a78:	ff000000 			; <UNDEFINED> instruction: 0xff000000
   11a7c:	000000ff 	strdeq	r0, [r0], -pc	; <UNPREDICTABLE>
   11a80:	ff000000 			; <UNDEFINED> instruction: 0xff000000
   11a84:	000000ff 	strdeq	r0, [r0], -pc	; <UNPREDICTABLE>
   11a88:	ff000000 			; <UNDEFINED> instruction: 0xff000000
   11a8c:	000000ff 	strdeq	r0, [r0], -pc	; <UNPREDICTABLE>
   11a90:	00000000 	andeq	r0, r0, r0
   11a94:	ff000000 			; <UNDEFINED> instruction: 0xff000000
   11a98:	000000ff 	strdeq	r0, [r0], -pc	; <UNPREDICTABLE>
	...
   11aa4:	ff000000 			; <UNDEFINED> instruction: 0xff000000
   11aa8:	000000ff 	strdeq	r0, [r0], -pc	; <UNPREDICTABLE>
   11aac:	00000000 	andeq	r0, r0, r0
   11ab0:	ff000000 			; <UNDEFINED> instruction: 0xff000000
   11ab4:	ff0000ff 			; <UNDEFINED> instruction: 0xff0000ff
   11ab8:	00ffffff 	ldrshteq	pc, [pc], #255	; <UNPREDICTABLE>
	...
   11ac4:	ff000000 			; <UNDEFINED> instruction: 0xff000000
   11ac8:	000000ff 	strdeq	r0, [r0], -pc	; <UNPREDICTABLE>
   11acc:	00000000 	andeq	r0, r0, r0
   11ad0:	ff000000 			; <UNDEFINED> instruction: 0xff000000
   11ad4:	ff0000ff 			; <UNDEFINED> instruction: 0xff0000ff
   11ad8:	ff0000ff 			; <UNDEFINED> instruction: 0xff0000ff
   11adc:	000000ff 	strdeq	r0, [r0], -pc	; <UNPREDICTABLE>
   11ae0:	ff000000 			; <UNDEFINED> instruction: 0xff000000
   11ae4:	000000ff 	strdeq	r0, [r0], -pc	; <UNPREDICTABLE>
   11ae8:	ff000000 			; <UNDEFINED> instruction: 0xff000000
   11aec:	000000ff 	strdeq	r0, [r0], -pc	; <UNPREDICTABLE>
   11af0:	ff000000 			; <UNDEFINED> instruction: 0xff000000
   11af4:	000000ff 	strdeq	r0, [r0], -pc	; <UNPREDICTABLE>
   11af8:	ff000000 			; <UNDEFINED> instruction: 0xff000000
   11afc:	000000ff 	strdeq	r0, [r0], -pc	; <UNPREDICTABLE>
	...
   11b10:	ff000000 			; <UNDEFINED> instruction: 0xff000000
   11b14:	000000ff 	strdeq	r0, [r0], -pc	; <UNPREDICTABLE>
   11b18:	ff000000 			; <UNDEFINED> instruction: 0xff000000
   11b1c:	000000ff 	strdeq	r0, [r0], -pc	; <UNPREDICTABLE>
   11b20:	ff000000 			; <UNDEFINED> instruction: 0xff000000
   11b24:	000000ff 	strdeq	r0, [r0], -pc	; <UNPREDICTABLE>
   11b28:	ff000000 			; <UNDEFINED> instruction: 0xff000000
   11b2c:	000000ff 	strdeq	r0, [r0], -pc	; <UNPREDICTABLE>
   11b30:	ff000000 			; <UNDEFINED> instruction: 0xff000000
   11b34:	000000ff 	strdeq	r0, [r0], -pc	; <UNPREDICTABLE>
	...
   11b40:	ff000000 			; <UNDEFINED> instruction: 0xff000000
   11b44:	000000ff 	strdeq	r0, [r0], -pc	; <UNPREDICTABLE>
   11b48:	ff000000 			; <UNDEFINED> instruction: 0xff000000
   11b4c:	000000ff 	strdeq	r0, [r0], -pc	; <UNPREDICTABLE>
   11b50:	ff000000 			; <UNDEFINED> instruction: 0xff000000
   11b54:	000000ff 	strdeq	r0, [r0], -pc	; <UNPREDICTABLE>
	...
   11b64:	ff000000 			; <UNDEFINED> instruction: 0xff000000
   11b68:	000000ff 	strdeq	r0, [r0], -pc	; <UNPREDICTABLE>
	...
   11b78:	ff000000 			; <UNDEFINED> instruction: 0xff000000
   11b7c:	000000ff 	strdeq	r0, [r0], -pc	; <UNPREDICTABLE>
   11b80:	ff000000 			; <UNDEFINED> instruction: 0xff000000
   11b84:	000000ff 	strdeq	r0, [r0], -pc	; <UNPREDICTABLE>
   11b88:	ff000000 			; <UNDEFINED> instruction: 0xff000000
   11b8c:	000000ff 	strdeq	r0, [r0], -pc	; <UNPREDICTABLE>
   11b90:	00000000 	andeq	r0, r0, r0
   11b94:	ff000000 			; <UNDEFINED> instruction: 0xff000000
   11b98:	000000ff 	strdeq	r0, [r0], -pc	; <UNPREDICTABLE>
	...
   11ba4:	ff000000 			; <UNDEFINED> instruction: 0xff000000
   11ba8:	000000ff 	strdeq	r0, [r0], -pc	; <UNPREDICTABLE>
   11bac:	00000000 	andeq	r0, r0, r0
   11bb0:	ff000000 			; <UNDEFINED> instruction: 0xff000000
   11bb4:	ff0000ff 			; <UNDEFINED> instruction: 0xff0000ff
   11bb8:	00ffffff 	ldrshteq	pc, [pc], #255	; <UNPREDICTABLE>
	...
   11bc4:	ff000000 			; <UNDEFINED> instruction: 0xff000000
   11bc8:	000000ff 	strdeq	r0, [r0], -pc	; <UNPREDICTABLE>
   11bcc:	00000000 	andeq	r0, r0, r0
   11bd0:	ff000000 			; <UNDEFINED> instruction: 0xff000000
   11bd4:	ff0000ff 			; <UNDEFINED> instruction: 0xff0000ff
   11bd8:	ff0000ff 			; <UNDEFINED> instruction: 0xff0000ff
   11bdc:	000000ff 	strdeq	r0, [r0], -pc	; <UNPREDICTABLE>
   11be0:	ff000000 			; <UNDEFINED> instruction: 0xff000000
   11be4:	000000ff 	strdeq	r0, [r0], -pc	; <UNPREDICTABLE>
   11be8:	ff000000 			; <UNDEFINED> instruction: 0xff000000
   11bec:	000000ff 	strdeq	r0, [r0], -pc	; <UNPREDICTABLE>
   11bf0:	ff000000 			; <UNDEFINED> instruction: 0xff000000
   11bf4:	000000ff 	strdeq	r0, [r0], -pc	; <UNPREDICTABLE>
   11bf8:	ff000000 			; <UNDEFINED> instruction: 0xff000000
   11bfc:	000000ff 	strdeq	r0, [r0], -pc	; <UNPREDICTABLE>
	...
   11c10:	ff000000 			; <UNDEFINED> instruction: 0xff000000
   11c14:	000000ff 	strdeq	r0, [r0], -pc	; <UNPREDICTABLE>
   11c18:	ff000000 			; <UNDEFINED> instruction: 0xff000000
   11c1c:	000000ff 	strdeq	r0, [r0], -pc	; <UNPREDICTABLE>
   11c20:	ff000000 			; <UNDEFINED> instruction: 0xff000000
   11c24:	000000ff 	strdeq	r0, [r0], -pc	; <UNPREDICTABLE>
   11c28:	ff000000 			; <UNDEFINED> instruction: 0xff000000
   11c2c:	000000ff 	strdeq	r0, [r0], -pc	; <UNPREDICTABLE>
   11c30:	ff000000 			; <UNDEFINED> instruction: 0xff000000
   11c34:	000000ff 	strdeq	r0, [r0], -pc	; <UNPREDICTABLE>
   11c38:	ff000000 			; <UNDEFINED> instruction: 0xff000000
   11c3c:	000000ff 	strdeq	r0, [r0], -pc	; <UNPREDICTABLE>
   11c40:	ff000000 			; <UNDEFINED> instruction: 0xff000000
   11c44:	000000ff 	strdeq	r0, [r0], -pc	; <UNPREDICTABLE>
   11c48:	ff000000 			; <UNDEFINED> instruction: 0xff000000
   11c4c:	000000ff 	strdeq	r0, [r0], -pc	; <UNPREDICTABLE>
   11c50:	ff000000 			; <UNDEFINED> instruction: 0xff000000
   11c54:	000000ff 	strdeq	r0, [r0], -pc	; <UNPREDICTABLE>
   11c58:	ff000000 			; <UNDEFINED> instruction: 0xff000000
   11c5c:	000000ff 	strdeq	r0, [r0], -pc	; <UNPREDICTABLE>
   11c60:	00000000 	andeq	r0, r0, r0
   11c64:	ff000000 			; <UNDEFINED> instruction: 0xff000000
   11c68:	000000ff 	strdeq	r0, [r0], -pc	; <UNPREDICTABLE>
   11c6c:	00000000 	andeq	r0, r0, r0
   11c70:	ff000000 			; <UNDEFINED> instruction: 0xff000000
   11c74:	000000ff 	strdeq	r0, [r0], -pc	; <UNPREDICTABLE>
   11c78:	ff000000 			; <UNDEFINED> instruction: 0xff000000
   11c7c:	000000ff 	strdeq	r0, [r0], -pc	; <UNPREDICTABLE>
   11c80:	ff000000 			; <UNDEFINED> instruction: 0xff000000
   11c84:	000000ff 	strdeq	r0, [r0], -pc	; <UNPREDICTABLE>
   11c88:	ff000000 			; <UNDEFINED> instruction: 0xff000000
   11c8c:	000000ff 	strdeq	r0, [r0], -pc	; <UNPREDICTABLE>
   11c90:	00000000 	andeq	r0, r0, r0
   11c94:	ff000000 			; <UNDEFINED> instruction: 0xff000000
   11c98:	000000ff 	strdeq	r0, [r0], -pc	; <UNPREDICTABLE>
   11c9c:	00000000 	andeq	r0, r0, r0
   11ca0:	ff000000 			; <UNDEFINED> instruction: 0xff000000
   11ca4:	ff0000ff 			; <UNDEFINED> instruction: 0xff0000ff
   11ca8:	000000ff 	strdeq	r0, [r0], -pc	; <UNPREDICTABLE>
   11cac:	00000000 	andeq	r0, r0, r0
   11cb0:	ff000000 			; <UNDEFINED> instruction: 0xff000000
   11cb4:	000000ff 	strdeq	r0, [r0], -pc	; <UNPREDICTABLE>
   11cb8:	00ffff00 	rscseq	pc, pc, r0, lsl #30
	...
   11cc4:	ff000000 			; <UNDEFINED> instruction: 0xff000000
   11cc8:	000000ff 	strdeq	r0, [r0], -pc	; <UNPREDICTABLE>
   11ccc:	00000000 	andeq	r0, r0, r0
   11cd0:	ff000000 			; <UNDEFINED> instruction: 0xff000000
   11cd4:	ff0000ff 			; <UNDEFINED> instruction: 0xff0000ff
   11cd8:	ff0000ff 			; <UNDEFINED> instruction: 0xff0000ff
   11cdc:	000000ff 	strdeq	r0, [r0], -pc	; <UNPREDICTABLE>
   11ce0:	ff000000 			; <UNDEFINED> instruction: 0xff000000
   11ce4:	000000ff 	strdeq	r0, [r0], -pc	; <UNPREDICTABLE>
   11ce8:	ff000000 			; <UNDEFINED> instruction: 0xff000000
   11cec:	000000ff 	strdeq	r0, [r0], -pc	; <UNPREDICTABLE>
   11cf0:	ff000000 			; <UNDEFINED> instruction: 0xff000000
   11cf4:	000000ff 	strdeq	r0, [r0], -pc	; <UNPREDICTABLE>
   11cf8:	ff000000 			; <UNDEFINED> instruction: 0xff000000
   11cfc:	000000ff 	strdeq	r0, [r0], -pc	; <UNPREDICTABLE>
	...
   11d10:	ff000000 			; <UNDEFINED> instruction: 0xff000000
   11d14:	000000ff 	strdeq	r0, [r0], -pc	; <UNPREDICTABLE>
   11d18:	ff000000 			; <UNDEFINED> instruction: 0xff000000
   11d1c:	000000ff 	strdeq	r0, [r0], -pc	; <UNPREDICTABLE>
   11d20:	ff000000 			; <UNDEFINED> instruction: 0xff000000
   11d24:	000000ff 	strdeq	r0, [r0], -pc	; <UNPREDICTABLE>
   11d28:	ff000000 			; <UNDEFINED> instruction: 0xff000000
   11d2c:	000000ff 	strdeq	r0, [r0], -pc	; <UNPREDICTABLE>
   11d30:	ff000000 			; <UNDEFINED> instruction: 0xff000000
   11d34:	000000ff 	strdeq	r0, [r0], -pc	; <UNPREDICTABLE>
   11d38:	ff000000 			; <UNDEFINED> instruction: 0xff000000
   11d3c:	000000ff 	strdeq	r0, [r0], -pc	; <UNPREDICTABLE>
   11d40:	ff000000 			; <UNDEFINED> instruction: 0xff000000
   11d44:	000000ff 	strdeq	r0, [r0], -pc	; <UNPREDICTABLE>
   11d48:	ff000000 			; <UNDEFINED> instruction: 0xff000000
   11d4c:	000000ff 	strdeq	r0, [r0], -pc	; <UNPREDICTABLE>
   11d50:	ff000000 			; <UNDEFINED> instruction: 0xff000000
   11d54:	000000ff 	strdeq	r0, [r0], -pc	; <UNPREDICTABLE>
   11d58:	ff000000 			; <UNDEFINED> instruction: 0xff000000
   11d5c:	000000ff 	strdeq	r0, [r0], -pc	; <UNPREDICTABLE>
   11d60:	00000000 	andeq	r0, r0, r0
   11d64:	ff000000 			; <UNDEFINED> instruction: 0xff000000
   11d68:	000000ff 	strdeq	r0, [r0], -pc	; <UNPREDICTABLE>
   11d6c:	00000000 	andeq	r0, r0, r0
   11d70:	ff000000 			; <UNDEFINED> instruction: 0xff000000
   11d74:	000000ff 	strdeq	r0, [r0], -pc	; <UNPREDICTABLE>
   11d78:	ff000000 			; <UNDEFINED> instruction: 0xff000000
   11d7c:	000000ff 	strdeq	r0, [r0], -pc	; <UNPREDICTABLE>
   11d80:	ff000000 			; <UNDEFINED> instruction: 0xff000000
   11d84:	000000ff 	strdeq	r0, [r0], -pc	; <UNPREDICTABLE>
   11d88:	ff000000 			; <UNDEFINED> instruction: 0xff000000
   11d8c:	000000ff 	strdeq	r0, [r0], -pc	; <UNPREDICTABLE>
   11d90:	00000000 	andeq	r0, r0, r0
   11d94:	ff000000 			; <UNDEFINED> instruction: 0xff000000
   11d98:	000000ff 	strdeq	r0, [r0], -pc	; <UNPREDICTABLE>
   11d9c:	00000000 	andeq	r0, r0, r0
   11da0:	ff000000 			; <UNDEFINED> instruction: 0xff000000
   11da4:	ff0000ff 			; <UNDEFINED> instruction: 0xff0000ff
   11da8:	000000ff 	strdeq	r0, [r0], -pc	; <UNPREDICTABLE>
   11dac:	00000000 	andeq	r0, r0, r0
   11db0:	ff000000 			; <UNDEFINED> instruction: 0xff000000
   11db4:	000000ff 	strdeq	r0, [r0], -pc	; <UNPREDICTABLE>
   11db8:	00ffff00 	rscseq	pc, pc, r0, lsl #30
	...
   11dc4:	ff000000 			; <UNDEFINED> instruction: 0xff000000
   11dc8:	000000ff 	strdeq	r0, [r0], -pc	; <UNPREDICTABLE>
   11dcc:	00000000 	andeq	r0, r0, r0
   11dd0:	ff000000 			; <UNDEFINED> instruction: 0xff000000
   11dd4:	ff0000ff 			; <UNDEFINED> instruction: 0xff0000ff
   11dd8:	ff0000ff 			; <UNDEFINED> instruction: 0xff0000ff
   11ddc:	000000ff 	strdeq	r0, [r0], -pc	; <UNPREDICTABLE>
   11de0:	ff000000 			; <UNDEFINED> instruction: 0xff000000
   11de4:	000000ff 	strdeq	r0, [r0], -pc	; <UNPREDICTABLE>
   11de8:	ff000000 			; <UNDEFINED> instruction: 0xff000000
   11dec:	000000ff 	strdeq	r0, [r0], -pc	; <UNPREDICTABLE>
   11df0:	ff000000 			; <UNDEFINED> instruction: 0xff000000
   11df4:	000000ff 	strdeq	r0, [r0], -pc	; <UNPREDICTABLE>
   11df8:	ff000000 			; <UNDEFINED> instruction: 0xff000000
   11dfc:	000000ff 	strdeq	r0, [r0], -pc	; <UNPREDICTABLE>
	...
   11e10:	ff000000 			; <UNDEFINED> instruction: 0xff000000
   11e14:	ffffffff 			; <UNDEFINED> instruction: 0xffffffff
   11e18:	ffffffff 			; <UNDEFINED> instruction: 0xffffffff
   11e1c:	000000ff 	strdeq	r0, [r0], -pc	; <UNPREDICTABLE>
   11e20:	ff000000 			; <UNDEFINED> instruction: 0xff000000
   11e24:	ffffffff 			; <UNDEFINED> instruction: 0xffffffff
   11e28:	ffffffff 			; <UNDEFINED> instruction: 0xffffffff
   11e2c:	000000ff 	strdeq	r0, [r0], -pc	; <UNPREDICTABLE>
   11e30:	00000000 	andeq	r0, r0, r0
   11e34:	ffffff00 			; <UNDEFINED> instruction: 0xffffff00
   11e38:	00ffffff 	ldrshteq	pc, [pc], #255	; <UNPREDICTABLE>
   11e3c:	00000000 	andeq	r0, r0, r0
   11e40:	ff000000 			; <UNDEFINED> instruction: 0xff000000
   11e44:	ffffffff 			; <UNDEFINED> instruction: 0xffffffff
   11e48:	ffffffff 			; <UNDEFINED> instruction: 0xffffffff
   11e4c:	000000ff 	strdeq	r0, [r0], -pc	; <UNPREDICTABLE>
   11e50:	00000000 	andeq	r0, r0, r0
   11e54:	ffffff00 			; <UNDEFINED> instruction: 0xffffff00
   11e58:	00ffffff 	ldrshteq	pc, [pc], #255	; <UNPREDICTABLE>
	...
   11e64:	ff000000 			; <UNDEFINED> instruction: 0xff000000
   11e68:	000000ff 	strdeq	r0, [r0], -pc	; <UNPREDICTABLE>
   11e6c:	00000000 	andeq	r0, r0, r0
   11e70:	ff000000 			; <UNDEFINED> instruction: 0xff000000
   11e74:	ffffffff 			; <UNDEFINED> instruction: 0xffffffff
   11e78:	00ffffff 	ldrshteq	pc, [pc], #255	; <UNPREDICTABLE>
   11e7c:	00000000 	andeq	r0, r0, r0
   11e80:	ff000000 			; <UNDEFINED> instruction: 0xff000000
   11e84:	000000ff 	strdeq	r0, [r0], -pc	; <UNPREDICTABLE>
   11e88:	ff000000 			; <UNDEFINED> instruction: 0xff000000
   11e8c:	000000ff 	strdeq	r0, [r0], -pc	; <UNPREDICTABLE>
   11e90:	00000000 	andeq	r0, r0, r0
   11e94:	ff000000 			; <UNDEFINED> instruction: 0xff000000
   11e98:	000000ff 	strdeq	r0, [r0], -pc	; <UNPREDICTABLE>
   11e9c:	00000000 	andeq	r0, r0, r0
   11ea0:	ff000000 			; <UNDEFINED> instruction: 0xff000000
   11ea4:	ffffffff 			; <UNDEFINED> instruction: 0xffffffff
   11ea8:	000000ff 	strdeq	r0, [r0], -pc	; <UNPREDICTABLE>
   11eac:	00000000 	andeq	r0, r0, r0
   11eb0:	ff000000 			; <UNDEFINED> instruction: 0xff000000
   11eb4:	000000ff 	strdeq	r0, [r0], -pc	; <UNPREDICTABLE>
   11eb8:	ff000000 			; <UNDEFINED> instruction: 0xff000000
   11ebc:	000000ff 	strdeq	r0, [r0], -pc	; <UNPREDICTABLE>
   11ec0:	00000000 	andeq	r0, r0, r0
   11ec4:	ff000000 			; <UNDEFINED> instruction: 0xff000000
   11ec8:	000000ff 	strdeq	r0, [r0], -pc	; <UNPREDICTABLE>
   11ecc:	00000000 	andeq	r0, r0, r0
   11ed0:	ff000000 			; <UNDEFINED> instruction: 0xff000000
   11ed4:	ff0000ff 			; <UNDEFINED> instruction: 0xff0000ff
   11ed8:	ff0000ff 			; <UNDEFINED> instruction: 0xff0000ff
   11edc:	000000ff 	strdeq	r0, [r0], -pc	; <UNPREDICTABLE>
   11ee0:	ff000000 			; <UNDEFINED> instruction: 0xff000000
   11ee4:	000000ff 	strdeq	r0, [r0], -pc	; <UNPREDICTABLE>
   11ee8:	ff000000 			; <UNDEFINED> instruction: 0xff000000
   11eec:	000000ff 	strdeq	r0, [r0], -pc	; <UNPREDICTABLE>
   11ef0:	00000000 	andeq	r0, r0, r0
   11ef4:	ffffff00 			; <UNDEFINED> instruction: 0xffffff00
   11ef8:	00ffffff 	ldrshteq	pc, [pc], #255	; <UNPREDICTABLE>
	...
   11f10:	ff000000 			; <UNDEFINED> instruction: 0xff000000
   11f14:	ffffffff 			; <UNDEFINED> instruction: 0xffffffff
   11f18:	ffffffff 			; <UNDEFINED> instruction: 0xffffffff
   11f1c:	000000ff 	strdeq	r0, [r0], -pc	; <UNPREDICTABLE>
   11f20:	ff000000 			; <UNDEFINED> instruction: 0xff000000
   11f24:	ffffffff 			; <UNDEFINED> instruction: 0xffffffff
   11f28:	ffffffff 			; <UNDEFINED> instruction: 0xffffffff
   11f2c:	000000ff 	strdeq	r0, [r0], -pc	; <UNPREDICTABLE>
   11f30:	00000000 	andeq	r0, r0, r0
   11f34:	ffffff00 			; <UNDEFINED> instruction: 0xffffff00
   11f38:	00ffffff 	ldrshteq	pc, [pc], #255	; <UNPREDICTABLE>
   11f3c:	00000000 	andeq	r0, r0, r0
   11f40:	ff000000 			; <UNDEFINED> instruction: 0xff000000
   11f44:	ffffffff 			; <UNDEFINED> instruction: 0xffffffff
   11f48:	ffffffff 			; <UNDEFINED> instruction: 0xffffffff
   11f4c:	000000ff 	strdeq	r0, [r0], -pc	; <UNPREDICTABLE>
   11f50:	00000000 	andeq	r0, r0, r0
   11f54:	ffffff00 			; <UNDEFINED> instruction: 0xffffff00
   11f58:	00ffffff 	ldrshteq	pc, [pc], #255	; <UNPREDICTABLE>
	...
   11f64:	ff000000 			; <UNDEFINED> instruction: 0xff000000
   11f68:	000000ff 	strdeq	r0, [r0], -pc	; <UNPREDICTABLE>
   11f6c:	00000000 	andeq	r0, r0, r0
   11f70:	ff000000 			; <UNDEFINED> instruction: 0xff000000
   11f74:	ffffffff 			; <UNDEFINED> instruction: 0xffffffff
   11f78:	00ffffff 	ldrshteq	pc, [pc], #255	; <UNPREDICTABLE>
   11f7c:	00000000 	andeq	r0, r0, r0
   11f80:	ff000000 			; <UNDEFINED> instruction: 0xff000000
   11f84:	000000ff 	strdeq	r0, [r0], -pc	; <UNPREDICTABLE>
   11f88:	ff000000 			; <UNDEFINED> instruction: 0xff000000
   11f8c:	000000ff 	strdeq	r0, [r0], -pc	; <UNPREDICTABLE>
   11f90:	00000000 	andeq	r0, r0, r0
   11f94:	ff000000 			; <UNDEFINED> instruction: 0xff000000
   11f98:	000000ff 	strdeq	r0, [r0], -pc	; <UNPREDICTABLE>
   11f9c:	00000000 	andeq	r0, r0, r0
   11fa0:	ff000000 			; <UNDEFINED> instruction: 0xff000000
   11fa4:	ffffffff 			; <UNDEFINED> instruction: 0xffffffff
   11fa8:	000000ff 	strdeq	r0, [r0], -pc	; <UNPREDICTABLE>
   11fac:	00000000 	andeq	r0, r0, r0
   11fb0:	ff000000 			; <UNDEFINED> instruction: 0xff000000
   11fb4:	000000ff 	strdeq	r0, [r0], -pc	; <UNPREDICTABLE>
   11fb8:	ff000000 			; <UNDEFINED> instruction: 0xff000000
   11fbc:	000000ff 	strdeq	r0, [r0], -pc	; <UNPREDICTABLE>
   11fc0:	00000000 	andeq	r0, r0, r0
   11fc4:	ff000000 			; <UNDEFINED> instruction: 0xff000000
   11fc8:	000000ff 	strdeq	r0, [r0], -pc	; <UNPREDICTABLE>
   11fcc:	00000000 	andeq	r0, r0, r0
   11fd0:	ff000000 			; <UNDEFINED> instruction: 0xff000000
   11fd4:	ff0000ff 			; <UNDEFINED> instruction: 0xff0000ff
   11fd8:	ff0000ff 			; <UNDEFINED> instruction: 0xff0000ff
   11fdc:	000000ff 	strdeq	r0, [r0], -pc	; <UNPREDICTABLE>
   11fe0:	ff000000 			; <UNDEFINED> instruction: 0xff000000
   11fe4:	000000ff 	strdeq	r0, [r0], -pc	; <UNPREDICTABLE>
   11fe8:	ff000000 			; <UNDEFINED> instruction: 0xff000000
   11fec:	000000ff 	strdeq	r0, [r0], -pc	; <UNPREDICTABLE>
   11ff0:	00000000 	andeq	r0, r0, r0
   11ff4:	ffffff00 			; <UNDEFINED> instruction: 0xffffff00
   11ff8:	00ffffff 	ldrshteq	pc, [pc], #255	; <UNPREDICTABLE>
	...
   120b4:	ff000000 			; <UNDEFINED> instruction: 0xff000000
   120b8:	00ffffff 	ldrshteq	pc, [pc], #255	; <UNPREDICTABLE>
	...
   120c4:	ff000000 			; <UNDEFINED> instruction: 0xff000000
   120c8:	000000ff 	strdeq	r0, [r0], -pc	; <UNPREDICTABLE>
	...
   120d4:	ffffff00 			; <UNDEFINED> instruction: 0xffffff00
   120d8:	000000ff 	strdeq	r0, [r0], -pc	; <UNPREDICTABLE>
   120dc:	00000000 	andeq	r0, r0, r0
   120e0:	ff000000 			; <UNDEFINED> instruction: 0xff000000
   120e4:	00ffffff 	ldrshteq	pc, [pc], #255	; <UNPREDICTABLE>
   120e8:	ff000000 			; <UNDEFINED> instruction: 0xff000000
   120ec:	000000ff 	strdeq	r0, [r0], -pc	; <UNPREDICTABLE>
	...
   121b4:	ff000000 			; <UNDEFINED> instruction: 0xff000000
   121b8:	00ffffff 	ldrshteq	pc, [pc], #255	; <UNPREDICTABLE>
	...
   121c4:	ff000000 			; <UNDEFINED> instruction: 0xff000000
   121c8:	000000ff 	strdeq	r0, [r0], -pc	; <UNPREDICTABLE>
	...
   121d4:	ffffff00 			; <UNDEFINED> instruction: 0xffffff00
   121d8:	000000ff 	strdeq	r0, [r0], -pc	; <UNPREDICTABLE>
   121dc:	00000000 	andeq	r0, r0, r0
   121e0:	ff000000 			; <UNDEFINED> instruction: 0xff000000
   121e4:	00ffffff 	ldrshteq	pc, [pc], #255	; <UNPREDICTABLE>
   121e8:	ff000000 			; <UNDEFINED> instruction: 0xff000000
   121ec:	000000ff 	strdeq	r0, [r0], -pc	; <UNPREDICTABLE>
	...
   122b4:	00ffff00 	rscseq	pc, pc, r0, lsl #30
	...
   122c4:	ff000000 			; <UNDEFINED> instruction: 0xff000000
   122c8:	000000ff 	strdeq	r0, [r0], -pc	; <UNPREDICTABLE>
	...
   122d8:	00ffff00 	rscseq	pc, pc, r0, lsl #30
   122dc:	00000000 	andeq	r0, r0, r0
   122e0:	00ffff00 	rscseq	pc, pc, r0, lsl #30
   122e4:	ff000000 			; <UNDEFINED> instruction: 0xff000000
   122e8:	00ffffff 	ldrshteq	pc, [pc], #255	; <UNPREDICTABLE>
	...
   123b4:	00ffff00 	rscseq	pc, pc, r0, lsl #30
	...
   123c4:	ff000000 			; <UNDEFINED> instruction: 0xff000000
   123c8:	000000ff 	strdeq	r0, [r0], -pc	; <UNPREDICTABLE>
	...
   123d8:	00ffff00 	rscseq	pc, pc, r0, lsl #30
   123dc:	00000000 	andeq	r0, r0, r0
   123e0:	00ffff00 	rscseq	pc, pc, r0, lsl #30
   123e4:	ff000000 			; <UNDEFINED> instruction: 0xff000000
   123e8:	00ffffff 	ldrshteq	pc, [pc], #255	; <UNPREDICTABLE>
	...
   12400:	ff000000 			; <UNDEFINED> instruction: 0xff000000
   12404:	ff0000ff 			; <UNDEFINED> instruction: 0xff0000ff
   12408:	00ffffff 	ldrshteq	pc, [pc], #255	; <UNPREDICTABLE>
	...
   12414:	ffffff00 			; <UNDEFINED> instruction: 0xffffff00
   12418:	ff0000ff 			; <UNDEFINED> instruction: 0xff0000ff
   1241c:	000000ff 	strdeq	r0, [r0], -pc	; <UNPREDICTABLE>
   12420:	ff000000 			; <UNDEFINED> instruction: 0xff000000
   12424:	ff0000ff 			; <UNDEFINED> instruction: 0xff0000ff
   12428:	00ffffff 	ldrshteq	pc, [pc], #255	; <UNPREDICTABLE>
	...
   12434:	ffffff00 			; <UNDEFINED> instruction: 0xffffff00
   12438:	00ffffff 	ldrshteq	pc, [pc], #255	; <UNPREDICTABLE>
	...
   12444:	ff000000 			; <UNDEFINED> instruction: 0xff000000
   12448:	000000ff 	strdeq	r0, [r0], -pc	; <UNPREDICTABLE>
	...
   124b4:	00ffff00 	rscseq	pc, pc, r0, lsl #30
	...
   124c4:	ff000000 			; <UNDEFINED> instruction: 0xff000000
   124c8:	000000ff 	strdeq	r0, [r0], -pc	; <UNPREDICTABLE>
	...
   124d8:	00ffff00 	rscseq	pc, pc, r0, lsl #30
	...
   12500:	ff000000 			; <UNDEFINED> instruction: 0xff000000
   12504:	ff0000ff 			; <UNDEFINED> instruction: 0xff0000ff
   12508:	00ffffff 	ldrshteq	pc, [pc], #255	; <UNPREDICTABLE>
	...
   12514:	ffffff00 			; <UNDEFINED> instruction: 0xffffff00
   12518:	ff0000ff 			; <UNDEFINED> instruction: 0xff0000ff
   1251c:	000000ff 	strdeq	r0, [r0], -pc	; <UNPREDICTABLE>
   12520:	ff000000 			; <UNDEFINED> instruction: 0xff000000
   12524:	ff0000ff 			; <UNDEFINED> instruction: 0xff0000ff
   12528:	00ffffff 	ldrshteq	pc, [pc], #255	; <UNPREDICTABLE>
	...
   12534:	ffffff00 			; <UNDEFINED> instruction: 0xffffff00
   12538:	00ffffff 	ldrshteq	pc, [pc], #255	; <UNPREDICTABLE>
	...
   12544:	ff000000 			; <UNDEFINED> instruction: 0xff000000
   12548:	000000ff 	strdeq	r0, [r0], -pc	; <UNPREDICTABLE>
	...
   125b4:	00ffff00 	rscseq	pc, pc, r0, lsl #30
	...
   125c4:	ff000000 			; <UNDEFINED> instruction: 0xff000000
   125c8:	000000ff 	strdeq	r0, [r0], -pc	; <UNPREDICTABLE>
	...
   125d8:	00ffff00 	rscseq	pc, pc, r0, lsl #30
	...
   12600:	ff000000 			; <UNDEFINED> instruction: 0xff000000
   12604:	00ffffff 	ldrshteq	pc, [pc], #255	; <UNPREDICTABLE>
   12608:	ff000000 			; <UNDEFINED> instruction: 0xff000000
   1260c:	000000ff 	strdeq	r0, [r0], -pc	; <UNPREDICTABLE>
   12610:	ff000000 			; <UNDEFINED> instruction: 0xff000000
   12614:	000000ff 	strdeq	r0, [r0], -pc	; <UNPREDICTABLE>
   12618:	ffffff00 			; <UNDEFINED> instruction: 0xffffff00
   1261c:	000000ff 	strdeq	r0, [r0], -pc	; <UNPREDICTABLE>
   12620:	ff000000 			; <UNDEFINED> instruction: 0xff000000
   12624:	00ffffff 	ldrshteq	pc, [pc], #255	; <UNPREDICTABLE>
   12628:	ff000000 			; <UNDEFINED> instruction: 0xff000000
   1262c:	000000ff 	strdeq	r0, [r0], -pc	; <UNPREDICTABLE>
   12630:	ff000000 			; <UNDEFINED> instruction: 0xff000000
   12634:	000000ff 	strdeq	r0, [r0], -pc	; <UNPREDICTABLE>
   12638:	ff000000 			; <UNDEFINED> instruction: 0xff000000
   1263c:	000000ff 	strdeq	r0, [r0], -pc	; <UNPREDICTABLE>
   12640:	ff000000 			; <UNDEFINED> instruction: 0xff000000
   12644:	ffffffff 			; <UNDEFINED> instruction: 0xffffffff
   12648:	ffffffff 			; <UNDEFINED> instruction: 0xffffffff
   1264c:	000000ff 	strdeq	r0, [r0], -pc	; <UNPREDICTABLE>
   12650:	ff000000 			; <UNDEFINED> instruction: 0xff000000
   12654:	000000ff 	strdeq	r0, [r0], -pc	; <UNPREDICTABLE>
   12658:	ff000000 			; <UNDEFINED> instruction: 0xff000000
   1265c:	000000ff 	strdeq	r0, [r0], -pc	; <UNPREDICTABLE>
   12660:	ff000000 			; <UNDEFINED> instruction: 0xff000000
   12664:	000000ff 	strdeq	r0, [r0], -pc	; <UNPREDICTABLE>
   12668:	ff000000 			; <UNDEFINED> instruction: 0xff000000
   1266c:	000000ff 	strdeq	r0, [r0], -pc	; <UNPREDICTABLE>
   12670:	ff000000 			; <UNDEFINED> instruction: 0xff000000
   12674:	ff0000ff 			; <UNDEFINED> instruction: 0xff0000ff
   12678:	ff0000ff 			; <UNDEFINED> instruction: 0xff0000ff
   1267c:	000000ff 	strdeq	r0, [r0], -pc	; <UNPREDICTABLE>
   12680:	ff000000 			; <UNDEFINED> instruction: 0xff000000
   12684:	000000ff 	strdeq	r0, [r0], -pc	; <UNPREDICTABLE>
   12688:	ff000000 			; <UNDEFINED> instruction: 0xff000000
   1268c:	000000ff 	strdeq	r0, [r0], -pc	; <UNPREDICTABLE>
   12690:	ff000000 			; <UNDEFINED> instruction: 0xff000000
   12694:	000000ff 	strdeq	r0, [r0], -pc	; <UNPREDICTABLE>
   12698:	ff000000 			; <UNDEFINED> instruction: 0xff000000
   1269c:	000000ff 	strdeq	r0, [r0], -pc	; <UNPREDICTABLE>
   126a0:	ff000000 			; <UNDEFINED> instruction: 0xff000000
   126a4:	ffffffff 			; <UNDEFINED> instruction: 0xffffffff
   126a8:	ffffffff 			; <UNDEFINED> instruction: 0xffffffff
   126ac:	000000ff 	strdeq	r0, [r0], -pc	; <UNPREDICTABLE>
   126b0:	ff000000 			; <UNDEFINED> instruction: 0xff000000
   126b4:	000000ff 	strdeq	r0, [r0], -pc	; <UNPREDICTABLE>
	...
   126d8:	ff000000 			; <UNDEFINED> instruction: 0xff000000
   126dc:	000000ff 	strdeq	r0, [r0], -pc	; <UNPREDICTABLE>
	...
   12700:	ff000000 			; <UNDEFINED> instruction: 0xff000000
   12704:	00ffffff 	ldrshteq	pc, [pc], #255	; <UNPREDICTABLE>
   12708:	ff000000 			; <UNDEFINED> instruction: 0xff000000
   1270c:	000000ff 	strdeq	r0, [r0], -pc	; <UNPREDICTABLE>
   12710:	ff000000 			; <UNDEFINED> instruction: 0xff000000
   12714:	000000ff 	strdeq	r0, [r0], -pc	; <UNPREDICTABLE>
   12718:	ffffff00 			; <UNDEFINED> instruction: 0xffffff00
   1271c:	000000ff 	strdeq	r0, [r0], -pc	; <UNPREDICTABLE>
   12720:	ff000000 			; <UNDEFINED> instruction: 0xff000000
   12724:	00ffffff 	ldrshteq	pc, [pc], #255	; <UNPREDICTABLE>
   12728:	ff000000 			; <UNDEFINED> instruction: 0xff000000
   1272c:	000000ff 	strdeq	r0, [r0], -pc	; <UNPREDICTABLE>
   12730:	ff000000 			; <UNDEFINED> instruction: 0xff000000
   12734:	000000ff 	strdeq	r0, [r0], -pc	; <UNPREDICTABLE>
   12738:	ff000000 			; <UNDEFINED> instruction: 0xff000000
   1273c:	000000ff 	strdeq	r0, [r0], -pc	; <UNPREDICTABLE>
   12740:	ff000000 			; <UNDEFINED> instruction: 0xff000000
   12744:	ffffffff 			; <UNDEFINED> instruction: 0xffffffff
   12748:	ffffffff 			; <UNDEFINED> instruction: 0xffffffff
   1274c:	000000ff 	strdeq	r0, [r0], -pc	; <UNPREDICTABLE>
   12750:	ff000000 			; <UNDEFINED> instruction: 0xff000000
   12754:	000000ff 	strdeq	r0, [r0], -pc	; <UNPREDICTABLE>
   12758:	ff000000 			; <UNDEFINED> instruction: 0xff000000
   1275c:	000000ff 	strdeq	r0, [r0], -pc	; <UNPREDICTABLE>
   12760:	ff000000 			; <UNDEFINED> instruction: 0xff000000
   12764:	000000ff 	strdeq	r0, [r0], -pc	; <UNPREDICTABLE>
   12768:	ff000000 			; <UNDEFINED> instruction: 0xff000000
   1276c:	000000ff 	strdeq	r0, [r0], -pc	; <UNPREDICTABLE>
   12770:	ff000000 			; <UNDEFINED> instruction: 0xff000000
   12774:	ff0000ff 			; <UNDEFINED> instruction: 0xff0000ff
   12778:	ff0000ff 			; <UNDEFINED> instruction: 0xff0000ff
   1277c:	000000ff 	strdeq	r0, [r0], -pc	; <UNPREDICTABLE>
   12780:	ff000000 			; <UNDEFINED> instruction: 0xff000000
   12784:	000000ff 	strdeq	r0, [r0], -pc	; <UNPREDICTABLE>
   12788:	ff000000 			; <UNDEFINED> instruction: 0xff000000
   1278c:	000000ff 	strdeq	r0, [r0], -pc	; <UNPREDICTABLE>
   12790:	ff000000 			; <UNDEFINED> instruction: 0xff000000
   12794:	000000ff 	strdeq	r0, [r0], -pc	; <UNPREDICTABLE>
   12798:	ff000000 			; <UNDEFINED> instruction: 0xff000000
   1279c:	000000ff 	strdeq	r0, [r0], -pc	; <UNPREDICTABLE>
   127a0:	ff000000 			; <UNDEFINED> instruction: 0xff000000
   127a4:	ffffffff 			; <UNDEFINED> instruction: 0xffffffff
   127a8:	ffffffff 			; <UNDEFINED> instruction: 0xffffffff
   127ac:	000000ff 	strdeq	r0, [r0], -pc	; <UNPREDICTABLE>
   127b0:	ff000000 			; <UNDEFINED> instruction: 0xff000000
   127b4:	000000ff 	strdeq	r0, [r0], -pc	; <UNPREDICTABLE>
	...
   127d8:	ff000000 			; <UNDEFINED> instruction: 0xff000000
   127dc:	000000ff 	strdeq	r0, [r0], -pc	; <UNPREDICTABLE>
	...
   12800:	ff000000 			; <UNDEFINED> instruction: 0xff000000
   12804:	00ffffff 	ldrshteq	pc, [pc], #255	; <UNPREDICTABLE>
   12808:	ff000000 			; <UNDEFINED> instruction: 0xff000000
   1280c:	000000ff 	strdeq	r0, [r0], -pc	; <UNPREDICTABLE>
   12810:	ff000000 			; <UNDEFINED> instruction: 0xff000000
   12814:	000000ff 	strdeq	r0, [r0], -pc	; <UNPREDICTABLE>
   12818:	ffffff00 			; <UNDEFINED> instruction: 0xffffff00
   1281c:	000000ff 	strdeq	r0, [r0], -pc	; <UNPREDICTABLE>
   12820:	ff000000 			; <UNDEFINED> instruction: 0xff000000
   12824:	000000ff 	strdeq	r0, [r0], -pc	; <UNPREDICTABLE>
	...
   12830:	ff000000 			; <UNDEFINED> instruction: 0xff000000
   12834:	ffffffff 			; <UNDEFINED> instruction: 0xffffffff
   12838:	000000ff 	strdeq	r0, [r0], -pc	; <UNPREDICTABLE>
	...
   12844:	ff000000 			; <UNDEFINED> instruction: 0xff000000
   12848:	000000ff 	strdeq	r0, [r0], -pc	; <UNPREDICTABLE>
   1284c:	00000000 	andeq	r0, r0, r0
   12850:	ff000000 			; <UNDEFINED> instruction: 0xff000000
   12854:	000000ff 	strdeq	r0, [r0], -pc	; <UNPREDICTABLE>
   12858:	ff000000 			; <UNDEFINED> instruction: 0xff000000
   1285c:	000000ff 	strdeq	r0, [r0], -pc	; <UNPREDICTABLE>
   12860:	ff000000 			; <UNDEFINED> instruction: 0xff000000
   12864:	000000ff 	strdeq	r0, [r0], -pc	; <UNPREDICTABLE>
   12868:	ff000000 			; <UNDEFINED> instruction: 0xff000000
   1286c:	000000ff 	strdeq	r0, [r0], -pc	; <UNPREDICTABLE>
   12870:	ff000000 			; <UNDEFINED> instruction: 0xff000000
   12874:	ff0000ff 			; <UNDEFINED> instruction: 0xff0000ff
   12878:	ff0000ff 			; <UNDEFINED> instruction: 0xff0000ff
   1287c:	000000ff 	strdeq	r0, [r0], -pc	; <UNPREDICTABLE>
   12880:	00000000 	andeq	r0, r0, r0
   12884:	00ffff00 	rscseq	pc, pc, r0, lsl #30
   12888:	00ffff00 	rscseq	pc, pc, r0, lsl #30
	...
   12894:	00ffff00 	rscseq	pc, pc, r0, lsl #30
   12898:	00ffff00 	rscseq	pc, pc, r0, lsl #30
	...
   128a8:	00ffff00 	rscseq	pc, pc, r0, lsl #30
	...
   128b4:	00ffff00 	rscseq	pc, pc, r0, lsl #30
	...
   128c4:	ff000000 			; <UNDEFINED> instruction: 0xff000000
   128c8:	000000ff 	strdeq	r0, [r0], -pc	; <UNPREDICTABLE>
	...
   128d8:	00ffff00 	rscseq	pc, pc, r0, lsl #30
	...
   12900:	ff000000 			; <UNDEFINED> instruction: 0xff000000
   12904:	00ffffff 	ldrshteq	pc, [pc], #255	; <UNPREDICTABLE>
   12908:	ff000000 			; <UNDEFINED> instruction: 0xff000000
   1290c:	000000ff 	strdeq	r0, [r0], -pc	; <UNPREDICTABLE>
   12910:	ff000000 			; <UNDEFINED> instruction: 0xff000000
   12914:	000000ff 	strdeq	r0, [r0], -pc	; <UNPREDICTABLE>
   12918:	ffffff00 			; <UNDEFINED> instruction: 0xffffff00
   1291c:	000000ff 	strdeq	r0, [r0], -pc	; <UNPREDICTABLE>
   12920:	ff000000 			; <UNDEFINED> instruction: 0xff000000
   12924:	000000ff 	strdeq	r0, [r0], -pc	; <UNPREDICTABLE>
	...
   12930:	ff000000 			; <UNDEFINED> instruction: 0xff000000
   12934:	ffffffff 			; <UNDEFINED> instruction: 0xffffffff
   12938:	000000ff 	strdeq	r0, [r0], -pc	; <UNPREDICTABLE>
	...
   12944:	ff000000 			; <UNDEFINED> instruction: 0xff000000
   12948:	000000ff 	strdeq	r0, [r0], -pc	; <UNPREDICTABLE>
   1294c:	00000000 	andeq	r0, r0, r0
   12950:	ff000000 			; <UNDEFINED> instruction: 0xff000000
   12954:	000000ff 	strdeq	r0, [r0], -pc	; <UNPREDICTABLE>
   12958:	ff000000 			; <UNDEFINED> instruction: 0xff000000
   1295c:	000000ff 	strdeq	r0, [r0], -pc	; <UNPREDICTABLE>
   12960:	ff000000 			; <UNDEFINED> instruction: 0xff000000
   12964:	000000ff 	strdeq	r0, [r0], -pc	; <UNPREDICTABLE>
   12968:	ff000000 			; <UNDEFINED> instruction: 0xff000000
   1296c:	000000ff 	strdeq	r0, [r0], -pc	; <UNPREDICTABLE>
   12970:	ff000000 			; <UNDEFINED> instruction: 0xff000000
   12974:	ff0000ff 			; <UNDEFINED> instruction: 0xff0000ff
   12978:	ff0000ff 			; <UNDEFINED> instruction: 0xff0000ff
   1297c:	000000ff 	strdeq	r0, [r0], -pc	; <UNPREDICTABLE>
   12980:	00000000 	andeq	r0, r0, r0
   12984:	00ffff00 	rscseq	pc, pc, r0, lsl #30
   12988:	00ffff00 	rscseq	pc, pc, r0, lsl #30
	...
   12994:	00ffff00 	rscseq	pc, pc, r0, lsl #30
   12998:	00ffff00 	rscseq	pc, pc, r0, lsl #30
	...
   129a8:	00ffff00 	rscseq	pc, pc, r0, lsl #30
	...
   129b4:	00ffff00 	rscseq	pc, pc, r0, lsl #30
	...
   129c4:	ff000000 			; <UNDEFINED> instruction: 0xff000000
   129c8:	000000ff 	strdeq	r0, [r0], -pc	; <UNPREDICTABLE>
	...
   129d8:	00ffff00 	rscseq	pc, pc, r0, lsl #30
	...
   12a00:	ff000000 			; <UNDEFINED> instruction: 0xff000000
   12a04:	ff0000ff 			; <UNDEFINED> instruction: 0xff0000ff
   12a08:	00ffffff 	ldrshteq	pc, [pc], #255	; <UNPREDICTABLE>
	...
   12a14:	ffffff00 			; <UNDEFINED> instruction: 0xffffff00
   12a18:	ff0000ff 			; <UNDEFINED> instruction: 0xff0000ff
   12a1c:	000000ff 	strdeq	r0, [r0], -pc	; <UNPREDICTABLE>
   12a20:	ff000000 			; <UNDEFINED> instruction: 0xff000000
   12a24:	000000ff 	strdeq	r0, [r0], -pc	; <UNPREDICTABLE>
	...
   12a34:	ff000000 			; <UNDEFINED> instruction: 0xff000000
   12a38:	ffffffff 			; <UNDEFINED> instruction: 0xffffffff
   12a3c:	000000ff 	strdeq	r0, [r0], -pc	; <UNPREDICTABLE>
   12a40:	00000000 	andeq	r0, r0, r0
   12a44:	ff000000 			; <UNDEFINED> instruction: 0xff000000
   12a48:	000000ff 	strdeq	r0, [r0], -pc	; <UNPREDICTABLE>
   12a4c:	00000000 	andeq	r0, r0, r0
   12a50:	ff000000 			; <UNDEFINED> instruction: 0xff000000
   12a54:	000000ff 	strdeq	r0, [r0], -pc	; <UNPREDICTABLE>
   12a58:	ff000000 			; <UNDEFINED> instruction: 0xff000000
   12a5c:	000000ff 	strdeq	r0, [r0], -pc	; <UNPREDICTABLE>
   12a60:	ff000000 			; <UNDEFINED> instruction: 0xff000000
   12a64:	000000ff 	strdeq	r0, [r0], -pc	; <UNPREDICTABLE>
   12a68:	ff000000 			; <UNDEFINED> instruction: 0xff000000
   12a6c:	000000ff 	strdeq	r0, [r0], -pc	; <UNPREDICTABLE>
   12a70:	ff000000 			; <UNDEFINED> instruction: 0xff000000
   12a74:	ff0000ff 			; <UNDEFINED> instruction: 0xff0000ff
   12a78:	ff0000ff 			; <UNDEFINED> instruction: 0xff0000ff
   12a7c:	000000ff 	strdeq	r0, [r0], -pc	; <UNPREDICTABLE>
   12a80:	00000000 	andeq	r0, r0, r0
   12a84:	ff000000 			; <UNDEFINED> instruction: 0xff000000
   12a88:	000000ff 	strdeq	r0, [r0], -pc	; <UNPREDICTABLE>
	...
   12a94:	ff000000 			; <UNDEFINED> instruction: 0xff000000
   12a98:	000000ff 	strdeq	r0, [r0], -pc	; <UNPREDICTABLE>
	...
   12aa4:	ff000000 			; <UNDEFINED> instruction: 0xff000000
   12aa8:	000000ff 	strdeq	r0, [r0], -pc	; <UNPREDICTABLE>
	...
   12ab4:	00ffff00 	rscseq	pc, pc, r0, lsl #30
	...
   12ac4:	ff000000 			; <UNDEFINED> instruction: 0xff000000
   12ac8:	000000ff 	strdeq	r0, [r0], -pc	; <UNPREDICTABLE>
	...
   12ad8:	00ffff00 	rscseq	pc, pc, r0, lsl #30
	...
   12b00:	ff000000 			; <UNDEFINED> instruction: 0xff000000
   12b04:	ff0000ff 			; <UNDEFINED> instruction: 0xff0000ff
   12b08:	00ffffff 	ldrshteq	pc, [pc], #255	; <UNPREDICTABLE>
	...
   12b14:	ffffff00 			; <UNDEFINED> instruction: 0xffffff00
   12b18:	ff0000ff 			; <UNDEFINED> instruction: 0xff0000ff
   12b1c:	000000ff 	strdeq	r0, [r0], -pc	; <UNPREDICTABLE>
   12b20:	ff000000 			; <UNDEFINED> instruction: 0xff000000
   12b24:	000000ff 	strdeq	r0, [r0], -pc	; <UNPREDICTABLE>
	...
   12b34:	ff000000 			; <UNDEFINED> instruction: 0xff000000
   12b38:	ffffffff 			; <UNDEFINED> instruction: 0xffffffff
   12b3c:	000000ff 	strdeq	r0, [r0], -pc	; <UNPREDICTABLE>
   12b40:	00000000 	andeq	r0, r0, r0
   12b44:	ff000000 			; <UNDEFINED> instruction: 0xff000000
   12b48:	000000ff 	strdeq	r0, [r0], -pc	; <UNPREDICTABLE>
   12b4c:	00000000 	andeq	r0, r0, r0
   12b50:	ff000000 			; <UNDEFINED> instruction: 0xff000000
   12b54:	000000ff 	strdeq	r0, [r0], -pc	; <UNPREDICTABLE>
   12b58:	ff000000 			; <UNDEFINED> instruction: 0xff000000
   12b5c:	000000ff 	strdeq	r0, [r0], -pc	; <UNPREDICTABLE>
   12b60:	ff000000 			; <UNDEFINED> instruction: 0xff000000
   12b64:	000000ff 	strdeq	r0, [r0], -pc	; <UNPREDICTABLE>
   12b68:	ff000000 			; <UNDEFINED> instruction: 0xff000000
   12b6c:	000000ff 	strdeq	r0, [r0], -pc	; <UNPREDICTABLE>
   12b70:	ff000000 			; <UNDEFINED> instruction: 0xff000000
   12b74:	ff0000ff 			; <UNDEFINED> instruction: 0xff0000ff
   12b78:	ff0000ff 			; <UNDEFINED> instruction: 0xff0000ff
   12b7c:	000000ff 	strdeq	r0, [r0], -pc	; <UNPREDICTABLE>
   12b80:	00000000 	andeq	r0, r0, r0
   12b84:	ff000000 			; <UNDEFINED> instruction: 0xff000000
   12b88:	000000ff 	strdeq	r0, [r0], -pc	; <UNPREDICTABLE>
	...
   12b94:	ff000000 			; <UNDEFINED> instruction: 0xff000000
   12b98:	000000ff 	strdeq	r0, [r0], -pc	; <UNPREDICTABLE>
	...
   12ba4:	ff000000 			; <UNDEFINED> instruction: 0xff000000
   12ba8:	000000ff 	strdeq	r0, [r0], -pc	; <UNPREDICTABLE>
	...
   12bb4:	00ffff00 	rscseq	pc, pc, r0, lsl #30
	...
   12bc4:	ff000000 			; <UNDEFINED> instruction: 0xff000000
   12bc8:	000000ff 	strdeq	r0, [r0], -pc	; <UNPREDICTABLE>
	...
   12bd8:	00ffff00 	rscseq	pc, pc, r0, lsl #30
	...
   12c00:	ff000000 			; <UNDEFINED> instruction: 0xff000000
   12c04:	000000ff 	strdeq	r0, [r0], -pc	; <UNPREDICTABLE>
	...
   12c18:	ff000000 			; <UNDEFINED> instruction: 0xff000000
   12c1c:	000000ff 	strdeq	r0, [r0], -pc	; <UNPREDICTABLE>
   12c20:	ff000000 			; <UNDEFINED> instruction: 0xff000000
   12c24:	000000ff 	strdeq	r0, [r0], -pc	; <UNPREDICTABLE>
	...
   12c30:	ff000000 			; <UNDEFINED> instruction: 0xff000000
   12c34:	000000ff 	strdeq	r0, [r0], -pc	; <UNPREDICTABLE>
   12c38:	ff000000 			; <UNDEFINED> instruction: 0xff000000
   12c3c:	000000ff 	strdeq	r0, [r0], -pc	; <UNPREDICTABLE>
   12c40:	00000000 	andeq	r0, r0, r0
   12c44:	ff000000 			; <UNDEFINED> instruction: 0xff000000
   12c48:	000000ff 	strdeq	r0, [r0], -pc	; <UNPREDICTABLE>
   12c4c:	00000000 	andeq	r0, r0, r0
   12c50:	ff000000 			; <UNDEFINED> instruction: 0xff000000
   12c54:	000000ff 	strdeq	r0, [r0], -pc	; <UNPREDICTABLE>
   12c58:	ffffff00 			; <UNDEFINED> instruction: 0xffffff00
   12c5c:	000000ff 	strdeq	r0, [r0], -pc	; <UNPREDICTABLE>
   12c60:	00000000 	andeq	r0, r0, r0
   12c64:	00ffff00 	rscseq	pc, pc, r0, lsl #30
   12c68:	00ffff00 	rscseq	pc, pc, r0, lsl #30
	...
   12c74:	00ffff00 	rscseq	pc, pc, r0, lsl #30
   12c78:	00ffff00 	rscseq	pc, pc, r0, lsl #30
	...
   12c84:	00ffff00 	rscseq	pc, pc, r0, lsl #30
   12c88:	00ffff00 	rscseq	pc, pc, r0, lsl #30
	...
   12c94:	ff000000 			; <UNDEFINED> instruction: 0xff000000
   12c98:	000000ff 	strdeq	r0, [r0], -pc	; <UNPREDICTABLE>
	...
   12ca4:	00ffff00 	rscseq	pc, pc, r0, lsl #30
	...
   12cb4:	00ffff00 	rscseq	pc, pc, r0, lsl #30
	...
   12cc4:	ff000000 			; <UNDEFINED> instruction: 0xff000000
   12cc8:	000000ff 	strdeq	r0, [r0], -pc	; <UNPREDICTABLE>
	...
   12cd8:	00ffff00 	rscseq	pc, pc, r0, lsl #30
	...
   12d00:	ff000000 			; <UNDEFINED> instruction: 0xff000000
   12d04:	000000ff 	strdeq	r0, [r0], -pc	; <UNPREDICTABLE>
	...
   12d18:	ff000000 			; <UNDEFINED> instruction: 0xff000000
   12d1c:	000000ff 	strdeq	r0, [r0], -pc	; <UNPREDICTABLE>
   12d20:	ff000000 			; <UNDEFINED> instruction: 0xff000000
   12d24:	000000ff 	strdeq	r0, [r0], -pc	; <UNPREDICTABLE>
	...
   12d30:	ff000000 			; <UNDEFINED> instruction: 0xff000000
   12d34:	000000ff 	strdeq	r0, [r0], -pc	; <UNPREDICTABLE>
   12d38:	ff000000 			; <UNDEFINED> instruction: 0xff000000
   12d3c:	000000ff 	strdeq	r0, [r0], -pc	; <UNPREDICTABLE>
   12d40:	00000000 	andeq	r0, r0, r0
   12d44:	ff000000 			; <UNDEFINED> instruction: 0xff000000
   12d48:	000000ff 	strdeq	r0, [r0], -pc	; <UNPREDICTABLE>
   12d4c:	00000000 	andeq	r0, r0, r0
   12d50:	ff000000 			; <UNDEFINED> instruction: 0xff000000
   12d54:	000000ff 	strdeq	r0, [r0], -pc	; <UNPREDICTABLE>
   12d58:	ffffff00 			; <UNDEFINED> instruction: 0xffffff00
   12d5c:	000000ff 	strdeq	r0, [r0], -pc	; <UNPREDICTABLE>
   12d60:	00000000 	andeq	r0, r0, r0
   12d64:	00ffff00 	rscseq	pc, pc, r0, lsl #30
   12d68:	00ffff00 	rscseq	pc, pc, r0, lsl #30
	...
   12d74:	00ffff00 	rscseq	pc, pc, r0, lsl #30
   12d78:	00ffff00 	rscseq	pc, pc, r0, lsl #30
	...
   12d84:	00ffff00 	rscseq	pc, pc, r0, lsl #30
   12d88:	00ffff00 	rscseq	pc, pc, r0, lsl #30
	...
   12d94:	ff000000 			; <UNDEFINED> instruction: 0xff000000
   12d98:	000000ff 	strdeq	r0, [r0], -pc	; <UNPREDICTABLE>
	...
   12da4:	00ffff00 	rscseq	pc, pc, r0, lsl #30
	...
   12db4:	00ffff00 	rscseq	pc, pc, r0, lsl #30
	...
   12dc4:	ff000000 			; <UNDEFINED> instruction: 0xff000000
   12dc8:	000000ff 	strdeq	r0, [r0], -pc	; <UNPREDICTABLE>
	...
   12dd8:	00ffff00 	rscseq	pc, pc, r0, lsl #30
	...
   12e00:	ff000000 			; <UNDEFINED> instruction: 0xff000000
   12e04:	000000ff 	strdeq	r0, [r0], -pc	; <UNPREDICTABLE>
	...
   12e18:	ff000000 			; <UNDEFINED> instruction: 0xff000000
   12e1c:	000000ff 	strdeq	r0, [r0], -pc	; <UNPREDICTABLE>
   12e20:	ff000000 			; <UNDEFINED> instruction: 0xff000000
   12e24:	000000ff 	strdeq	r0, [r0], -pc	; <UNPREDICTABLE>
	...
   12e34:	ffffff00 			; <UNDEFINED> instruction: 0xffffff00
   12e38:	00ffffff 	ldrshteq	pc, [pc], #255	; <UNPREDICTABLE>
	...
   12e44:	ff000000 			; <UNDEFINED> instruction: 0xff000000
   12e48:	ffffffff 			; <UNDEFINED> instruction: 0xffffffff
   12e4c:	000000ff 	strdeq	r0, [r0], -pc	; <UNPREDICTABLE>
   12e50:	00000000 	andeq	r0, r0, r0
   12e54:	ffffff00 			; <UNDEFINED> instruction: 0xffffff00
   12e58:	ff0000ff 			; <UNDEFINED> instruction: 0xff0000ff
   12e5c:	000000ff 	strdeq	r0, [r0], -pc	; <UNPREDICTABLE>
   12e60:	00000000 	andeq	r0, r0, r0
   12e64:	ff000000 			; <UNDEFINED> instruction: 0xff000000
   12e68:	000000ff 	strdeq	r0, [r0], -pc	; <UNPREDICTABLE>
	...
   12e74:	00ffff00 	rscseq	pc, pc, r0, lsl #30
   12e78:	00ffff00 	rscseq	pc, pc, r0, lsl #30
   12e7c:	00000000 	andeq	r0, r0, r0
   12e80:	ff000000 			; <UNDEFINED> instruction: 0xff000000
   12e84:	000000ff 	strdeq	r0, [r0], -pc	; <UNPREDICTABLE>
   12e88:	ff000000 			; <UNDEFINED> instruction: 0xff000000
   12e8c:	000000ff 	strdeq	r0, [r0], -pc	; <UNPREDICTABLE>
   12e90:	00000000 	andeq	r0, r0, r0
   12e94:	ff000000 			; <UNDEFINED> instruction: 0xff000000
   12e98:	000000ff 	strdeq	r0, [r0], -pc	; <UNPREDICTABLE>
   12e9c:	00000000 	andeq	r0, r0, r0
   12ea0:	ff000000 			; <UNDEFINED> instruction: 0xff000000
   12ea4:	ffffffff 			; <UNDEFINED> instruction: 0xffffffff
   12ea8:	ffffffff 			; <UNDEFINED> instruction: 0xffffffff
   12eac:	000000ff 	strdeq	r0, [r0], -pc	; <UNPREDICTABLE>
   12eb0:	00000000 	andeq	r0, r0, r0
   12eb4:	ff000000 			; <UNDEFINED> instruction: 0xff000000
   12eb8:	00ffffff 	ldrshteq	pc, [pc], #255	; <UNPREDICTABLE>
	...
   12ec4:	ff000000 			; <UNDEFINED> instruction: 0xff000000
   12ec8:	000000ff 	strdeq	r0, [r0], -pc	; <UNPREDICTABLE>
	...
   12ed4:	ffffff00 			; <UNDEFINED> instruction: 0xffffff00
   12ed8:	000000ff 	strdeq	r0, [r0], -pc	; <UNPREDICTABLE>
	...
   12f00:	ff000000 			; <UNDEFINED> instruction: 0xff000000
   12f04:	000000ff 	strdeq	r0, [r0], -pc	; <UNPREDICTABLE>
	...
   12f18:	ff000000 			; <UNDEFINED> instruction: 0xff000000
   12f1c:	000000ff 	strdeq	r0, [r0], -pc	; <UNPREDICTABLE>
   12f20:	ff000000 			; <UNDEFINED> instruction: 0xff000000
   12f24:	000000ff 	strdeq	r0, [r0], -pc	; <UNPREDICTABLE>
	...
   12f34:	ffffff00 			; <UNDEFINED> instruction: 0xffffff00
   12f38:	00ffffff 	ldrshteq	pc, [pc], #255	; <UNPREDICTABLE>
	...
   12f44:	ff000000 			; <UNDEFINED> instruction: 0xff000000
   12f48:	ffffffff 			; <UNDEFINED> instruction: 0xffffffff
   12f4c:	000000ff 	strdeq	r0, [r0], -pc	; <UNPREDICTABLE>
   12f50:	00000000 	andeq	r0, r0, r0
   12f54:	ffffff00 			; <UNDEFINED> instruction: 0xffffff00
   12f58:	ff0000ff 			; <UNDEFINED> instruction: 0xff0000ff
   12f5c:	000000ff 	strdeq	r0, [r0], -pc	; <UNPREDICTABLE>
   12f60:	00000000 	andeq	r0, r0, r0
   12f64:	ff000000 			; <UNDEFINED> instruction: 0xff000000
   12f68:	000000ff 	strdeq	r0, [r0], -pc	; <UNPREDICTABLE>
	...
   12f74:	00ffff00 	rscseq	pc, pc, r0, lsl #30
   12f78:	00ffff00 	rscseq	pc, pc, r0, lsl #30
   12f7c:	00000000 	andeq	r0, r0, r0
   12f80:	ff000000 			; <UNDEFINED> instruction: 0xff000000
   12f84:	000000ff 	strdeq	r0, [r0], -pc	; <UNPREDICTABLE>
   12f88:	ff000000 			; <UNDEFINED> instruction: 0xff000000
   12f8c:	000000ff 	strdeq	r0, [r0], -pc	; <UNPREDICTABLE>
   12f90:	00000000 	andeq	r0, r0, r0
   12f94:	ff000000 			; <UNDEFINED> instruction: 0xff000000
   12f98:	000000ff 	strdeq	r0, [r0], -pc	; <UNPREDICTABLE>
   12f9c:	00000000 	andeq	r0, r0, r0
   12fa0:	ff000000 			; <UNDEFINED> instruction: 0xff000000
   12fa4:	ffffffff 			; <UNDEFINED> instruction: 0xffffffff
   12fa8:	ffffffff 			; <UNDEFINED> instruction: 0xffffffff
   12fac:	000000ff 	strdeq	r0, [r0], -pc	; <UNPREDICTABLE>
   12fb0:	00000000 	andeq	r0, r0, r0
   12fb4:	ff000000 			; <UNDEFINED> instruction: 0xff000000
   12fb8:	00ffffff 	ldrshteq	pc, [pc], #255	; <UNPREDICTABLE>
	...
   12fc4:	ff000000 			; <UNDEFINED> instruction: 0xff000000
   12fc8:	000000ff 	strdeq	r0, [r0], -pc	; <UNPREDICTABLE>
	...
   12fd4:	ffffff00 			; <UNDEFINED> instruction: 0xffffff00
   12fd8:	000000ff 	strdeq	r0, [r0], -pc	; <UNPREDICTABLE>
	...

Disassembly of section .rodata.str1.4:

0001b000 <.rodata.str1.4>:
   1b000:	45524f43 	ldrbmi	r4, [r2, #-3907]	; 0xfffff0bd
   1b004:	45522031 	ldrbmi	r2, [r2, #-49]	; 0xffffffcf
   1b008:	0a594441 	beq	166c114 <__bss_end+0xd1a114>
   1b00c:	00000000 	andeq	r0, r0, r0
   1b010:	2d2d2d2d 	stccs	13, cr2, [sp, #-180]!	; 0xffffff4c
   1b014:	2d2d2d2d 	stccs	13, cr2, [sp, #-180]!	; 0xffffff4c
   1b018:	2d2d2d2d 	stccs	13, cr2, [sp, #-180]!	; 0xffffff4c
   1b01c:	2d2d2d2d 	stccs	13, cr2, [sp, #-180]!	; 0xffffff4c
   1b020:	2d2d2d2d 	stccs	13, cr2, [sp, #-180]!	; 0xffffff4c
   1b024:	2d2d2d2d 	stccs	13, cr2, [sp, #-180]!	; 0xffffff4c
   1b028:	2d2d2d2d 	stccs	13, cr2, [sp, #-180]!	; 0xffffff4c
   1b02c:	2d2d2d2d 	stccs	13, cr2, [sp, #-180]!	; 0xffffff4c
   1b030:	2d2d2d2d 	stccs	13, cr2, [sp, #-180]!	; 0xffffff4c
   1b034:	2d2d2d2d 	stccs	13, cr2, [sp, #-180]!	; 0xffffff4c
   1b038:	2d2d2d2d 	stccs	13, cr2, [sp, #-180]!	; 0xffffff4c
   1b03c:	2d2d2d2d 	stccs	13, cr2, [sp, #-180]!	; 0xffffff4c
   1b040:	2d2d2d2d 	stccs	13, cr2, [sp, #-180]!	; 0xffffff4c
   1b044:	000a2d2d 	andeq	r2, sl, sp, lsr #26
   1b048:	525f4f49 	subspl	r4, pc, #292	; 0x124
   1b04c:	28444145 	stmdacs	r4, {r0, r2, r6, r8, lr}^
   1b050:	5f443356 	svcpl	0x00443356
   1b054:	43305443 	teqmi	r0, #1124073472	; 0x43000000
   1b058:	20202953 	eorcs	r2, r0, r3, asr r9
   1b05c:	0a3d2020 	beq	f630e4 <__bss_end+0x6110e4>
   1b060:	00000000 	andeq	r0, r0, r0
   1b064:	525f4f49 	subspl	r4, pc, #292	; 0x124
   1b068:	28444145 	stmdacs	r4, {r0, r2, r6, r8, lr}^
   1b06c:	5f443356 	svcpl	0x00443356
   1b070:	43315443 	teqmi	r1, #1124073472	; 0x43000000
   1b074:	20202953 	eorcs	r2, r0, r3, asr r9
   1b078:	0a3d2020 	beq	f63100 <__bss_end+0x611100>
   1b07c:	00000000 	andeq	r0, r0, r0
   1b080:	525f4f49 	subspl	r4, pc, #292	; 0x124
   1b084:	28444145 	stmdacs	r4, {r0, r2, r6, r8, lr}^
   1b088:	5f443356 	svcpl	0x00443356
   1b08c:	53525245 	cmppl	r2, #1342177284	; 0x50000004
   1b090:	29544154 	ldmdbcs	r4, {r2, r4, r6, r8, lr}^
   1b094:	0a3d2020 	beq	f6311c <__bss_end+0x61111c>
   1b098:	00000000 	andeq	r0, r0, r0
   1b09c:	525f4f49 	subspl	r4, pc, #292	; 0x124
   1b0a0:	28444145 	stmdacs	r4, {r0, r2, r6, r8, lr}^
   1b0a4:	5f443356 	svcpl	0x00443356
   1b0a8:	29434642 	stmdbcs	r3, {r1, r6, r9, sl, lr}^
   1b0ac:	20202020 	eorcs	r2, r0, r0, lsr #32
   1b0b0:	0a3d2020 	beq	f63138 <__bss_end+0x611138>
   1b0b4:	00000000 	andeq	r0, r0, r0
   1b0b8:	525f4f49 	subspl	r4, pc, #292	; 0x124
   1b0bc:	28444145 	stmdacs	r4, {r0, r2, r6, r8, lr}^
   1b0c0:	5f443356 	svcpl	0x00443356
   1b0c4:	29434652 	stmdbcs	r3, {r1, r4, r6, r9, sl, lr}^
   1b0c8:	20202020 	eorcs	r2, r0, r0, lsr #32
   1b0cc:	0a3d2020 	beq	f63154 <__bss_end+0x611154>
   1b0d0:	00000000 	andeq	r0, r0, r0
   1b0d4:	525f4f49 	subspl	r4, pc, #292	; 0x124
   1b0d8:	28444145 	stmdacs	r4, {r0, r2, r6, r8, lr}^
   1b0dc:	5f443356 	svcpl	0x00443356
   1b0e0:	29534350 	ldmdbcs	r3, {r4, r6, r8, r9, lr}^
   1b0e4:	20202020 	eorcs	r2, r0, r0, lsr #32
   1b0e8:	0a3d2020 	beq	f63170 <__bss_end+0x611170>
   1b0ec:	00000000 	andeq	r0, r0, r0
   1b0f0:	525f4f49 	subspl	r4, pc, #292	; 0x124
   1b0f4:	28444145 	stmdacs	r4, {r0, r2, r6, r8, lr}^
   1b0f8:	5f443356 	svcpl	0x00443356
   1b0fc:	47424446 	strbmi	r4, [r2, -r6, asr #8]
   1b100:	2020294f 	eorcs	r2, r0, pc, asr #18
   1b104:	0a3d2020 	beq	f6318c <__bss_end+0x61118c>
   1b108:	00000000 	andeq	r0, r0, r0
   1b10c:	525f4f49 	subspl	r4, pc, #292	; 0x124
   1b110:	28444145 	stmdacs	r4, {r0, r2, r6, r8, lr}^
   1b114:	5f443356 	svcpl	0x00443356
   1b118:	43544e49 	cmpmi	r4, #1168	; 0x490
   1b11c:	20294c54 	eorcs	r4, r9, r4, asr ip
   1b120:	0a3d2020 	beq	f631a8 <__bss_end+0x6111a8>
   1b124:	00000000 	andeq	r0, r0, r0
   1b128:	525f4f49 	subspl	r4, pc, #292	; 0x124
   1b12c:	28444145 	stmdacs	r4, {r0, r2, r6, r8, lr}^
   1b130:	5f443356 	svcpl	0x00443356
   1b134:	43415056 	movtmi	r5, #4182	; 0x1056
   1b138:	294c544e 	stmdbcs	ip, {r1, r2, r3, r6, sl, ip, lr}^
   1b13c:	0a3d2020 	beq	f631c4 <__bss_end+0x6111c4>
   1b140:	00000000 	andeq	r0, r0, r0
   1b144:	525f4f49 	subspl	r4, pc, #292	; 0x124
   1b148:	28444145 	stmdacs	r4, {r0, r2, r6, r8, lr}^
   1b14c:	5f443356 	svcpl	0x00443356
   1b150:	534f5042 	movtpl	r5, #61506	; 0xf042
   1b154:	20202029 	eorcs	r2, r0, r9, lsr #32
   1b158:	0a3d2020 	beq	f631e0 <__bss_end+0x6111e0>
   1b15c:	00000000 	andeq	r0, r0, r0
   1b160:	525f4f49 	subspl	r4, pc, #292	; 0x124
   1b164:	28444145 	stmdacs	r4, {r0, r2, r6, r8, lr}^
   1b168:	5f443356 	svcpl	0x00443356
   1b16c:	414f5042 	cmpmi	pc, r2, asr #32
   1b170:	20202029 	eorcs	r2, r0, r9, lsr #32
   1b174:	0a3d2020 	beq	f631fc <__bss_end+0x6111fc>
   1b178:	00000000 	andeq	r0, r0, r0
   1b17c:	525f4f49 	subspl	r4, pc, #292	; 0x124
   1b180:	28444145 	stmdacs	r4, {r0, r2, r6, r8, lr}^
   1b184:	5f443356 	svcpl	0x00443356
   1b188:	53435042 	movtpl	r5, #12354	; 0x3042
   1b18c:	20202029 	eorcs	r2, r0, r9, lsr #32
   1b190:	0a3d2020 	beq	f63218 <__bss_end+0x611218>
   1b194:	00000000 	andeq	r0, r0, r0
   1b198:	525f4f49 	subspl	r4, pc, #292	; 0x124
   1b19c:	28444145 	stmdacs	r4, {r0, r2, r6, r8, lr}^
   1b1a0:	5f443356 	svcpl	0x00443356
   1b1a4:	4e454449 	cdpmi	4, 4, cr4, cr5, cr9, {2}
   1b1a8:	20293254 	eorcs	r3, r9, r4, asr r2
   1b1ac:	0a3d2020 	beq	f63234 <__bss_end+0x611234>
   1b1b0:	00000000 	andeq	r0, r0, r0
   1b1b4:	2d2d2d2d 	stccs	13, cr2, [sp, #-180]!	; 0xffffff4c
   1b1b8:	2d2d2d2d 	stccs	13, cr2, [sp, #-180]!	; 0xffffff4c
   1b1bc:	2d2d2d2d 	stccs	13, cr2, [sp, #-180]!	; 0xffffff4c
   1b1c0:	2d2d2d2d 	stccs	13, cr2, [sp, #-180]!	; 0xffffff4c
   1b1c4:	2d2d2d2d 	stccs	13, cr2, [sp, #-180]!	; 0xffffff4c
   1b1c8:	2d2d2d2d 	stccs	13, cr2, [sp, #-180]!	; 0xffffff4c
   1b1cc:	2d2d2d2d 	stccs	13, cr2, [sp, #-180]!	; 0xffffff4c
   1b1d0:	2d2d2d2d 	stccs	13, cr2, [sp, #-180]!	; 0xffffff4c
   1b1d4:	2d2d2d2d 	stccs	13, cr2, [sp, #-180]!	; 0xffffff4c
   1b1d8:	2d2d2d2d 	stccs	13, cr2, [sp, #-180]!	; 0xffffff4c
   1b1dc:	2d2d2d2d 	stccs	13, cr2, [sp, #-180]!	; 0xffffff4c
   1b1e0:	2d2d2d2d 	stccs	13, cr2, [sp, #-180]!	; 0xffffff4c
   1b1e4:	00000a2d 	andeq	r0, r0, sp, lsr #20
   1b1e8:	45524f43 	ldrbmi	r4, [r2, #-3907]	; 0xfffff0bd
   1b1ec:	45522030 	ldrbmi	r2, [r2, #-48]	; 0xffffffd0
   1b1f0:	0a594441 	beq	166c2fc <__bss_end+0xd1a2fc>
   1b1f4:	00000000 	andeq	r0, r0, r0
   1b1f8:	44335620 	ldrtmi	r5, [r3], #-1568	; 0xfffff9e0
   1b1fc:	53455420 	movtpl	r5, #21536	; 0x5420
   1b200:	00000a54 	andeq	r0, r0, r4, asr sl
   1b204:	214b4f20 	cmpcs	fp, r0, lsr #30
   1b208:	494c4220 	stmdbmi	ip, {r5, r9, lr}^
   1b20c:	53204b4e 			; <UNDEFINED> instruction: 0x53204b4e
   1b210:	55544154 	ldrbpl	r4, [r4, #-340]	; 0xfffffeac
   1b214:	454c2053 	strbmi	r2, [ip, #-83]	; 0xffffffad
   1b218:	00000a44 	andeq	r0, r0, r4, asr #20
   1b21c:	0a474e20 	beq	11eeaa4 <__bss_end+0x89caa4>
   1b220:	00000000 	andeq	r0, r0, r0
   1b224:	20544547 	subscs	r4, r4, r7, asr #10
   1b228:	4d415246 	sfmmi	f5, 2, [r1, #-280]	; 0xfffffee8
   1b22c:	46554245 	ldrbmi	r4, [r5], -r5, asr #4
   1b230:	0a524546 	beq	14ac750 <__bss_end+0xb5a750>
   1b234:	00000000 	andeq	r0, r0, r0
   1b238:	3e2d6266 	cdpcc	2, 2, cr6, cr13, cr6, {3}
   1b23c:	74646977 	strbtvc	r6, [r4], #-2423	; 0xfffff689
   1b240:	3d202068 	stccc	0, cr2, [r0, #-416]!	; 0xfffffe60
   1b244:	0000000a 	andeq	r0, r0, sl
   1b248:	3e2d6266 	cdpcc	2, 2, cr6, cr13, cr6, {3}
   1b24c:	67696568 	strbvs	r6, [r9, -r8, ror #10]!
   1b250:	3d207468 	cfstrscc	mvf7, [r0, #-416]!	; 0xfffffe60
   1b254:	0000000a 	andeq	r0, r0, sl
   1b258:	3e2d6266 	cdpcc	2, 2, cr6, cr13, cr6, {3}
   1b25c:	657a6973 	ldrbvs	r6, [sl, #-2419]!	; 0xfffff68d
   1b260:	3d202020 	stccc	0, cr2, [r0, #-128]!	; 0xffffff80
   1b264:	0000000a 	andeq	r0, r0, sl
   1b268:	3e2d6266 	cdpcc	2, 2, cr6, cr13, cr6, {3}
   1b26c:	6e696f70 	mcrvs	15, 3, r6, cr9, cr0, {3}
   1b270:	3d726574 	cfldr64cc	mvdx6, [r2, #-464]!	; 0xfffffe30
   1b274:	0000000a 	andeq	r0, r0, sl
   1b278:	54534554 	ldrbpl	r4, [r3], #-1364	; 0xfffffaac
   1b27c:	54414820 	strbpl	r4, [r1], #-2080	; 0xfffff7e0
   1b280:	0a2e4843 	beq	bad394 <__bss_end+0x25b394>
   1b284:	00000000 	andeq	r0, r0, r0
   1b288:	74736574 	ldrbtvc	r6, [r3], #-1396	; 0xfffffa8c
   1b28c:	69726420 	ldmdbvs	r2!, {r5, sl, sp, lr}^
   1b290:	2e726576 	mrccs	5, 3, r6, cr2, cr6, {3}
   1b294:	0000000a 	andeq	r0, r0, sl
   1b298:	6c69616d 	stfvse	f6, [r9], #-436	; 0xfffffe4c
   1b29c:	5f786f62 	svcpl	0x00786f62
   1b2a0:	5f757071 	svcpl	0x00757071
   1b2a4:	62616e65 	rsbvs	r6, r1, #1616	; 0x650
   1b2a8:	4620656c 	strtmi	r6, [r0], -ip, ror #10
   1b2ac:	454c4941 	strbmi	r4, [ip, #-2369]	; 0xfffff6bf
   1b2b0:	5b702044 	blpl	1c233c8 <__bss_end+0x12d13c8>
   1b2b4:	0a3d5d31 	beq	f72780 <__bss_end+0x620780>
   1b2b8:	00000000 	andeq	r0, r0, r0
   1b2bc:	6c69616d 	stfvse	f6, [r9], #-436	; 0xfffffe4c
   1b2c0:	5f786f62 	svcpl	0x00786f62
   1b2c4:	5f757071 	svcpl	0x00757071
   1b2c8:	62616e65 	rsbvs	r6, r1, #1616	; 0x650
   1b2cc:	4f20656c 	svcmi	0x0020656c
   1b2d0:	000a204b 	andeq	r2, sl, fp, asr #32
   1b2d4:	6c69616d 	stfvse	f6, [r9], #-436	; 0xfffffe4c
   1b2d8:	5f786f62 	svcpl	0x00786f62
   1b2dc:	6f6c6e75 	svcvs	0x006c6e75
   1b2e0:	6d5f6b63 	vldrvs	d22, [pc, #-396]	; 1b15c <__rodata_start+0x1015c>
   1b2e4:	726f6d65 	rsbvc	r6, pc, #6464	; 0x1940
   1b2e8:	41462079 	hvcmi	25097	; 0x6209
   1b2ec:	44454c49 	strbmi	r4, [r5], #-3145	; 0xfffff3b7
   1b2f0:	315b7020 	cmpcc	fp, r0, lsr #32
   1b2f4:	000a3d5d 	andeq	r3, sl, sp, asr sp
   1b2f8:	6c69616d 	stfvse	f6, [r9], #-436	; 0xfffffe4c
   1b2fc:	5f786f62 	svcpl	0x00786f62
   1b300:	6f6c6c61 	svcvs	0x006c6c61
   1b304:	65746163 	ldrbvs	r6, [r4, #-355]!	; 0xfffffe9d
   1b308:	6d656d5f 	stclvs	13, cr6, [r5, #-380]!	; 0xfffffe84
   1b30c:	2079726f 	rsbscs	r7, r9, pc, ror #4
   1b310:	646e6168 	strbtvs	r6, [lr], #-360	; 0xfffffe98
   1b314:	0a3d656c 	beq	f748cc <__bss_end+0x6228cc>
   1b318:	00000000 	andeq	r0, r0, r0
   1b31c:	6c69616d 	stfvse	f6, [r9], #-436	; 0xfffffe4c
   1b320:	5f786f62 	svcpl	0x00786f62
   1b324:	6b636f6c 	blvs	18f70dc <__bss_end+0xfa50dc>
   1b328:	6d656d5f 	stclvs	13, cr6, [r5, #-380]!	; 0xfffffe84
   1b32c:	2079726f 	rsbscs	r7, r9, pc, ror #4
   1b330:	4c494146 	stfmie	f4, [r9], {70}	; 0x46
   1b334:	70204445 	eorvc	r4, r0, r5, asr #8
   1b338:	3d5d315b 	ldfcce	f3, [sp, #-364]	; 0xfffffe94
   1b33c:	0000000a 	andeq	r0, r0, sl
   1b340:	4c49414d 	stfmie	f4, [r9], {77}	; 0x4d
   1b344:	5f584f42 	svcpl	0x00584f42
   1b348:	4d415246 	sfmmi	f5, 2, [r1, #-280]	; 0xfffffee8
   1b34c:	46554245 	ldrbmi	r4, [r5], -r5, asr #4
   1b350:	20524546 	subscs	r4, r2, r6, asr #10
   1b354:	6e756f63 	cdpvs	15, 7, cr6, cr5, cr3, {3}
   1b358:	000a3d74 	andeq	r3, sl, r4, ror sp
   1b35c:	2d787463 	cfldrdcs	mvd7, [r8, #-396]!	; 0xfffffe74
   1b360:	4433563e 	ldrtmi	r5, [r3], #-1598	; 0xfffff9c2
   1b364:	5252455f 	subspl	r4, r2, #398458880	; 0x17c00000
   1b368:	54415453 	strbpl	r5, [r1], #-1107	; 0xfffffbad
   1b36c:	00000a3d 	andeq	r0, r0, sp, lsr sl
   1b370:	2d787463 	cfldrdcs	mvd7, [r8, #-396]!	; 0xfffffe74
   1b374:	4433563e 	ldrtmi	r5, [r3], #-1598	; 0xfffff9c2
   1b378:	5251535f 	subspl	r5, r1, #2080374785	; 0x7c000001
   1b37c:	20305653 	eorscs	r5, r0, r3, asr r6
   1b380:	000a3d20 	andeq	r3, sl, r0, lsr #26
   1b384:	2d787463 	cfldrdcs	mvd7, [r8, #-396]!	; 0xfffffe74
   1b388:	4433563e 	ldrtmi	r5, [r3], #-1598	; 0xfffff9c2
   1b38c:	5152535f 	cmppl	r2, pc, asr r3
   1b390:	20205343 	eorcs	r5, r0, r3, asr #6
   1b394:	000a3d20 	andeq	r3, sl, r0, lsr #26
   1b398:	2d787463 	cfldrdcs	mvd7, [r8, #-396]!	; 0xfffffe74
   1b39c:	4433563e 	ldrtmi	r5, [r3], #-1598	; 0xfffff9c2
   1b3a0:	4150565f 	cmpmi	r0, pc, asr r6
   1b3a4:	4c544e43 	mrrcmi	14, 4, r4, r4, cr3	; <UNPREDICTABLE>
   1b3a8:	000a3d20 	andeq	r3, sl, r0, lsr #26
   1b3ac:	2d787463 	cfldrdcs	mvd7, [r8, #-396]!	; 0xfffffe74
   1b3b0:	4433563e 	ldrtmi	r5, [r3], #-1598	; 0xfffff9c2
   1b3b4:	4742445f 	smlsldmi	r4, r2, pc, r4	; <UNPREDICTABLE>
   1b3b8:	20202045 	eorcs	r2, r0, r5, asr #32
   1b3bc:	000a3d20 	andeq	r3, sl, r0, lsr #26
   1b3c0:	2d787463 	cfldrdcs	mvd7, [r8, #-396]!	; 0xfffffe74
   1b3c4:	4433563e 	ldrtmi	r5, [r3], #-1598	; 0xfffff9c2
   1b3c8:	4244465f 	submi	r4, r4, #99614720	; 0x5f00000
   1b3cc:	20204f47 	eorcs	r4, r0, r7, asr #30
   1b3d0:	000a3d20 	andeq	r3, sl, r0, lsr #26
   1b3d4:	2d787463 	cfldrdcs	mvd7, [r8, #-396]!	; 0xfffffe74
   1b3d8:	4433563e 	ldrtmi	r5, [r3], #-1598	; 0xfffff9c2
   1b3dc:	4244465f 	submi	r4, r4, #99614720	; 0x5f00000
   1b3e0:	20205347 	eorcs	r5, r0, r7, asr #6
   1b3e4:	000a3d20 	andeq	r3, sl, r0, lsr #26
   1b3e8:	2d787463 	cfldrdcs	mvd7, [r8, #-396]!	; 0xfffffe74
   1b3ec:	4433563e 	ldrtmi	r5, [r3], #-1598	; 0xfffff9c2
   1b3f0:	4358425f 	cmpmi	r8, #-268435451	; 0xf0000005
   1b3f4:	20202046 	eorcs	r2, r0, r6, asr #32
   1b3f8:	000a3d20 	andeq	r3, sl, r0, lsr #26
   1b3fc:	20535046 	subscs	r5, r3, r6, asr #32
   1b400:	000a203a 	andeq	r2, sl, sl, lsr r0
   1b404:	56646441 	strbtpl	r6, [r4], -r1, asr #8
   1b408:	65747265 	ldrbvs	r7, [r4, #-613]!	; 0xfffffd9b
   1b40c:	6f442078 	svcvs	0x00442078
   1b410:	000a656e 	andeq	r6, sl, lr, ror #10
   1b414:	43443356 	movtmi	r3, #17238	; 0x4356
   1b418:	72746e6f 	rsbsvc	r6, r4, #1776	; 0x6f0
   1b41c:	694c6c6f 	stmdbvs	ip, {r0, r1, r2, r3, r5, r6, sl, fp, sp, lr}^
   1b420:	72437473 	subvc	r7, r3, #1929379840	; 0x73000000
   1b424:	65746165 	ldrbvs	r6, [r4, #-357]!	; 0xfffffe9b
   1b428:	6e6e6942 	cdpvs	9, 6, cr6, cr14, cr2, {2}
   1b42c:	20676e69 	rsbcs	r6, r7, r9, ror #28
   1b430:	656e6f44 	strbvs	r6, [lr, #-3908]!	; 0xfffff0bc
   1b434:	0000000a 	andeq	r0, r0, sl
   1b438:	43443356 	movtmi	r3, #17238	; 0x4356
   1b43c:	72746e6f 	rsbsvc	r6, r4, #1776	; 0x6f0
   1b440:	694c6c6f 	stmdbvs	ip, {r0, r1, r2, r3, r5, r6, sl, fp, sp, lr}^
   1b444:	72437473 	subvc	r7, r3, #1929379840	; 0x73000000
   1b448:	65746165 	ldrbvs	r6, [r4, #-357]!	; 0xfffffe9b
   1b44c:	646e6552 	strbtvs	r6, [lr], #-1362	; 0xfffffaae
   1b450:	6e697265 	cdpvs	2, 6, cr7, cr9, cr5, {3}
   1b454:	6f442067 	svcvs	0x00442067
   1b458:	000a656e 	andeq	r6, sl, lr, ror #10
   1b45c:	00203a20 	eoreq	r3, r0, r0, lsr #20

Disassembly of section .data:

0001c000 <__data_start>:
   1c000:	00951c00 	addseq	r1, r5, r0, lsl #24

0001c004 <CHAR_COLOR>:
   1c004:	ffffffff 			; <UNDEFINED> instruction: 0xffffffff

0001c008 <char_table>:
   1c008:	33323130 	teqcc	r2, #48, 2
   1c00c:	37363534 			; <UNDEFINED> instruction: 0x37363534
   1c010:	42413938 	submi	r3, r1, #56, 18	; 0xe0000
   1c014:	46454443 	strbmi	r4, [r5], -r3, asr #8

0001c018 <rand_a>:
   1c018:	00000001 	andeq	r0, r0, r1

0001c01c <rand_b>:
   1c01c:	00005ba0 	andeq	r5, r0, r0, lsr #23

0001c020 <rand_c>:
   1c020:	007864cb 	rsbseq	r6, r8, fp, asr #9

0001c024 <fsintable>:
   1c024:	00000000 	andeq	r0, r0, r0
   1c028:	3a491080 	bcc	1260230 <__bss_end+0x90e230>
   1c02c:	3ac91080 	bcc	ff260234 <__bss_end+0xfe90e234>
   1c030:	3b16cc60 	blcc	5cf1b8 <renderchunk_buffer0+0x47d5b8>
   1c034:	3b491080 	blcc	126023c <__bss_end+0x90e23c>
   1c038:	3b7b54a0 	blcc	1ef12c0 <__bss_end+0x159f2c0>
   1c03c:	3b96cc60 	blcc	fe5cf1c4 <__bss_end+0xfdc7d1c4>
   1c040:	3bafee70 	blcc	fec17a08 <__bss_end+0xfe2c5a08>
   1c044:	3bc91080 	blcc	ff26024c <__bss_end+0xfe90e24c>
   1c048:	3be23290 	blcc	ff8a8a90 <__bss_end+0xfef56a90>
   1c04c:	3bfb54a0 	blcc	ffef12d4 <__bss_end+0xff59f2d4>
   1c050:	3c0a3b58 	stccc	11, cr3, [sl], {88}	; 0x58
   1c054:	3c16cc60 	ldccc	12, cr12, [r6], {96}	; 0x60
   1c058:	3c235d68 	stccc	13, cr5, [r3], #-416	; 0xfffffe60
   1c05c:	3c2fee70 	stccc	14, cr14, [pc], #-448	; 1bea4 <__rodata_start+0x10ea4>
   1c060:	3c3c7f78 	ldccc	15, cr7, [ip], #-480	; 0xfffffe20
   1c064:	3c491080 	mcrrcc	0, 8, r1, r9, cr0
   1c068:	3c559d56 	mrrccc	13, 5, r9, r5, cr6
   1c06c:	3c622e5e 	stclcc	14, cr2, [r2], #-376	; 0xfffffe88
   1c070:	3c6ebf66 	stclcc	15, cr11, [lr], #-408	; 0xfffffe68
   1c074:	3c7b506e 	ldclcc	0, cr5, [fp], #-440	; 0xfffffe48
   1c078:	3c83f0bb 	stccc	0, cr15, [r3], {187}	; 0xbb
   1c07c:	3c8a393f 	stccc	9, cr3, [sl], {63}	; 0x3f
   1c080:	3c9081c3 	ldfccd	f0, [r0], {195}	; 0xc3
   1c084:	3c96ca47 	vldmiacc	r6, {s24-s94}
   1c088:	3c9d12cb 	lfmcc	f1, 4, [sp], {203}	; 0xcb
   1c08c:	3ca35936 	stccc	9, cr5, [r3], #216	; 0xd8
   1c090:	3ca9a1ba 	stfccd	f2, [r9], #744	; 0x2e8
   1c094:	3cafea3e 	vstmiacc	pc!, {s28-s89}
   1c098:	3cb632c2 	lfmcc	f3, 4, [r6], #776	; 0x308
   1c09c:	3cbc7b46 	vldmiacc	ip!, {d7-<overflow reg d41>}
   1c0a0:	3cc2c1b1 	stfccp	f4, [r2], {177}	; 0xb1
   1c0a4:	3cc90a35 	vstmiacc	r9, {s1-s53}
   1c0a8:	3ccf52b9 	sfmcc	f5, 2, [pc], {185}	; 0xb9
   1c0ac:	3cd59b3d 	fldmiaxcc	r5, {d25-d54}	;@ Deprecated
   1c0b0:	3cdbe1a8 	ldfccp	f6, [fp], {168}	; 0xa8
   1c0b4:	3ce22a2c 	vstmiacc	r2!, {s5-s48}
   1c0b8:	3ce872b0 	sfmcc	f7, 2, [r8], #704	; 0x2c0
   1c0bc:	3ceebb34 	vstmiacc	lr!, {d27-<overflow reg d52>}
   1c0c0:	3cf5019f 	ldfcce	f0, [r5], #636	; 0x27c
   1c0c4:	3cfb4a23 	vldmiacc	fp!, {s9-s43}
   1c0c8:	3d00c847 	stccc	8, cr12, [r0, #-284]	; 0xfffffee4
   1c0cc:	3d03ec89 	stccc	12, cr14, [r3, #-548]	; 0xfffffddc
   1c0d0:	3d0710cb 	stccc	0, cr1, [r7, #-812]	; 0xfffffcd4
   1c0d4:	3d0a3401 	cfstrscc	mvf3, [sl, #-4]
   1c0d8:	3d0d5843 	stccc	8, cr5, [sp, #-268]	; 0xfffffef4
   1c0dc:	3d107b78 	vldrcc	d7, [r0, #-480]	; 0xfffffe20
   1c0e0:	3d139fba 	ldccc	15, cr9, [r3, #-744]	; 0xfffffd18
   1c0e4:	3d16c2f0 	lfmcc	f4, 1, [r6, #-960]	; 0xfffffc40
   1c0e8:	3d19e732 	ldccc	7, cr14, [r9, #-200]	; 0xffffff38
   1c0ec:	3d1d0a67 	vldrcc	s0, [sp, #-412]	; 0xfffffe64
   1c0f0:	3d202ea9 	stccc	14, cr2, [r0, #-676]!	; 0xfffffd5c
   1c0f4:	3d2351df 	stfccs	f5, [r3, #-892]!	; 0xfffffc84
   1c0f8:	3d267514 	cfstr32cc	mvfx7, [r6, #-80]!	; 0xffffffb0
   1c0fc:	3d299956 	stccc	9, cr9, [r9, #-344]!	; 0xfffffea8
   1c100:	3d2cbc8c 	stccc	12, cr11, [ip, #-560]!	; 0xfffffdd0
   1c104:	3d2fdfc2 	stccc	15, cr13, [pc, #-776]!	; 1be04 <__rodata_start+0x10e04>
   1c108:	3d330404 	cfldrscc	mvf0, [r3, #-16]!
   1c10c:	3d362739 	ldccc	7, cr2, [r6, #-228]!	; 0xffffff1c
   1c110:	3d394a6f 	vldmdbcc	r9!, {s8-s118}
   1c114:	3d3c6da4 	ldccc	13, cr6, [ip, #-656]!	; 0xfffffd70
   1c118:	3d3f90da 	ldccc	0, cr9, [pc, #-872]!	; 1bdb8 <__rodata_start+0x10db8>
   1c11c:	3d42b40f 	cfstrdcc	mvd11, [r2, #-60]	; 0xffffffc4
   1c120:	3d45d851 	stclcc	8, cr13, [r5, #-324]	; 0xfffffebc
   1c124:	3d48fb87 	vstrcc	d31, [r8, #-540]	; 0xfffffde4
   1c128:	3d4c1ebd 	stclcc	14, cr1, [ip, #-756]	; 0xfffffd0c
   1c12c:	3d4f41f2 	stfcce	f4, [pc, #-968]	; 1bd6c <__rodata_start+0x10d6c>
   1c130:	3d526528 	cfldr64cc	mvdx6, [r2, #-160]	; 0xffffff60
   1c134:	3d55885d 	ldclcc	8, cr8, [r5, #-372]	; 0xfffffe8c
   1c138:	3d58ab93 	vldrcc	d26, [r8, #-588]	; 0xfffffdb4
   1c13c:	3d5bcec8 	ldclcc	14, cr12, [fp, #-800]	; 0xfffffce0
   1c140:	3d5ef0f1 	ldclcc	0, cr15, [lr, #-964]	; 0xfffffc3c
   1c144:	3d621427 	cfstrdcc	mvd1, [r2, #-156]!	; 0xffffff64
   1c148:	3d65375d 	stclcc	7, cr3, [r5, #-372]!	; 0xfffffe8c
   1c14c:	3d685a92 	vstmdbcc	r8!, {s11-s156}
   1c150:	3d6b7dc8 	stclcc	13, cr7, [fp, #-800]!	; 0xfffffce0
   1c154:	3d6e9ff1 	stclcc	15, cr9, [lr, #-964]!	; 0xfffffc3c
   1c158:	3d71c326 	ldclcc	3, cr12, [r1, #-152]!	; 0xffffff68
   1c15c:	3d74e65c 	ldclcc	6, cr14, [r4, #-368]!	; 0xfffffe90
   1c160:	3d780885 	ldclcc	8, cr0, [r8, #-532]!	; 0xfffffdec
   1c164:	3d7b2bbb 	fldmdbxcc	fp!, {d18-d110}	;@ Deprecated
   1c168:	3d7e4de4 	ldclcc	13, cr4, [lr, #-912]!	; 0xfffffc70
   1c16c:	3d80b88d 	stccc	8, cr11, [r0, #564]	; 0x234
   1c170:	3d8249a1 	stccc	9, cr4, [r2, #644]	; 0x284
   1c174:	3d83db3c 	vstrcc	d13, [r3, #240]	; 0xf0
   1c178:	3d856c51 	stccc	12, cr6, [r5, #324]	; 0x144
   1c17c:	3d86fd65 	stccc	13, cr15, [r6, #404]	; 0x194
   1c180:	3d888f00 	stccc	15, cr8, [r8]
   1c184:	3d8a2014 	stccc	0, cr2, [sl, #80]	; 0x50
   1c188:	3d8bb129 	stfccd	f3, [fp, #164]	; 0xa4
   1c18c:	3d8d423e 	sfmcc	f4, 4, [sp, #248]	; 0xf8
   1c190:	3d8ed352 	stccc	3, cr13, [lr, #328]	; 0x148
   1c194:	3d9064ed 	cfldrscc	mvf6, [r0, #948]	; 0x3b4
   1c198:	3d91f601 	ldccc	6, cr15, [r1, #4]
   1c19c:	3d938716 	ldccc	7, cr8, [r3, #88]	; 0x58
   1c1a0:	3d95182b 	ldccc	8, cr1, [r5, #172]	; 0xac
   1c1a4:	3d96a93f 	ldccc	9, cr10, [r6, #252]	; 0xfc
   1c1a8:	3d9839ce 	ldccc	9, cr3, [r8, #824]	; 0x338
   1c1ac:	3d99cae2 	vldrcc	s24, [r9, #904]	; 0x388
   1c1b0:	3d9b5bf7 	vldrcc	d5, [fp, #988]	; 0x3dc
   1c1b4:	3d9ced0b 	ldccc	13, cr14, [ip, #44]	; 0x2c
   1c1b8:	3d9e7e20 	ldccc	14, cr7, [lr, #128]	; 0x80
   1c1bc:	3da00eae 	stccc	14, cr0, [r0, #696]!	; 0x2b8
   1c1c0:	3da19fc3 	stccc	15, cr9, [r1, #780]!	; 0x30c
   1c1c4:	3da33051 	stccc	0, cr3, [r3, #324]!	; 0x144
   1c1c8:	3da4c166 	stfccd	f4, [r4, #408]!	; 0x198
   1c1cc:	3da651f4 	stfccs	f5, [r6, #976]!	; 0x3d0
   1c1d0:	3da7e308 	stccc	3, cr14, [r7, #32]!
   1c1d4:	3da97397 	stccc	3, cr7, [r9, #604]!	; 0x25c
   1c1d8:	3dab04ab 	cfstrscc	mvf0, [fp, #684]!	; 0x2ac
   1c1dc:	3dac953a 	cfstr32cc	mvfx9, [ip, #232]!	; 0xe8
   1c1e0:	3dae25c8 	cfstr32cc	mvfx2, [lr, #800]!	; 0x320
   1c1e4:	3dafb656 	stccc	6, cr11, [pc, #344]!	; 1c344 <fsintable+0x320>
   1c1e8:	3db146e5 	ldccc	6, cr4, [r1, #916]!	; 0x394
   1c1ec:	3db2d7f9 	ldccc	7, cr13, [r2, #996]!	; 0x3e4
   1c1f0:	3db46888 	ldccc	8, cr6, [r4, #544]!	; 0x220
   1c1f4:	3db5f916 	ldccc	9, cr15, [r5, #88]!	; 0x58
   1c1f8:	3db7891e 	ldccc	9, cr8, [r7, #120]!	; 0x78
   1c1fc:	3db919ac 	ldccc	9, cr1, [r9, #688]!	; 0x2b0
   1c200:	3dbaaa3b 	ldccc	10, cr10, [sl, #236]!	; 0xec
   1c204:	3dbc3ac9 	ldccc	10, cr3, [ip, #804]!	; 0x324
   1c208:	3dbdcb58 	ldccc	11, cr12, [sp, #352]!	; 0x160
   1c20c:	3dbf5b60 	ldccc	11, cr5, [pc, #384]!	; 1c394 <fsintable+0x370>
   1c210:	3dc0ebee 	vstrcc	d30, [r0, #952]	; 0x3b8
   1c214:	3dc27bf6 	vstrcc	d23, [r2, #984]	; 0x3d8
   1c218:	3dc40c84 	stclcc	12, cr0, [r4, #528]	; 0x210
   1c21c:	3dc59c8d 	stclcc	12, cr9, [r5, #564]	; 0x234
   1c220:	3dc72d1b 	stclcc	13, cr2, [r7, #108]	; 0x6c
   1c224:	3dc8bd23 	stclcc	13, cr11, [r8, #140]	; 0x8c
   1c228:	3dca4d2b 	stclcc	13, cr4, [sl, #172]	; 0xac
   1c22c:	3dcbddba 	stclcc	13, cr13, [fp, #744]	; 0x2e8
   1c230:	3dcd6dc2 	stclcc	13, cr6, [sp, #776]	; 0x308
   1c234:	3dcefdca 	stclcc	13, cr15, [lr, #808]	; 0x328
   1c238:	3dd08dd2 	ldclcc	13, cr8, [r0, #840]	; 0x348
   1c23c:	3dd21dda 	ldclcc	13, cr1, [r2, #872]	; 0x368
   1c240:	3dd3ade2 	ldclcc	13, cr10, [r3, #904]	; 0x388
   1c244:	3dd53dea 	ldclcc	13, cr3, [r5, #936]	; 0x3a8
   1c248:	3dd6cd6c 	ldclcc	13, cr12, [r6, #432]	; 0x1b0
   1c24c:	3dd85d74 	ldclcc	13, cr5, [r8, #464]	; 0x1d0
   1c250:	3dd9ed7c 	ldclcc	13, cr14, [r9, #496]	; 0x1f0
   1c254:	3ddb7cfe 	ldclcc	12, cr7, [fp, #1016]	; 0x3f8
   1c258:	3ddd0d06 	ldclcc	13, cr0, [sp, #24]
   1c25c:	3dde9c88 	ldclcc	12, cr9, [lr, #544]	; 0x220
   1c260:	3de02c91 	stclcc	12, cr2, [r0, #580]!	; 0x244
   1c264:	3de1bc12 	stclcc	12, cr11, [r1, #72]!	; 0x48
   1c268:	3de34b94 	stclcc	11, cr4, [r3, #592]!	; 0x250
   1c26c:	3de4db9c 	stclcc	11, cr13, [r4, #624]!	; 0x270
   1c270:	3de66b1e 	stclcc	11, cr6, [r6, #120]!	; 0x78
   1c274:	3de7faa0 	stclcc	10, cr15, [r7, #640]!	; 0x280
   1c278:	3de98a22 	stclcc	10, cr8, [r9, #136]!	; 0x88
   1c27c:	3deb19a4 	stclcc	9, cr1, [fp, #656]!	; 0x290
   1c280:	3deca926 	stclcc	9, cr10, [ip, #152]!	; 0x98
   1c284:	3dee38a8 	stclcc	8, cr3, [lr, #672]!	; 0x2a0
   1c288:	3defc7a4 	stclcc	7, cr12, [pc, #656]!	; 1c520 <fsintable+0x4fc>
   1c28c:	3df15726 	ldclcc	7, cr5, [r1, #152]!	; 0x98
   1c290:	3df2e6a7 	ldclcc	6, cr14, [r2, #668]!	; 0x29c
   1c294:	3df475a3 	cfldr64cc	mvdx7, [r4, #652]!	; 0x28c
   1c298:	3df60525 	cfldr64cc	mvdx0, [r6, #148]!	; 0x94
   1c29c:	3df79421 	cfldrdcc	mvd9, [r7, #132]!	; 0x84
   1c2a0:	3df9231c 	ldclcc	3, cr2, [r9, #112]!	; 0x70
   1c2a4:	3dfab29e 	lfmcc	f3, 3, [sl, #632]!	; 0x278
   1c2a8:	3dfc419a 	ldfcce	f4, [ip, #616]!	; 0x268
   1c2ac:	3dfdd096 	ldclcc	0, cr13, [sp, #600]!	; 0x258
   1c2b0:	3dff5f91 	ldclcc	15, cr5, [pc, #580]!	; 1c4fc <fsintable+0x4d8>
   1c2b4:	3e007747 	cdpcc	7, 0, cr7, cr0, cr7, {2}
   1c2b8:	3e013ec4 	cdpcc	14, 0, cr3, cr1, cr4, {6}
   1c2bc:	3e020642 	cfmadd32cc	mvax2, mvfx0, mvfx2, mvfx2
   1c2c0:	3e02cd7d 	mcrcc	13, 0, ip, cr2, cr13, {3}
   1c2c4:	3e0394fb 	mcrcc	4, 0, r9, cr3, cr11, {7}
   1c2c8:	3e045c79 	mcrcc	12, 0, r5, cr4, cr9, {3}
   1c2cc:	3e0523b3 	mcrcc	3, 0, r2, cr5, cr3, {5}
   1c2d0:	3e05eb31 	vmovcc.16	d5[0], lr
   1c2d4:	3e06b26c 	cdpcc	2, 0, cr11, cr6, cr12, {3}
   1c2d8:	3e0779a7 	cdpcc	9, 0, cr7, cr7, cr7, {5}
   1c2dc:	3e084125 	adfccep	f4, f0, f5
   1c2e0:	3e09085f 	mcrcc	8, 0, r0, cr9, cr15, {2}
   1c2e4:	3e09cf9a 	mcrcc	15, 0, ip, cr9, cr10, {4}
   1c2e8:	3e0a96d5 	mcrcc	6, 0, r9, cr10, cr5, {6}
   1c2ec:	3e0b5e0f 	cdpcc	14, 0, cr5, cr11, cr15, {0}
   1c2f0:	3e0c2507 	cfsh32cc	mvfx2, mvfx12, #7
   1c2f4:	3e0cec42 	cdpcc	12, 0, cr14, cr12, cr2, {2}
   1c2f8:	3e0db37d 	mcrcc	3, 0, fp, cr13, cr13, {3}
   1c2fc:	3e0e7a74 	mcrcc	10, 0, r7, cr14, cr4, {3}
   1c300:	3e0f41af 	adfcc<illegal precision>p	f4, f7, #10.0
   1c304:	3e1008a7 	cdpcc	8, 1, cr0, cr0, cr7, {5}
   1c308:	3e10cfe1 	cdpcc	15, 1, cr12, cr0, cr1, {7}
   1c30c:	3e1196d9 	mrccc	6, 0, r9, cr1, cr9, {6}
   1c310:	3e125dd1 	mrccc	13, 0, r5, cr2, cr1, {6}
   1c314:	3e1324c8 	cdpcc	4, 1, cr2, cr3, cr8, {6}
   1c318:	3e13ebc0 	vnmlacc.f64	d14, d19, d0
   1c31c:	3e14b2b7 	mrccc	2, 0, fp, cr4, cr7, {5}
   1c320:	3e1579af 	cdpcc	9, 1, cr7, cr5, cr15, {5}
   1c324:	3e164064 	cdpcc	0, 1, cr4, cr6, cr4, {3}
   1c328:	3e17075b 	mrccc	7, 0, r0, cr7, cr11, {2}
   1c32c:	3e17ce53 	mrccc	14, 0, ip, cr7, cr3, {2}
   1c330:	3e189507 	cfmul32cc	mvfx9, mvfx8, mvfx7
   1c334:	3e195bff 	vmovcc.s16	r5, d25[1]
   1c338:	3e1a22b4 	mrccc	2, 0, r2, cr10, cr4, {5}
   1c33c:	3e1ae968 	cdpcc	9, 1, cr14, cr10, cr8, {3}
   1c340:	3e1bb01d 	mrccc	0, 0, fp, cr11, cr13, {0}
   1c344:	3e1c76d1 	mrccc	6, 0, r7, cr12, cr1, {6}
   1c348:	3e1d3d86 	cdpcc	13, 1, cr3, cr13, cr6, {4}
   1c34c:	3e1e043a 	mrccc	4, 0, r0, cr14, cr10, {1}
   1c350:	3e1ecaef 	vnmlacc.f32	s24, s29, s31
   1c354:	3e1f9160 	mnfccez	f1, f0
   1c358:	3e205815 	mcrcc	8, 1, r5, cr0, cr5, {0}
   1c35c:	3e211e86 	cdpcc	14, 2, cr1, cr1, cr6, {4}
   1c360:	3e21e53b 	mcrcc	5, 1, lr, cr1, cr11, {1}
   1c364:	3e22abac 	vmulcc.f64	d10, d18, d28
   1c368:	3e23721d 	mcrcc	2, 1, r7, cr3, cr13, {0}
   1c36c:	3e24388f 	cdpcc	8, 2, cr3, cr4, cr15, {4}
   1c370:	3e24ff00 	cdpcc	15, 2, cr15, cr4, cr0, {0}
   1c374:	3e25c572 	mcrcc	5, 1, ip, cr5, cr2, {3}
   1c378:	3e268be3 	vnmulcc.f64	d8, d22, d19
   1c37c:	3e275254 	mcrcc	2, 1, r5, cr7, cr4, {2}
   1c380:	3e2818c6 	cdpcc	8, 2, cr1, cr8, cr6, {6}
   1c384:	3e28def4 	mcrcc	14, 1, sp, cr8, cr4, {7}
   1c388:	3e29a565 	cfsh64cc	mvdx10, mvdx9, #53
   1c38c:	3e2a6b94 	vmovcc.32	d26[1], r6
   1c390:	3e2b31c2 	sufcc<illegal precision>m	f3, f3, f2
   1c394:	3e2bf7f0 	mcrcc	7, 1, pc, cr11, cr0, {7}	; <UNPREDICTABLE>
   1c398:	3e2cbe1f 	mcrcc	14, 1, fp, cr12, cr15, {0}
   1c39c:	3e2d844d 	cdpcc	4, 2, cr8, cr13, cr13, {2}
   1c3a0:	3e2e4a7b 	mcrcc	10, 1, r4, cr14, cr11, {3}
   1c3a4:	3e2f10aa 	cdpcc	0, 2, cr1, cr15, cr10, {5}
   1c3a8:	3e2fd6d8 	mcrcc	6, 1, sp, cr15, cr8, {6}
   1c3ac:	3e309cc3 	cdpcc	12, 3, cr9, cr0, cr3, {6}
   1c3b0:	3e3162f1 	mrccc	2, 1, r6, cr1, cr1, {7}
   1c3b4:	3e3228dd 	mrccc	8, 1, r2, cr2, cr13, {6}
   1c3b8:	3e32eec8 	cdpcc	14, 3, cr14, cr2, cr8, {6}
   1c3bc:	3e33b4b3 	mrccc	4, 1, fp, cr3, cr3, {5}
   1c3c0:	3e347a9e 	mrccc	10, 1, r7, cr4, cr14, {4}
   1c3c4:	3e354089 	cdpcc	0, 3, cr4, cr5, cr9, {4}
   1c3c8:	3e360675 	mrccc	6, 1, r0, cr6, cr5, {3}
   1c3cc:	3e36cc60 	cdpcc	12, 3, cr12, cr6, cr0, {3}
   1c3d0:	3e379208 	cdpcc	2, 3, cr9, cr7, cr8, {0}
   1c3d4:	3e3857f3 	mrccc	7, 1, r5, cr8, cr3, {7}
   1c3d8:	3e391d9b 	mrccc	13, 1, r1, cr9, cr11, {4}
   1c3dc:	3e39e386 	cdpcc	3, 3, cr14, cr9, cr6, {4}
   1c3e0:	3e3aa92e 	cdpcc	9, 3, cr10, cr10, cr14, {1}
   1c3e4:	3e3b6ed6 	mrccc	14, 1, r6, cr11, cr6, {6}
   1c3e8:	3e3c347f 	mrccc	4, 1, r3, cr12, cr15, {3}
   1c3ec:	3e3cfa27 	vaddcc.f32	s30, s24, s15
   1c3f0:	3e3dbf8c 	cdpcc	15, 3, cr11, cr13, cr12, {4}
   1c3f4:	3e3e8534 	mrccc	5, 1, r8, cr14, cr4, {1}
   1c3f8:	3e3f4adc 	mrccc	10, 1, r4, cr15, cr12, {6}
   1c3fc:	3e401041 	cdpcc	0, 4, cr1, cr0, cr1, {2}
   1c400:	3e40d5a6 	cdpcc	5, 4, cr13, cr0, cr6, {5}
   1c404:	3e419b4e 	vmlscc.f64	d25, d1, d14
   1c408:	3e4260b3 	mcrcc	0, 2, r6, cr2, cr3, {5}
   1c40c:	3e432618 	mcrcc	6, 2, r2, cr3, cr8, {0}
   1c410:	3e43eb7d 	vmovcc.8	d3[3], lr
   1c414:	3e44b09f 	mcrcc	0, 2, fp, cr4, cr15, {4}
   1c418:	3e457604 	cdpcc	6, 4, cr7, cr5, cr4, {0}
   1c41c:	3e463b69 	vmlscc.f64	d19, d6, d25
   1c420:	3e47008a 	cdpcc	0, 4, cr0, cr7, cr10, {4}
   1c424:	3e47c5ac 	cdpcc	5, 4, cr12, cr7, cr12, {5}
   1c428:	3e488b11 	vmovcc.8	d8[0], r8
   1c42c:	3e495033 	mcrcc	0, 2, r5, cr9, cr3, {1}
   1c430:	3e4a1555 	mcrcc	5, 2, r1, cr10, cr5, {2}
   1c434:	3e4ada34 	mcrcc	10, 2, sp, cr10, cr4, {1}
   1c438:	3e4b9f56 	mcrcc	15, 2, r9, cr11, cr6, {2}
   1c43c:	3e4c6477 	mcrcc	4, 2, r6, cr12, cr7, {3}
   1c440:	3e4d2956 	mcrcc	9, 2, r2, cr13, cr6, {2}
   1c444:	3e4dee78 	mcrcc	14, 2, lr, cr13, cr8, {3}
   1c448:	3e4eb357 	mcrcc	3, 2, fp, cr14, cr7, {2}
   1c44c:	3e4f7836 	mcrcc	8, 2, r7, cr15, cr6, {1}
   1c450:	3e503d14 	mrccc	13, 2, r3, cr0, cr4, {0}
   1c454:	3e5101f3 	mrccc	1, 2, r0, cr1, cr3, {7}
   1c458:	3e51c6d2 	mrccc	6, 2, ip, cr1, cr2, {6}
   1c45c:	3e528b6e 	vnmlacc.f64	d24, d2, d30
   1c460:	3e53504c 	cdpcc	0, 5, cr5, cr3, cr12, {2}
   1c464:	3e5414e8 	cdpcc	4, 5, cr1, cr4, cr8, {7}
   1c468:	3e54d9c7 	cdpcc	9, 5, cr13, cr4, cr7, {6}
   1c46c:	3e559e62 	cdpcc	14, 5, cr9, cr5, cr2, {3}
   1c470:	3e5662fe 	mrccc	2, 2, r6, cr6, cr14, {7}
   1c474:	3e57279a 	mrccc	7, 2, r2, cr7, cr10, {4}
   1c478:	3e57ec35 	mrccc	12, 2, lr, cr7, cr5, {1}
   1c47c:	3e58b08e 	cdpcc	0, 5, cr11, cr8, cr14, {4}
   1c480:	3e597529 	cdpcc	5, 5, cr7, cr9, cr9, {1}
   1c484:	3e5a3982 	cdpcc	9, 5, cr3, cr10, cr2, {4}
   1c488:	3e5afe1e 	mrccc	14, 2, APSR_nzcv, cr10, cr14, {0}
   1c48c:	3e5bc276 	mrccc	2, 2, ip, cr11, cr6, {3}
   1c490:	3e5c86cf 	cdpcc	6, 5, cr8, cr12, cr15, {6}
   1c494:	3e5d4b27 	vnmlscc.f64	d20, d13, d23
   1c498:	3e5e0f80 	cdpcc	15, 5, cr0, cr14, cr0, {4}
   1c49c:	3e5ed395 	mrccc	3, 2, sp, cr14, cr5, {4}
   1c4a0:	3e5f97ee 	cdpcc	7, 5, cr9, cr15, cr14, {7}
   1c4a4:	3e605c03 	cdpcc	12, 6, cr5, cr0, cr3, {0}
   1c4a8:	3e61205c 	mcrcc	0, 3, r2, cr1, cr12, {2}
   1c4ac:	3e61e471 	mcrcc	4, 3, lr, cr1, cr1, {3}
   1c4b0:	3e62a887 	cdpcc	8, 6, cr10, cr2, cr7, {4}
   1c4b4:	3e636c9c 	mcrcc	12, 3, r6, cr3, cr12, {4}
   1c4b8:	3e64306e 	cdpcc	0, 6, cr3, cr4, cr14, {3}
   1c4bc:	3e64f484 	cdpcc	4, 6, cr15, cr4, cr4, {4}
   1c4c0:	3e65b899 	mcrcc	8, 3, fp, cr5, cr9, {4}
   1c4c4:	3e667c6c 	cdpcc	12, 6, cr7, cr6, cr12, {3}
   1c4c8:	3e67403e 	mcrcc	0, 3, r4, cr7, cr14, {1}
   1c4cc:	3e680410 	mcrcc	4, 3, r0, cr8, cr0, {0}
   1c4d0:	3e68c7e3 	cdpcc	7, 6, cr12, cr8, cr3, {7}
   1c4d4:	3e698bb5 	vmovcc.8	d25[5], r8
   1c4d8:	3e6a4f87 	cdpcc	15, 6, cr4, cr10, cr7, {4}
   1c4dc:	3e6b1316 	mcrcc	3, 3, r1, cr11, cr6, {0}
   1c4e0:	3e6bd6e9 	cdpcc	6, 6, cr13, cr11, cr9, {7}
   1c4e4:	3e6c9a78 	mcrcc	10, 3, r9, cr12, cr8, {3}
   1c4e8:	3e6d5e07 	cdpcc	14, 6, cr5, cr13, cr7, {0}
   1c4ec:	3e6e2196 	mcrcc	1, 3, r2, cr14, cr6, {4}
   1c4f0:	3e6ee526 	cdpcc	5, 6, cr14, cr14, cr6, {1}
   1c4f4:	3e6fa8b5 	mcrcc	8, 3, sl, cr15, cr5, {5}
   1c4f8:	3e706c44 	cdpcc	12, 7, cr6, cr0, cr4, {2}
   1c4fc:	3e712f90 	mrccc	15, 3, r2, cr1, cr0, {4}
   1c500:	3e71f2dc 	mrccc	2, 3, APSR_nzcv, cr1, cr12, {6}
   1c504:	3e72b66b 	cdpcc	6, 7, cr11, cr2, cr11, {3}
   1c508:	3e7379b7 	mrccc	9, 3, r7, cr3, cr7, {5}
   1c50c:	3e743d04 	cdpcc	13, 7, cr3, cr4, cr4, {0}
   1c510:	3e75000d 	cdpcc	0, 7, cr0, cr5, cr13, {0}
   1c514:	3e75c359 	mrccc	3, 3, ip, cr5, cr9, {2}
   1c518:	3e7686a5 	cdpcc	6, 7, cr8, cr6, cr5, {5}
   1c51c:	3e7749ae 	cdpcc	9, 7, cr4, cr7, cr14, {5}
   1c520:	3e780cb7 	mrccc	12, 3, r0, cr8, cr7, {5}
   1c524:	3e78cfc0 	cdpcc	15, 7, cr12, cr8, cr0, {6}
   1c528:	3e7992c9 	cdpcc	2, 7, cr9, cr9, cr9, {6}
   1c52c:	3e7a55d2 	mrccc	5, 3, r5, cr10, cr2, {6}
   1c530:	3e7b18db 	mrccc	8, 3, r1, cr11, cr11, {6}
   1c534:	3e7bdba1 	vaddcc.f64	d29, d27, d17
   1c538:	3e7c9e67 	cdpcc	14, 7, cr9, cr12, cr7, {3}
   1c53c:	3e7d6170 	mrccc	1, 3, r6, cr13, cr0, {3}
   1c540:	3e7e2435 	mrccc	4, 3, r2, cr14, cr5, {1}
   1c544:	3e7ee6fb 	mrccc	6, 3, lr, cr14, cr11, {7}
   1c548:	3e7fa97e 	mrccc	9, 3, sl, cr15, cr14, {3}
   1c54c:	3e803622 	cdpcc	6, 8, cr3, cr0, cr2, {1}
   1c550:	3e809763 	cdpcc	7, 8, cr9, cr0, cr3, {3}
   1c554:	3e80f8c6 	cdpcc	8, 8, cr15, cr0, cr6, {6}
   1c558:	3e815a08 	vdivcc.f32	s10, s2, s16
   1c55c:	3e81bb49 	cdpcc	11, 8, cr11, cr1, cr9, {2}
   1c560:	3e821c8a 	cdpcc	12, 8, cr1, cr2, cr10, {4}
   1c564:	3e827dcc 	cdpcc	13, 8, cr7, cr2, cr12, {6}
   1c568:	3e82deec 	cdpcc	14, 8, cr13, cr2, cr12, {7}
   1c56c:	3e83402d 	cdpcc	0, 8, cr4, cr3, cr13, {1}
   1c570:	3e83a14d 	sinccsm	f2, #5.0
   1c574:	3e84026d 	cdpcc	2, 8, cr0, cr4, cr13, {3}
   1c578:	3e84638d 	cdpcc	3, 8, cr6, cr4, cr13, {4}
   1c57c:	3e84c4ac 	cdpcc	4, 8, cr12, cr4, cr12, {5}
   1c580:	3e8525cc 	cdpcc	5, 8, cr2, cr5, cr12, {6}
   1c584:	3e8586cb 	cdpcc	6, 8, cr8, cr5, cr11, {6}
   1c588:	3e85e7c9 	cdpcc	7, 8, cr14, cr5, cr9, {6}
   1c58c:	3e8648e9 	cdpcc	8, 8, cr4, cr6, cr9, {7}
   1c590:	3e86a9e7 	cdpcc	9, 8, cr10, cr6, cr7, {7}
   1c594:	3e870ae5 	cdpcc	10, 8, cr0, cr7, cr5, {7}
   1c598:	3e876bc2 	cdpcc	11, 8, cr6, cr7, cr2, {6}
   1c59c:	3e87ccc0 	cdpcc	12, 8, cr12, cr7, cr0, {6}
   1c5a0:	3e882d9d 	mcrcc	13, 4, r2, cr8, cr13, {4}
   1c5a4:	3e888e9b 	mcrcc	14, 4, r8, cr8, cr11, {4}
   1c5a8:	3e88ef78 	mcrcc	15, 4, lr, cr8, cr8, {3}
   1c5ac:	3e895055 	mcrcc	0, 4, r5, cr9, cr5, {2}
   1c5b0:	3e89b131 	mcrcc	1, 4, fp, cr9, cr1, {1}
   1c5b4:	3e8a11ed 	rmfcc<illegal precision>z	f1, f2, #5.0
   1c5b8:	3e8a72c9 	cdpcc	2, 8, cr7, cr10, cr9, {6}
   1c5bc:	3e8ad384 	cdpcc	3, 8, cr13, cr10, cr4, {4}
   1c5c0:	3e8b3440 	cdpcc	4, 8, cr3, cr11, cr0, {2}
   1c5c4:	3e8b94fb 	mcrcc	4, 4, r9, cr11, cr11, {7}
   1c5c8:	3e8bf5b6 	mcrcc	5, 4, pc, cr11, cr6, {5}	; <UNPREDICTABLE>
   1c5cc:	3e8c5671 	mcrcc	6, 4, r5, cr12, cr1, {3}
   1c5d0:	3e8cb70b 	cdpcc	7, 8, cr11, cr12, cr11, {0}
   1c5d4:	3e8d17c6 	cdpcc	7, 8, cr1, cr13, cr6, {6}
   1c5d8:	3e8d7860 	cdpcc	8, 8, cr7, cr13, cr0, {3}
   1c5dc:	3e8dd8f9 	mcrcc	8, 4, sp, cr13, cr9, {7}
   1c5e0:	3e8e3993 	mcrcc	9, 4, r3, cr14, cr3, {4}
   1c5e4:	3e8e9a2c 	vdivcc.f32	s18, s28, s25
   1c5e8:	3e8efaa4 	vdivcc.f32	s30, s29, s9
   1c5ec:	3e8f5b3e 	vdupcc.16	d15, r5
   1c5f0:	3e8fbbb6 	vdupcc.16	d31, fp
   1c5f4:	3e901c2e 	cdpcc	12, 9, cr1, cr0, cr14, {1}
   1c5f8:	3e907ca6 	cdpcc	12, 9, cr7, cr0, cr6, {5}
   1c5fc:	3e90dd1e 	mrccc	13, 4, sp, cr0, cr14, {0}
   1c600:	3e913d75 	mrccc	13, 4, r3, cr1, cr5, {3}
   1c604:	3e919ded 	cdpcc	13, 9, cr9, cr1, cr13, {7}
   1c608:	3e91fe43 	cdpcc	14, 9, cr15, cr1, cr3, {2}
   1c60c:	3e925e9a 	mrccc	14, 4, r5, cr2, cr10, {4}
   1c610:	3e92bef0 	mrccc	14, 4, fp, cr2, cr0, {7}
   1c614:	3e931f25 	cdpcc	15, 9, cr1, cr3, cr5, {1}
   1c618:	3e937f7c 	mrccc	15, 4, r7, cr3, cr12, {3}
   1c61c:	3e93dfb1 	mrccc	15, 4, sp, cr3, cr1, {5}
   1c620:	3e944007 	cdpcc	0, 9, cr4, cr4, cr7, {0}
   1c624:	3e94a03c 	mrccc	0, 4, sl, cr4, cr12, {1}
   1c628:	3e950071 	mrccc	0, 4, r0, cr5, cr1, {3}
   1c62c:	3e956085 	cdpcc	0, 9, cr6, cr5, cr5, {4}
   1c630:	3e95c0ba 	mrccc	0, 4, ip, cr5, cr10, {5}
   1c634:	3e9620cd 	cdpcc	0, 9, cr2, cr6, cr13, {6}
   1c638:	3e9680e0 	cdpcc	0, 9, cr8, cr6, cr0, {7}
   1c63c:	3e96e0f4 	mrccc	0, 4, lr, cr6, cr4, {7}
   1c640:	3e974107 	fmlccs	f4, f7, f7
   1c644:	3e97a11b 	mrccc	1, 4, sl, cr7, cr11, {0}
   1c648:	3e98010c 	fmlcce	f0, f0, #4.0
   1c64c:	3e986120 	fmlccep	f6, f0, f0
   1c650:	3e98c112 	mrccc	1, 4, ip, cr8, cr2, {0}
   1c654:	3e992104 	fmlcce	f2, f1, f4
   1c658:	3e9980f5 	mrccc	0, 4, r8, cr9, cr5, {7}
   1c65c:	3e99e0c6 	cdpcc	0, 9, cr14, cr9, cr6, {6}
   1c660:	3e9a40b8 	mrccc	0, 4, r4, cr10, cr8, {5}
   1c664:	3e9aa088 	cdpcc	0, 9, cr10, cr10, cr8, {4}
   1c668:	3e9b0058 	mrccc	0, 4, r0, cr11, cr8, {2}
   1c66c:	3e9b6028 	cdpcc	0, 9, cr6, cr11, cr8, {1}
   1c670:	3e9bbff9 	mrccc	15, 4, fp, cr11, cr9, {7}
   1c674:	3e9c1fa7 	cdpcc	15, 9, cr1, cr12, cr7, {5}
   1c678:	3e9c7f78 	mrccc	15, 4, r7, cr12, cr8, {3}
   1c67c:	3e9cdf26 	cdpcc	15, 9, cr13, cr12, cr6, {1}
   1c680:	3e9d3ed5 	mrccc	14, 4, r3, cr13, cr5, {6}
   1c684:	3e9d9e84 	cdpcc	14, 9, cr9, cr13, cr4, {4}
   1c688:	3e9dfe11 	mrccc	14, 4, APSR_nzcv, cr13, cr1, {0}
   1c68c:	3e9e5dc0 	cdpcc	13, 9, cr5, cr14, cr0, {6}
   1c690:	3e9ebd4d 	cdpcc	13, 9, cr11, cr14, cr13, {2}
   1c694:	3e9f1cda 	mrccc	12, 4, r1, cr15, cr10, {6}
   1c698:	3e9f7c67 	cdpcc	12, 9, cr7, cr15, cr7, {3}
   1c69c:	3e9fdbf5 	vmovcc.u16	sp, d31[1]
   1c6a0:	3ea03b60 	vfmscc.f64	d3, d0, d16
   1c6a4:	3ea09aed 	vfmscc.f32	s18, s1, s27
   1c6a8:	3ea0fa59 	mcrcc	10, 5, pc, cr0, cr9, {2}	; <UNPREDICTABLE>
   1c6ac:	3ea159c5 	cdpcc	9, 10, cr5, cr1, cr5, {6}
   1c6b0:	3ea1b930 	mcrcc	9, 5, fp, cr1, cr0, {1}
   1c6b4:	3ea2187a 	mcrcc	8, 5, r1, cr2, cr10, {3}
   1c6b8:	3ea277e6 	cdpcc	7, 10, cr7, cr2, cr6, {7}
   1c6bc:	3ea2d730 	mcrcc	7, 5, sp, cr2, cr0, {1}
   1c6c0:	3ea3367a 	mcrcc	6, 5, r3, cr3, cr10, {3}
   1c6c4:	3ea395c4 	cdpcc	5, 10, cr9, cr3, cr4, {6}
   1c6c8:	3ea3f50e 	cdpcc	5, 10, cr15, cr3, cr14, {0}
   1c6cc:	3ea45437 	mcrcc	4, 5, r5, cr4, cr7, {1}
   1c6d0:	3ea4b381 	cdpcc	3, 10, cr11, cr4, cr1, {4}
   1c6d4:	3ea512a9 	cdpcc	2, 10, cr1, cr5, cr9, {5}
   1c6d8:	3ea571d2 	mcrcc	1, 5, r7, cr5, cr2, {6}
   1c6dc:	3ea5d0d9 	mcrcc	0, 5, sp, cr5, cr9, {6}
   1c6e0:	3ea63001 	cdpcc	0, 10, cr3, cr6, cr1, {0}
   1c6e4:	3ea68f08 	cdpcc	15, 10, cr8, cr6, cr8, {0}
   1c6e8:	3ea6ee0f 	cdpcc	14, 10, cr14, cr6, cr15, {0}
   1c6ec:	3ea74d16 	mcrcc	13, 5, r4, cr7, cr6, {0}
   1c6f0:	3ea7ac1d 	mcrcc	12, 5, sl, cr7, cr13, {0}
   1c6f4:	3ea80b24 	vfmacc.f64	d0, d8, d20
   1c6f8:	3ea86a0a 	vfmacc.f32	s12, s16, s20
   1c6fc:	3ea8c8ef 	cdpcc	8, 10, cr12, cr8, cr15, {7}
   1c700:	3ea927d4 	mcrcc	7, 5, r2, cr9, cr4, {6}
   1c704:	3ea986ba 	mcrcc	6, 5, r8, cr9, cr10, {5}
   1c708:	3ea9e59f 	mcrcc	5, 5, lr, cr9, cr15, {4}
   1c70c:	3eaa4463 	cdpcc	4, 10, cr4, cr10, cr3, {3}
   1c710:	3eaaa348 	cdpcc	3, 10, cr10, cr10, cr8, {2}
   1c714:	3eab020c 	cdpcc	2, 10, cr0, cr11, cr12, {0}
   1c718:	3eab60af 	cdpcc	0, 10, cr6, cr11, cr15, {5}
   1c71c:	3eabbf72 	mcrcc	15, 5, fp, cr11, cr2, {3}
   1c720:	3eac1e36 	mcrcc	14, 5, r1, cr12, cr6, {1}
   1c724:	3eac7cd9 	mcrcc	12, 5, r7, cr12, cr9, {6}
   1c728:	3eacdb7b 	mcrcc	11, 5, sp, cr12, cr11, {3}
   1c72c:	3ead3a1d 	mcrcc	10, 5, r3, cr13, cr13, {0}
   1c730:	3ead989e 	mcrcc	8, 5, r9, cr13, cr14, {4}
   1c734:	3eadf740 	cdpcc	7, 10, cr15, cr13, cr0, {2}
   1c738:	3eae55c1 	cdpcc	5, 10, cr5, cr14, cr1, {6}
   1c73c:	3eaeb442 	cdpcc	4, 10, cr11, cr14, cr2, {2}
   1c740:	3eaf12c2 	cdpcc	2, 10, cr1, cr15, cr2, {6}
   1c744:	3eaf7143 	fdvccem	f7, f7, f3
   1c748:	3eafcfa2 	cdpcc	15, 10, cr12, cr15, cr2, {5}
   1c74c:	3eb02e02 	cdpcc	14, 11, cr2, cr0, cr2, {0}
   1c750:	3eb08c61 	cdpcc	12, 11, cr8, cr0, cr1, {3}
   1c754:	3eb0eac0 	vabscc.f32	s28, s0
   1c758:	3eb1491f 	mrccc	9, 5, r4, cr1, cr15, {0}
   1c75c:	3eb1a75d 	mrccc	7, 5, sl, cr1, cr13, {2}
   1c760:	3eb205bc 	mrccc	5, 5, r0, cr2, cr12, {5}
   1c764:	3eb263fa 	mrccc	3, 5, r6, cr2, cr10, {7}
   1c768:	3eb2c237 	mrccc	2, 5, ip, cr2, cr7, {1}
   1c76c:	3eb32053 	mrccc	0, 5, r2, cr3, cr3, {2}
   1c770:	3eb37e91 	mrccc	14, 5, r7, cr3, cr1, {4}
   1c774:	3eb3dcad 	cdpcc	12, 11, cr13, cr3, cr13, {5}
   1c778:	3eb43ac9 	vcmpecc.f32	s6, s18
   1c77c:	3eb498e5 	cdpcc	8, 11, cr9, cr4, cr5, {7}
   1c780:	3eb4f6e0 	cdpcc	6, 11, cr15, cr4, cr0, {7}
   1c784:	3eb554fc 	mrccc	4, 5, r5, cr5, cr12, {7}
   1c788:	3eb5b2f6 	mrccc	2, 5, fp, cr5, cr6, {7}
   1c78c:	3eb610f1 	mrccc	0, 5, r1, cr6, cr1, {7}
   1c790:	3eb66eca 	cdpcc	14, 11, cr6, cr6, cr10, {6}
   1c794:	3eb6ccc4 	cdpcc	12, 11, cr12, cr6, cr4, {6}
   1c798:	3eb72a9d 	mrccc	10, 5, r2, cr7, cr13, {4}
   1c79c:	3eb78876 	mrccc	8, 5, r8, cr7, cr6, {3}
   1c7a0:	3eb7e64f 	cdpcc	6, 11, cr14, cr7, cr15, {2}
   1c7a4:	3eb84428 	cdpcc	4, 11, cr4, cr8, cr8, {1}
   1c7a8:	3eb8a201 	cdpcc	2, 11, cr10, cr8, cr1, {0}
   1c7ac:	3eb8ffb9 	mrccc	15, 5, APSR_nzcv, cr8, cr9, {5}
   1c7b0:	3eb95d70 	mrccc	13, 5, r5, cr9, cr0, {3}
   1c7b4:	3eb9bb28 	cdpcc	11, 11, cr11, cr9, cr8, {1}
   1c7b8:	3eba18bd 	mrccc	8, 5, r1, cr10, cr13, {5}
   1c7bc:	3eba7675 	mrccc	6, 5, r7, cr10, cr5, {3}
   1c7c0:	3ebad40b 	cdpcc	4, 11, cr13, cr10, cr11, {0}
   1c7c4:	3ebb31a1 	frdcc<illegal precision>p	f3, f3, f1
   1c7c8:	3ebb8f36 	mrccc	15, 5, r8, cr11, cr6, {1}
   1c7cc:	3ebbecab 	cdpcc	12, 11, cr14, cr11, cr11, {5}
   1c7d0:	3ebc4a41 	vcvtrcc.u32.f32	s8, s2
   1c7d4:	3ebca7b5 	mrccc	7, 5, sl, cr12, cr5, {5}
   1c7d8:	3ebd0529 	cdpcc	5, 11, cr0, cr13, cr9, {1}
   1c7dc:	3ebd627c 	mrccc	2, 5, r6, cr13, cr12, {3}
   1c7e0:	3ebdbff0 	mrccc	15, 5, fp, cr13, cr0, {7}
   1c7e4:	3ebe1d43 	cdpcc	13, 11, cr1, cr14, cr3, {2}
   1c7e8:	3ebe7a96 	mrccc	10, 5, r7, cr14, cr6, {4}
   1c7ec:	3ebed7e9 	cdpcc	7, 11, cr13, cr14, cr9, {7}
   1c7f0:	3ebf353b 	mrccc	5, 5, r3, cr15, cr11, {1}
   1c7f4:	3ebf926c 	cdpcc	2, 11, cr9, cr15, cr12, {3}
   1c7f8:	3ebfef9e 	mrccc	15, 5, lr, cr15, cr14, {4}
   1c7fc:	3ec04ccf 	cdpcc	12, 12, cr4, cr0, cr15, {6}
   1c800:	3ec0aa00 	vdivcc.f32	s21, s0, s0
   1c804:	3ec10710 	mcrcc	7, 6, r0, cr1, cr0, {0}
   1c808:	3ec16441 	cdpcc	4, 12, cr6, cr1, cr1, {2}
   1c80c:	3ec1c151 	mcrcc	1, 6, ip, cr1, cr1, {2}
   1c810:	3ec21e60 	cdpcc	14, 12, cr1, cr2, cr0, {3}
   1c814:	3ec27b4e 	cdpcc	11, 12, cr7, cr2, cr14, {2}
   1c818:	3ec2d85e 	mcrcc	8, 6, sp, cr2, cr14, {2}
   1c81c:	3ec3354c 	cdpcc	5, 12, cr3, cr3, cr12, {2}
   1c820:	3ec3923a 	mcrcc	2, 6, r9, cr3, cr10, {1}
   1c824:	3ec3ef07 	cdpcc	15, 12, cr14, cr3, cr7, {0}
   1c828:	3ec44bf5 	mcrcc	11, 6, r4, cr4, cr5, {7}
   1c82c:	3ec4a8c1 	cdpcc	8, 12, cr10, cr4, cr1, {6}
   1c830:	3ec5058e 	cdpcc	5, 12, cr0, cr5, cr14, {4}
   1c834:	3ec5625a 	mcrcc	2, 6, r6, cr5, cr10, {2}
   1c838:	3ec5bf27 	cdpcc	15, 12, cr11, cr5, cr7, {1}
   1c83c:	3ec61bd2 	mcrcc	11, 6, r1, cr6, cr2, {6}
   1c840:	3ec6787d 	mcrcc	8, 6, r7, cr6, cr13, {3}
   1c844:	3ec6d528 	cdpcc	5, 12, cr13, cr6, cr8, {1}
   1c848:	3ec731d3 	mcrcc	1, 6, r3, cr7, cr3, {6}
   1c84c:	3ec78e5c 	mcrcc	14, 6, r8, cr7, cr12, {2}
   1c850:	3ec7eae6 	cdpcc	10, 12, cr14, cr7, cr6, {7}
   1c854:	3ec8476f 	cdpcc	7, 12, cr4, cr8, cr15, {3}
   1c858:	3ec8a3f9 	mcrcc	3, 6, sl, cr8, cr9, {7}
   1c85c:	3ec90082 	cdpcc	0, 12, cr0, cr9, cr2, {4}
   1c860:	3ec95cea 	cdpcc	12, 12, cr5, cr9, cr10, {7}
   1c864:	3ec9b952 	mcrcc	9, 6, fp, cr9, cr2, {2}
   1c868:	3eca15ba 	mcrcc	5, 6, r1, cr10, cr10, {5}
   1c86c:	3eca7200 	cdpcc	2, 12, cr7, cr10, cr0, {0}
   1c870:	3ecace68 	cdpcc	14, 12, cr12, cr10, cr8, {3}
   1c874:	3ecb2aae 	vdivcc.f32	s5, s23, s29
   1c878:	3ecb86f4 	mcrcc	6, 6, r8, cr11, cr4, {7}
   1c87c:	3ecbe33b 	mcrcc	3, 6, lr, cr11, cr11, {1}
   1c880:	3ecc3f60 	cdpcc	15, 12, cr3, cr12, cr0, {3}
   1c884:	3ecc9b84 	vdivcc.f64	d25, d28, d4
   1c888:	3eccf7a9 	cdpcc	7, 12, cr15, cr12, cr9, {5}
   1c88c:	3ecd53ce 	cdpcc	3, 12, cr5, cr13, cr14, {6}
   1c890:	3ecdafd1 	mcrcc	15, 6, sl, cr13, cr1, {6}
   1c894:	3ece0bf6 	mcrcc	11, 6, r0, cr14, cr6, {7}
   1c898:	3ece67f9 	mcrcc	7, 6, r6, cr14, cr9, {7}
   1c89c:	3ecec3db 	mcrcc	3, 6, ip, cr14, cr11, {6}
   1c8a0:	3ecf1fde 	mcrcc	15, 6, r1, cr15, cr14, {6}
   1c8a4:	3ecf7bc0 	cdpcc	11, 12, cr7, cr15, cr0, {6}
   1c8a8:	3ecfd7a1 	cdpcc	7, 12, cr13, cr15, cr1, {5}
   1c8ac:	3ed03383 	cdpcc	3, 13, cr3, cr0, cr3, {4}
   1c8b0:	3ed08f65 	cdpcc	15, 13, cr8, cr0, cr5, {3}
   1c8b4:	3ed0eb25 	vfnmscc.f64	d30, d0, d21
   1c8b8:	3ed146e5 	cdpcc	6, 13, cr4, cr1, cr5, {7}
   1c8bc:	3ed1a2a5 	cdpcc	2, 13, cr10, cr1, cr5, {5}
   1c8c0:	3ed1fe65 	cdpcc	14, 13, cr15, cr1, cr5, {3}
   1c8c4:	3ed25a04 	vfnmscc.f32	s11, s4, s8
   1c8c8:	3ed2b5a2 	cdpcc	5, 13, cr11, cr2, cr2, {5}
   1c8cc:	3ed31141 	cdpcc	1, 13, cr1, cr3, cr1, {2}
   1c8d0:	3ed36cdf 	mrccc	12, 6, r6, cr3, cr15, {6}
   1c8d4:	3ed3c85c 	mrccc	8, 6, ip, cr3, cr12, {2}
   1c8d8:	3ed423d9 	mrccc	3, 6, r2, cr4, cr9, {6}
   1c8dc:	3ed47f56 	mrccc	15, 6, r7, cr4, cr6, {2}
   1c8e0:	3ed4dad3 	mrccc	10, 6, sp, cr4, cr3, {6}
   1c8e4:	3ed53650 	mrccc	6, 6, r3, cr5, cr0, {2}
   1c8e8:	3ed591ac 	atnccdp	f1, #4.0
   1c8ec:	3ed5ed07 	cdpcc	13, 13, cr14, cr5, cr7, {0}
   1c8f0:	3ed64841 	cdpcc	8, 13, cr4, cr6, cr1, {2}
   1c8f4:	3ed6a39c 	mrccc	3, 6, sl, cr6, cr12, {4}
   1c8f8:	3ed6fed6 	mrccc	14, 6, APSR_nzcv, cr6, cr6, {6}
   1c8fc:	3ed75a10 	mrccc	10, 6, r5, cr7, cr0, {0}
   1c900:	3ed7b54a 	cdpcc	5, 13, cr11, cr7, cr10, {2}
   1c904:	3ed81062 	cdpcc	0, 13, cr1, cr8, cr2, {3}
   1c908:	3ed86b7b 	vmovcc.u8	r6, d8[3]
   1c90c:	3ed8c693 	mrccc	6, 6, ip, cr8, cr3, {4}
   1c910:	3ed921ab 	cdpcc	1, 13, cr2, cr9, cr11, {5}
   1c914:	3ed97cc4 	cdpcc	12, 13, cr7, cr9, cr4, {6}
   1c918:	3ed9d7ba 	mrccc	7, 6, sp, cr9, cr10, {5}
   1c91c:	3eda32b1 	mrccc	2, 6, r3, cr10, cr1, {5}
   1c920:	3eda8da8 	cdpcc	13, 13, cr8, cr10, cr8, {5}
   1c924:	3edae87d 	mrccc	8, 6, lr, cr10, cr13, {3}
   1c928:	3edb4352 	mrccc	3, 6, r4, cr11, cr2, {2}
   1c92c:	3edb9e28 	cdpcc	14, 13, cr9, cr11, cr8, {1}
   1c930:	3edbf8fd 	mrccc	8, 6, APSR_nzcv, cr11, cr13, {7}
   1c934:	3edc53b1 	mrccc	3, 6, r5, cr12, cr1, {5}
   1c938:	3edcae86 	cdpcc	14, 13, cr10, cr12, cr6, {4}
   1c93c:	3edd0939 	mrccc	9, 6, r0, cr13, cr9, {1}
   1c940:	3edd63cc 	cdpcc	3, 13, cr6, cr13, cr12, {6}
   1c944:	3eddbe7f 	mrccc	14, 6, fp, cr13, cr15, {3}
   1c948:	3ede1911 	mrccc	9, 6, r1, cr14, cr1, {0}
   1c94c:	3ede73a3 	cdpcc	3, 13, cr7, cr14, cr3, {5}
   1c950:	3edece36 	mrccc	14, 6, ip, cr14, cr6, {1}
   1c954:	3edf28a6 	cdpcc	8, 13, cr2, cr15, cr6, {5}
   1c958:	3edf8317 	mrccc	3, 6, r8, cr15, cr7, {0}
   1c95c:	3edfdd87 	cdpcc	13, 13, cr13, cr15, cr7, {4}
   1c960:	3ee037f8 	mcrcc	7, 7, r3, cr0, cr8, {7}
   1c964:	3ee09247 	cdpcc	2, 14, cr9, cr0, cr7, {2}
   1c968:	3ee0ec96 	mcrcc	12, 7, lr, cr0, cr6, {4}
   1c96c:	3ee146e5 	cdpcc	6, 14, cr4, cr1, cr5, {7}
   1c970:	3ee1a134 	mcrcc	1, 7, sl, cr1, cr4, {1}
   1c974:	3ee1fb61 	vfmscc.f64	d31, d1, d17
   1c978:	3ee2558f 	cdpcc	5, 14, cr5, cr2, cr15, {4}
   1c97c:	3ee2afbc 	mcrcc	15, 7, sl, cr2, cr12, {5}
   1c980:	3ee309ea 	cdpcc	9, 14, cr0, cr3, cr10, {7}
   1c984:	3ee363f5 	mcrcc	3, 7, r6, cr3, cr5, {7}
   1c988:	3ee3be01 	cdpcc	14, 14, cr11, cr3, cr1, {0}
   1c98c:	3ee4180d 	cdpcc	8, 14, cr1, cr4, cr13, {0}
   1c990:	3ee47219 	mcrcc	2, 7, r7, cr4, cr9, {0}
   1c994:	3ee4cc03 	cdpcc	12, 14, cr12, cr4, cr3, {0}
   1c998:	3ee525ee 	cdpcc	5, 14, cr2, cr5, cr14, {7}
   1c99c:	3ee57fd8 	mcrcc	15, 7, r7, cr5, cr8, {6}
   1c9a0:	3ee5d9a1 	cdpcc	9, 14, cr13, cr5, cr1, {5}
   1c9a4:	3ee6336a 	cdpcc	3, 14, cr3, cr6, cr10, {3}
   1c9a8:	3ee68d33 	mcrcc	13, 7, r8, cr6, cr3, {1}
   1c9ac:	3ee6e6fb 	mcrcc	6, 7, lr, cr6, cr11, {7}
   1c9b0:	3ee740a3 	cdpcc	0, 14, cr4, cr7, cr3, {5}
   1c9b4:	3ee79a6b 	vfmscc.f32	s19, s14, s23
   1c9b8:	3ee7f3f1 	mcrcc	3, 7, pc, cr7, cr1, {7}	; <UNPREDICTABLE>
   1c9bc:	3ee84d98 	mcrcc	13, 7, r4, cr8, cr8, {4}
   1c9c0:	3ee8a71e 	mcrcc	7, 7, sl, cr8, cr14, {0}
   1c9c4:	3ee900c5 	cdpcc	0, 14, cr0, cr9, cr5, {6}
   1c9c8:	3ee95a29 	vfmacc.f32	s11, s18, s19
   1c9cc:	3ee9b3af 	cdpcc	3, 14, cr11, cr9, cr15, {5}
   1c9d0:	3eea0d13 	mcrcc	13, 7, r0, cr10, cr3, {0}
   1c9d4:	3eea6677 	mcrcc	6, 7, r6, cr10, cr7, {3}
   1c9d8:	3eeabfdb 	mcrcc	15, 7, fp, cr10, cr11, {6}
   1c9dc:	3eeb193f 	mcrcc	9, 7, r1, cr11, cr15, {1}
   1c9e0:	3eeb7282 	cdpcc	2, 14, cr7, cr11, cr2, {4}
   1c9e4:	3eebcbc5 	vfmscc.f64	d28, d27, d5
   1c9e8:	3eec24e6 	cdpcc	4, 14, cr2, cr12, cr6, {7}
   1c9ec:	3eec7e28 	cdpcc	14, 14, cr7, cr12, cr8, {1}
   1c9f0:	3eecd749 	cdpcc	7, 14, cr13, cr12, cr9, {2}
   1c9f4:	3eed306a 	cdpcc	0, 14, cr3, cr13, cr10, {3}
   1c9f8:	3eed896a 	cdpcc	9, 14, cr8, cr13, cr10, {3}
   1c9fc:	3eede28b 	cdpcc	2, 14, cr14, cr13, cr11, {4}
   1ca00:	3eee3b8a 	vfmacc.f64	d19, d30, d10
   1ca04:	3eee9468 	cdpcc	4, 14, cr9, cr14, cr8, {3}
   1ca08:	3eeeed67 	cdpcc	13, 14, cr14, cr14, cr7, {3}
   1ca0c:	3eef4645 	cdpcc	6, 14, cr4, cr15, cr5, {2}
   1ca10:	3eef9f23 	cdpcc	15, 14, cr9, cr15, cr3, {1}
   1ca14:	3eeff801 	cdpcc	8, 14, cr15, cr15, cr1, {0}
   1ca18:	3ef050be 	mrccc	0, 7, r5, cr0, cr14, {5}
   1ca1c:	3ef0a97a 	mrccc	9, 7, sl, cr0, cr10, {3}
   1ca20:	3ef10236 	mrccc	2, 7, r0, cr1, cr6, {1}
   1ca24:	3ef15af3 	mrccc	10, 7, r5, cr1, cr3, {7}
   1ca28:	3ef1b38d 	cdpcc	3, 15, cr11, cr1, cr13, {4}
   1ca2c:	3ef20c28 	cdpcc	12, 15, cr0, cr2, cr8, {1}
   1ca30:	3ef264c3 	cdpcc	4, 15, cr6, cr2, cr3, {6}
   1ca34:	3ef2bd3c 	mrccc	13, 7, fp, cr2, cr12, {1}
   1ca38:	3ef315b5 	mrccc	5, 7, r1, cr3, cr5, {5}
   1ca3c:	3ef36e2f 	cdpcc	14, 15, cr6, cr3, cr15, {1}
   1ca40:	3ef3c6a8 	cdpcc	6, 15, cr12, cr3, cr8, {5}
   1ca44:	3ef41f00 	cdpcc	15, 15, cr1, cr4, cr0, {0}
   1ca48:	3ef47757 	mrccc	7, 7, r7, cr4, cr7, {2}
   1ca4c:	3ef4cfaf 	cdpcc	15, 15, cr12, cr4, cr15, {5}
   1ca50:	3ef52807 	cdpcc	8, 15, cr2, cr5, cr7, {0}
   1ca54:	3ef5803d 	mrccc	0, 7, r8, cr5, cr13, {1}
   1ca58:	3ef5d873 	mrccc	8, 7, sp, cr5, cr3, {3}
   1ca5c:	3ef63088 	cdpcc	0, 15, cr3, cr6, cr8, {4}
   1ca60:	3ef688be 	mrccc	8, 7, r8, cr6, cr14, {5}
   1ca64:	3ef6e0d2 	mrccc	0, 7, lr, cr6, cr2, {6}
   1ca68:	3ef738e7 	cdpcc	8, 15, cr3, cr7, cr7, {7}
   1ca6c:	3ef790da 	mrccc	0, 7, r9, cr7, cr10, {6}
   1ca70:	3ef7e8cd 	cdpcc	8, 15, cr14, cr7, cr13, {6}
   1ca74:	3ef840c0 	cdpcc	0, 15, cr4, cr8, cr0, {6}
   1ca78:	3ef898b3 	mrccc	8, 7, r9, cr8, cr3, {5}
   1ca7c:	3ef8f084 	cdpcc	0, 15, cr15, cr8, cr4, {4}
   1ca80:	3ef94856 	mrccc	8, 7, r4, cr9, cr6, {2}
   1ca84:	3ef9a027 	cdpcc	0, 15, cr10, cr9, cr7, {1}
   1ca88:	3ef9f7f9 	mrccc	7, 7, APSR_nzcv, cr9, cr9, {7}
   1ca8c:	3efa4fa9 	cdpcc	15, 15, cr4, cr10, cr9, {5}
   1ca90:	3efaa759 	mrccc	7, 7, sl, cr10, cr9, {2}
   1ca94:	3efafee7 	cdpcc	14, 15, cr15, cr10, cr7, {7}
   1ca98:	3efb5697 	mrccc	6, 7, r5, cr11, cr7, {4}
   1ca9c:	3efbae25 	cdpcc	14, 15, cr10, cr11, cr5, {1}
   1caa0:	3efc05b4 	mrccc	5, 7, r0, cr12, cr4, {5}
   1caa4:	3efc5d20 	cdpcc	13, 15, cr5, cr12, cr0, {1}
   1caa8:	3efcb48d 	cdpcc	4, 15, cr11, cr12, cr13, {4}
   1caac:	3efd0bfa 	vmovcc.u8	r0, d29[7]
   1cab0:	3efd6367 	cdpcc	3, 15, cr6, cr13, cr7, {3}
   1cab4:	3efdbab2 	mrccc	10, 7, fp, cr13, cr2, {5}
   1cab8:	3efe11fd 	mrccc	1, 7, r1, cr14, cr13, {7}
   1cabc:	3efe6949 	cdpcc	9, 15, cr6, cr14, cr9, {2}
   1cac0:	3efec094 	mrccc	0, 7, ip, cr14, cr4, {4}
   1cac4:	3eff17be 	mrccc	7, 7, r1, cr15, cr14, {5}
   1cac8:	3eff6ee7 	cdpcc	14, 15, cr6, cr15, cr7, {7}
   1cacc:	3effc5ef 	cdpcc	5, 15, cr12, cr15, cr15, {7}
   1cad0:	3f000e7c 	svccc	0x00000e7c
   1cad4:	3f003a00 	svccc	0x00003a00
   1cad8:	3f006584 	svccc	0x00006584
   1cadc:	3f0090f7 	svccc	0x000090f7
   1cae0:	3f00bc7b 	svccc	0x0000bc7b
   1cae4:	3f00e7de 	svccc	0x0000e7de
   1cae8:	3f011351 	svccc	0x00011351
   1caec:	3f013eb4 	svccc	0x00013eb4
   1caf0:	3f016a16 	svccc	0x00016a16
   1caf4:	3f019579 	svccc	0x00019579
   1caf8:	3f01c0ca 	svccc	0x0001c0ca
   1cafc:	3f01ec1c 	svccc	0x0001ec1c
   1cb00:	3f02176e 	svccc	0x0002176e
   1cb04:	3f0242af 	svccc	0x000242af
   1cb08:	3f026df0 	svccc	0x00026df0
   1cb0c:	3f029931 	svccc	0x00029931
   1cb10:	3f02c472 	svccc	0x0002c472
   1cb14:	3f02efa2 	svccc	0x0002efa2
   1cb18:	3f031ad2 	svccc	0x00031ad2
   1cb1c:	3f0345f1 	svccc	0x000345f1
   1cb20:	3f037122 	svccc	0x00037122
   1cb24:	3f039c41 	svccc	0x00039c41
   1cb28:	3f03c750 	svccc	0x0003c750
   1cb2c:	3f03f26f 	svccc	0x0003f26f
   1cb30:	3f041d7e 	svccc	0x00041d7e
   1cb34:	3f04488c 	svccc	0x0004488c
   1cb38:	3f04738a 	svccc	0x0004738a
   1cb3c:	3f049e99 	svccc	0x00049e99
   1cb40:	3f04c986 	svccc	0x0004c986
   1cb44:	3f04f484 	svccc	0x0004f484
   1cb48:	3f051f71 	svccc	0x00051f71
   1cb4c:	3f054a5e 	svccc	0x00054a5e
   1cb50:	3f05754b 	svccc	0x0005754b
   1cb54:	3f05a027 	svccc	0x0005a027
   1cb58:	3f05cb04 	svccc	0x0005cb04
   1cb5c:	3f05f5e0 	svccc	0x0005f5e0
   1cb60:	3f0620bc 	svccc	0x000620bc
   1cb64:	3f064b88 	svccc	0x00064b88
   1cb68:	3f067653 	svccc	0x00067653
   1cb6c:	3f06a10e 	svccc	0x0006a10e
   1cb70:	3f06cbc9 	svccc	0x0006cbc9
   1cb74:	3f06f683 	svccc	0x0006f683
   1cb78:	3f07213e 	svccc	0x0007213e
   1cb7c:	3f074be8 	svccc	0x00074be8
   1cb80:	3f077692 	svccc	0x00077692
   1cb84:	3f07a13c 	svccc	0x0007a13c
   1cb88:	3f07cbd5 	svccc	0x0007cbd5
   1cb8c:	3f07f66f 	svccc	0x0007f66f
   1cb90:	3f082108 	svccc	0x00082108
   1cb94:	3f084b90 	svccc	0x00084b90
   1cb98:	3f087619 	svccc	0x00087619
   1cb9c:	3f08a0a1 	svccc	0x0008a0a1
   1cba0:	3f08cb19 	svccc	0x0008cb19
   1cba4:	3f08f5a1 	svccc	0x0008f5a1
   1cba8:	3f092008 	svccc	0x00092008
   1cbac:	3f094a80 	svccc	0x00094a80
   1cbb0:	3f0974e6 	svccc	0x000974e6
   1cbb4:	3f099f4d 	svccc	0x00099f4d
   1cbb8:	3f09c9b4 	svccc	0x0009c9b4
   1cbbc:	3f09f40a 	svccc	0x0009f40a
   1cbc0:	3f0a1e60 	svccc	0x000a1e60
   1cbc4:	3f0a48a6 	svccc	0x000a48a6
   1cbc8:	3f0a72fc 	svccc	0x000a72fc
   1cbcc:	3f0a9d41 	svccc	0x000a9d41
   1cbd0:	3f0ac775 	svccc	0x000ac775
   1cbd4:	3f0af1bb 	svccc	0x000af1bb
   1cbd8:	3f0b1bef 	svccc	0x000b1bef
   1cbdc:	3f0b4624 	svccc	0x000b4624
   1cbe0:	3f0b7048 	svccc	0x000b7048
   1cbe4:	3f0b9a6b 	svccc	0x000b9a6b
   1cbe8:	3f0bc48f 	svccc	0x000bc48f
   1cbec:	3f0beea2 	svccc	0x000beea2
   1cbf0:	3f0c18b5 	svccc	0x000c18b5
   1cbf4:	3f0c42c8 	svccc	0x000c42c8
   1cbf8:	3f0c6cdb 	svccc	0x000c6cdb
   1cbfc:	3f0c96dd 	svccc	0x000c96dd
   1cc00:	3f0cc0cf 	svccc	0x000cc0cf
   1cc04:	3f0cead1 	svccc	0x000cead1
   1cc08:	3f0d14c2 	svccc	0x000d14c2
   1cc0c:	3f0d3eb4 	svccc	0x000d3eb4
   1cc10:	3f0d68a5 	svccc	0x000d68a5
   1cc14:	3f0d9286 	svccc	0x000d9286
   1cc18:	3f0dbc66 	svccc	0x000dbc66
   1cc1c:	3f0de636 	svccc	0x000de636
   1cc20:	3f0e1006 	svccc	0x000e1006
   1cc24:	3f0e39d6 	svccc	0x000e39d6
   1cc28:	3f0e63a6 	svccc	0x000e63a6
   1cc2c:	3f0e8d65 	svccc	0x000e8d65
   1cc30:	3f0eb724 	svccc	0x000eb724
   1cc34:	3f0ee0e3 	svccc	0x000ee0e3
   1cc38:	3f0f0a91 	svccc	0x000f0a91
   1cc3c:	3f0f3440 	svccc	0x000f3440
   1cc40:	3f0f5ddd 	svccc	0x000f5ddd
   1cc44:	3f0f878b 	svccc	0x000f878b
   1cc48:	3f0fb129 	svccc	0x000fb129
   1cc4c:	3f0fdab6 	svccc	0x000fdab6
   1cc50:	3f100443 	svccc	0x00100443
   1cc54:	3f102dcf 	svccc	0x00102dcf
   1cc58:	3f10575c 	svccc	0x0010575c
   1cc5c:	3f1080d8 	svccc	0x001080d8
   1cc60:	3f10aa54 	svccc	0x0010aa54
   1cc64:	3f10d3d0 	svccc	0x0010d3d0
   1cc68:	3f10fd3b 	svccc	0x0010fd3b
   1cc6c:	3f1126a6 	svccc	0x001126a6
   1cc70:	3f115012 	svccc	0x00115012
   1cc74:	3f11796c 	svccc	0x0011796c
   1cc78:	3f11a2c6 	svccc	0x0011a2c6
   1cc7c:	3f11cc21 	svccc	0x0011cc21
   1cc80:	3f11f56a 	svccc	0x0011f56a
   1cc84:	3f121eb4 	svccc	0x00121eb4
   1cc88:	3f1247ed 	svccc	0x001247ed
   1cc8c:	3f127137 	svccc	0x00127137
   1cc90:	3f129a70 	svccc	0x00129a70
   1cc94:	3f12c398 	svccc	0x0012c398
   1cc98:	3f12ecc0 	svccc	0x0012ecc0
   1cc9c:	3f1315e8 	svccc	0x001315e8
   1cca0:	3f133f10 	svccc	0x00133f10
   1cca4:	3f136827 	svccc	0x00136827
   1cca8:	3f13913f 	svccc	0x0013913f
   1ccac:	3f13ba56 	svccc	0x0013ba56
   1ccb0:	3f13e35c 	svccc	0x0013e35c
   1ccb4:	3f140c63 	svccc	0x00140c63
   1ccb8:	3f143559 	svccc	0x00143559
   1ccbc:	3f145e5f 	svccc	0x00145e5f
   1ccc0:	3f148744 	svccc	0x00148744
   1ccc4:	3f14b03a 	svccc	0x0014b03a
   1ccc8:	3f14d91f 	svccc	0x0014d91f
   1cccc:	3f150204 	svccc	0x00150204
   1ccd0:	3f152ad8 	svccc	0x00152ad8
   1ccd4:	3f1553bd 	svccc	0x001553bd
   1ccd8:	3f157c81 	svccc	0x00157c81
   1ccdc:	3f15a555 	svccc	0x0015a555
   1cce0:	3f15ce18 	svccc	0x0015ce18
   1cce4:	3f15f6dc 	svccc	0x0015f6dc
   1cce8:	3f161f8e 	svccc	0x00161f8e
   1ccec:	3f164841 	svccc	0x00164841
   1ccf0:	3f1670f4 	svccc	0x001670f4
   1ccf4:	3f1699a6 	svccc	0x001699a6
   1ccf8:	3f16c248 	svccc	0x0016c248
   1ccfc:	3f16ead9 	svccc	0x0016ead9
   1cd00:	3f17137b 	svccc	0x0017137b
   1cd04:	3f173c0c 	svccc	0x00173c0c
   1cd08:	3f17648c 	svccc	0x0017648c
   1cd0c:	3f178d1e 	svccc	0x00178d1e
   1cd10:	3f17b59e 	svccc	0x0017b59e
   1cd14:	3f17de0d 	svccc	0x0017de0d
   1cd18:	3f18068e 	svccc	0x0018068e
   1cd1c:	3f182eec 	svccc	0x00182eec
   1cd20:	3f18575c 	svccc	0x0018575c
   1cd24:	3f187fbb 	svccc	0x00187fbb
   1cd28:	3f18a81a 	svccc	0x0018a81a
   1cd2c:	3f18d078 	svccc	0x0018d078
   1cd30:	3f18f8c6 	svccc	0x0018f8c6
   1cd34:	3f192114 	svccc	0x00192114
   1cd38:	3f194952 	svccc	0x00194952
   1cd3c:	3f19718f 	svccc	0x0019718f
   1cd40:	3f1999cc 	svccc	0x001999cc
   1cd44:	3f19c1f8 	svccc	0x0019c1f8
   1cd48:	3f19ea36 	svccc	0x0019ea36
   1cd4c:	3f1a1251 	svccc	0x001a1251
   1cd50:	3f1a3a7e 	svccc	0x001a3a7e
   1cd54:	3f1a6299 	svccc	0x001a6299
   1cd58:	3f1a8aa4 	svccc	0x001a8aa4
   1cd5c:	3f1ab2c0 	svccc	0x001ab2c0
   1cd60:	3f1adaba 	svccc	0x001adaba
   1cd64:	3f1b02c5 	svccc	0x001b02c5
   1cd68:	3f1b2abf 	svccc	0x001b2abf
   1cd6c:	3f1b52b9 	svccc	0x001b52b9
   1cd70:	3f1b7ab3 	svccc	0x001b7ab3
   1cd74:	3f1ba29c 	svccc	0x001ba29c
   1cd78:	3f1bca86 	svccc	0x001bca86
   1cd7c:	3f1bf25e 	svccc	0x001bf25e
   1cd80:	3f1c1a37 	svccc	0x001c1a37
   1cd84:	3f1c420f 	svccc	0x001c420f
   1cd88:	3f1c69d7 	svccc	0x001c69d7
   1cd8c:	3f1c919f 	svccc	0x001c919f
   1cd90:	3f1cb967 	svccc	0x001cb967
   1cd94:	3f1ce11e 	svccc	0x001ce11e
   1cd98:	3f1d08d5 	svccc	0x001d08d5
   1cd9c:	3f1d308c 	svccc	0x001d308c
   1cda0:	3f1d5832 	svccc	0x001d5832
   1cda4:	3f1d7fd8 	svccc	0x001d7fd8
   1cda8:	3f1da76e 	svccc	0x001da76e
   1cdac:	3f1dcf03 	svccc	0x001dcf03
   1cdb0:	3f1df698 	svccc	0x001df698
   1cdb4:	3f1e1e1d 	svccc	0x001e1e1d
   1cdb8:	3f1e45a2 	svccc	0x001e45a2
   1cdbc:	3f1e6d26 	svccc	0x001e6d26
   1cdc0:	3f1e949a 	svccc	0x001e949a
   1cdc4:	3f1ebc0e 	svccc	0x001ebc0e
   1cdc8:	3f1ee382 	svccc	0x001ee382
   1cdcc:	3f1f0ae5 	svccc	0x001f0ae5
   1cdd0:	3f1f3248 	svccc	0x001f3248
   1cdd4:	3f1f599b 	svccc	0x001f599b
   1cdd8:	3f1f80ed 	svccc	0x001f80ed
   1cddc:	3f1fa83f 	svccc	0x001fa83f
   1cde0:	3f1fcf81 	svccc	0x001fcf81
   1cde4:	3f1ff6c2 	svccc	0x001ff6c2
   1cde8:	3f201e04 	svccc	0x00201e04
   1cdec:	3f204535 	svccc	0x00204535
   1cdf0:	3f206c66 	svccc	0x00206c66
   1cdf4:	3f209396 	svccc	0x00209396
   1cdf8:	3f20bab6 	svccc	0x0020bab6
   1cdfc:	3f20e1d6 	svccc	0x0020e1d6
   1ce00:	3f2108e6 	svccc	0x002108e6
   1ce04:	3f212ff5 	svccc	0x00212ff5
   1ce08:	3f215704 	svccc	0x00215704
   1ce0c:	3f217e02 	svccc	0x00217e02
   1ce10:	3f21a501 	svccc	0x0021a501
   1ce14:	3f21cbff 	svccc	0x0021cbff
   1ce18:	3f21f2ed 	svccc	0x0021f2ed
   1ce1c:	3f2219db 	svccc	0x002219db
   1ce20:	3f2240b8 	svccc	0x002240b8
   1ce24:	3f226794 	svccc	0x00226794
   1ce28:	3f228e71 	svccc	0x00228e71
   1ce2c:	3f22b53d 	svccc	0x0022b53d
   1ce30:	3f22dc0a 	svccc	0x0022dc0a
   1ce34:	3f2302d6 	svccc	0x002302d6
   1ce38:	3f232991 	svccc	0x00232991
   1ce3c:	3f23504c 	svccc	0x0023504c
   1ce40:	3f2376f7 	svccc	0x002376f7
   1ce44:	3f239da1 	svccc	0x00239da1
   1ce48:	3f23c44c 	svccc	0x0023c44c
   1ce4c:	3f23eae6 	svccc	0x0023eae6
   1ce50:	3f241180 	svccc	0x00241180
   1ce54:	3f243819 	svccc	0x00243819
   1ce58:	3f245ea2 	svccc	0x00245ea2
   1ce5c:	3f24852b 	svccc	0x0024852b
   1ce60:	3f24aba4 	svccc	0x0024aba4
   1ce64:	3f24d22d 	svccc	0x0024d22d
   1ce68:	3f24f894 	svccc	0x0024f894
   1ce6c:	3f251f0c 	svccc	0x00251f0c
   1ce70:	3f254563 	svccc	0x00254563
   1ce74:	3f256bca 	svccc	0x00256bca
   1ce78:	3f259221 	svccc	0x00259221
   1ce7c:	3f25b878 	svccc	0x0025b878
   1ce80:	3f25debe 	svccc	0x0025debe
   1ce84:	3f260503 	svccc	0x00260503
   1ce88:	3f262b49 	svccc	0x00262b49
   1ce8c:	3f26517e 	svccc	0x0026517e
   1ce90:	3f2677b4 	svccc	0x002677b4
   1ce94:	3f269de9 	svccc	0x00269de9
   1ce98:	3f26c40d 	svccc	0x0026c40d
   1ce9c:	3f26ea31 	svccc	0x0026ea31
   1cea0:	3f271045 	svccc	0x00271045
   1cea4:	3f273659 	svccc	0x00273659
   1cea8:	3f275c5b 	svccc	0x00275c5b
   1ceac:	3f27826f 	svccc	0x0027826f
   1ceb0:	3f27a861 	svccc	0x0027a861
   1ceb4:	3f27ce64 	svccc	0x0027ce64
   1ceb8:	3f27f456 	svccc	0x0027f456
   1cebc:	3f281a48 	svccc	0x00281a48
   1cec0:	3f284029 	svccc	0x00284029
   1cec4:	3f28660a 	svccc	0x0028660a
   1cec8:	3f288bdb 	svccc	0x00288bdb
   1cecc:	3f28b1ab 	svccc	0x0028b1ab
   1ced0:	3f28d77b 	svccc	0x0028d77b
   1ced4:	3f28fd3b 	svccc	0x0028fd3b
   1ced8:	3f2922fb 	svccc	0x002922fb
   1cedc:	3f2948bb 	svccc	0x002948bb
   1cee0:	3f296e69 	svccc	0x00296e69
   1cee4:	3f299418 	svccc	0x00299418
   1cee8:	3f29b9b6 	svccc	0x0029b9b6
   1ceec:	3f29df55 	svccc	0x0029df55
   1cef0:	3f2a04f3 	svccc	0x002a04f3
   1cef4:	3f2a2a80 	svccc	0x002a2a80
   1cef8:	3f2a500d 	svccc	0x002a500d
   1cefc:	3f2a758a 	svccc	0x002a758a
   1cf00:	3f2a9b07 	svccc	0x002a9b07
   1cf04:	3f2ac083 	svccc	0x002ac083
   1cf08:	3f2ae5ef 	svccc	0x002ae5ef
   1cf0c:	3f2b0b5b 	svccc	0x002b0b5b
   1cf10:	3f2b30c6 	svccc	0x002b30c6
   1cf14:	3f2b5621 	svccc	0x002b5621
   1cf18:	3f2b7b6c 	svccc	0x002b7b6c
   1cf1c:	3f2ba0c7 	svccc	0x002ba0c7
   1cf20:	3f2bc600 	svccc	0x002bc600
   1cf24:	3f2beb4a 	svccc	0x002beb4a
   1cf28:	3f2c1084 	svccc	0x002c1084
   1cf2c:	3f2c35bd 	svccc	0x002c35bd
   1cf30:	3f2c5ae6 	svccc	0x002c5ae6
   1cf34:	3f2c800f 	svccc	0x002c800f
   1cf38:	3f2ca537 	svccc	0x002ca537
   1cf3c:	3f2cca4f 	svccc	0x002cca4f
   1cf40:	3f2cef56 	svccc	0x002cef56
   1cf44:	3f2d146e 	svccc	0x002d146e
   1cf48:	3f2d3975 	svccc	0x002d3975
   1cf4c:	3f2d5e6c 	svccc	0x002d5e6c
   1cf50:	3f2d8362 	svccc	0x002d8362
   1cf54:	3f2da858 	svccc	0x002da858
   1cf58:	3f2dcd3e 	svccc	0x002dcd3e
   1cf5c:	3f2df224 	svccc	0x002df224
   1cf60:	3f2e1709 	svccc	0x002e1709
   1cf64:	3f2e3bde 	svccc	0x002e3bde
   1cf68:	3f2e60b3 	svccc	0x002e60b3
   1cf6c:	3f2e8577 	svccc	0x002e8577
   1cf70:	3f2eaa3b 	svccc	0x002eaa3b
   1cf74:	3f2eceff 	svccc	0x002eceff
   1cf78:	3f2ef3b2 	svccc	0x002ef3b2
   1cf7c:	3f2f1855 	svccc	0x002f1855
   1cf80:	3f2f3d08 	svccc	0x002f3d08
   1cf84:	3f2f61aa 	svccc	0x002f61aa
   1cf88:	3f2f863c 	svccc	0x002f863c
   1cf8c:	3f2faace 	svccc	0x002faace
   1cf90:	3f2fcf5f 	svccc	0x002fcf5f
   1cf94:	3f2ff3e0 	svccc	0x002ff3e0
   1cf98:	3f301861 	svccc	0x00301861
   1cf9c:	3f303ce2 	svccc	0x00303ce2
   1cfa0:	3f306152 	svccc	0x00306152
   1cfa4:	3f3085c2 	svccc	0x003085c2
   1cfa8:	3f30aa22 	svccc	0x0030aa22
   1cfac:	3f30ce81 	svccc	0x0030ce81
   1cfb0:	3f30f2d0 	svccc	0x0030f2d0
   1cfb4:	3f31171e 	svccc	0x0031171e
   1cfb8:	3f313b6d 	svccc	0x00313b6d
   1cfbc:	3f315fab 	svccc	0x00315fab
   1cfc0:	3f3183e8 	svccc	0x003183e8
   1cfc4:	3f31a815 	svccc	0x0031a815
   1cfc8:	3f31cc42 	svccc	0x0031cc42
   1cfcc:	3f31f06f 	svccc	0x0031f06f
   1cfd0:	3f32148c 	svccc	0x0032148c
   1cfd4:	3f3238a8 	svccc	0x003238a8
   1cfd8:	3f325cc4 	svccc	0x00325cc4
   1cfdc:	3f3280d0 	svccc	0x003280d0
   1cfe0:	3f32a4ca 	svccc	0x0032a4ca
   1cfe4:	3f32c8c5 	svccc	0x0032c8c5
   1cfe8:	3f32ecc0 	svccc	0x0032ecc0
   1cfec:	3f3310aa 	svccc	0x003310aa
   1cff0:	3f333494 	svccc	0x00333494
   1cff4:	3f33587d 	svccc	0x0033587d
   1cff8:	3f337c57 	svccc	0x00337c57
   1cffc:	3f33a030 	svccc	0x0033a030
   1d000:	3f33c3f8 	svccc	0x0033c3f8
   1d004:	3f33e7c0 	svccc	0x0033e7c0
   1d008:	3f340b78 	svccc	0x00340b78
   1d00c:	3f342f30 	svccc	0x00342f30
   1d010:	3f3452e7 	svccc	0x003452e7
   1d014:	3f34768e 	svccc	0x0034768e
   1d018:	3f349a35 	svccc	0x00349a35
   1d01c:	3f34bdcb 	svccc	0x0034bdcb
   1d020:	3f34e161 	svccc	0x0034e161
   1d024:	3f3504f7 	svccc	0x003504f7
   1d028:	3f35287c 	svccc	0x0035287c
   1d02c:	3f354c01 	svccc	0x00354c01
   1d030:	3f356f76 	svccc	0x00356f76
   1d034:	3f3592ea 	svccc	0x003592ea
   1d038:	3f35b64e 	svccc	0x0035b64e
   1d03c:	3f35d9b2 	svccc	0x0035d9b2
   1d040:	3f35fd15 	svccc	0x0035fd15
   1d044:	3f362068 	svccc	0x00362068
   1d048:	3f3643bb 	svccc	0x003643bb
   1d04c:	3f3666fd 	svccc	0x003666fd
   1d050:	3f368a40 	svccc	0x00368a40
   1d054:	3f36ad82 	svccc	0x0036ad82
   1d058:	3f36d0b3 	svccc	0x0036d0b3
   1d05c:	3f36f3e4 	svccc	0x0036f3e4
   1d060:	3f371705 	svccc	0x00371705
   1d064:	3f373a26 	svccc	0x00373a26
   1d068:	3f375d35 	svccc	0x00375d35
   1d06c:	3f378045 	svccc	0x00378045
   1d070:	3f37a355 	svccc	0x0037a355
   1d074:	3f37c654 	svccc	0x0037c654
   1d078:	3f37e953 	svccc	0x0037e953
   1d07c:	3f380c41 	svccc	0x00380c41
   1d080:	3f382f30 	svccc	0x00382f30
   1d084:	3f38521e 	svccc	0x0038521e
   1d088:	3f3874fb 	svccc	0x003874fb
   1d08c:	3f3897c8 	svccc	0x003897c8
   1d090:	3f38ba95 	svccc	0x0038ba95
   1d094:	3f38dd61 	svccc	0x0038dd61
   1d098:	3f39002e 	svccc	0x0039002e
   1d09c:	3f3922d9 	svccc	0x003922d9
   1d0a0:	3f394595 	svccc	0x00394595
   1d0a4:	3f396840 	svccc	0x00396840
   1d0a8:	3f398aec 	svccc	0x00398aec
   1d0ac:	3f39ad86 	svccc	0x0039ad86
   1d0b0:	3f39d020 	svccc	0x0039d020
   1d0b4:	3f39f2aa 	svccc	0x0039f2aa
   1d0b8:	3f3a1533 	svccc	0x003a1533
   1d0bc:	3f3a37bd 	svccc	0x003a37bd
   1d0c0:	3f3a5a36 	svccc	0x003a5a36
   1d0c4:	3f3a7c9e 	svccc	0x003a7c9e
   1d0c8:	3f3a9f17 	svccc	0x003a9f17
   1d0cc:	3f3ac16e 	svccc	0x003ac16e
   1d0d0:	3f3ae3d6 	svccc	0x003ae3d6
   1d0d4:	3f3b062d 	svccc	0x003b062d
   1d0d8:	3f3b2874 	svccc	0x003b2874
   1d0dc:	3f3b4aba 	svccc	0x003b4aba
   1d0e0:	3f3b6d01 	svccc	0x003b6d01
   1d0e4:	3f3b8f36 	svccc	0x003b8f36
   1d0e8:	3f3bb16c 	svccc	0x003bb16c
   1d0ec:	3f3bd391 	svccc	0x003bd391
   1d0f0:	3f3bf5b6 	svccc	0x003bf5b6
   1d0f4:	3f3c17db 	svccc	0x003c17db
   1d0f8:	3f3c39ef 	svccc	0x003c39ef
   1d0fc:	3f3c5c03 	svccc	0x003c5c03
   1d100:	3f3c7e07 	svccc	0x003c7e07
   1d104:	3f3ca00a 	svccc	0x003ca00a
   1d108:	3f3cc1fd 	svccc	0x003cc1fd
   1d10c:	3f3ce3ef 	svccc	0x003ce3ef
   1d110:	3f3d05d1 	svccc	0x003d05d1
   1d114:	3f3d27b3 	svccc	0x003d27b3
   1d118:	3f3d4995 	svccc	0x003d4995
   1d11c:	3f3d6b66 	svccc	0x003d6b66
   1d120:	3f3d8d37 	svccc	0x003d8d37
   1d124:	3f3daef7 	svccc	0x003daef7
   1d128:	3f3dd0b7 	svccc	0x003dd0b7
   1d12c:	3f3df267 	svccc	0x003df267
   1d130:	3f3e1416 	svccc	0x003e1416
   1d134:	3f3e35c6 	svccc	0x003e35c6
   1d138:	3f3e5764 	svccc	0x003e5764
   1d13c:	3f3e7903 	svccc	0x003e7903
   1d140:	3f3e9a91 	svccc	0x003e9a91
   1d144:	3f3ebc1f 	svccc	0x003ebc1f
   1d148:	3f3edd9c 	svccc	0x003edd9c
   1d14c:	3f3eff19 	svccc	0x003eff19
   1d150:	3f3f2096 	svccc	0x003f2096
   1d154:	3f3f4203 	svccc	0x003f4203
   1d158:	3f3f635e 	svccc	0x003f635e
   1d15c:	3f3f84ba 	svccc	0x003f84ba
   1d160:	3f3fa616 	svccc	0x003fa616
   1d164:	3f3fc760 	svccc	0x003fc760
   1d168:	3f3fe8ab 	svccc	0x003fe8ab
   1d16c:	3f4009f6 	svccc	0x004009f6
   1d170:	3f402b30 	svccc	0x00402b30
   1d174:	3f404c59 	svccc	0x00404c59
   1d178:	3f406d83 	svccc	0x00406d83
   1d17c:	3f408eac 	svccc	0x00408eac
   1d180:	3f40afc4 	svccc	0x0040afc4
   1d184:	3f40d0dd 	svccc	0x0040d0dd
   1d188:	3f40f1e5 	svccc	0x0040f1e5
   1d18c:	3f4112ec 	svccc	0x004112ec
   1d190:	3f4133e3 	svccc	0x004133e3
   1d194:	3f4154da 	svccc	0x004154da
   1d198:	3f4175d1 	svccc	0x004175d1
   1d19c:	3f4196b7 	svccc	0x004196b7
   1d1a0:	3f41b79e 	svccc	0x0041b79e
   1d1a4:	3f41d873 	svccc	0x0041d873
   1d1a8:	3f41f948 	svccc	0x0041f948
   1d1ac:	3f421a0d 	svccc	0x00421a0d
   1d1b0:	3f423ad2 	svccc	0x00423ad2
   1d1b4:	3f425b85 	svccc	0x00425b85
   1d1b8:	3f427c39 	svccc	0x00427c39
   1d1bc:	3f429ced 	svccc	0x00429ced
   1d1c0:	3f42bd90 	svccc	0x0042bd90
   1d1c4:	3f42de22 	svccc	0x0042de22
   1d1c8:	3f42fec5 	svccc	0x0042fec5
   1d1cc:	3f431f47 	svccc	0x00431f47
   1d1d0:	3f433fd9 	svccc	0x00433fd9
   1d1d4:	3f43604a 	svccc	0x0043604a
   1d1d8:	3f4380cb 	svccc	0x004380cb
   1d1dc:	3f43a13c 	svccc	0x0043a13c
   1d1e0:	3f43c19c 	svccc	0x0043c19c
   1d1e4:	3f43e1fc 	svccc	0x0043e1fc
   1d1e8:	3f44025c 	svccc	0x0044025c
   1d1ec:	3f4422ab 	svccc	0x004422ab
   1d1f0:	3f4442fa 	svccc	0x004442fa
   1d1f4:	3f446339 	svccc	0x00446339
   1d1f8:	3f448377 	svccc	0x00448377
   1d1fc:	3f44a3a5 	svccc	0x0044a3a5
   1d200:	3f44c3d2 	svccc	0x0044c3d2
   1d204:	3f44e3ef 	svccc	0x0044e3ef
   1d208:	3f45040c 	svccc	0x0045040c
   1d20c:	3f452429 	svccc	0x00452429
   1d210:	3f454435 	svccc	0x00454435
   1d214:	3f456441 	svccc	0x00456441
   1d218:	3f45843c 	svccc	0x0045843c
   1d21c:	3f45a427 	svccc	0x0045a427
   1d220:	3f45c422 	svccc	0x0045c422
   1d224:	3f45e3fc 	svccc	0x0045e3fc
   1d228:	3f4603e6 	svccc	0x004603e6
   1d22c:	3f4623c0 	svccc	0x004623c0
   1d230:	3f464389 	svccc	0x00464389
   1d234:	3f466352 	svccc	0x00466352
   1d238:	3f46831b 	svccc	0x0046831b
   1d23c:	3f46a2d3 	svccc	0x0046a2d3
   1d240:	3f46c27a 	svccc	0x0046c27a
   1d244:	3f46e222 	svccc	0x0046e222
   1d248:	3f4701c9 	svccc	0x004701c9
   1d24c:	3f472160 	svccc	0x00472160
   1d250:	3f4740f6 	svccc	0x004740f6
   1d254:	3f47608d 	svccc	0x0047608d
   1d258:	3f478002 	svccc	0x00478002
   1d25c:	3f479f88 	svccc	0x00479f88
   1d260:	3f47befd 	svccc	0x0047befd
   1d264:	3f47de61 	svccc	0x0047de61
   1d268:	3f47fdc6 	svccc	0x0047fdc6
   1d26c:	3f481d2a 	svccc	0x00481d2a
   1d270:	3f483c7d 	svccc	0x00483c7d
   1d274:	3f485bd1 	svccc	0x00485bd1
   1d278:	3f487b14 	svccc	0x00487b14
   1d27c:	3f489a56 	svccc	0x00489a56
   1d280:	3f48b988 	svccc	0x0048b988
   1d284:	3f48d8ba 	svccc	0x0048d8ba
   1d288:	3f48f7db 	svccc	0x0048f7db
   1d28c:	3f4916fd 	svccc	0x004916fd
   1d290:	3f49360d 	svccc	0x0049360d
   1d294:	3f49551d 	svccc	0x0049551d
   1d298:	3f49742e 	svccc	0x0049742e
   1d29c:	3f49932d 	svccc	0x0049932d
   1d2a0:	3f49b21c 	svccc	0x0049b21c
   1d2a4:	3f49d10b 	svccc	0x0049d10b
   1d2a8:	3f49effa 	svccc	0x0049effa
   1d2ac:	3f4a0ed8 	svccc	0x004a0ed8
   1d2b0:	3f4a2db6 	svccc	0x004a2db6
   1d2b4:	3f4a4c83 	svccc	0x004a4c83
   1d2b8:	3f4a6b51 	svccc	0x004a6b51
   1d2bc:	3f4a8a0d 	svccc	0x004a8a0d
   1d2c0:	3f4aa8ca 	svccc	0x004aa8ca
   1d2c4:	3f4ac786 	svccc	0x004ac786
   1d2c8:	3f4ae632 	svccc	0x004ae632
   1d2cc:	3f4b04cd 	svccc	0x004b04cd
   1d2d0:	3f4b2368 	svccc	0x004b2368
   1d2d4:	3f4b41f2 	svccc	0x004b41f2
   1d2d8:	3f4b608d 	svccc	0x004b608d
   1d2dc:	3f4b7f06 	svccc	0x004b7f06
   1d2e0:	3f4b9d80 	svccc	0x004b9d80
   1d2e4:	3f4bbbf9 	svccc	0x004bbbf9
   1d2e8:	3f4bda62 	svccc	0x004bda62
   1d2ec:	3f4bf8cb 	svccc	0x004bf8cb
   1d2f0:	3f4c1722 	svccc	0x004c1722
   1d2f4:	3f4c357a 	svccc	0x004c357a
   1d2f8:	3f4c53c1 	svccc	0x004c53c1
   1d2fc:	3f4c7208 	svccc	0x004c7208
   1d300:	3f4c903f 	svccc	0x004c903f
   1d304:	3f4cae75 	svccc	0x004cae75
   1d308:	3f4cccab 	svccc	0x004cccab
   1d30c:	3f4cead1 	svccc	0x004cead1
   1d310:	3f4d08e6 	svccc	0x004d08e6
   1d314:	3f4d26fa 	svccc	0x004d26fa
   1d318:	3f4d450f 	svccc	0x004d450f
   1d31c:	3f4d6313 	svccc	0x004d6313
   1d320:	3f4d8106 	svccc	0x004d8106
   1d324:	3f4d9f0a 	svccc	0x004d9f0a
   1d328:	3f4dbced 	svccc	0x004dbced
   1d32c:	3f4ddacf 	svccc	0x004ddacf
   1d330:	3f4df8b1 	svccc	0x004df8b1
   1d334:	3f4e1683 	svccc	0x004e1683
   1d338:	3f4e3455 	svccc	0x004e3455
   1d33c:	3f4e5215 	svccc	0x004e5215
   1d340:	3f4e6fd6 	svccc	0x004e6fd6
   1d344:	3f4e8d97 	svccc	0x004e8d97
   1d348:	3f4eab36 	svccc	0x004eab36
   1d34c:	3f4ec8e7 	svccc	0x004ec8e7
   1d350:	3f4ee686 	svccc	0x004ee686
   1d354:	3f4f0414 	svccc	0x004f0414
   1d358:	3f4f21a3 	svccc	0x004f21a3
   1d35c:	3f4f3f31 	svccc	0x004f3f31
   1d360:	3f4f5caf 	svccc	0x004f5caf
   1d364:	3f4f7a1c 	svccc	0x004f7a1c
   1d368:	3f4f9789 	svccc	0x004f9789
   1d36c:	3f4fb4f6 	svccc	0x004fb4f6
   1d370:	3f4fd252 	svccc	0x004fd252
   1d374:	3f4fefae 	svccc	0x004fefae
   1d378:	3f500cfa 	svccc	0x00500cfa
   1d37c:	3f502a35 	svccc	0x00502a35
   1d380:	3f504780 	svccc	0x00504780
   1d384:	3f5064aa 	svccc	0x005064aa
   1d388:	3f5081e4 	svccc	0x005081e4
   1d38c:	3f509efe 	svccc	0x00509efe
   1d390:	3f50bc27 	svccc	0x0050bc27
   1d394:	3f50d930 	svccc	0x0050d930
   1d398:	3f50f649 	svccc	0x0050f649
   1d39c:	3f511351 	svccc	0x00511351
   1d3a0:	3f513049 	svccc	0x00513049
   1d3a4:	3f514d40 	svccc	0x00514d40
   1d3a8:	3f516a27 	svccc	0x00516a27
   1d3ac:	3f51870e 	svccc	0x0051870e
   1d3b0:	3f51a3f4 	svccc	0x0051a3f4
   1d3b4:	3f51c0ca 	svccc	0x0051c0ca
   1d3b8:	3f51dd90 	svccc	0x0051dd90
   1d3bc:	3f51fa55 	svccc	0x0051fa55
   1d3c0:	3f521709 	svccc	0x00521709
   1d3c4:	3f5233ce 	svccc	0x005233ce
   1d3c8:	3f525072 	svccc	0x00525072
   1d3cc:	3f526d16 	svccc	0x00526d16
   1d3d0:	3f5289b9 	svccc	0x005289b9
   1d3d4:	3f52a64c 	svccc	0x0052a64c
   1d3d8:	3f52c2ce 	svccc	0x0052c2ce
   1d3dc:	3f52df61 	svccc	0x0052df61
   1d3e0:	3f52fbd2 	svccc	0x0052fbd2
   1d3e4:	3f531844 	svccc	0x00531844
   1d3e8:	3f5334b5 	svccc	0x005334b5
   1d3ec:	3f535116 	svccc	0x00535116
   1d3f0:	3f536d76 	svccc	0x00536d76
   1d3f4:	3f5389c6 	svccc	0x005389c6
   1d3f8:	3f53a616 	svccc	0x0053a616
   1d3fc:	3f53c255 	svccc	0x0053c255
   1d400:	3f53de94 	svccc	0x0053de94
   1d404:	3f53fac2 	svccc	0x0053fac2
   1d408:	3f5416f0 	svccc	0x005416f0
   1d40c:	3f54330d 	svccc	0x0054330d
   1d410:	3f544f2b 	svccc	0x00544f2b
   1d414:	3f546b38 	svccc	0x00546b38
   1d418:	3f548744 	svccc	0x00548744
   1d41c:	3f54a340 	svccc	0x0054a340
   1d420:	3f54bf3c 	svccc	0x0054bf3c
   1d424:	3f54db38 	svccc	0x0054db38
   1d428:	3f54f712 	svccc	0x0054f712
   1d42c:	3f5512fd 	svccc	0x005512fd
   1d430:	3f552ed8 	svccc	0x00552ed8
   1d434:	3f554aa1 	svccc	0x00554aa1
   1d438:	3f55666b 	svccc	0x0055666b
   1d43c:	3f558234 	svccc	0x00558234
   1d440:	3f559ddc 	svccc	0x00559ddc
   1d444:	3f55b995 	svccc	0x0055b995
   1d448:	3f55d53d 	svccc	0x0055d53d
   1d44c:	3f55f0d4 	svccc	0x0055f0d4
   1d450:	3f560c6b 	svccc	0x00560c6b
   1d454:	3f562802 	svccc	0x00562802
   1d458:	3f564389 	svccc	0x00564389
   1d45c:	3f565eff 	svccc	0x00565eff
   1d460:	3f567a74 	svccc	0x00567a74
   1d464:	3f5695ea 	svccc	0x005695ea
   1d468:	3f56b14f 	svccc	0x0056b14f
   1d46c:	3f56cca3 	svccc	0x0056cca3
   1d470:	3f56e7f7 	svccc	0x0056e7f7
   1d474:	3f57034b 	svccc	0x0057034b
   1d478:	3f571e8e 	svccc	0x00571e8e
   1d47c:	3f5739c1 	svccc	0x005739c1
   1d480:	3f5754f3 	svccc	0x005754f3
   1d484:	3f577026 	svccc	0x00577026
   1d488:	3f578b48 	svccc	0x00578b48
   1d48c:	3f57a66a 	svccc	0x0057a66a
   1d490:	3f57c17b 	svccc	0x0057c17b
   1d494:	3f57dc7b 	svccc	0x0057dc7b
   1d498:	3f57f77b 	svccc	0x0057f77b
   1d49c:	3f58127b 	svccc	0x0058127b
   1d4a0:	3f582d6b 	svccc	0x00582d6b
   1d4a4:	3f58485a 	svccc	0x0058485a
   1d4a8:	3f586339 	svccc	0x00586339
   1d4ac:	3f587e07 	svccc	0x00587e07
   1d4b0:	3f5898d4 	svccc	0x005898d4
   1d4b4:	3f58b3a2 	svccc	0x0058b3a2
   1d4b8:	3f58ce5f 	svccc	0x0058ce5f
   1d4bc:	3f58e91d 	svccc	0x0058e91d
   1d4c0:	3f5903c9 	svccc	0x005903c9
   1d4c4:	3f591e64 	svccc	0x00591e64
   1d4c8:	3f593900 	svccc	0x00593900
   1d4cc:	3f59539c 	svccc	0x0059539c
   1d4d0:	3f596e26 	svccc	0x00596e26
   1d4d4:	3f5988b1 	svccc	0x005988b1
   1d4d8:	3f59a32b 	svccc	0x0059a32b
   1d4dc:	3f59bd94 	svccc	0x0059bd94
   1d4e0:	3f59d80e 	svccc	0x0059d80e
   1d4e4:	3f59f267 	svccc	0x0059f267
   1d4e8:	3f5a0cbf 	svccc	0x005a0cbf
   1d4ec:	3f5a2718 	svccc	0x005a2718
   1d4f0:	3f5a415f 	svccc	0x005a415f
   1d4f4:	3f5a5ba7 	svccc	0x005a5ba7
   1d4f8:	3f5a75de 	svccc	0x005a75de
   1d4fc:	3f5a9004 	svccc	0x005a9004
   1d500:	3f5aaa2a 	svccc	0x005aaa2a
   1d504:	3f5ac450 	svccc	0x005ac450
   1d508:	3f5ade65 	svccc	0x005ade65
   1d50c:	3f5af87b 	svccc	0x005af87b
   1d510:	3f5b127f 	svccc	0x005b127f
   1d514:	3f5b2c73 	svccc	0x005b2c73
   1d518:	3f5b4667 	svccc	0x005b4667
   1d51c:	3f5b605b 	svccc	0x005b605b
   1d520:	3f5b7a3e 	svccc	0x005b7a3e
   1d524:	3f5b9421 	svccc	0x005b9421
   1d528:	3f5badf3 	svccc	0x005badf3
   1d52c:	3f5bc7b4 	svccc	0x005bc7b4
   1d530:	3f5be176 	svccc	0x005be176
   1d534:	3f5bfb37 	svccc	0x005bfb37
   1d538:	3f5c14e8 	svccc	0x005c14e8
   1d53c:	3f5c2e88 	svccc	0x005c2e88
   1d540:	3f5c4828 	svccc	0x005c4828
   1d544:	3f5c61c8 	svccc	0x005c61c8
   1d548:	3f5c7b57 	svccc	0x005c7b57
   1d54c:	3f5c94d5 	svccc	0x005c94d5
   1d550:	3f5cae53 	svccc	0x005cae53
   1d554:	3f5cc7d2 	svccc	0x005cc7d2
   1d558:	3f5ce13f 	svccc	0x005ce13f
   1d55c:	3f5cfa9c 	svccc	0x005cfa9c
   1d560:	3f5d13f9 	svccc	0x005d13f9
   1d564:	3f5d2d56 	svccc	0x005d2d56
   1d568:	3f5d46a2 	svccc	0x005d46a2
   1d56c:	3f5d5fdd 	svccc	0x005d5fdd
   1d570:	3f5d7918 	svccc	0x005d7918
   1d574:	3f5d9253 	svccc	0x005d9253
   1d578:	3f5dab7e 	svccc	0x005dab7e
   1d57c:	3f5dc497 	svccc	0x005dc497
   1d580:	3f5dddb1 	svccc	0x005dddb1
   1d584:	3f5df6ba 	svccc	0x005df6ba
   1d588:	3f5e0fc3 	svccc	0x005e0fc3
   1d58c:	3f5e28bb 	svccc	0x005e28bb
   1d590:	3f5e41b3 	svccc	0x005e41b3
   1d594:	3f5e5aab 	svccc	0x005e5aab
   1d598:	3f5e7393 	svccc	0x005e7393
   1d59c:	3f5e8c69 	svccc	0x005e8c69
   1d5a0:	3f5ea540 	svccc	0x005ea540
   1d5a4:	3f5ebe06 	svccc	0x005ebe06
   1d5a8:	3f5ed6cb 	svccc	0x005ed6cb
   1d5ac:	3f5eef80 	svccc	0x005eef80
   1d5b0:	3f5f0835 	svccc	0x005f0835
   1d5b4:	3f5f20da 	svccc	0x005f20da
   1d5b8:	3f5f397e 	svccc	0x005f397e
   1d5bc:	3f5f5211 	svccc	0x005f5211
   1d5c0:	3f5f6aa5 	svccc	0x005f6aa5
   1d5c4:	3f5f8327 	svccc	0x005f8327
   1d5c8:	3f5f9baa 	svccc	0x005f9baa
   1d5cc:	3f5fb41c 	svccc	0x005fb41c
   1d5d0:	3f5fcc8e 	svccc	0x005fcc8e
   1d5d4:	3f5fe4ef 	svccc	0x005fe4ef
   1d5d8:	3f5ffd3f 	svccc	0x005ffd3f
   1d5dc:	3f601590 	svccc	0x00601590
   1d5e0:	3f602de0 	svccc	0x00602de0
   1d5e4:	3f604620 	svccc	0x00604620
   1d5e8:	3f605e5f 	svccc	0x00605e5f
   1d5ec:	3f60768e 	svccc	0x0060768e
   1d5f0:	3f608eac 	svccc	0x00608eac
   1d5f4:	3f60a6ca 	svccc	0x0060a6ca
   1d5f8:	3f60bee8 	svccc	0x0060bee8
   1d5fc:	3f60d6f5 	svccc	0x0060d6f5
   1d600:	3f60eef2 	svccc	0x0060eef2
   1d604:	3f6106ee 	svccc	0x006106ee
   1d608:	3f611eeb 	svccc	0x00611eeb
   1d60c:	3f6136d6 	svccc	0x006136d6
   1d610:	3f614eb1 	svccc	0x00614eb1
   1d614:	3f61668c 	svccc	0x0061668c
   1d618:	3f617e56 	svccc	0x00617e56
   1d61c:	3f619620 	svccc	0x00619620
   1d620:	3f61adda 	svccc	0x0061adda
   1d624:	3f61c593 	svccc	0x0061c593
   1d628:	3f61dd4c 	svccc	0x0061dd4c
   1d62c:	3f61f4e4 	svccc	0x0061f4e4
   1d630:	3f620c8d 	svccc	0x00620c8d
   1d634:	3f622414 	svccc	0x00622414
   1d638:	3f623bac 	svccc	0x00623bac
   1d63c:	3f625322 	svccc	0x00625322
   1d640:	3f626a98 	svccc	0x00626a98
   1d644:	3f62820e 	svccc	0x0062820e
   1d648:	3f629974 	svccc	0x00629974
   1d64c:	3f62b0d9 	svccc	0x0062b0d9
   1d650:	3f62c82e 	svccc	0x0062c82e
   1d654:	3f62df83 	svccc	0x0062df83
   1d658:	3f62f6c7 	svccc	0x0062f6c7
   1d65c:	3f630dfa 	svccc	0x00630dfa
   1d660:	3f63252d 	svccc	0x0063252d
   1d664:	3f633c60 	svccc	0x00633c60
   1d668:	3f635382 	svccc	0x00635382
   1d66c:	3f636a94 	svccc	0x00636a94
   1d670:	3f6381a6 	svccc	0x006381a6
   1d674:	3f6398a6 	svccc	0x006398a6
   1d678:	3f63afa7 	svccc	0x0063afa7
   1d67c:	3f63c6a8 	svccc	0x0063c6a8
   1d680:	3f63dd87 	svccc	0x0063dd87
   1d684:	3f63f477 	svccc	0x0063f477
   1d688:	3f640b56 	svccc	0x00640b56
   1d68c:	3f642225 	svccc	0x00642225
   1d690:	3f6438e3 	svccc	0x006438e3
   1d694:	3f644fb1 	svccc	0x00644fb1
   1d698:	3f64665e 	svccc	0x0064665e
   1d69c:	3f647d1c 	svccc	0x00647d1c
   1d6a0:	3f6493b8 	svccc	0x006493b8
   1d6a4:	3f64aa54 	svccc	0x0064aa54
   1d6a8:	3f64c0f0 	svccc	0x0064c0f0
   1d6ac:	3f64d77b 	svccc	0x0064d77b
   1d6b0:	3f64edf6 	svccc	0x0064edf6
   1d6b4:	3f650471 	svccc	0x00650471
   1d6b8:	3f651aeb 	svccc	0x00651aeb
   1d6bc:	3f653155 	svccc	0x00653155
   1d6c0:	3f6547ae 	svccc	0x006547ae
   1d6c4:	3f655e07 	svccc	0x00655e07
   1d6c8:	3f657460 	svccc	0x00657460
   1d6cc:	3f658a98 	svccc	0x00658a98
   1d6d0:	3f65a0e0 	svccc	0x0065a0e0
   1d6d4:	3f65b717 	svccc	0x0065b717
   1d6d8:	3f65cd3e 	svccc	0x0065cd3e
   1d6dc:	3f65e365 	svccc	0x0065e365
   1d6e0:	3f65f97b 	svccc	0x0065f97b
   1d6e4:	3f660f80 	svccc	0x00660f80
   1d6e8:	3f662596 	svccc	0x00662596
   1d6ec:	3f663b8a 	svccc	0x00663b8a
   1d6f0:	3f66517e 	svccc	0x0066517e
   1d6f4:	3f666773 	svccc	0x00666773
   1d6f8:	3f667d56 	svccc	0x00667d56
   1d6fc:	3f669329 	svccc	0x00669329
   1d700:	3f66a8fc 	svccc	0x0066a8fc
   1d704:	3f66becf 	svccc	0x0066becf
   1d708:	3f66d491 	svccc	0x0066d491
   1d70c:	3f66ea42 	svccc	0x0066ea42
   1d710:	3f66fff3 	svccc	0x0066fff3
   1d714:	3f671594 	svccc	0x00671594
   1d718:	3f672b34 	svccc	0x00672b34
   1d71c:	3f6740c4 	svccc	0x006740c4
   1d720:	3f675654 	svccc	0x00675654
   1d724:	3f676bd3 	svccc	0x00676bd3
   1d728:	3f678152 	svccc	0x00678152
   1d72c:	3f6796c0 	svccc	0x006796c0
   1d730:	3f67ac2e 	svccc	0x0067ac2e
   1d734:	3f67c18b 	svccc	0x0067c18b
   1d738:	3f67d6d8 	svccc	0x0067d6d8
   1d73c:	3f67ec25 	svccc	0x0067ec25
   1d740:	3f680171 	svccc	0x00680171
   1d744:	3f6816ad 	svccc	0x006816ad
   1d748:	3f682bd8 	svccc	0x00682bd8
   1d74c:	3f684103 	svccc	0x00684103
   1d750:	3f68561d 	svccc	0x0068561d
   1d754:	3f686b38 	svccc	0x00686b38
   1d758:	3f688041 	svccc	0x00688041
   1d75c:	3f68954a 	svccc	0x0068954a
   1d760:	3f68aa43 	svccc	0x0068aa43
   1d764:	3f68bf3c 	svccc	0x0068bf3c
   1d768:	3f68d424 	svccc	0x0068d424
   1d76c:	3f68e90c 	svccc	0x0068e90c
   1d770:	3f68fde3 	svccc	0x0068fde3
   1d774:	3f6912a9 	svccc	0x006912a9
   1d778:	3f692770 	svccc	0x00692770
   1d77c:	3f693c36 	svccc	0x00693c36
   1d780:	3f6950ec 	svccc	0x006950ec
   1d784:	3f696590 	svccc	0x00696590
   1d788:	3f697a35 	svccc	0x00697a35
   1d78c:	3f698ec9 	svccc	0x00698ec9
   1d790:	3f69a35d 	svccc	0x0069a35d
   1d794:	3f69b7e1 	svccc	0x0069b7e1
   1d798:	3f69cc64 	svccc	0x0069cc64
   1d79c:	3f69e0d6 	svccc	0x0069e0d6
   1d7a0:	3f69f549 	svccc	0x0069f549
   1d7a4:	3f6a09ab 	svccc	0x006a09ab
   1d7a8:	3f6a1dfc 	svccc	0x006a1dfc
   1d7ac:	3f6a324d 	svccc	0x006a324d
   1d7b0:	3f6a469d 	svccc	0x006a469d
   1d7b4:	3f6a5ade 	svccc	0x006a5ade
   1d7b8:	3f6a6f0d 	svccc	0x006a6f0d
   1d7bc:	3f6a833c 	svccc	0x006a833c
   1d7c0:	3f6a975b 	svccc	0x006a975b
   1d7c4:	3f6aab7a 	svccc	0x006aab7a
   1d7c8:	3f6abf87 	svccc	0x006abf87
   1d7cc:	3f6ad395 	svccc	0x006ad395
   1d7d0:	3f6ae792 	svccc	0x006ae792
   1d7d4:	3f6afb8f 	svccc	0x006afb8f
   1d7d8:	3f6b0f7c 	svccc	0x006b0f7c
   1d7dc:	3f6b2357 	svccc	0x006b2357
   1d7e0:	3f6b3733 	svccc	0x006b3733
   1d7e4:	3f6b4b0e 	svccc	0x006b4b0e
   1d7e8:	3f6b5ed9 	svccc	0x006b5ed9
   1d7ec:	3f6b7293 	svccc	0x006b7293
   1d7f0:	3f6b864d 	svccc	0x006b864d
   1d7f4:	3f6b99f6 	svccc	0x006b99f6
   1d7f8:	3f6bad9f 	svccc	0x006bad9f
   1d7fc:	3f6bc137 	svccc	0x006bc137
   1d800:	3f6bd4d0 	svccc	0x006bd4d0
   1d804:	3f6be857 	svccc	0x006be857
   1d808:	3f6bfbdf 	svccc	0x006bfbdf
   1d80c:	3f6c0f56 	svccc	0x006c0f56
   1d810:	3f6c22bc 	svccc	0x006c22bc
   1d814:	3f6c3622 	svccc	0x006c3622
   1d818:	3f6c4988 	svccc	0x006c4988
   1d81c:	3f6c5ccd 	svccc	0x006c5ccd
   1d820:	3f6c7022 	svccc	0x006c7022
   1d824:	3f6c8366 	svccc	0x006c8366
   1d828:	3f6c969a 	svccc	0x006c969a
   1d82c:	3f6ca9bd 	svccc	0x006ca9bd
   1d830:	3f6cbcf1 	svccc	0x006cbcf1
   1d834:	3f6cd003 	svccc	0x006cd003
   1d838:	3f6ce315 	svccc	0x006ce315
   1d83c:	3f6cf627 	svccc	0x006cf627
   1d840:	3f6d0929 	svccc	0x006d0929
   1d844:	3f6d1c19 	svccc	0x006d1c19
   1d848:	3f6d2f0a 	svccc	0x006d2f0a
   1d84c:	3f6d41ea 	svccc	0x006d41ea
   1d850:	3f6d54ca 	svccc	0x006d54ca
   1d854:	3f6d67a9 	svccc	0x006d67a9
   1d858:	3f6d7a68 	svccc	0x006d7a68
   1d85c:	3f6d8d26 	svccc	0x006d8d26
   1d860:	3f6d9fe4 	svccc	0x006d9fe4
   1d864:	3f6db292 	svccc	0x006db292
   1d868:	3f6dc53f 	svccc	0x006dc53f
   1d86c:	3f6dd7dc 	svccc	0x006dd7dc
   1d870:	3f6dea68 	svccc	0x006dea68
   1d874:	3f6dfcf4 	svccc	0x006dfcf4
   1d878:	3f6e0f6f 	svccc	0x006e0f6f
   1d87c:	3f6e21ea 	svccc	0x006e21ea
   1d880:	3f6e3455 	svccc	0x006e3455
   1d884:	3f6e46bf 	svccc	0x006e46bf
   1d888:	3f6e5919 	svccc	0x006e5919
   1d88c:	3f6e6b72 	svccc	0x006e6b72
   1d890:	3f6e7dbb 	svccc	0x006e7dbb
   1d894:	3f6e8ff3 	svccc	0x006e8ff3
   1d898:	3f6ea22b 	svccc	0x006ea22b
   1d89c:	3f6eb463 	svccc	0x006eb463
   1d8a0:	3f6ec67a 	svccc	0x006ec67a
   1d8a4:	3f6ed8a1 	svccc	0x006ed8a1
   1d8a8:	3f6eeab8 	svccc	0x006eeab8
   1d8ac:	3f6efcbd 	svccc	0x006efcbd
   1d8b0:	3f6f0eb2 	svccc	0x006f0eb2
   1d8b4:	3f6f20b8 	svccc	0x006f20b8
   1d8b8:	3f6f329c 	svccc	0x006f329c
   1d8bc:	3f6f4480 	svccc	0x006f4480
   1d8c0:	3f6f5665 	svccc	0x006f5665
   1d8c4:	3f6f6838 	svccc	0x006f6838
   1d8c8:	3f6f79fb 	svccc	0x006f79fb
   1d8cc:	3f6f8bbd 	svccc	0x006f8bbd
   1d8d0:	3f6f9d6f 	svccc	0x006f9d6f
   1d8d4:	3f6faf21 	svccc	0x006faf21
   1d8d8:	3f6fc0c2 	svccc	0x006fc0c2
   1d8dc:	3f6fd252 	svccc	0x006fd252
   1d8e0:	3f6fe3f3 	svccc	0x006fe3f3
   1d8e4:	3f6ff573 	svccc	0x006ff573
   1d8e8:	3f7006f2 	svccc	0x007006f2
   1d8ec:	3f701861 	svccc	0x00701861
   1d8f0:	3f7029d0 	svccc	0x007029d0
   1d8f4:	3f703b3f 	svccc	0x00703b3f
   1d8f8:	3f704c8c 	svccc	0x00704c8c
   1d8fc:	3f705dd9 	svccc	0x00705dd9
   1d900:	3f706f26 	svccc	0x00706f26
   1d904:	3f708063 	svccc	0x00708063
   1d908:	3f70919f 	svccc	0x0070919f
   1d90c:	3f70a2cb 	svccc	0x0070a2cb
   1d910:	3f70b3e5 	svccc	0x0070b3e5
   1d914:	3f70c500 	svccc	0x0070c500
   1d918:	3f70d60a 	svccc	0x0070d60a
   1d91c:	3f70e714 	svccc	0x0070e714
   1d920:	3f70f80e 	svccc	0x0070f80e
   1d924:	3f710907 	svccc	0x00710907
   1d928:	3f7119f0 	svccc	0x007119f0
   1d92c:	3f712ad8 	svccc	0x00712ad8
   1d930:	3f713bb0 	svccc	0x00713bb0
   1d934:	3f714c77 	svccc	0x00714c77
   1d938:	3f715d3e 	svccc	0x00715d3e
   1d93c:	3f716df4 	svccc	0x00716df4
   1d940:	3f717eaa 	svccc	0x00717eaa
   1d944:	3f718f50 	svccc	0x00718f50
   1d948:	3f719ff5 	svccc	0x00719ff5
   1d94c:	3f71b08a 	svccc	0x0071b08a
   1d950:	3f71c11e 	svccc	0x0071c11e
   1d954:	3f71d1a2 	svccc	0x0071d1a2
   1d958:	3f71e215 	svccc	0x0071e215
   1d95c:	3f71f288 	svccc	0x0071f288
   1d960:	3f7202fb 	svccc	0x007202fb
   1d964:	3f72134d 	svccc	0x0072134d
   1d968:	3f7223af 	svccc	0x007223af
   1d96c:	3f7233f0 	svccc	0x007233f0
   1d970:	3f724431 	svccc	0x00724431
   1d974:	3f725471 	svccc	0x00725471
   1d978:	3f7264a1 	svccc	0x007264a1
   1d97c:	3f7274c1 	svccc	0x007274c1
   1d980:	3f7284e0 	svccc	0x007284e0
   1d984:	3f7294ff 	svccc	0x007294ff
   1d988:	3f72a4fd 	svccc	0x0072a4fd
   1d98c:	3f72b50b 	svccc	0x0072b50b
   1d990:	3f72c4f8 	svccc	0x0072c4f8
   1d994:	3f72d4e5 	svccc	0x0072d4e5
   1d998:	3f72e4d2 	svccc	0x0072e4d2
   1d99c:	3f72f4ae 	svccc	0x0072f4ae
   1d9a0:	3f730479 	svccc	0x00730479
   1d9a4:	3f731444 	svccc	0x00731444
   1d9a8:	3f7323ff 	svccc	0x007323ff
   1d9ac:	3f7333b9 	svccc	0x007333b9
   1d9b0:	3f734363 	svccc	0x00734363
   1d9b4:	3f73530d 	svccc	0x0073530d
   1d9b8:	3f7362a6 	svccc	0x007362a6
   1d9bc:	3f73723f 	svccc	0x0073723f
   1d9c0:	3f7381c7 	svccc	0x007381c7
   1d9c4:	3f73913f 	svccc	0x0073913f
   1d9c8:	3f73a0b6 	svccc	0x0073a0b6
   1d9cc:	3f73b01d 	svccc	0x0073b01d
   1d9d0:	3f73bf83 	svccc	0x0073bf83
   1d9d4:	3f73ced9 	svccc	0x0073ced9
   1d9d8:	3f73de2f 	svccc	0x0073de2f
   1d9dc:	3f73ed74 	svccc	0x0073ed74
   1d9e0:	3f73fca8 	svccc	0x0073fca8
   1d9e4:	3f740bdd 	svccc	0x00740bdd
   1d9e8:	3f741b00 	svccc	0x00741b00
   1d9ec:	3f742a24 	svccc	0x00742a24
   1d9f0:	3f743937 	svccc	0x00743937
   1d9f4:	3f744849 	svccc	0x00744849
   1d9f8:	3f74574b 	svccc	0x0074574b
   1d9fc:	3f74664d 	svccc	0x0074664d
   1da00:	3f74753e 	svccc	0x0074753e
   1da04:	3f74841f 	svccc	0x0074841f
   1da08:	3f7492ff 	svccc	0x007492ff
   1da0c:	3f74a1cf 	svccc	0x0074a1cf
   1da10:	3f74b09f 	svccc	0x0074b09f
   1da14:	3f74bf5d 	svccc	0x0074bf5d
   1da18:	3f74ce1c 	svccc	0x0074ce1c
   1da1c:	3f74dcca 	svccc	0x0074dcca
   1da20:	3f74eb68 	svccc	0x0074eb68
   1da24:	3f74fa05 	svccc	0x0074fa05
   1da28:	3f7508a2 	svccc	0x007508a2
   1da2c:	3f75172f 	svccc	0x0075172f
   1da30:	3f7525ab 	svccc	0x007525ab
   1da34:	3f753416 	svccc	0x00753416
   1da38:	3f754291 	svccc	0x00754291
   1da3c:	3f7550ec 	svccc	0x007550ec
   1da40:	3f755f46 	svccc	0x00755f46
   1da44:	3f756d8f 	svccc	0x00756d8f
   1da48:	3f757bd9 	svccc	0x00757bd9
   1da4c:	3f758a22 	svccc	0x00758a22
   1da50:	3f75984a 	svccc	0x0075984a
   1da54:	3f75a683 	svccc	0x0075a683
   1da58:	3f75b49a 	svccc	0x0075b49a
   1da5c:	3f75c2b1 	svccc	0x0075c2b1
   1da60:	3f75d0c8 	svccc	0x0075d0c8
   1da64:	3f75dece 	svccc	0x0075dece
   1da68:	3f75ecc4 	svccc	0x0075ecc4
   1da6c:	3f75fab9 	svccc	0x0075fab9
   1da70:	3f76089e 	svccc	0x0076089e
   1da74:	3f761672 	svccc	0x00761672
   1da78:	3f762457 	svccc	0x00762457
   1da7c:	3f76321a 	svccc	0x0076321a
   1da80:	3f763fdd 	svccc	0x00763fdd
   1da84:	3f764d90 	svccc	0x00764d90
   1da88:	3f765b42 	svccc	0x00765b42
   1da8c:	3f7668e4 	svccc	0x007668e4
   1da90:	3f767686 	svccc	0x00767686
   1da94:	3f768416 	svccc	0x00768416
   1da98:	3f7691a7 	svccc	0x007691a7
   1da9c:	3f769f27 	svccc	0x00769f27
   1daa0:	3f76ac97 	svccc	0x0076ac97
   1daa4:	3f76ba06 	svccc	0x0076ba06
   1daa8:	3f76c765 	svccc	0x0076c765
   1daac:	3f76d4c3 	svccc	0x0076d4c3
   1dab0:	3f76e211 	svccc	0x0076e211
   1dab4:	3f76ef5f 	svccc	0x0076ef5f
   1dab8:	3f76fc9c 	svccc	0x0076fc9c
   1dabc:	3f7709c8 	svccc	0x007709c8
   1dac0:	3f7716f4 	svccc	0x007716f4
   1dac4:	3f772410 	svccc	0x00772410
   1dac8:	3f77312b 	svccc	0x0077312b
   1dacc:	3f773e36 	svccc	0x00773e36
   1dad0:	3f774b40 	svccc	0x00774b40
   1dad4:	3f77583a 	svccc	0x0077583a
   1dad8:	3f776523 	svccc	0x00776523
   1dadc:	3f77720d 	svccc	0x0077720d
   1dae0:	3f777ef6 	svccc	0x00777ef6
   1dae4:	3f778bbd 	svccc	0x00778bbd
   1dae8:	3f779896 	svccc	0x00779896
   1daec:	3f77a54c 	svccc	0x0077a54c
   1daf0:	3f77b203 	svccc	0x0077b203
   1daf4:	3f77beba 	svccc	0x0077beba
   1daf8:	3f77cb60 	svccc	0x0077cb60
   1dafc:	3f77d7f5 	svccc	0x0077d7f5
   1db00:	3f77e48a 	svccc	0x0077e48a
   1db04:	3f77f10f 	svccc	0x0077f10f
   1db08:	3f77fd93 	svccc	0x0077fd93
   1db0c:	3f780a07 	svccc	0x00780a07
   1db10:	3f78166a 	svccc	0x0078166a
   1db14:	3f7822cd 	svccc	0x007822cd
   1db18:	3f782f30 	svccc	0x00782f30
   1db1c:	3f783b71 	svccc	0x00783b71
   1db20:	3f7847c3 	svccc	0x007847c3
   1db24:	3f7853f4 	svccc	0x007853f4
   1db28:	3f786024 	svccc	0x00786024
   1db2c:	3f786c55 	svccc	0x00786c55
   1db30:	3f787875 	svccc	0x00787875
   1db34:	3f788484 	svccc	0x00788484
   1db38:	3f789093 	svccc	0x00789093
   1db3c:	3f789c91 	svccc	0x00789c91
   1db40:	3f78a88f 	svccc	0x0078a88f
   1db44:	3f78b47c 	svccc	0x0078b47c
   1db48:	3f78c059 	svccc	0x0078c059
   1db4c:	3f78cc36 	svccc	0x0078cc36
   1db50:	3f78d812 	svccc	0x0078d812
   1db54:	3f78e3ce 	svccc	0x0078e3ce
   1db58:	3f78ef9a 	svccc	0x0078ef9a
   1db5c:	3f78fb44 	svccc	0x0078fb44
   1db60:	3f7906ee 	svccc	0x007906ee
   1db64:	3f791299 	svccc	0x00791299
   1db68:	3f791e32 	svccc	0x00791e32
   1db6c:	3f7929bb 	svccc	0x007929bb
   1db70:	3f793544 	svccc	0x00793544
   1db74:	3f7940bc 	svccc	0x007940bc
   1db78:	3f794c34 	svccc	0x00794c34
   1db7c:	3f79579b 	svccc	0x0079579b
   1db80:	3f7962f1 	svccc	0x007962f1
   1db84:	3f796e48 	svccc	0x00796e48
   1db88:	3f79799e 	svccc	0x0079799e
   1db8c:	3f7984e4 	svccc	0x007984e4
   1db90:	3f799019 	svccc	0x00799019
   1db94:	3f799b3d 	svccc	0x00799b3d
   1db98:	3f79a661 	svccc	0x0079a661
   1db9c:	3f79b185 	svccc	0x0079b185
   1dba0:	3f79bc99 	svccc	0x0079bc99
   1dba4:	3f79c79b 	svccc	0x0079c79b
   1dba8:	3f79d29e 	svccc	0x0079d29e
   1dbac:	3f79dd90 	svccc	0x0079dd90
   1dbb0:	3f79e881 	svccc	0x0079e881
   1dbb4:	3f79f362 	svccc	0x0079f362
   1dbb8:	3f79fe33 	svccc	0x0079fe33
   1dbbc:	3f7a0903 	svccc	0x007a0903
   1dbc0:	3f7a13c2 	svccc	0x007a13c2
   1dbc4:	3f7a1e82 	svccc	0x007a1e82
   1dbc8:	3f7a2930 	svccc	0x007a2930
   1dbcc:	3f7a33df 	svccc	0x007a33df
   1dbd0:	3f7a3e7d 	svccc	0x007a3e7d
   1dbd4:	3f7a490a 	svccc	0x007a490a
   1dbd8:	3f7a5397 	svccc	0x007a5397
   1dbdc:	3f7a5e24 	svccc	0x007a5e24
   1dbe0:	3f7a6890 	svccc	0x007a6890
   1dbe4:	3f7a72fc 	svccc	0x007a72fc
   1dbe8:	3f7a7d67 	svccc	0x007a7d67
   1dbec:	3f7a87c2 	svccc	0x007a87c2
   1dbf0:	3f7a920c 	svccc	0x007a920c
   1dbf4:	3f7a9c56 	svccc	0x007a9c56
   1dbf8:	3f7aa68f 	svccc	0x007aa68f
   1dbfc:	3f7ab0c9 	svccc	0x007ab0c9
   1dc00:	3f7abaf1 	svccc	0x007abaf1
   1dc04:	3f7ac519 	svccc	0x007ac519
   1dc08:	3f7acf31 	svccc	0x007acf31
   1dc0c:	3f7ad938 	svccc	0x007ad938
   1dc10:	3f7ae33f 	svccc	0x007ae33f
   1dc14:	3f7aed35 	svccc	0x007aed35
   1dc18:	3f7af72b 	svccc	0x007af72b
   1dc1c:	3f7b0111 	svccc	0x007b0111
   1dc20:	3f7b0ae5 	svccc	0x007b0ae5
   1dc24:	3f7b14ba 	svccc	0x007b14ba
   1dc28:	3f7b1e8e 	svccc	0x007b1e8e
   1dc2c:	3f7b2841 	svccc	0x007b2841
   1dc30:	3f7b3205 	svccc	0x007b3205
   1dc34:	3f7b3ba7 	svccc	0x007b3ba7
   1dc38:	3f7b454a 	svccc	0x007b454a
   1dc3c:	3f7b4eec 	svccc	0x007b4eec
   1dc40:	3f7b587d 	svccc	0x007b587d
   1dc44:	3f7b61fe 	svccc	0x007b61fe
   1dc48:	3f7b6b7f 	svccc	0x007b6b7f
   1dc4c:	3f7b74ef 	svccc	0x007b74ef
   1dc50:	3f7b7e4e 	svccc	0x007b7e4e
   1dc54:	3f7b87ad 	svccc	0x007b87ad
   1dc58:	3f7b910c 	svccc	0x007b910c
   1dc5c:	3f7b9a5b 	svccc	0x007b9a5b
   1dc60:	3f7ba398 	svccc	0x007ba398
   1dc64:	3f7bacc5 	svccc	0x007bacc5
   1dc68:	3f7bb603 	svccc	0x007bb603
   1dc6c:	3f7bbf1f 	svccc	0x007bbf1f
   1dc70:	3f7bc83b 	svccc	0x007bc83b
   1dc74:	3f7bd146 	svccc	0x007bd146
   1dc78:	3f7bda51 	svccc	0x007bda51
   1dc7c:	3f7be34c 	svccc	0x007be34c
   1dc80:	3f7bec46 	svccc	0x007bec46
   1dc84:	3f7bf530 	svccc	0x007bf530
   1dc88:	3f7bfe19 	svccc	0x007bfe19
   1dc8c:	3f7c06e2 	svccc	0x007c06e2
   1dc90:	3f7c0fbb 	svccc	0x007c0fbb
   1dc94:	3f7c1883 	svccc	0x007c1883
   1dc98:	3f7c213a 	svccc	0x007c213a
   1dc9c:	3f7c29e1 	svccc	0x007c29e1
   1dca0:	3f7c3287 	svccc	0x007c3287
   1dca4:	3f7c3b2e 	svccc	0x007c3b2e
   1dca8:	3f7c43b3 	svccc	0x007c43b3
   1dcac:	3f7c4c49 	svccc	0x007c4c49
   1dcb0:	3f7c54bd 	svccc	0x007c54bd
   1dcb4:	3f7c5d42 	svccc	0x007c5d42
   1dcb8:	3f7c65a5 	svccc	0x007c65a5
   1dcbc:	3f7c6e09 	svccc	0x007c6e09
   1dcc0:	3f7c765c 	svccc	0x007c765c
   1dcc4:	3f7c7eae 	svccc	0x007c7eae
   1dcc8:	3f7c86f0 	svccc	0x007c86f0
   1dccc:	3f7c8f32 	svccc	0x007c8f32
   1dcd0:	3f7c9763 	svccc	0x007c9763
   1dcd4:	3f7c9f84 	svccc	0x007c9f84
   1dcd8:	3f7ca7a4 	svccc	0x007ca7a4
   1dcdc:	3f7cafc4 	svccc	0x007cafc4
   1dce0:	3f7cb7c3 	svccc	0x007cb7c3
   1dce4:	3f7cbfc2 	svccc	0x007cbfc2
   1dce8:	3f7cc7c1 	svccc	0x007cc7c1
   1dcec:	3f7ccfaf 	svccc	0x007ccfaf
   1dcf0:	3f7cd78c 	svccc	0x007cd78c
   1dcf4:	3f7cdf6a 	svccc	0x007cdf6a
   1dcf8:	3f7ce736 	svccc	0x007ce736
   1dcfc:	3f7cef03 	svccc	0x007cef03
   1dd00:	3f7cf6be 	svccc	0x007cf6be
   1dd04:	3f7cfe7a 	svccc	0x007cfe7a
   1dd08:	3f7d0614 	svccc	0x007d0614
   1dd0c:	3f7d0dbf 	svccc	0x007d0dbf
   1dd10:	3f7d1559 	svccc	0x007d1559
   1dd14:	3f7d1ce3 	svccc	0x007d1ce3
   1dd18:	3f7d245b 	svccc	0x007d245b
   1dd1c:	3f7d2bd4 	svccc	0x007d2bd4
   1dd20:	3f7d334c 	svccc	0x007d334c
   1dd24:	3f7d3ab4 	svccc	0x007d3ab4
   1dd28:	3f7d420b 	svccc	0x007d420b
   1dd2c:	3f7d4952 	svccc	0x007d4952
   1dd30:	3f7d50a9 	svccc	0x007d50a9
   1dd34:	3f7d57de 	svccc	0x007d57de
   1dd38:	3f7d5f14 	svccc	0x007d5f14
   1dd3c:	3f7d6638 	svccc	0x007d6638
   1dd40:	3f7d6d5d 	svccc	0x007d6d5d
   1dd44:	3f7d7471 	svccc	0x007d7471
   1dd48:	3f7d7b85 	svccc	0x007d7b85
   1dd4c:	3f7d8288 	svccc	0x007d8288
   1dd50:	3f7d897a 	svccc	0x007d897a
   1dd54:	3f7d906d 	svccc	0x007d906d
   1dd58:	3f7d974e 	svccc	0x007d974e
   1dd5c:	3f7d9e30 	svccc	0x007d9e30
   1dd60:	3f7da501 	svccc	0x007da501
   1dd64:	3f7dabd2 	svccc	0x007dabd2
   1dd68:	3f7db292 	svccc	0x007db292
   1dd6c:	3f7db941 	svccc	0x007db941
   1dd70:	3f7dbff0 	svccc	0x007dbff0
   1dd74:	3f7dc68f 	svccc	0x007dc68f
   1dd78:	3f7dcd1c 	svccc	0x007dcd1c
   1dd7c:	3f7dd3aa 	svccc	0x007dd3aa
   1dd80:	3f7dda38 	svccc	0x007dda38
   1dd84:	3f7de0b5 	svccc	0x007de0b5
   1dd88:	3f7de721 	svccc	0x007de721
   1dd8c:	3f7ded8d 	svccc	0x007ded8d
   1dd90:	3f7df3e9 	svccc	0x007df3e9
   1dd94:	3f7dfa33 	svccc	0x007dfa33
   1dd98:	3f7e007e 	svccc	0x007e007e
   1dd9c:	3f7e06c8 	svccc	0x007e06c8
   1dda0:	3f7e0cf2 	svccc	0x007e0cf2
   1dda4:	3f7e132b 	svccc	0x007e132b
   1dda8:	3f7e1944 	svccc	0x007e1944
   1ddac:	3f7e1f5c 	svccc	0x007e1f5c
   1ddb0:	3f7e2574 	svccc	0x007e2574
   1ddb4:	3f7e2b6b 	svccc	0x007e2b6b
   1ddb8:	3f7e3172 	svccc	0x007e3172
   1ddbc:	3f7e3758 	svccc	0x007e3758
   1ddc0:	3f7e3d3e 	svccc	0x007e3d3e
   1ddc4:	3f7e4324 	svccc	0x007e4324
   1ddc8:	3f7e48f9 	svccc	0x007e48f9
   1ddcc:	3f7e4ebe 	svccc	0x007e4ebe
   1ddd0:	3f7e5482 	svccc	0x007e5482
   1ddd4:	3f7e5a36 	svccc	0x007e5a36
   1ddd8:	3f7e5fe9 	svccc	0x007e5fe9
   1dddc:	3f7e658c 	svccc	0x007e658c
   1dde0:	3f7e6b1e 	svccc	0x007e6b1e
   1dde4:	3f7e70b0 	svccc	0x007e70b0
   1dde8:	3f7e7632 	svccc	0x007e7632
   1ddec:	3f7e7bb3 	svccc	0x007e7bb3
   1ddf0:	3f7e8124 	svccc	0x007e8124
   1ddf4:	3f7e8683 	svccc	0x007e8683
   1ddf8:	3f7e8be3 	svccc	0x007e8be3
   1ddfc:	3f7e9143 	svccc	0x007e9143
   1de00:	3f7e9681 	svccc	0x007e9681
   1de04:	3f7e9bd0 	svccc	0x007e9bd0
   1de08:	3f7ea0fd 	svccc	0x007ea0fd
   1de0c:	3f7ea62b 	svccc	0x007ea62b
   1de10:	3f7eab58 	svccc	0x007eab58
   1de14:	3f7eb064 	svccc	0x007eb064
   1de18:	3f7eb580 	svccc	0x007eb580
   1de1c:	3f7eba7c 	svccc	0x007eba7c
   1de20:	3f7ebf77 	svccc	0x007ebf77
   1de24:	3f7ec472 	svccc	0x007ec472
   1de28:	3f7ec95c 	svccc	0x007ec95c
   1de2c:	3f7ece36 	svccc	0x007ece36
   1de30:	3f7ed30f 	svccc	0x007ed30f
   1de34:	3f7ed7d8 	svccc	0x007ed7d8
   1de38:	3f7edc90 	svccc	0x007edc90
   1de3c:	3f7ee148 	svccc	0x007ee148
   1de40:	3f7ee600 	svccc	0x007ee600
   1de44:	3f7eea96 	svccc	0x007eea96
   1de48:	3f7eef3d 	svccc	0x007eef3d
   1de4c:	3f7ef3c3 	svccc	0x007ef3c3
   1de50:	3f7ef848 	svccc	0x007ef848
   1de54:	3f7efcce 	svccc	0x007efcce
   1de58:	3f7f0143 	svccc	0x007f0143
   1de5c:	3f7f05a7 	svccc	0x007f05a7
   1de60:	3f7f0a0b 	svccc	0x007f0a0b
   1de64:	3f7f0e5e 	svccc	0x007f0e5e
   1de68:	3f7f12a1 	svccc	0x007f12a1
   1de6c:	3f7f16e3 	svccc	0x007f16e3
   1de70:	3f7f1b15 	svccc	0x007f1b15
   1de74:	3f7f1f47 	svccc	0x007f1f47
   1de78:	3f7f2368 	svccc	0x007f2368
   1de7c:	3f7f2789 	svccc	0x007f2789
   1de80:	3f7f2b99 	svccc	0x007f2b99
   1de84:	3f7f2f98 	svccc	0x007f2f98
   1de88:	3f7f3398 	svccc	0x007f3398
   1de8c:	3f7f3786 	svccc	0x007f3786
   1de90:	3f7f3b75 	svccc	0x007f3b75
   1de94:	3f7f3f53 	svccc	0x007f3f53
   1de98:	3f7f4331 	svccc	0x007f4331
   1de9c:	3f7f46ed 	svccc	0x007f46ed
   1dea0:	3f7f4aba 	svccc	0x007f4aba
   1dea4:	3f7f4e66 	svccc	0x007f4e66
   1dea8:	3f7f5222 	svccc	0x007f5222
   1deac:	3f7f55bd 	svccc	0x007f55bd
   1deb0:	3f7f5958 	svccc	0x007f5958
   1deb4:	3f7f5ce2 	svccc	0x007f5ce2
   1deb8:	3f7f606b 	svccc	0x007f606b
   1debc:	3f7f63e5 	svccc	0x007f63e5
   1dec0:	3f7f675e 	svccc	0x007f675e
   1dec4:	3f7f6ac6 	svccc	0x007f6ac6
   1dec8:	3f7f6e2f 	svccc	0x007f6e2f
   1decc:	3f7f7176 	svccc	0x007f7176
   1ded0:	3f7f74cd 	svccc	0x007f74cd
   1ded4:	3f7f7803 	svccc	0x007f7803
   1ded8:	3f7f7b39 	svccc	0x007f7b39
   1dedc:	3f7f7e6f 	svccc	0x007f7e6f
   1dee0:	3f7f8195 	svccc	0x007f8195
   1dee4:	3f7f84a9 	svccc	0x007f84a9
   1dee8:	3f7f87be 	svccc	0x007f87be
   1deec:	3f7f8ac2 	svccc	0x007f8ac2
   1def0:	3f7f8dc5 	svccc	0x007f8dc5
   1def4:	3f7f90b8 	svccc	0x007f90b8
   1def8:	3f7f939a 	svccc	0x007f939a
   1defc:	3f7f967d 	svccc	0x007f967d
   1df00:	3f7f994e 	svccc	0x007f994e
   1df04:	3f7f9c20 	svccc	0x007f9c20
   1df08:	3f7f9ee0 	svccc	0x007f9ee0
   1df0c:	3f7fa190 	svccc	0x007fa190
   1df10:	3f7fa440 	svccc	0x007fa440
   1df14:	3f7fa6df 	svccc	0x007fa6df
   1df18:	3f7fa97e 	svccc	0x007fa97e
   1df1c:	3f7fac0c 	svccc	0x007fac0c
   1df20:	3f7fae9b 	svccc	0x007fae9b
   1df24:	3f7fb107 	svccc	0x007fb107
   1df28:	3f7fb385 	svccc	0x007fb385
   1df2c:	3f7fb5f2 	svccc	0x007fb5f2
   1df30:	3f7fb84e 	svccc	0x007fb84e
   1df34:	3f7fba99 	svccc	0x007fba99
   1df38:	3f7fbce4 	svccc	0x007fbce4
   1df3c:	3f7fbf2f 	svccc	0x007fbf2f
   1df40:	3f7fc16a 	svccc	0x007fc16a
   1df44:	3f7fc393 	svccc	0x007fc393
   1df48:	3f7fc5ac 	svccc	0x007fc5ac
   1df4c:	3f7fc7c5 	svccc	0x007fc7c5
   1df50:	3f7fc9de 	svccc	0x007fc9de
   1df54:	3f7fcbe6 	svccc	0x007fcbe6
   1df58:	3f7fcddd 	svccc	0x007fcddd
   1df5c:	3f7fcfd5 	svccc	0x007fcfd5
   1df60:	3f7fd1bb 	svccc	0x007fd1bb
   1df64:	3f7fd391 	svccc	0x007fd391
   1df68:	3f7fd567 	svccc	0x007fd567
   1df6c:	3f7fd73d 	svccc	0x007fd73d
   1df70:	3f7fd8f1 	svccc	0x007fd8f1
   1df74:	3f7fdab6 	svccc	0x007fdab6
   1df78:	3f7fdc59 	svccc	0x007fdc59
   1df7c:	3f7fddfd 	svccc	0x007fddfd
   1df80:	3f7fdfa0 	svccc	0x007fdfa0
   1df84:	3f7fe122 	svccc	0x007fe122
   1df88:	3f7fe2b5 	svccc	0x007fe2b5
   1df8c:	3f7fe426 	svccc	0x007fe426
   1df90:	3f7fe597 	svccc	0x007fe597
   1df94:	3f7fe708 	svccc	0x007fe708
   1df98:	3f7fe868 	svccc	0x007fe868
   1df9c:	3f7fe9b8 	svccc	0x007fe9b8
   1dfa0:	3f7feb07 	svccc	0x007feb07
   1dfa4:	3f7fec46 	svccc	0x007fec46
   1dfa8:	3f7fed74 	svccc	0x007fed74
   1dfac:	3f7feea2 	svccc	0x007feea2
   1dfb0:	3f7fefd0 	svccc	0x007fefd0
   1dfb4:	3f7ff0dc 	svccc	0x007ff0dc
   1dfb8:	3f7ff1fa 	svccc	0x007ff1fa
   1dfbc:	3f7ff2f5 	svccc	0x007ff2f5
   1dfc0:	3f7ff3f1 	svccc	0x007ff3f1
   1dfc4:	3f7ff4ed 	svccc	0x007ff4ed
   1dfc8:	3f7ff5c7 	svccc	0x007ff5c7
   1dfcc:	3f7ff6b2 	svccc	0x007ff6b2
   1dfd0:	3f7ff77b 	svccc	0x007ff77b
   1dfd4:	3f7ff844 	svccc	0x007ff844
   1dfd8:	3f7ff90e 	svccc	0x007ff90e
   1dfdc:	3f7ff9c6 	svccc	0x007ff9c6
   1dfe0:	3f7ffa6e 	svccc	0x007ffa6e
   1dfe4:	3f7ffb16 	svccc	0x007ffb16
   1dfe8:	3f7ffbad 	svccc	0x007ffbad
   1dfec:	3f7ffc33 	svccc	0x007ffc33
   1dff0:	3f7ffcb9 	svccc	0x007ffcb9
   1dff4:	3f7ffd3f 	svccc	0x007ffd3f
   1dff8:	3f7ffda4 	svccc	0x007ffda4
   1dffc:	3f7ffe19 	svccc	0x007ffe19
   1e000:	3f7ffe6d 	svccc	0x007ffe6d
   1e004:	3f7ffec1 	svccc	0x007ffec1
   1e008:	3f7fff15 	svccc	0x007fff15
   1e00c:	3f7fff47 	svccc	0x007fff47
   1e010:	3f7fff8b 	svccc	0x007fff8b
   1e014:	3f7fffac 	svccc	0x007fffac
   1e018:	3f7fffce 	svccc	0x007fffce
   1e01c:	3f7fffef 	svccc	0x007fffef
   1e020:	3f800000 	svccc	0x00800000
   1e024:	3f800000 	svccc	0x00800000
   1e028:	3f800000 	svccc	0x00800000
   1e02c:	3f7fffef 	svccc	0x007fffef
   1e030:	3f7fffce 	svccc	0x007fffce
   1e034:	3f7fffac 	svccc	0x007fffac
   1e038:	3f7fff8b 	svccc	0x007fff8b
   1e03c:	3f7fff47 	svccc	0x007fff47
   1e040:	3f7fff15 	svccc	0x007fff15
   1e044:	3f7ffec1 	svccc	0x007ffec1
   1e048:	3f7ffe6d 	svccc	0x007ffe6d
   1e04c:	3f7ffe19 	svccc	0x007ffe19
   1e050:	3f7ffda4 	svccc	0x007ffda4
   1e054:	3f7ffd3f 	svccc	0x007ffd3f
   1e058:	3f7ffcb9 	svccc	0x007ffcb9
   1e05c:	3f7ffc33 	svccc	0x007ffc33
   1e060:	3f7ffbad 	svccc	0x007ffbad
   1e064:	3f7ffb16 	svccc	0x007ffb16
   1e068:	3f7ffa6e 	svccc	0x007ffa6e
   1e06c:	3f7ff9c6 	svccc	0x007ff9c6
   1e070:	3f7ff90e 	svccc	0x007ff90e
   1e074:	3f7ff844 	svccc	0x007ff844
   1e078:	3f7ff77b 	svccc	0x007ff77b
   1e07c:	3f7ff6b2 	svccc	0x007ff6b2
   1e080:	3f7ff5c7 	svccc	0x007ff5c7
   1e084:	3f7ff4ed 	svccc	0x007ff4ed
   1e088:	3f7ff3f1 	svccc	0x007ff3f1
   1e08c:	3f7ff2f5 	svccc	0x007ff2f5
   1e090:	3f7ff1fa 	svccc	0x007ff1fa
   1e094:	3f7ff0dc 	svccc	0x007ff0dc
   1e098:	3f7fefd0 	svccc	0x007fefd0
   1e09c:	3f7feea2 	svccc	0x007feea2
   1e0a0:	3f7fed74 	svccc	0x007fed74
   1e0a4:	3f7fec46 	svccc	0x007fec46
   1e0a8:	3f7feb07 	svccc	0x007feb07
   1e0ac:	3f7fe9b8 	svccc	0x007fe9b8
   1e0b0:	3f7fe868 	svccc	0x007fe868
   1e0b4:	3f7fe708 	svccc	0x007fe708
   1e0b8:	3f7fe597 	svccc	0x007fe597
   1e0bc:	3f7fe426 	svccc	0x007fe426
   1e0c0:	3f7fe2b5 	svccc	0x007fe2b5
   1e0c4:	3f7fe122 	svccc	0x007fe122
   1e0c8:	3f7fdfa0 	svccc	0x007fdfa0
   1e0cc:	3f7fddfd 	svccc	0x007fddfd
   1e0d0:	3f7fdc59 	svccc	0x007fdc59
   1e0d4:	3f7fdab6 	svccc	0x007fdab6
   1e0d8:	3f7fd8f1 	svccc	0x007fd8f1
   1e0dc:	3f7fd73d 	svccc	0x007fd73d
   1e0e0:	3f7fd567 	svccc	0x007fd567
   1e0e4:	3f7fd391 	svccc	0x007fd391
   1e0e8:	3f7fd1bb 	svccc	0x007fd1bb
   1e0ec:	3f7fcfd5 	svccc	0x007fcfd5
   1e0f0:	3f7fcddd 	svccc	0x007fcddd
   1e0f4:	3f7fcbe6 	svccc	0x007fcbe6
   1e0f8:	3f7fc9de 	svccc	0x007fc9de
   1e0fc:	3f7fc7c5 	svccc	0x007fc7c5
   1e100:	3f7fc5ac 	svccc	0x007fc5ac
   1e104:	3f7fc393 	svccc	0x007fc393
   1e108:	3f7fc16a 	svccc	0x007fc16a
   1e10c:	3f7fbf2f 	svccc	0x007fbf2f
   1e110:	3f7fbce4 	svccc	0x007fbce4
   1e114:	3f7fba99 	svccc	0x007fba99
   1e118:	3f7fb84e 	svccc	0x007fb84e
   1e11c:	3f7fb5f2 	svccc	0x007fb5f2
   1e120:	3f7fb385 	svccc	0x007fb385
   1e124:	3f7fb107 	svccc	0x007fb107
   1e128:	3f7fae9b 	svccc	0x007fae9b
   1e12c:	3f7fac0c 	svccc	0x007fac0c
   1e130:	3f7fa97e 	svccc	0x007fa97e
   1e134:	3f7fa6df 	svccc	0x007fa6df
   1e138:	3f7fa440 	svccc	0x007fa440
   1e13c:	3f7fa190 	svccc	0x007fa190
   1e140:	3f7f9ee0 	svccc	0x007f9ee0
   1e144:	3f7f9c20 	svccc	0x007f9c20
   1e148:	3f7f994e 	svccc	0x007f994e
   1e14c:	3f7f967d 	svccc	0x007f967d
   1e150:	3f7f939a 	svccc	0x007f939a
   1e154:	3f7f90b8 	svccc	0x007f90b8
   1e158:	3f7f8dc5 	svccc	0x007f8dc5
   1e15c:	3f7f8ac2 	svccc	0x007f8ac2
   1e160:	3f7f87be 	svccc	0x007f87be
   1e164:	3f7f84a9 	svccc	0x007f84a9
   1e168:	3f7f8195 	svccc	0x007f8195
   1e16c:	3f7f7e6f 	svccc	0x007f7e6f
   1e170:	3f7f7b39 	svccc	0x007f7b39
   1e174:	3f7f7803 	svccc	0x007f7803
   1e178:	3f7f74cd 	svccc	0x007f74cd
   1e17c:	3f7f7176 	svccc	0x007f7176
   1e180:	3f7f6e2f 	svccc	0x007f6e2f
   1e184:	3f7f6ac6 	svccc	0x007f6ac6
   1e188:	3f7f675e 	svccc	0x007f675e
   1e18c:	3f7f63e5 	svccc	0x007f63e5
   1e190:	3f7f606b 	svccc	0x007f606b
   1e194:	3f7f5ce2 	svccc	0x007f5ce2
   1e198:	3f7f5958 	svccc	0x007f5958
   1e19c:	3f7f55bd 	svccc	0x007f55bd
   1e1a0:	3f7f5222 	svccc	0x007f5222
   1e1a4:	3f7f4e66 	svccc	0x007f4e66
   1e1a8:	3f7f4aba 	svccc	0x007f4aba
   1e1ac:	3f7f46ed 	svccc	0x007f46ed
   1e1b0:	3f7f4331 	svccc	0x007f4331
   1e1b4:	3f7f3f53 	svccc	0x007f3f53
   1e1b8:	3f7f3b75 	svccc	0x007f3b75
   1e1bc:	3f7f3786 	svccc	0x007f3786
   1e1c0:	3f7f3398 	svccc	0x007f3398
   1e1c4:	3f7f2f98 	svccc	0x007f2f98
   1e1c8:	3f7f2b99 	svccc	0x007f2b99
   1e1cc:	3f7f2789 	svccc	0x007f2789
   1e1d0:	3f7f2368 	svccc	0x007f2368
   1e1d4:	3f7f1f47 	svccc	0x007f1f47
   1e1d8:	3f7f1b15 	svccc	0x007f1b15
   1e1dc:	3f7f16e3 	svccc	0x007f16e3
   1e1e0:	3f7f12a1 	svccc	0x007f12a1
   1e1e4:	3f7f0e5e 	svccc	0x007f0e5e
   1e1e8:	3f7f0a0b 	svccc	0x007f0a0b
   1e1ec:	3f7f05a7 	svccc	0x007f05a7
   1e1f0:	3f7f0143 	svccc	0x007f0143
   1e1f4:	3f7efcce 	svccc	0x007efcce
   1e1f8:	3f7ef848 	svccc	0x007ef848
   1e1fc:	3f7ef3c3 	svccc	0x007ef3c3
   1e200:	3f7eef3d 	svccc	0x007eef3d
   1e204:	3f7eea96 	svccc	0x007eea96
   1e208:	3f7ee600 	svccc	0x007ee600
   1e20c:	3f7ee148 	svccc	0x007ee148
   1e210:	3f7edc90 	svccc	0x007edc90
   1e214:	3f7ed7d8 	svccc	0x007ed7d8
   1e218:	3f7ed30f 	svccc	0x007ed30f
   1e21c:	3f7ece36 	svccc	0x007ece36
   1e220:	3f7ec95c 	svccc	0x007ec95c
   1e224:	3f7ec472 	svccc	0x007ec472
   1e228:	3f7ebf77 	svccc	0x007ebf77
   1e22c:	3f7eba7c 	svccc	0x007eba7c
   1e230:	3f7eb580 	svccc	0x007eb580
   1e234:	3f7eb064 	svccc	0x007eb064
   1e238:	3f7eab58 	svccc	0x007eab58
   1e23c:	3f7ea62b 	svccc	0x007ea62b
   1e240:	3f7ea0fd 	svccc	0x007ea0fd
   1e244:	3f7e9bd0 	svccc	0x007e9bd0
   1e248:	3f7e9681 	svccc	0x007e9681
   1e24c:	3f7e9143 	svccc	0x007e9143
   1e250:	3f7e8be3 	svccc	0x007e8be3
   1e254:	3f7e8683 	svccc	0x007e8683
   1e258:	3f7e8124 	svccc	0x007e8124
   1e25c:	3f7e7bb3 	svccc	0x007e7bb3
   1e260:	3f7e7632 	svccc	0x007e7632
   1e264:	3f7e70b0 	svccc	0x007e70b0
   1e268:	3f7e6b1e 	svccc	0x007e6b1e
   1e26c:	3f7e658c 	svccc	0x007e658c
   1e270:	3f7e5fe9 	svccc	0x007e5fe9
   1e274:	3f7e5a36 	svccc	0x007e5a36
   1e278:	3f7e5482 	svccc	0x007e5482
   1e27c:	3f7e4ebe 	svccc	0x007e4ebe
   1e280:	3f7e48f9 	svccc	0x007e48f9
   1e284:	3f7e4324 	svccc	0x007e4324
   1e288:	3f7e3d3e 	svccc	0x007e3d3e
   1e28c:	3f7e3758 	svccc	0x007e3758
   1e290:	3f7e3172 	svccc	0x007e3172
   1e294:	3f7e2b6b 	svccc	0x007e2b6b
   1e298:	3f7e2574 	svccc	0x007e2574
   1e29c:	3f7e1f5c 	svccc	0x007e1f5c
   1e2a0:	3f7e1944 	svccc	0x007e1944
   1e2a4:	3f7e132b 	svccc	0x007e132b
   1e2a8:	3f7e0cf2 	svccc	0x007e0cf2
   1e2ac:	3f7e06c8 	svccc	0x007e06c8
   1e2b0:	3f7e007e 	svccc	0x007e007e
   1e2b4:	3f7dfa33 	svccc	0x007dfa33
   1e2b8:	3f7df3e9 	svccc	0x007df3e9
   1e2bc:	3f7ded8d 	svccc	0x007ded8d
   1e2c0:	3f7de721 	svccc	0x007de721
   1e2c4:	3f7de0b5 	svccc	0x007de0b5
   1e2c8:	3f7dda38 	svccc	0x007dda38
   1e2cc:	3f7dd3aa 	svccc	0x007dd3aa
   1e2d0:	3f7dcd1c 	svccc	0x007dcd1c
   1e2d4:	3f7dc68f 	svccc	0x007dc68f
   1e2d8:	3f7dbff0 	svccc	0x007dbff0
   1e2dc:	3f7db941 	svccc	0x007db941
   1e2e0:	3f7db292 	svccc	0x007db292
   1e2e4:	3f7dabd2 	svccc	0x007dabd2
   1e2e8:	3f7da501 	svccc	0x007da501
   1e2ec:	3f7d9e30 	svccc	0x007d9e30
   1e2f0:	3f7d974e 	svccc	0x007d974e
   1e2f4:	3f7d906d 	svccc	0x007d906d
   1e2f8:	3f7d897a 	svccc	0x007d897a
   1e2fc:	3f7d8288 	svccc	0x007d8288
   1e300:	3f7d7b85 	svccc	0x007d7b85
   1e304:	3f7d7471 	svccc	0x007d7471
   1e308:	3f7d6d5d 	svccc	0x007d6d5d
   1e30c:	3f7d6638 	svccc	0x007d6638
   1e310:	3f7d5f14 	svccc	0x007d5f14
   1e314:	3f7d57de 	svccc	0x007d57de
   1e318:	3f7d50a9 	svccc	0x007d50a9
   1e31c:	3f7d4952 	svccc	0x007d4952
   1e320:	3f7d420b 	svccc	0x007d420b
   1e324:	3f7d3ab4 	svccc	0x007d3ab4
   1e328:	3f7d334c 	svccc	0x007d334c
   1e32c:	3f7d2bd4 	svccc	0x007d2bd4
   1e330:	3f7d245b 	svccc	0x007d245b
   1e334:	3f7d1ce3 	svccc	0x007d1ce3
   1e338:	3f7d1559 	svccc	0x007d1559
   1e33c:	3f7d0dbf 	svccc	0x007d0dbf
   1e340:	3f7d0614 	svccc	0x007d0614
   1e344:	3f7cfe7a 	svccc	0x007cfe7a
   1e348:	3f7cf6be 	svccc	0x007cf6be
   1e34c:	3f7cef03 	svccc	0x007cef03
   1e350:	3f7ce736 	svccc	0x007ce736
   1e354:	3f7cdf6a 	svccc	0x007cdf6a
   1e358:	3f7cd78c 	svccc	0x007cd78c
   1e35c:	3f7ccfaf 	svccc	0x007ccfaf
   1e360:	3f7cc7c1 	svccc	0x007cc7c1
   1e364:	3f7cbfc2 	svccc	0x007cbfc2
   1e368:	3f7cb7c3 	svccc	0x007cb7c3
   1e36c:	3f7cafc4 	svccc	0x007cafc4
   1e370:	3f7ca7a4 	svccc	0x007ca7a4
   1e374:	3f7c9f84 	svccc	0x007c9f84
   1e378:	3f7c9763 	svccc	0x007c9763
   1e37c:	3f7c8f32 	svccc	0x007c8f32
   1e380:	3f7c86f0 	svccc	0x007c86f0
   1e384:	3f7c7eae 	svccc	0x007c7eae
   1e388:	3f7c765c 	svccc	0x007c765c
   1e38c:	3f7c6e09 	svccc	0x007c6e09
   1e390:	3f7c65a5 	svccc	0x007c65a5
   1e394:	3f7c5d42 	svccc	0x007c5d42
   1e398:	3f7c54bd 	svccc	0x007c54bd
   1e39c:	3f7c4c49 	svccc	0x007c4c49
   1e3a0:	3f7c43b3 	svccc	0x007c43b3
   1e3a4:	3f7c3b2e 	svccc	0x007c3b2e
   1e3a8:	3f7c3287 	svccc	0x007c3287
   1e3ac:	3f7c29e1 	svccc	0x007c29e1
   1e3b0:	3f7c213a 	svccc	0x007c213a
   1e3b4:	3f7c1883 	svccc	0x007c1883
   1e3b8:	3f7c0fbb 	svccc	0x007c0fbb
   1e3bc:	3f7c06e2 	svccc	0x007c06e2
   1e3c0:	3f7bfe19 	svccc	0x007bfe19
   1e3c4:	3f7bf530 	svccc	0x007bf530
   1e3c8:	3f7bec46 	svccc	0x007bec46
   1e3cc:	3f7be34c 	svccc	0x007be34c
   1e3d0:	3f7bda51 	svccc	0x007bda51
   1e3d4:	3f7bd146 	svccc	0x007bd146
   1e3d8:	3f7bc83b 	svccc	0x007bc83b
   1e3dc:	3f7bbf1f 	svccc	0x007bbf1f
   1e3e0:	3f7bb603 	svccc	0x007bb603
   1e3e4:	3f7bacc5 	svccc	0x007bacc5
   1e3e8:	3f7ba398 	svccc	0x007ba398
   1e3ec:	3f7b9a5b 	svccc	0x007b9a5b
   1e3f0:	3f7b910c 	svccc	0x007b910c
   1e3f4:	3f7b87ad 	svccc	0x007b87ad
   1e3f8:	3f7b7e4e 	svccc	0x007b7e4e
   1e3fc:	3f7b74ef 	svccc	0x007b74ef
   1e400:	3f7b6b7f 	svccc	0x007b6b7f
   1e404:	3f7b61fe 	svccc	0x007b61fe
   1e408:	3f7b587d 	svccc	0x007b587d
   1e40c:	3f7b4eec 	svccc	0x007b4eec
   1e410:	3f7b454a 	svccc	0x007b454a
   1e414:	3f7b3ba7 	svccc	0x007b3ba7
   1e418:	3f7b3205 	svccc	0x007b3205
   1e41c:	3f7b2841 	svccc	0x007b2841
   1e420:	3f7b1e8e 	svccc	0x007b1e8e
   1e424:	3f7b14ba 	svccc	0x007b14ba
   1e428:	3f7b0ae5 	svccc	0x007b0ae5
   1e42c:	3f7b0111 	svccc	0x007b0111
   1e430:	3f7af72b 	svccc	0x007af72b
   1e434:	3f7aed35 	svccc	0x007aed35
   1e438:	3f7ae33f 	svccc	0x007ae33f
   1e43c:	3f7ad938 	svccc	0x007ad938
   1e440:	3f7acf31 	svccc	0x007acf31
   1e444:	3f7ac519 	svccc	0x007ac519
   1e448:	3f7abaf1 	svccc	0x007abaf1
   1e44c:	3f7ab0c9 	svccc	0x007ab0c9
   1e450:	3f7aa68f 	svccc	0x007aa68f
   1e454:	3f7a9c56 	svccc	0x007a9c56
   1e458:	3f7a920c 	svccc	0x007a920c
   1e45c:	3f7a87c2 	svccc	0x007a87c2
   1e460:	3f7a7d67 	svccc	0x007a7d67
   1e464:	3f7a72fc 	svccc	0x007a72fc
   1e468:	3f7a6890 	svccc	0x007a6890
   1e46c:	3f7a5e24 	svccc	0x007a5e24
   1e470:	3f7a5397 	svccc	0x007a5397
   1e474:	3f7a490a 	svccc	0x007a490a
   1e478:	3f7a3e7d 	svccc	0x007a3e7d
   1e47c:	3f7a33df 	svccc	0x007a33df
   1e480:	3f7a2930 	svccc	0x007a2930
   1e484:	3f7a1e82 	svccc	0x007a1e82
   1e488:	3f7a13c2 	svccc	0x007a13c2
   1e48c:	3f7a0903 	svccc	0x007a0903
   1e490:	3f79fe33 	svccc	0x0079fe33
   1e494:	3f79f362 	svccc	0x0079f362
   1e498:	3f79e881 	svccc	0x0079e881
   1e49c:	3f79dd90 	svccc	0x0079dd90
   1e4a0:	3f79d29e 	svccc	0x0079d29e
   1e4a4:	3f79c79b 	svccc	0x0079c79b
   1e4a8:	3f79bc99 	svccc	0x0079bc99
   1e4ac:	3f79b185 	svccc	0x0079b185
   1e4b0:	3f79a661 	svccc	0x0079a661
   1e4b4:	3f799b3d 	svccc	0x00799b3d
   1e4b8:	3f799019 	svccc	0x00799019
   1e4bc:	3f7984e4 	svccc	0x007984e4
   1e4c0:	3f79799e 	svccc	0x0079799e
   1e4c4:	3f796e48 	svccc	0x00796e48
   1e4c8:	3f7962f1 	svccc	0x007962f1
   1e4cc:	3f79579b 	svccc	0x0079579b
   1e4d0:	3f794c34 	svccc	0x00794c34
   1e4d4:	3f7940bc 	svccc	0x007940bc
   1e4d8:	3f793544 	svccc	0x00793544
   1e4dc:	3f7929bb 	svccc	0x007929bb
   1e4e0:	3f791e32 	svccc	0x00791e32
   1e4e4:	3f791299 	svccc	0x00791299
   1e4e8:	3f7906ee 	svccc	0x007906ee
   1e4ec:	3f78fb44 	svccc	0x0078fb44
   1e4f0:	3f78ef9a 	svccc	0x0078ef9a
   1e4f4:	3f78e3ce 	svccc	0x0078e3ce
   1e4f8:	3f78d812 	svccc	0x0078d812
   1e4fc:	3f78cc36 	svccc	0x0078cc36
   1e500:	3f78c059 	svccc	0x0078c059
   1e504:	3f78b47c 	svccc	0x0078b47c
   1e508:	3f78a88f 	svccc	0x0078a88f
   1e50c:	3f789c91 	svccc	0x00789c91
   1e510:	3f789093 	svccc	0x00789093
   1e514:	3f788484 	svccc	0x00788484
   1e518:	3f787875 	svccc	0x00787875
   1e51c:	3f786c55 	svccc	0x00786c55
   1e520:	3f786024 	svccc	0x00786024
   1e524:	3f7853f4 	svccc	0x007853f4
   1e528:	3f7847c3 	svccc	0x007847c3
   1e52c:	3f783b71 	svccc	0x00783b71
   1e530:	3f782f30 	svccc	0x00782f30
   1e534:	3f7822cd 	svccc	0x007822cd
   1e538:	3f78166a 	svccc	0x0078166a
   1e53c:	3f780a07 	svccc	0x00780a07
   1e540:	3f77fd93 	svccc	0x0077fd93
   1e544:	3f77f10f 	svccc	0x0077f10f
   1e548:	3f77e48a 	svccc	0x0077e48a
   1e54c:	3f77d7f5 	svccc	0x0077d7f5
   1e550:	3f77cb60 	svccc	0x0077cb60
   1e554:	3f77beba 	svccc	0x0077beba
   1e558:	3f77b203 	svccc	0x0077b203
   1e55c:	3f77a54c 	svccc	0x0077a54c
   1e560:	3f779896 	svccc	0x00779896
   1e564:	3f778bbd 	svccc	0x00778bbd
   1e568:	3f777ef6 	svccc	0x00777ef6
   1e56c:	3f77720d 	svccc	0x0077720d
   1e570:	3f776523 	svccc	0x00776523
   1e574:	3f77583a 	svccc	0x0077583a
   1e578:	3f774b40 	svccc	0x00774b40
   1e57c:	3f773e36 	svccc	0x00773e36
   1e580:	3f77312b 	svccc	0x0077312b
   1e584:	3f772410 	svccc	0x00772410
   1e588:	3f7716f4 	svccc	0x007716f4
   1e58c:	3f7709c8 	svccc	0x007709c8
   1e590:	3f76fc9c 	svccc	0x0076fc9c
   1e594:	3f76ef5f 	svccc	0x0076ef5f
   1e598:	3f76e211 	svccc	0x0076e211
   1e59c:	3f76d4c3 	svccc	0x0076d4c3
   1e5a0:	3f76c765 	svccc	0x0076c765
   1e5a4:	3f76ba06 	svccc	0x0076ba06
   1e5a8:	3f76ac97 	svccc	0x0076ac97
   1e5ac:	3f769f27 	svccc	0x00769f27
   1e5b0:	3f7691a7 	svccc	0x007691a7
   1e5b4:	3f768416 	svccc	0x00768416
   1e5b8:	3f767686 	svccc	0x00767686
   1e5bc:	3f7668e4 	svccc	0x007668e4
   1e5c0:	3f765b42 	svccc	0x00765b42
   1e5c4:	3f764d90 	svccc	0x00764d90
   1e5c8:	3f763fdd 	svccc	0x00763fdd
   1e5cc:	3f76321a 	svccc	0x0076321a
   1e5d0:	3f762457 	svccc	0x00762457
   1e5d4:	3f761672 	svccc	0x00761672
   1e5d8:	3f76089e 	svccc	0x0076089e
   1e5dc:	3f75fab9 	svccc	0x0075fab9
   1e5e0:	3f75ecc4 	svccc	0x0075ecc4
   1e5e4:	3f75dece 	svccc	0x0075dece
   1e5e8:	3f75d0c8 	svccc	0x0075d0c8
   1e5ec:	3f75c2b1 	svccc	0x0075c2b1
   1e5f0:	3f75b49a 	svccc	0x0075b49a
   1e5f4:	3f75a683 	svccc	0x0075a683
   1e5f8:	3f75984a 	svccc	0x0075984a
   1e5fc:	3f758a22 	svccc	0x00758a22
   1e600:	3f757bd9 	svccc	0x00757bd9
   1e604:	3f756d8f 	svccc	0x00756d8f
   1e608:	3f755f46 	svccc	0x00755f46
   1e60c:	3f7550ec 	svccc	0x007550ec
   1e610:	3f754291 	svccc	0x00754291
   1e614:	3f753416 	svccc	0x00753416
   1e618:	3f7525ab 	svccc	0x007525ab
   1e61c:	3f75172f 	svccc	0x0075172f
   1e620:	3f7508a2 	svccc	0x007508a2
   1e624:	3f74fa05 	svccc	0x0074fa05
   1e628:	3f74eb68 	svccc	0x0074eb68
   1e62c:	3f74dcca 	svccc	0x0074dcca
   1e630:	3f74ce1c 	svccc	0x0074ce1c
   1e634:	3f74bf5d 	svccc	0x0074bf5d
   1e638:	3f74b09f 	svccc	0x0074b09f
   1e63c:	3f74a1cf 	svccc	0x0074a1cf
   1e640:	3f7492ff 	svccc	0x007492ff
   1e644:	3f74841f 	svccc	0x0074841f
   1e648:	3f74753e 	svccc	0x0074753e
   1e64c:	3f74664d 	svccc	0x0074664d
   1e650:	3f74574b 	svccc	0x0074574b
   1e654:	3f744849 	svccc	0x00744849
   1e658:	3f743937 	svccc	0x00743937
   1e65c:	3f742a24 	svccc	0x00742a24
   1e660:	3f741b00 	svccc	0x00741b00
   1e664:	3f740bdd 	svccc	0x00740bdd
   1e668:	3f73fca8 	svccc	0x0073fca8
   1e66c:	3f73ed74 	svccc	0x0073ed74
   1e670:	3f73de2f 	svccc	0x0073de2f
   1e674:	3f73ced9 	svccc	0x0073ced9
   1e678:	3f73bf83 	svccc	0x0073bf83
   1e67c:	3f73b01d 	svccc	0x0073b01d
   1e680:	3f73a0b6 	svccc	0x0073a0b6
   1e684:	3f73913f 	svccc	0x0073913f
   1e688:	3f7381c7 	svccc	0x007381c7
   1e68c:	3f73723f 	svccc	0x0073723f
   1e690:	3f7362a6 	svccc	0x007362a6
   1e694:	3f73530d 	svccc	0x0073530d
   1e698:	3f734363 	svccc	0x00734363
   1e69c:	3f7333b9 	svccc	0x007333b9
   1e6a0:	3f7323ff 	svccc	0x007323ff
   1e6a4:	3f731444 	svccc	0x00731444
   1e6a8:	3f730479 	svccc	0x00730479
   1e6ac:	3f72f4ae 	svccc	0x0072f4ae
   1e6b0:	3f72e4d2 	svccc	0x0072e4d2
   1e6b4:	3f72d4e5 	svccc	0x0072d4e5
   1e6b8:	3f72c4f8 	svccc	0x0072c4f8
   1e6bc:	3f72b50b 	svccc	0x0072b50b
   1e6c0:	3f72a4fd 	svccc	0x0072a4fd
   1e6c4:	3f7294ff 	svccc	0x007294ff
   1e6c8:	3f7284e0 	svccc	0x007284e0
   1e6cc:	3f7274c1 	svccc	0x007274c1
   1e6d0:	3f7264a1 	svccc	0x007264a1
   1e6d4:	3f725471 	svccc	0x00725471
   1e6d8:	3f724431 	svccc	0x00724431
   1e6dc:	3f7233f0 	svccc	0x007233f0
   1e6e0:	3f7223af 	svccc	0x007223af
   1e6e4:	3f72134d 	svccc	0x0072134d
   1e6e8:	3f7202fb 	svccc	0x007202fb
   1e6ec:	3f71f288 	svccc	0x0071f288
   1e6f0:	3f71e215 	svccc	0x0071e215
   1e6f4:	3f71d1a2 	svccc	0x0071d1a2
   1e6f8:	3f71c11e 	svccc	0x0071c11e
   1e6fc:	3f71b08a 	svccc	0x0071b08a
   1e700:	3f719ff5 	svccc	0x00719ff5
   1e704:	3f718f50 	svccc	0x00718f50
   1e708:	3f717eaa 	svccc	0x00717eaa
   1e70c:	3f716df4 	svccc	0x00716df4
   1e710:	3f715d3e 	svccc	0x00715d3e
   1e714:	3f714c77 	svccc	0x00714c77
   1e718:	3f713bb0 	svccc	0x00713bb0
   1e71c:	3f712ad8 	svccc	0x00712ad8
   1e720:	3f7119f0 	svccc	0x007119f0
   1e724:	3f710907 	svccc	0x00710907
   1e728:	3f70f80e 	svccc	0x0070f80e
   1e72c:	3f70e714 	svccc	0x0070e714
   1e730:	3f70d60a 	svccc	0x0070d60a
   1e734:	3f70c500 	svccc	0x0070c500
   1e738:	3f70b3e5 	svccc	0x0070b3e5
   1e73c:	3f70a2cb 	svccc	0x0070a2cb
   1e740:	3f70919f 	svccc	0x0070919f
   1e744:	3f708063 	svccc	0x00708063
   1e748:	3f706f26 	svccc	0x00706f26
   1e74c:	3f705dd9 	svccc	0x00705dd9
   1e750:	3f704c8c 	svccc	0x00704c8c
   1e754:	3f703b3f 	svccc	0x00703b3f
   1e758:	3f7029d0 	svccc	0x007029d0
   1e75c:	3f701861 	svccc	0x00701861
   1e760:	3f7006f2 	svccc	0x007006f2
   1e764:	3f6ff573 	svccc	0x006ff573
   1e768:	3f6fe3f3 	svccc	0x006fe3f3
   1e76c:	3f6fd252 	svccc	0x006fd252
   1e770:	3f6fc0c2 	svccc	0x006fc0c2
   1e774:	3f6faf21 	svccc	0x006faf21
   1e778:	3f6f9d6f 	svccc	0x006f9d6f
   1e77c:	3f6f8bbd 	svccc	0x006f8bbd
   1e780:	3f6f79fb 	svccc	0x006f79fb
   1e784:	3f6f6838 	svccc	0x006f6838
   1e788:	3f6f5665 	svccc	0x006f5665
   1e78c:	3f6f4480 	svccc	0x006f4480
   1e790:	3f6f329c 	svccc	0x006f329c
   1e794:	3f6f20b8 	svccc	0x006f20b8
   1e798:	3f6f0eb2 	svccc	0x006f0eb2
   1e79c:	3f6efcbd 	svccc	0x006efcbd
   1e7a0:	3f6eeab8 	svccc	0x006eeab8
   1e7a4:	3f6ed8a1 	svccc	0x006ed8a1
   1e7a8:	3f6ec67a 	svccc	0x006ec67a
   1e7ac:	3f6eb463 	svccc	0x006eb463
   1e7b0:	3f6ea22b 	svccc	0x006ea22b
   1e7b4:	3f6e8ff3 	svccc	0x006e8ff3
   1e7b8:	3f6e7dbb 	svccc	0x006e7dbb
   1e7bc:	3f6e6b72 	svccc	0x006e6b72
   1e7c0:	3f6e5919 	svccc	0x006e5919
   1e7c4:	3f6e46bf 	svccc	0x006e46bf
   1e7c8:	3f6e3455 	svccc	0x006e3455
   1e7cc:	3f6e21ea 	svccc	0x006e21ea
   1e7d0:	3f6e0f6f 	svccc	0x006e0f6f
   1e7d4:	3f6dfcf4 	svccc	0x006dfcf4
   1e7d8:	3f6dea68 	svccc	0x006dea68
   1e7dc:	3f6dd7dc 	svccc	0x006dd7dc
   1e7e0:	3f6dc53f 	svccc	0x006dc53f
   1e7e4:	3f6db292 	svccc	0x006db292
   1e7e8:	3f6d9fe4 	svccc	0x006d9fe4
   1e7ec:	3f6d8d26 	svccc	0x006d8d26
   1e7f0:	3f6d7a68 	svccc	0x006d7a68
   1e7f4:	3f6d67a9 	svccc	0x006d67a9
   1e7f8:	3f6d54ca 	svccc	0x006d54ca
   1e7fc:	3f6d41ea 	svccc	0x006d41ea
   1e800:	3f6d2f0a 	svccc	0x006d2f0a
   1e804:	3f6d1c19 	svccc	0x006d1c19
   1e808:	3f6d0929 	svccc	0x006d0929
   1e80c:	3f6cf627 	svccc	0x006cf627
   1e810:	3f6ce315 	svccc	0x006ce315
   1e814:	3f6cd003 	svccc	0x006cd003
   1e818:	3f6cbcf1 	svccc	0x006cbcf1
   1e81c:	3f6ca9bd 	svccc	0x006ca9bd
   1e820:	3f6c969a 	svccc	0x006c969a
   1e824:	3f6c8366 	svccc	0x006c8366
   1e828:	3f6c7022 	svccc	0x006c7022
   1e82c:	3f6c5ccd 	svccc	0x006c5ccd
   1e830:	3f6c4988 	svccc	0x006c4988
   1e834:	3f6c3622 	svccc	0x006c3622
   1e838:	3f6c22bc 	svccc	0x006c22bc
   1e83c:	3f6c0f56 	svccc	0x006c0f56
   1e840:	3f6bfbdf 	svccc	0x006bfbdf
   1e844:	3f6be857 	svccc	0x006be857
   1e848:	3f6bd4d0 	svccc	0x006bd4d0
   1e84c:	3f6bc137 	svccc	0x006bc137
   1e850:	3f6bad9f 	svccc	0x006bad9f
   1e854:	3f6b99f6 	svccc	0x006b99f6
   1e858:	3f6b864d 	svccc	0x006b864d
   1e85c:	3f6b7293 	svccc	0x006b7293
   1e860:	3f6b5ed9 	svccc	0x006b5ed9
   1e864:	3f6b4b0e 	svccc	0x006b4b0e
   1e868:	3f6b3733 	svccc	0x006b3733
   1e86c:	3f6b2357 	svccc	0x006b2357
   1e870:	3f6b0f7c 	svccc	0x006b0f7c
   1e874:	3f6afb8f 	svccc	0x006afb8f
   1e878:	3f6ae792 	svccc	0x006ae792
   1e87c:	3f6ad395 	svccc	0x006ad395
   1e880:	3f6abf87 	svccc	0x006abf87
   1e884:	3f6aab7a 	svccc	0x006aab7a
   1e888:	3f6a975b 	svccc	0x006a975b
   1e88c:	3f6a833c 	svccc	0x006a833c
   1e890:	3f6a6f0d 	svccc	0x006a6f0d
   1e894:	3f6a5ade 	svccc	0x006a5ade
   1e898:	3f6a469d 	svccc	0x006a469d
   1e89c:	3f6a324d 	svccc	0x006a324d
   1e8a0:	3f6a1dfc 	svccc	0x006a1dfc
   1e8a4:	3f6a09ab 	svccc	0x006a09ab
   1e8a8:	3f69f549 	svccc	0x0069f549
   1e8ac:	3f69e0d6 	svccc	0x0069e0d6
   1e8b0:	3f69cc64 	svccc	0x0069cc64
   1e8b4:	3f69b7e1 	svccc	0x0069b7e1
   1e8b8:	3f69a35d 	svccc	0x0069a35d
   1e8bc:	3f698ec9 	svccc	0x00698ec9
   1e8c0:	3f697a35 	svccc	0x00697a35
   1e8c4:	3f696590 	svccc	0x00696590
   1e8c8:	3f6950ec 	svccc	0x006950ec
   1e8cc:	3f693c36 	svccc	0x00693c36
   1e8d0:	3f692770 	svccc	0x00692770
   1e8d4:	3f6912a9 	svccc	0x006912a9
   1e8d8:	3f68fde3 	svccc	0x0068fde3
   1e8dc:	3f68e90c 	svccc	0x0068e90c
   1e8e0:	3f68d424 	svccc	0x0068d424
   1e8e4:	3f68bf3c 	svccc	0x0068bf3c
   1e8e8:	3f68aa43 	svccc	0x0068aa43
   1e8ec:	3f68954a 	svccc	0x0068954a
   1e8f0:	3f688041 	svccc	0x00688041
   1e8f4:	3f686b38 	svccc	0x00686b38
   1e8f8:	3f68561d 	svccc	0x0068561d
   1e8fc:	3f684103 	svccc	0x00684103
   1e900:	3f682bd8 	svccc	0x00682bd8
   1e904:	3f6816ad 	svccc	0x006816ad
   1e908:	3f680171 	svccc	0x00680171
   1e90c:	3f67ec25 	svccc	0x0067ec25
   1e910:	3f67d6d8 	svccc	0x0067d6d8
   1e914:	3f67c18b 	svccc	0x0067c18b
   1e918:	3f67ac2e 	svccc	0x0067ac2e
   1e91c:	3f6796c0 	svccc	0x006796c0
   1e920:	3f678152 	svccc	0x00678152
   1e924:	3f676bd3 	svccc	0x00676bd3
   1e928:	3f675654 	svccc	0x00675654
   1e92c:	3f6740c4 	svccc	0x006740c4
   1e930:	3f672b34 	svccc	0x00672b34
   1e934:	3f671594 	svccc	0x00671594
   1e938:	3f66fff3 	svccc	0x0066fff3
   1e93c:	3f66ea42 	svccc	0x0066ea42
   1e940:	3f66d491 	svccc	0x0066d491
   1e944:	3f66becf 	svccc	0x0066becf
   1e948:	3f66a8fc 	svccc	0x0066a8fc
   1e94c:	3f669329 	svccc	0x00669329
   1e950:	3f667d56 	svccc	0x00667d56
   1e954:	3f666773 	svccc	0x00666773
   1e958:	3f66517e 	svccc	0x0066517e
   1e95c:	3f663b8a 	svccc	0x00663b8a
   1e960:	3f662596 	svccc	0x00662596
   1e964:	3f660f80 	svccc	0x00660f80
   1e968:	3f65f97b 	svccc	0x0065f97b
   1e96c:	3f65e365 	svccc	0x0065e365
   1e970:	3f65cd3e 	svccc	0x0065cd3e
   1e974:	3f65b717 	svccc	0x0065b717
   1e978:	3f65a0e0 	svccc	0x0065a0e0
   1e97c:	3f658a98 	svccc	0x00658a98
   1e980:	3f657460 	svccc	0x00657460
   1e984:	3f655e07 	svccc	0x00655e07
   1e988:	3f6547ae 	svccc	0x006547ae
   1e98c:	3f653155 	svccc	0x00653155
   1e990:	3f651aeb 	svccc	0x00651aeb
   1e994:	3f650471 	svccc	0x00650471
   1e998:	3f64edf6 	svccc	0x0064edf6
   1e99c:	3f64d77b 	svccc	0x0064d77b
   1e9a0:	3f64c0f0 	svccc	0x0064c0f0
   1e9a4:	3f64aa54 	svccc	0x0064aa54
   1e9a8:	3f6493b8 	svccc	0x006493b8
   1e9ac:	3f647d1c 	svccc	0x00647d1c
   1e9b0:	3f64665e 	svccc	0x0064665e
   1e9b4:	3f644fb1 	svccc	0x00644fb1
   1e9b8:	3f6438e3 	svccc	0x006438e3
   1e9bc:	3f642225 	svccc	0x00642225
   1e9c0:	3f640b56 	svccc	0x00640b56
   1e9c4:	3f63f477 	svccc	0x0063f477
   1e9c8:	3f63dd87 	svccc	0x0063dd87
   1e9cc:	3f63c6a8 	svccc	0x0063c6a8
   1e9d0:	3f63afa7 	svccc	0x0063afa7
   1e9d4:	3f6398a6 	svccc	0x006398a6
   1e9d8:	3f6381a6 	svccc	0x006381a6
   1e9dc:	3f636a94 	svccc	0x00636a94
   1e9e0:	3f635382 	svccc	0x00635382
   1e9e4:	3f633c60 	svccc	0x00633c60
   1e9e8:	3f63252d 	svccc	0x0063252d
   1e9ec:	3f630dfa 	svccc	0x00630dfa
   1e9f0:	3f62f6c7 	svccc	0x0062f6c7
   1e9f4:	3f62df83 	svccc	0x0062df83
   1e9f8:	3f62c82e 	svccc	0x0062c82e
   1e9fc:	3f62b0d9 	svccc	0x0062b0d9
   1ea00:	3f629974 	svccc	0x00629974
   1ea04:	3f62820e 	svccc	0x0062820e
   1ea08:	3f626a98 	svccc	0x00626a98
   1ea0c:	3f625322 	svccc	0x00625322
   1ea10:	3f623bac 	svccc	0x00623bac
   1ea14:	3f622414 	svccc	0x00622414
   1ea18:	3f620c8d 	svccc	0x00620c8d
   1ea1c:	3f61f4e4 	svccc	0x0061f4e4
   1ea20:	3f61dd4c 	svccc	0x0061dd4c
   1ea24:	3f61c593 	svccc	0x0061c593
   1ea28:	3f61adda 	svccc	0x0061adda
   1ea2c:	3f619620 	svccc	0x00619620
   1ea30:	3f617e56 	svccc	0x00617e56
   1ea34:	3f61668c 	svccc	0x0061668c
   1ea38:	3f614eb1 	svccc	0x00614eb1
   1ea3c:	3f6136d6 	svccc	0x006136d6
   1ea40:	3f611eeb 	svccc	0x00611eeb
   1ea44:	3f6106ee 	svccc	0x006106ee
   1ea48:	3f60eef2 	svccc	0x0060eef2
   1ea4c:	3f60d6f5 	svccc	0x0060d6f5
   1ea50:	3f60bee8 	svccc	0x0060bee8
   1ea54:	3f60a6ca 	svccc	0x0060a6ca
   1ea58:	3f608eac 	svccc	0x00608eac
   1ea5c:	3f60768e 	svccc	0x0060768e
   1ea60:	3f605e5f 	svccc	0x00605e5f
   1ea64:	3f604620 	svccc	0x00604620
   1ea68:	3f602de0 	svccc	0x00602de0
   1ea6c:	3f601590 	svccc	0x00601590
   1ea70:	3f5ffd3f 	svccc	0x005ffd3f
   1ea74:	3f5fe4ef 	svccc	0x005fe4ef
   1ea78:	3f5fcc8e 	svccc	0x005fcc8e
   1ea7c:	3f5fb41c 	svccc	0x005fb41c
   1ea80:	3f5f9baa 	svccc	0x005f9baa
   1ea84:	3f5f8327 	svccc	0x005f8327
   1ea88:	3f5f6aa5 	svccc	0x005f6aa5
   1ea8c:	3f5f5211 	svccc	0x005f5211
   1ea90:	3f5f397e 	svccc	0x005f397e
   1ea94:	3f5f20da 	svccc	0x005f20da
   1ea98:	3f5f0835 	svccc	0x005f0835
   1ea9c:	3f5eef80 	svccc	0x005eef80
   1eaa0:	3f5ed6cb 	svccc	0x005ed6cb
   1eaa4:	3f5ebe06 	svccc	0x005ebe06
   1eaa8:	3f5ea540 	svccc	0x005ea540
   1eaac:	3f5e8c69 	svccc	0x005e8c69
   1eab0:	3f5e7393 	svccc	0x005e7393
   1eab4:	3f5e5aab 	svccc	0x005e5aab
   1eab8:	3f5e41b3 	svccc	0x005e41b3
   1eabc:	3f5e28bb 	svccc	0x005e28bb
   1eac0:	3f5e0fc3 	svccc	0x005e0fc3
   1eac4:	3f5df6ba 	svccc	0x005df6ba
   1eac8:	3f5dddb1 	svccc	0x005dddb1
   1eacc:	3f5dc497 	svccc	0x005dc497
   1ead0:	3f5dab7e 	svccc	0x005dab7e
   1ead4:	3f5d9253 	svccc	0x005d9253
   1ead8:	3f5d7918 	svccc	0x005d7918
   1eadc:	3f5d5fdd 	svccc	0x005d5fdd
   1eae0:	3f5d46a2 	svccc	0x005d46a2
   1eae4:	3f5d2d56 	svccc	0x005d2d56
   1eae8:	3f5d13f9 	svccc	0x005d13f9
   1eaec:	3f5cfa9c 	svccc	0x005cfa9c
   1eaf0:	3f5ce13f 	svccc	0x005ce13f
   1eaf4:	3f5cc7d2 	svccc	0x005cc7d2
   1eaf8:	3f5cae53 	svccc	0x005cae53
   1eafc:	3f5c94d5 	svccc	0x005c94d5
   1eb00:	3f5c7b57 	svccc	0x005c7b57
   1eb04:	3f5c61c8 	svccc	0x005c61c8
   1eb08:	3f5c4828 	svccc	0x005c4828
   1eb0c:	3f5c2e88 	svccc	0x005c2e88
   1eb10:	3f5c14e8 	svccc	0x005c14e8
   1eb14:	3f5bfb37 	svccc	0x005bfb37
   1eb18:	3f5be176 	svccc	0x005be176
   1eb1c:	3f5bc7b4 	svccc	0x005bc7b4
   1eb20:	3f5badf3 	svccc	0x005badf3
   1eb24:	3f5b9421 	svccc	0x005b9421
   1eb28:	3f5b7a3e 	svccc	0x005b7a3e
   1eb2c:	3f5b605b 	svccc	0x005b605b
   1eb30:	3f5b4667 	svccc	0x005b4667
   1eb34:	3f5b2c73 	svccc	0x005b2c73
   1eb38:	3f5b127f 	svccc	0x005b127f
   1eb3c:	3f5af87b 	svccc	0x005af87b
   1eb40:	3f5ade65 	svccc	0x005ade65
   1eb44:	3f5ac450 	svccc	0x005ac450
   1eb48:	3f5aaa2a 	svccc	0x005aaa2a
   1eb4c:	3f5a9004 	svccc	0x005a9004
   1eb50:	3f5a75de 	svccc	0x005a75de
   1eb54:	3f5a5ba7 	svccc	0x005a5ba7
   1eb58:	3f5a415f 	svccc	0x005a415f
   1eb5c:	3f5a2718 	svccc	0x005a2718
   1eb60:	3f5a0cbf 	svccc	0x005a0cbf
   1eb64:	3f59f267 	svccc	0x0059f267
   1eb68:	3f59d80e 	svccc	0x0059d80e
   1eb6c:	3f59bd94 	svccc	0x0059bd94
   1eb70:	3f59a32b 	svccc	0x0059a32b
   1eb74:	3f5988b1 	svccc	0x005988b1
   1eb78:	3f596e26 	svccc	0x00596e26
   1eb7c:	3f59539c 	svccc	0x0059539c
   1eb80:	3f593900 	svccc	0x00593900
   1eb84:	3f591e64 	svccc	0x00591e64
   1eb88:	3f5903c9 	svccc	0x005903c9
   1eb8c:	3f58e91d 	svccc	0x0058e91d
   1eb90:	3f58ce5f 	svccc	0x0058ce5f
   1eb94:	3f58b3a2 	svccc	0x0058b3a2
   1eb98:	3f5898d4 	svccc	0x005898d4
   1eb9c:	3f587e07 	svccc	0x00587e07
   1eba0:	3f586339 	svccc	0x00586339
   1eba4:	3f58485a 	svccc	0x0058485a
   1eba8:	3f582d6b 	svccc	0x00582d6b
   1ebac:	3f58127b 	svccc	0x0058127b
   1ebb0:	3f57f77b 	svccc	0x0057f77b
   1ebb4:	3f57dc7b 	svccc	0x0057dc7b
   1ebb8:	3f57c17b 	svccc	0x0057c17b
   1ebbc:	3f57a66a 	svccc	0x0057a66a
   1ebc0:	3f578b48 	svccc	0x00578b48
   1ebc4:	3f577026 	svccc	0x00577026
   1ebc8:	3f5754f3 	svccc	0x005754f3
   1ebcc:	3f5739c1 	svccc	0x005739c1
   1ebd0:	3f571e8e 	svccc	0x00571e8e
   1ebd4:	3f57034b 	svccc	0x0057034b
   1ebd8:	3f56e7f7 	svccc	0x0056e7f7
   1ebdc:	3f56cca3 	svccc	0x0056cca3
   1ebe0:	3f56b14f 	svccc	0x0056b14f
   1ebe4:	3f5695ea 	svccc	0x005695ea
   1ebe8:	3f567a74 	svccc	0x00567a74
   1ebec:	3f565eff 	svccc	0x00565eff
   1ebf0:	3f564389 	svccc	0x00564389
   1ebf4:	3f562802 	svccc	0x00562802
   1ebf8:	3f560c6b 	svccc	0x00560c6b
   1ebfc:	3f55f0d4 	svccc	0x0055f0d4
   1ec00:	3f55d53d 	svccc	0x0055d53d
   1ec04:	3f55b995 	svccc	0x0055b995
   1ec08:	3f559ddc 	svccc	0x00559ddc
   1ec0c:	3f558234 	svccc	0x00558234
   1ec10:	3f55666b 	svccc	0x0055666b
   1ec14:	3f554aa1 	svccc	0x00554aa1
   1ec18:	3f552ed8 	svccc	0x00552ed8
   1ec1c:	3f5512fd 	svccc	0x005512fd
   1ec20:	3f54f712 	svccc	0x0054f712
   1ec24:	3f54db38 	svccc	0x0054db38
   1ec28:	3f54bf3c 	svccc	0x0054bf3c
   1ec2c:	3f54a340 	svccc	0x0054a340
   1ec30:	3f548744 	svccc	0x00548744
   1ec34:	3f546b38 	svccc	0x00546b38
   1ec38:	3f544f2b 	svccc	0x00544f2b
   1ec3c:	3f54330d 	svccc	0x0054330d
   1ec40:	3f5416f0 	svccc	0x005416f0
   1ec44:	3f53fac2 	svccc	0x0053fac2
   1ec48:	3f53de94 	svccc	0x0053de94
   1ec4c:	3f53c255 	svccc	0x0053c255
   1ec50:	3f53a616 	svccc	0x0053a616
   1ec54:	3f5389c6 	svccc	0x005389c6
   1ec58:	3f536d76 	svccc	0x00536d76
   1ec5c:	3f535116 	svccc	0x00535116
   1ec60:	3f5334b5 	svccc	0x005334b5
   1ec64:	3f531844 	svccc	0x00531844
   1ec68:	3f52fbd2 	svccc	0x0052fbd2
   1ec6c:	3f52df61 	svccc	0x0052df61
   1ec70:	3f52c2ce 	svccc	0x0052c2ce
   1ec74:	3f52a64c 	svccc	0x0052a64c
   1ec78:	3f5289b9 	svccc	0x005289b9
   1ec7c:	3f526d16 	svccc	0x00526d16
   1ec80:	3f525072 	svccc	0x00525072
   1ec84:	3f5233ce 	svccc	0x005233ce
   1ec88:	3f521709 	svccc	0x00521709
   1ec8c:	3f51fa55 	svccc	0x0051fa55
   1ec90:	3f51dd90 	svccc	0x0051dd90
   1ec94:	3f51c0ca 	svccc	0x0051c0ca
   1ec98:	3f51a3f4 	svccc	0x0051a3f4
   1ec9c:	3f51870e 	svccc	0x0051870e
   1eca0:	3f516a27 	svccc	0x00516a27
   1eca4:	3f514d40 	svccc	0x00514d40
   1eca8:	3f513049 	svccc	0x00513049
   1ecac:	3f511351 	svccc	0x00511351
   1ecb0:	3f50f649 	svccc	0x0050f649
   1ecb4:	3f50d930 	svccc	0x0050d930
   1ecb8:	3f50bc27 	svccc	0x0050bc27
   1ecbc:	3f509efe 	svccc	0x00509efe
   1ecc0:	3f5081e4 	svccc	0x005081e4
   1ecc4:	3f5064aa 	svccc	0x005064aa
   1ecc8:	3f504780 	svccc	0x00504780
   1eccc:	3f502a35 	svccc	0x00502a35
   1ecd0:	3f500cfa 	svccc	0x00500cfa
   1ecd4:	3f4fefae 	svccc	0x004fefae
   1ecd8:	3f4fd252 	svccc	0x004fd252
   1ecdc:	3f4fb4f6 	svccc	0x004fb4f6
   1ece0:	3f4f9789 	svccc	0x004f9789
   1ece4:	3f4f7a1c 	svccc	0x004f7a1c
   1ece8:	3f4f5caf 	svccc	0x004f5caf
   1ecec:	3f4f3f31 	svccc	0x004f3f31
   1ecf0:	3f4f21a3 	svccc	0x004f21a3
   1ecf4:	3f4f0414 	svccc	0x004f0414
   1ecf8:	3f4ee686 	svccc	0x004ee686
   1ecfc:	3f4ec8e7 	svccc	0x004ec8e7
   1ed00:	3f4eab36 	svccc	0x004eab36
   1ed04:	3f4e8d97 	svccc	0x004e8d97
   1ed08:	3f4e6fd6 	svccc	0x004e6fd6
   1ed0c:	3f4e5215 	svccc	0x004e5215
   1ed10:	3f4e3455 	svccc	0x004e3455
   1ed14:	3f4e1683 	svccc	0x004e1683
   1ed18:	3f4df8b1 	svccc	0x004df8b1
   1ed1c:	3f4ddacf 	svccc	0x004ddacf
   1ed20:	3f4dbced 	svccc	0x004dbced
   1ed24:	3f4d9f0a 	svccc	0x004d9f0a
   1ed28:	3f4d8106 	svccc	0x004d8106
   1ed2c:	3f4d6313 	svccc	0x004d6313
   1ed30:	3f4d450f 	svccc	0x004d450f
   1ed34:	3f4d26fa 	svccc	0x004d26fa
   1ed38:	3f4d08e6 	svccc	0x004d08e6
   1ed3c:	3f4cead1 	svccc	0x004cead1
   1ed40:	3f4cccab 	svccc	0x004cccab
   1ed44:	3f4cae75 	svccc	0x004cae75
   1ed48:	3f4c903f 	svccc	0x004c903f
   1ed4c:	3f4c7208 	svccc	0x004c7208
   1ed50:	3f4c53c1 	svccc	0x004c53c1
   1ed54:	3f4c357a 	svccc	0x004c357a
   1ed58:	3f4c1722 	svccc	0x004c1722
   1ed5c:	3f4bf8cb 	svccc	0x004bf8cb
   1ed60:	3f4bda62 	svccc	0x004bda62
   1ed64:	3f4bbbf9 	svccc	0x004bbbf9
   1ed68:	3f4b9d80 	svccc	0x004b9d80
   1ed6c:	3f4b7f06 	svccc	0x004b7f06
   1ed70:	3f4b608d 	svccc	0x004b608d
   1ed74:	3f4b41f2 	svccc	0x004b41f2
   1ed78:	3f4b2368 	svccc	0x004b2368
   1ed7c:	3f4b04cd 	svccc	0x004b04cd
   1ed80:	3f4ae632 	svccc	0x004ae632
   1ed84:	3f4ac786 	svccc	0x004ac786
   1ed88:	3f4aa8ca 	svccc	0x004aa8ca
   1ed8c:	3f4a8a0d 	svccc	0x004a8a0d
   1ed90:	3f4a6b51 	svccc	0x004a6b51
   1ed94:	3f4a4c83 	svccc	0x004a4c83
   1ed98:	3f4a2db6 	svccc	0x004a2db6
   1ed9c:	3f4a0ed8 	svccc	0x004a0ed8
   1eda0:	3f49effa 	svccc	0x0049effa
   1eda4:	3f49d10b 	svccc	0x0049d10b
   1eda8:	3f49b21c 	svccc	0x0049b21c
   1edac:	3f49932d 	svccc	0x0049932d
   1edb0:	3f49742e 	svccc	0x0049742e
   1edb4:	3f49551d 	svccc	0x0049551d
   1edb8:	3f49360d 	svccc	0x0049360d
   1edbc:	3f4916fd 	svccc	0x004916fd
   1edc0:	3f48f7db 	svccc	0x0048f7db
   1edc4:	3f48d8ba 	svccc	0x0048d8ba
   1edc8:	3f48b988 	svccc	0x0048b988
   1edcc:	3f489a56 	svccc	0x00489a56
   1edd0:	3f487b14 	svccc	0x00487b14
   1edd4:	3f485bd1 	svccc	0x00485bd1
   1edd8:	3f483c7d 	svccc	0x00483c7d
   1eddc:	3f481d2a 	svccc	0x00481d2a
   1ede0:	3f47fdc6 	svccc	0x0047fdc6
   1ede4:	3f47de61 	svccc	0x0047de61
   1ede8:	3f47befd 	svccc	0x0047befd
   1edec:	3f479f88 	svccc	0x00479f88
   1edf0:	3f478002 	svccc	0x00478002
   1edf4:	3f47608d 	svccc	0x0047608d
   1edf8:	3f4740f6 	svccc	0x004740f6
   1edfc:	3f472160 	svccc	0x00472160
   1ee00:	3f4701c9 	svccc	0x004701c9
   1ee04:	3f46e222 	svccc	0x0046e222
   1ee08:	3f46c27a 	svccc	0x0046c27a
   1ee0c:	3f46a2d3 	svccc	0x0046a2d3
   1ee10:	3f46831b 	svccc	0x0046831b
   1ee14:	3f466352 	svccc	0x00466352
   1ee18:	3f464389 	svccc	0x00464389
   1ee1c:	3f4623c0 	svccc	0x004623c0
   1ee20:	3f4603e6 	svccc	0x004603e6
   1ee24:	3f45e3fc 	svccc	0x0045e3fc
   1ee28:	3f45c422 	svccc	0x0045c422
   1ee2c:	3f45a427 	svccc	0x0045a427
   1ee30:	3f45843c 	svccc	0x0045843c
   1ee34:	3f456441 	svccc	0x00456441
   1ee38:	3f454435 	svccc	0x00454435
   1ee3c:	3f452429 	svccc	0x00452429
   1ee40:	3f45040c 	svccc	0x0045040c
   1ee44:	3f44e3ef 	svccc	0x0044e3ef
   1ee48:	3f44c3d2 	svccc	0x0044c3d2
   1ee4c:	3f44a3a5 	svccc	0x0044a3a5
   1ee50:	3f448377 	svccc	0x00448377
   1ee54:	3f446339 	svccc	0x00446339
   1ee58:	3f4442fa 	svccc	0x004442fa
   1ee5c:	3f4422ab 	svccc	0x004422ab
   1ee60:	3f44025c 	svccc	0x0044025c
   1ee64:	3f43e1fc 	svccc	0x0043e1fc
   1ee68:	3f43c19c 	svccc	0x0043c19c
   1ee6c:	3f43a13c 	svccc	0x0043a13c
   1ee70:	3f4380cb 	svccc	0x004380cb
   1ee74:	3f43604a 	svccc	0x0043604a
   1ee78:	3f433fd9 	svccc	0x00433fd9
   1ee7c:	3f431f47 	svccc	0x00431f47
   1ee80:	3f42fec5 	svccc	0x0042fec5
   1ee84:	3f42de22 	svccc	0x0042de22
   1ee88:	3f42bd90 	svccc	0x0042bd90
   1ee8c:	3f429ced 	svccc	0x00429ced
   1ee90:	3f427c39 	svccc	0x00427c39
   1ee94:	3f425b85 	svccc	0x00425b85
   1ee98:	3f423ad2 	svccc	0x00423ad2
   1ee9c:	3f421a0d 	svccc	0x00421a0d
   1eea0:	3f41f948 	svccc	0x0041f948
   1eea4:	3f41d873 	svccc	0x0041d873
   1eea8:	3f41b79e 	svccc	0x0041b79e
   1eeac:	3f4196b7 	svccc	0x004196b7
   1eeb0:	3f4175d1 	svccc	0x004175d1
   1eeb4:	3f4154da 	svccc	0x004154da
   1eeb8:	3f4133e3 	svccc	0x004133e3
   1eebc:	3f4112ec 	svccc	0x004112ec
   1eec0:	3f40f1e5 	svccc	0x0040f1e5
   1eec4:	3f40d0dd 	svccc	0x0040d0dd
   1eec8:	3f40afc4 	svccc	0x0040afc4
   1eecc:	3f408eac 	svccc	0x00408eac
   1eed0:	3f406d83 	svccc	0x00406d83
   1eed4:	3f404c59 	svccc	0x00404c59
   1eed8:	3f402b30 	svccc	0x00402b30
   1eedc:	3f4009f6 	svccc	0x004009f6
   1eee0:	3f3fe8ab 	svccc	0x003fe8ab
   1eee4:	3f3fc760 	svccc	0x003fc760
   1eee8:	3f3fa616 	svccc	0x003fa616
   1eeec:	3f3f84ba 	svccc	0x003f84ba
   1eef0:	3f3f635e 	svccc	0x003f635e
   1eef4:	3f3f4203 	svccc	0x003f4203
   1eef8:	3f3f2096 	svccc	0x003f2096
   1eefc:	3f3eff19 	svccc	0x003eff19
   1ef00:	3f3edd9c 	svccc	0x003edd9c
   1ef04:	3f3ebc1f 	svccc	0x003ebc1f
   1ef08:	3f3e9a91 	svccc	0x003e9a91
   1ef0c:	3f3e7903 	svccc	0x003e7903
   1ef10:	3f3e5764 	svccc	0x003e5764
   1ef14:	3f3e35c6 	svccc	0x003e35c6
   1ef18:	3f3e1416 	svccc	0x003e1416
   1ef1c:	3f3df267 	svccc	0x003df267
   1ef20:	3f3dd0b7 	svccc	0x003dd0b7
   1ef24:	3f3daef7 	svccc	0x003daef7
   1ef28:	3f3d8d37 	svccc	0x003d8d37
   1ef2c:	3f3d6b66 	svccc	0x003d6b66
   1ef30:	3f3d4995 	svccc	0x003d4995
   1ef34:	3f3d27b3 	svccc	0x003d27b3
   1ef38:	3f3d05d1 	svccc	0x003d05d1
   1ef3c:	3f3ce3ef 	svccc	0x003ce3ef
   1ef40:	3f3cc1fd 	svccc	0x003cc1fd
   1ef44:	3f3ca00a 	svccc	0x003ca00a
   1ef48:	3f3c7e07 	svccc	0x003c7e07
   1ef4c:	3f3c5c03 	svccc	0x003c5c03
   1ef50:	3f3c39ef 	svccc	0x003c39ef
   1ef54:	3f3c17db 	svccc	0x003c17db
   1ef58:	3f3bf5b6 	svccc	0x003bf5b6
   1ef5c:	3f3bd391 	svccc	0x003bd391
   1ef60:	3f3bb16c 	svccc	0x003bb16c
   1ef64:	3f3b8f36 	svccc	0x003b8f36
   1ef68:	3f3b6d01 	svccc	0x003b6d01
   1ef6c:	3f3b4aba 	svccc	0x003b4aba
   1ef70:	3f3b2874 	svccc	0x003b2874
   1ef74:	3f3b062d 	svccc	0x003b062d
   1ef78:	3f3ae3d6 	svccc	0x003ae3d6
   1ef7c:	3f3ac16e 	svccc	0x003ac16e
   1ef80:	3f3a9f17 	svccc	0x003a9f17
   1ef84:	3f3a7c9e 	svccc	0x003a7c9e
   1ef88:	3f3a5a36 	svccc	0x003a5a36
   1ef8c:	3f3a37bd 	svccc	0x003a37bd
   1ef90:	3f3a1533 	svccc	0x003a1533
   1ef94:	3f39f2aa 	svccc	0x0039f2aa
   1ef98:	3f39d020 	svccc	0x0039d020
   1ef9c:	3f39ad86 	svccc	0x0039ad86
   1efa0:	3f398aec 	svccc	0x00398aec
   1efa4:	3f396840 	svccc	0x00396840
   1efa8:	3f394595 	svccc	0x00394595
   1efac:	3f3922d9 	svccc	0x003922d9
   1efb0:	3f39002e 	svccc	0x0039002e
   1efb4:	3f38dd61 	svccc	0x0038dd61
   1efb8:	3f38ba95 	svccc	0x0038ba95
   1efbc:	3f3897c8 	svccc	0x003897c8
   1efc0:	3f3874fb 	svccc	0x003874fb
   1efc4:	3f38521e 	svccc	0x0038521e
   1efc8:	3f382f30 	svccc	0x00382f30
   1efcc:	3f380c41 	svccc	0x00380c41
   1efd0:	3f37e953 	svccc	0x0037e953
   1efd4:	3f37c654 	svccc	0x0037c654
   1efd8:	3f37a355 	svccc	0x0037a355
   1efdc:	3f378045 	svccc	0x00378045
   1efe0:	3f375d35 	svccc	0x00375d35
   1efe4:	3f373a26 	svccc	0x00373a26
   1efe8:	3f371705 	svccc	0x00371705
   1efec:	3f36f3e4 	svccc	0x0036f3e4
   1eff0:	3f36d0b3 	svccc	0x0036d0b3
   1eff4:	3f36ad82 	svccc	0x0036ad82
   1eff8:	3f368a40 	svccc	0x00368a40
   1effc:	3f3666fd 	svccc	0x003666fd
   1f000:	3f3643bb 	svccc	0x003643bb
   1f004:	3f362068 	svccc	0x00362068
   1f008:	3f35fd15 	svccc	0x0035fd15
   1f00c:	3f35d9b2 	svccc	0x0035d9b2
   1f010:	3f35b64e 	svccc	0x0035b64e
   1f014:	3f3592ea 	svccc	0x003592ea
   1f018:	3f356f76 	svccc	0x00356f76
   1f01c:	3f354c01 	svccc	0x00354c01
   1f020:	3f35287c 	svccc	0x0035287c
   1f024:	3f3504f7 	svccc	0x003504f7
   1f028:	3f34e161 	svccc	0x0034e161
   1f02c:	3f34bdcb 	svccc	0x0034bdcb
   1f030:	3f349a35 	svccc	0x00349a35
   1f034:	3f34768e 	svccc	0x0034768e
   1f038:	3f3452e7 	svccc	0x003452e7
   1f03c:	3f342f30 	svccc	0x00342f30
   1f040:	3f340b78 	svccc	0x00340b78
   1f044:	3f33e7c0 	svccc	0x0033e7c0
   1f048:	3f33c3f8 	svccc	0x0033c3f8
   1f04c:	3f33a030 	svccc	0x0033a030
   1f050:	3f337c57 	svccc	0x00337c57
   1f054:	3f33587d 	svccc	0x0033587d
   1f058:	3f333494 	svccc	0x00333494
   1f05c:	3f3310aa 	svccc	0x003310aa
   1f060:	3f32ecc0 	svccc	0x0032ecc0
   1f064:	3f32c8c5 	svccc	0x0032c8c5
   1f068:	3f32a4ca 	svccc	0x0032a4ca
   1f06c:	3f3280d0 	svccc	0x003280d0
   1f070:	3f325cc4 	svccc	0x00325cc4
   1f074:	3f3238a8 	svccc	0x003238a8
   1f078:	3f32148c 	svccc	0x0032148c
   1f07c:	3f31f06f 	svccc	0x0031f06f
   1f080:	3f31cc42 	svccc	0x0031cc42
   1f084:	3f31a815 	svccc	0x0031a815
   1f088:	3f3183e8 	svccc	0x003183e8
   1f08c:	3f315fab 	svccc	0x00315fab
   1f090:	3f313b6d 	svccc	0x00313b6d
   1f094:	3f31171e 	svccc	0x0031171e
   1f098:	3f30f2d0 	svccc	0x0030f2d0
   1f09c:	3f30ce81 	svccc	0x0030ce81
   1f0a0:	3f30aa22 	svccc	0x0030aa22
   1f0a4:	3f3085c2 	svccc	0x003085c2
   1f0a8:	3f306152 	svccc	0x00306152
   1f0ac:	3f303ce2 	svccc	0x00303ce2
   1f0b0:	3f301861 	svccc	0x00301861
   1f0b4:	3f2ff3e0 	svccc	0x002ff3e0
   1f0b8:	3f2fcf5f 	svccc	0x002fcf5f
   1f0bc:	3f2faace 	svccc	0x002faace
   1f0c0:	3f2f863c 	svccc	0x002f863c
   1f0c4:	3f2f61aa 	svccc	0x002f61aa
   1f0c8:	3f2f3d08 	svccc	0x002f3d08
   1f0cc:	3f2f1855 	svccc	0x002f1855
   1f0d0:	3f2ef3b2 	svccc	0x002ef3b2
   1f0d4:	3f2eceff 	svccc	0x002eceff
   1f0d8:	3f2eaa3b 	svccc	0x002eaa3b
   1f0dc:	3f2e8577 	svccc	0x002e8577
   1f0e0:	3f2e60b3 	svccc	0x002e60b3
   1f0e4:	3f2e3bde 	svccc	0x002e3bde
   1f0e8:	3f2e1709 	svccc	0x002e1709
   1f0ec:	3f2df224 	svccc	0x002df224
   1f0f0:	3f2dcd3e 	svccc	0x002dcd3e
   1f0f4:	3f2da858 	svccc	0x002da858
   1f0f8:	3f2d8362 	svccc	0x002d8362
   1f0fc:	3f2d5e6c 	svccc	0x002d5e6c
   1f100:	3f2d3975 	svccc	0x002d3975
   1f104:	3f2d146e 	svccc	0x002d146e
   1f108:	3f2cef56 	svccc	0x002cef56
   1f10c:	3f2cca4f 	svccc	0x002cca4f
   1f110:	3f2ca537 	svccc	0x002ca537
   1f114:	3f2c800f 	svccc	0x002c800f
   1f118:	3f2c5ae6 	svccc	0x002c5ae6
   1f11c:	3f2c35bd 	svccc	0x002c35bd
   1f120:	3f2c1084 	svccc	0x002c1084
   1f124:	3f2beb4a 	svccc	0x002beb4a
   1f128:	3f2bc600 	svccc	0x002bc600
   1f12c:	3f2ba0c7 	svccc	0x002ba0c7
   1f130:	3f2b7b6c 	svccc	0x002b7b6c
   1f134:	3f2b5621 	svccc	0x002b5621
   1f138:	3f2b30c6 	svccc	0x002b30c6
   1f13c:	3f2b0b5b 	svccc	0x002b0b5b
   1f140:	3f2ae5ef 	svccc	0x002ae5ef
   1f144:	3f2ac083 	svccc	0x002ac083
   1f148:	3f2a9b07 	svccc	0x002a9b07
   1f14c:	3f2a758a 	svccc	0x002a758a
   1f150:	3f2a500d 	svccc	0x002a500d
   1f154:	3f2a2a80 	svccc	0x002a2a80
   1f158:	3f2a04f3 	svccc	0x002a04f3
   1f15c:	3f29df55 	svccc	0x0029df55
   1f160:	3f29b9b6 	svccc	0x0029b9b6
   1f164:	3f299418 	svccc	0x00299418
   1f168:	3f296e69 	svccc	0x00296e69
   1f16c:	3f2948bb 	svccc	0x002948bb
   1f170:	3f2922fb 	svccc	0x002922fb
   1f174:	3f28fd3b 	svccc	0x0028fd3b
   1f178:	3f28d77b 	svccc	0x0028d77b
   1f17c:	3f28b1ab 	svccc	0x0028b1ab
   1f180:	3f288bdb 	svccc	0x00288bdb
   1f184:	3f28660a 	svccc	0x0028660a
   1f188:	3f284029 	svccc	0x00284029
   1f18c:	3f281a48 	svccc	0x00281a48
   1f190:	3f27f456 	svccc	0x0027f456
   1f194:	3f27ce64 	svccc	0x0027ce64
   1f198:	3f27a861 	svccc	0x0027a861
   1f19c:	3f27826f 	svccc	0x0027826f
   1f1a0:	3f275c5b 	svccc	0x00275c5b
   1f1a4:	3f273659 	svccc	0x00273659
   1f1a8:	3f271045 	svccc	0x00271045
   1f1ac:	3f26ea31 	svccc	0x0026ea31
   1f1b0:	3f26c40d 	svccc	0x0026c40d
   1f1b4:	3f269de9 	svccc	0x00269de9
   1f1b8:	3f2677b4 	svccc	0x002677b4
   1f1bc:	3f26517e 	svccc	0x0026517e
   1f1c0:	3f262b49 	svccc	0x00262b49
   1f1c4:	3f260503 	svccc	0x00260503
   1f1c8:	3f25debe 	svccc	0x0025debe
   1f1cc:	3f25b878 	svccc	0x0025b878
   1f1d0:	3f259221 	svccc	0x00259221
   1f1d4:	3f256bca 	svccc	0x00256bca
   1f1d8:	3f254563 	svccc	0x00254563
   1f1dc:	3f251f0c 	svccc	0x00251f0c
   1f1e0:	3f24f894 	svccc	0x0024f894
   1f1e4:	3f24d22d 	svccc	0x0024d22d
   1f1e8:	3f24aba4 	svccc	0x0024aba4
   1f1ec:	3f24852b 	svccc	0x0024852b
   1f1f0:	3f245ea2 	svccc	0x00245ea2
   1f1f4:	3f243819 	svccc	0x00243819
   1f1f8:	3f241180 	svccc	0x00241180
   1f1fc:	3f23eae6 	svccc	0x0023eae6
   1f200:	3f23c44c 	svccc	0x0023c44c
   1f204:	3f239da1 	svccc	0x00239da1
   1f208:	3f2376f7 	svccc	0x002376f7
   1f20c:	3f23504c 	svccc	0x0023504c
   1f210:	3f232991 	svccc	0x00232991
   1f214:	3f2302d6 	svccc	0x002302d6
   1f218:	3f22dc0a 	svccc	0x0022dc0a
   1f21c:	3f22b53d 	svccc	0x0022b53d
   1f220:	3f228e71 	svccc	0x00228e71
   1f224:	3f226794 	svccc	0x00226794
   1f228:	3f2240b8 	svccc	0x002240b8
   1f22c:	3f2219db 	svccc	0x002219db
   1f230:	3f21f2ed 	svccc	0x0021f2ed
   1f234:	3f21cbff 	svccc	0x0021cbff
   1f238:	3f21a501 	svccc	0x0021a501
   1f23c:	3f217e02 	svccc	0x00217e02
   1f240:	3f215704 	svccc	0x00215704
   1f244:	3f212ff5 	svccc	0x00212ff5
   1f248:	3f2108e6 	svccc	0x002108e6
   1f24c:	3f20e1d6 	svccc	0x0020e1d6
   1f250:	3f20bab6 	svccc	0x0020bab6
   1f254:	3f209396 	svccc	0x00209396
   1f258:	3f206c66 	svccc	0x00206c66
   1f25c:	3f204535 	svccc	0x00204535
   1f260:	3f201e04 	svccc	0x00201e04
   1f264:	3f1ff6c2 	svccc	0x001ff6c2
   1f268:	3f1fcf81 	svccc	0x001fcf81
   1f26c:	3f1fa83f 	svccc	0x001fa83f
   1f270:	3f1f80ed 	svccc	0x001f80ed
   1f274:	3f1f599b 	svccc	0x001f599b
   1f278:	3f1f3248 	svccc	0x001f3248
   1f27c:	3f1f0ae5 	svccc	0x001f0ae5
   1f280:	3f1ee382 	svccc	0x001ee382
   1f284:	3f1ebc0e 	svccc	0x001ebc0e
   1f288:	3f1e949a 	svccc	0x001e949a
   1f28c:	3f1e6d26 	svccc	0x001e6d26
   1f290:	3f1e45a2 	svccc	0x001e45a2
   1f294:	3f1e1e1d 	svccc	0x001e1e1d
   1f298:	3f1df698 	svccc	0x001df698
   1f29c:	3f1dcf03 	svccc	0x001dcf03
   1f2a0:	3f1da76e 	svccc	0x001da76e
   1f2a4:	3f1d7fd8 	svccc	0x001d7fd8
   1f2a8:	3f1d5832 	svccc	0x001d5832
   1f2ac:	3f1d308c 	svccc	0x001d308c
   1f2b0:	3f1d08d5 	svccc	0x001d08d5
   1f2b4:	3f1ce11e 	svccc	0x001ce11e
   1f2b8:	3f1cb967 	svccc	0x001cb967
   1f2bc:	3f1c919f 	svccc	0x001c919f
   1f2c0:	3f1c69d7 	svccc	0x001c69d7
   1f2c4:	3f1c420f 	svccc	0x001c420f
   1f2c8:	3f1c1a37 	svccc	0x001c1a37
   1f2cc:	3f1bf25e 	svccc	0x001bf25e
   1f2d0:	3f1bca86 	svccc	0x001bca86
   1f2d4:	3f1ba29c 	svccc	0x001ba29c
   1f2d8:	3f1b7ab3 	svccc	0x001b7ab3
   1f2dc:	3f1b52b9 	svccc	0x001b52b9
   1f2e0:	3f1b2abf 	svccc	0x001b2abf
   1f2e4:	3f1b02c5 	svccc	0x001b02c5
   1f2e8:	3f1adaba 	svccc	0x001adaba
   1f2ec:	3f1ab2c0 	svccc	0x001ab2c0
   1f2f0:	3f1a8aa4 	svccc	0x001a8aa4
   1f2f4:	3f1a6299 	svccc	0x001a6299
   1f2f8:	3f1a3a7e 	svccc	0x001a3a7e
   1f2fc:	3f1a1251 	svccc	0x001a1251
   1f300:	3f19ea36 	svccc	0x0019ea36
   1f304:	3f19c1f8 	svccc	0x0019c1f8
   1f308:	3f1999cc 	svccc	0x001999cc
   1f30c:	3f19718f 	svccc	0x0019718f
   1f310:	3f194952 	svccc	0x00194952
   1f314:	3f192114 	svccc	0x00192114
   1f318:	3f18f8c6 	svccc	0x0018f8c6
   1f31c:	3f18d078 	svccc	0x0018d078
   1f320:	3f18a81a 	svccc	0x0018a81a
   1f324:	3f187fbb 	svccc	0x00187fbb
   1f328:	3f18575c 	svccc	0x0018575c
   1f32c:	3f182eec 	svccc	0x00182eec
   1f330:	3f18068e 	svccc	0x0018068e
   1f334:	3f17de0d 	svccc	0x0017de0d
   1f338:	3f17b59e 	svccc	0x0017b59e
   1f33c:	3f178d1e 	svccc	0x00178d1e
   1f340:	3f17648c 	svccc	0x0017648c
   1f344:	3f173c0c 	svccc	0x00173c0c
   1f348:	3f17137b 	svccc	0x0017137b
   1f34c:	3f16ead9 	svccc	0x0016ead9
   1f350:	3f16c248 	svccc	0x0016c248
   1f354:	3f1699a6 	svccc	0x001699a6
   1f358:	3f1670f4 	svccc	0x001670f4
   1f35c:	3f164841 	svccc	0x00164841
   1f360:	3f161f8e 	svccc	0x00161f8e
   1f364:	3f15f6dc 	svccc	0x0015f6dc
   1f368:	3f15ce18 	svccc	0x0015ce18
   1f36c:	3f15a555 	svccc	0x0015a555
   1f370:	3f157c81 	svccc	0x00157c81
   1f374:	3f1553bd 	svccc	0x001553bd
   1f378:	3f152ad8 	svccc	0x00152ad8
   1f37c:	3f150204 	svccc	0x00150204
   1f380:	3f14d91f 	svccc	0x0014d91f
   1f384:	3f14b03a 	svccc	0x0014b03a
   1f388:	3f148744 	svccc	0x00148744
   1f38c:	3f145e5f 	svccc	0x00145e5f
   1f390:	3f143559 	svccc	0x00143559
   1f394:	3f140c63 	svccc	0x00140c63
   1f398:	3f13e35c 	svccc	0x0013e35c
   1f39c:	3f13ba56 	svccc	0x0013ba56
   1f3a0:	3f13913f 	svccc	0x0013913f
   1f3a4:	3f136827 	svccc	0x00136827
   1f3a8:	3f133f10 	svccc	0x00133f10
   1f3ac:	3f1315e8 	svccc	0x001315e8
   1f3b0:	3f12ecc0 	svccc	0x0012ecc0
   1f3b4:	3f12c398 	svccc	0x0012c398
   1f3b8:	3f129a70 	svccc	0x00129a70
   1f3bc:	3f127137 	svccc	0x00127137
   1f3c0:	3f1247ed 	svccc	0x001247ed
   1f3c4:	3f121eb4 	svccc	0x00121eb4
   1f3c8:	3f11f56a 	svccc	0x0011f56a
   1f3cc:	3f11cc21 	svccc	0x0011cc21
   1f3d0:	3f11a2c6 	svccc	0x0011a2c6
   1f3d4:	3f11796c 	svccc	0x0011796c
   1f3d8:	3f115012 	svccc	0x00115012
   1f3dc:	3f1126a6 	svccc	0x001126a6
   1f3e0:	3f10fd3b 	svccc	0x0010fd3b
   1f3e4:	3f10d3d0 	svccc	0x0010d3d0
   1f3e8:	3f10aa54 	svccc	0x0010aa54
   1f3ec:	3f1080d8 	svccc	0x001080d8
   1f3f0:	3f10575c 	svccc	0x0010575c
   1f3f4:	3f102dcf 	svccc	0x00102dcf
   1f3f8:	3f100443 	svccc	0x00100443
   1f3fc:	3f0fdab6 	svccc	0x000fdab6
   1f400:	3f0fb129 	svccc	0x000fb129
   1f404:	3f0f878b 	svccc	0x000f878b
   1f408:	3f0f5ddd 	svccc	0x000f5ddd
   1f40c:	3f0f3440 	svccc	0x000f3440
   1f410:	3f0f0a91 	svccc	0x000f0a91
   1f414:	3f0ee0e3 	svccc	0x000ee0e3
   1f418:	3f0eb724 	svccc	0x000eb724
   1f41c:	3f0e8d65 	svccc	0x000e8d65
   1f420:	3f0e63a6 	svccc	0x000e63a6
   1f424:	3f0e39d6 	svccc	0x000e39d6
   1f428:	3f0e1006 	svccc	0x000e1006
   1f42c:	3f0de636 	svccc	0x000de636
   1f430:	3f0dbc66 	svccc	0x000dbc66
   1f434:	3f0d9286 	svccc	0x000d9286
   1f438:	3f0d68a5 	svccc	0x000d68a5
   1f43c:	3f0d3eb4 	svccc	0x000d3eb4
   1f440:	3f0d14c2 	svccc	0x000d14c2
   1f444:	3f0cead1 	svccc	0x000cead1
   1f448:	3f0cc0cf 	svccc	0x000cc0cf
   1f44c:	3f0c96dd 	svccc	0x000c96dd
   1f450:	3f0c6cdb 	svccc	0x000c6cdb
   1f454:	3f0c42c8 	svccc	0x000c42c8
   1f458:	3f0c18b5 	svccc	0x000c18b5
   1f45c:	3f0beea2 	svccc	0x000beea2
   1f460:	3f0bc48f 	svccc	0x000bc48f
   1f464:	3f0b9a6b 	svccc	0x000b9a6b
   1f468:	3f0b7048 	svccc	0x000b7048
   1f46c:	3f0b4624 	svccc	0x000b4624
   1f470:	3f0b1bef 	svccc	0x000b1bef
   1f474:	3f0af1bb 	svccc	0x000af1bb
   1f478:	3f0ac775 	svccc	0x000ac775
   1f47c:	3f0a9d41 	svccc	0x000a9d41
   1f480:	3f0a72fc 	svccc	0x000a72fc
   1f484:	3f0a48a6 	svccc	0x000a48a6
   1f488:	3f0a1e60 	svccc	0x000a1e60
   1f48c:	3f09f40a 	svccc	0x0009f40a
   1f490:	3f09c9b4 	svccc	0x0009c9b4
   1f494:	3f099f4d 	svccc	0x00099f4d
   1f498:	3f0974e6 	svccc	0x000974e6
   1f49c:	3f094a80 	svccc	0x00094a80
   1f4a0:	3f092008 	svccc	0x00092008
   1f4a4:	3f08f5a1 	svccc	0x0008f5a1
   1f4a8:	3f08cb19 	svccc	0x0008cb19
   1f4ac:	3f08a0a1 	svccc	0x0008a0a1
   1f4b0:	3f087619 	svccc	0x00087619
   1f4b4:	3f084b90 	svccc	0x00084b90
   1f4b8:	3f082108 	svccc	0x00082108
   1f4bc:	3f07f66f 	svccc	0x0007f66f
   1f4c0:	3f07cbd5 	svccc	0x0007cbd5
   1f4c4:	3f07a13c 	svccc	0x0007a13c
   1f4c8:	3f077692 	svccc	0x00077692
   1f4cc:	3f074be8 	svccc	0x00074be8
   1f4d0:	3f07213e 	svccc	0x0007213e
   1f4d4:	3f06f683 	svccc	0x0006f683
   1f4d8:	3f06cbc9 	svccc	0x0006cbc9
   1f4dc:	3f06a10e 	svccc	0x0006a10e
   1f4e0:	3f067653 	svccc	0x00067653
   1f4e4:	3f064b88 	svccc	0x00064b88
   1f4e8:	3f0620bc 	svccc	0x000620bc
   1f4ec:	3f05f5e0 	svccc	0x0005f5e0
   1f4f0:	3f05cb04 	svccc	0x0005cb04
   1f4f4:	3f05a027 	svccc	0x0005a027
   1f4f8:	3f05754b 	svccc	0x0005754b
   1f4fc:	3f054a5e 	svccc	0x00054a5e
   1f500:	3f051f71 	svccc	0x00051f71
   1f504:	3f04f484 	svccc	0x0004f484
   1f508:	3f04c986 	svccc	0x0004c986
   1f50c:	3f049e99 	svccc	0x00049e99
   1f510:	3f04738a 	svccc	0x0004738a
   1f514:	3f04488c 	svccc	0x0004488c
   1f518:	3f041d7e 	svccc	0x00041d7e
   1f51c:	3f03f26f 	svccc	0x0003f26f
   1f520:	3f03c750 	svccc	0x0003c750
   1f524:	3f039c41 	svccc	0x00039c41
   1f528:	3f037122 	svccc	0x00037122
   1f52c:	3f0345f1 	svccc	0x000345f1
   1f530:	3f031ad2 	svccc	0x00031ad2
   1f534:	3f02efa2 	svccc	0x0002efa2
   1f538:	3f02c472 	svccc	0x0002c472
   1f53c:	3f029931 	svccc	0x00029931
   1f540:	3f026df0 	svccc	0x00026df0
   1f544:	3f0242af 	svccc	0x000242af
   1f548:	3f02176e 	svccc	0x0002176e
   1f54c:	3f01ec1c 	svccc	0x0001ec1c
   1f550:	3f01c0ca 	svccc	0x0001c0ca
   1f554:	3f019579 	svccc	0x00019579
   1f558:	3f016a16 	svccc	0x00016a16
   1f55c:	3f013eb4 	svccc	0x00013eb4
   1f560:	3f011351 	svccc	0x00011351
   1f564:	3f00e7de 	svccc	0x0000e7de
   1f568:	3f00bc7b 	svccc	0x0000bc7b
   1f56c:	3f0090f7 	svccc	0x000090f7
   1f570:	3f006584 	svccc	0x00006584
   1f574:	3f003a00 	svccc	0x00003a00
   1f578:	3f000e7c 	svccc	0x00000e7c
   1f57c:	3effc5ef 	cdpcc	5, 15, cr12, cr15, cr15, {7}
   1f580:	3eff6ee7 	cdpcc	14, 15, cr6, cr15, cr7, {7}
   1f584:	3eff17be 	mrccc	7, 7, r1, cr15, cr14, {5}
   1f588:	3efec094 	mrccc	0, 7, ip, cr14, cr4, {4}
   1f58c:	3efe6949 	cdpcc	9, 15, cr6, cr14, cr9, {2}
   1f590:	3efe11fd 	mrccc	1, 7, r1, cr14, cr13, {7}
   1f594:	3efdbab2 	mrccc	10, 7, fp, cr13, cr2, {5}
   1f598:	3efd6367 	cdpcc	3, 15, cr6, cr13, cr7, {3}
   1f59c:	3efd0bfa 	vmovcc.u8	r0, d29[7]
   1f5a0:	3efcb48d 	cdpcc	4, 15, cr11, cr12, cr13, {4}
   1f5a4:	3efc5d20 	cdpcc	13, 15, cr5, cr12, cr0, {1}
   1f5a8:	3efc05b4 	mrccc	5, 7, r0, cr12, cr4, {5}
   1f5ac:	3efbae25 	cdpcc	14, 15, cr10, cr11, cr5, {1}
   1f5b0:	3efb5697 	mrccc	6, 7, r5, cr11, cr7, {4}
   1f5b4:	3efafee7 	cdpcc	14, 15, cr15, cr10, cr7, {7}
   1f5b8:	3efaa759 	mrccc	7, 7, sl, cr10, cr9, {2}
   1f5bc:	3efa4fa9 	cdpcc	15, 15, cr4, cr10, cr9, {5}
   1f5c0:	3ef9f7f9 	mrccc	7, 7, APSR_nzcv, cr9, cr9, {7}
   1f5c4:	3ef9a027 	cdpcc	0, 15, cr10, cr9, cr7, {1}
   1f5c8:	3ef94856 	mrccc	8, 7, r4, cr9, cr6, {2}
   1f5cc:	3ef8f084 	cdpcc	0, 15, cr15, cr8, cr4, {4}
   1f5d0:	3ef898b3 	mrccc	8, 7, r9, cr8, cr3, {5}
   1f5d4:	3ef840c0 	cdpcc	0, 15, cr4, cr8, cr0, {6}
   1f5d8:	3ef7e8cd 	cdpcc	8, 15, cr14, cr7, cr13, {6}
   1f5dc:	3ef790da 	mrccc	0, 7, r9, cr7, cr10, {6}
   1f5e0:	3ef738e7 	cdpcc	8, 15, cr3, cr7, cr7, {7}
   1f5e4:	3ef6e0d2 	mrccc	0, 7, lr, cr6, cr2, {6}
   1f5e8:	3ef688be 	mrccc	8, 7, r8, cr6, cr14, {5}
   1f5ec:	3ef63088 	cdpcc	0, 15, cr3, cr6, cr8, {4}
   1f5f0:	3ef5d873 	mrccc	8, 7, sp, cr5, cr3, {3}
   1f5f4:	3ef5803d 	mrccc	0, 7, r8, cr5, cr13, {1}
   1f5f8:	3ef52807 	cdpcc	8, 15, cr2, cr5, cr7, {0}
   1f5fc:	3ef4cfaf 	cdpcc	15, 15, cr12, cr4, cr15, {5}
   1f600:	3ef47757 	mrccc	7, 7, r7, cr4, cr7, {2}
   1f604:	3ef41f00 	cdpcc	15, 15, cr1, cr4, cr0, {0}
   1f608:	3ef3c6a8 	cdpcc	6, 15, cr12, cr3, cr8, {5}
   1f60c:	3ef36e2f 	cdpcc	14, 15, cr6, cr3, cr15, {1}
   1f610:	3ef315b5 	mrccc	5, 7, r1, cr3, cr5, {5}
   1f614:	3ef2bd3c 	mrccc	13, 7, fp, cr2, cr12, {1}
   1f618:	3ef264c3 	cdpcc	4, 15, cr6, cr2, cr3, {6}
   1f61c:	3ef20c28 	cdpcc	12, 15, cr0, cr2, cr8, {1}
   1f620:	3ef1b38d 	cdpcc	3, 15, cr11, cr1, cr13, {4}
   1f624:	3ef15af3 	mrccc	10, 7, r5, cr1, cr3, {7}
   1f628:	3ef10236 	mrccc	2, 7, r0, cr1, cr6, {1}
   1f62c:	3ef0a97a 	mrccc	9, 7, sl, cr0, cr10, {3}
   1f630:	3ef050be 	mrccc	0, 7, r5, cr0, cr14, {5}
   1f634:	3eeff801 	cdpcc	8, 14, cr15, cr15, cr1, {0}
   1f638:	3eef9f23 	cdpcc	15, 14, cr9, cr15, cr3, {1}
   1f63c:	3eef4645 	cdpcc	6, 14, cr4, cr15, cr5, {2}
   1f640:	3eeeed67 	cdpcc	13, 14, cr14, cr14, cr7, {3}
   1f644:	3eee9468 	cdpcc	4, 14, cr9, cr14, cr8, {3}
   1f648:	3eee3b8a 	vfmacc.f64	d19, d30, d10
   1f64c:	3eede28b 	cdpcc	2, 14, cr14, cr13, cr11, {4}
   1f650:	3eed896a 	cdpcc	9, 14, cr8, cr13, cr10, {3}
   1f654:	3eed306a 	cdpcc	0, 14, cr3, cr13, cr10, {3}
   1f658:	3eecd749 	cdpcc	7, 14, cr13, cr12, cr9, {2}
   1f65c:	3eec7e28 	cdpcc	14, 14, cr7, cr12, cr8, {1}
   1f660:	3eec24e6 	cdpcc	4, 14, cr2, cr12, cr6, {7}
   1f664:	3eebcbc5 	vfmscc.f64	d28, d27, d5
   1f668:	3eeb7282 	cdpcc	2, 14, cr7, cr11, cr2, {4}
   1f66c:	3eeb193f 	mcrcc	9, 7, r1, cr11, cr15, {1}
   1f670:	3eeabfdb 	mcrcc	15, 7, fp, cr10, cr11, {6}
   1f674:	3eea6677 	mcrcc	6, 7, r6, cr10, cr7, {3}
   1f678:	3eea0d13 	mcrcc	13, 7, r0, cr10, cr3, {0}
   1f67c:	3ee9b3af 	cdpcc	3, 14, cr11, cr9, cr15, {5}
   1f680:	3ee95a29 	vfmacc.f32	s11, s18, s19
   1f684:	3ee900c5 	cdpcc	0, 14, cr0, cr9, cr5, {6}
   1f688:	3ee8a71e 	mcrcc	7, 7, sl, cr8, cr14, {0}
   1f68c:	3ee84d98 	mcrcc	13, 7, r4, cr8, cr8, {4}
   1f690:	3ee7f3f1 	mcrcc	3, 7, pc, cr7, cr1, {7}	; <UNPREDICTABLE>
   1f694:	3ee79a6b 	vfmscc.f32	s19, s14, s23
   1f698:	3ee740a3 	cdpcc	0, 14, cr4, cr7, cr3, {5}
   1f69c:	3ee6e6fb 	mcrcc	6, 7, lr, cr6, cr11, {7}
   1f6a0:	3ee68d33 	mcrcc	13, 7, r8, cr6, cr3, {1}
   1f6a4:	3ee6336a 	cdpcc	3, 14, cr3, cr6, cr10, {3}
   1f6a8:	3ee5d9a1 	cdpcc	9, 14, cr13, cr5, cr1, {5}
   1f6ac:	3ee57fd8 	mcrcc	15, 7, r7, cr5, cr8, {6}
   1f6b0:	3ee525ee 	cdpcc	5, 14, cr2, cr5, cr14, {7}
   1f6b4:	3ee4cc03 	cdpcc	12, 14, cr12, cr4, cr3, {0}
   1f6b8:	3ee47219 	mcrcc	2, 7, r7, cr4, cr9, {0}
   1f6bc:	3ee4180d 	cdpcc	8, 14, cr1, cr4, cr13, {0}
   1f6c0:	3ee3be01 	cdpcc	14, 14, cr11, cr3, cr1, {0}
   1f6c4:	3ee363f5 	mcrcc	3, 7, r6, cr3, cr5, {7}
   1f6c8:	3ee309ea 	cdpcc	9, 14, cr0, cr3, cr10, {7}
   1f6cc:	3ee2afbc 	mcrcc	15, 7, sl, cr2, cr12, {5}
   1f6d0:	3ee2558f 	cdpcc	5, 14, cr5, cr2, cr15, {4}
   1f6d4:	3ee1fb61 	vfmscc.f64	d31, d1, d17
   1f6d8:	3ee1a134 	mcrcc	1, 7, sl, cr1, cr4, {1}
   1f6dc:	3ee146e5 	cdpcc	6, 14, cr4, cr1, cr5, {7}
   1f6e0:	3ee0ec96 	mcrcc	12, 7, lr, cr0, cr6, {4}
   1f6e4:	3ee09247 	cdpcc	2, 14, cr9, cr0, cr7, {2}
   1f6e8:	3ee037f8 	mcrcc	7, 7, r3, cr0, cr8, {7}
   1f6ec:	3edfdd87 	cdpcc	13, 13, cr13, cr15, cr7, {4}
   1f6f0:	3edf8317 	mrccc	3, 6, r8, cr15, cr7, {0}
   1f6f4:	3edf28a6 	cdpcc	8, 13, cr2, cr15, cr6, {5}
   1f6f8:	3edece36 	mrccc	14, 6, ip, cr14, cr6, {1}
   1f6fc:	3ede73a3 	cdpcc	3, 13, cr7, cr14, cr3, {5}
   1f700:	3ede1911 	mrccc	9, 6, r1, cr14, cr1, {0}
   1f704:	3eddbe7f 	mrccc	14, 6, fp, cr13, cr15, {3}
   1f708:	3edd63cc 	cdpcc	3, 13, cr6, cr13, cr12, {6}
   1f70c:	3edd0939 	mrccc	9, 6, r0, cr13, cr9, {1}
   1f710:	3edcae86 	cdpcc	14, 13, cr10, cr12, cr6, {4}
   1f714:	3edc53b1 	mrccc	3, 6, r5, cr12, cr1, {5}
   1f718:	3edbf8fd 	mrccc	8, 6, APSR_nzcv, cr11, cr13, {7}
   1f71c:	3edb9e28 	cdpcc	14, 13, cr9, cr11, cr8, {1}
   1f720:	3edb4352 	mrccc	3, 6, r4, cr11, cr2, {2}
   1f724:	3edae87d 	mrccc	8, 6, lr, cr10, cr13, {3}
   1f728:	3eda8da8 	cdpcc	13, 13, cr8, cr10, cr8, {5}
   1f72c:	3eda32b1 	mrccc	2, 6, r3, cr10, cr1, {5}
   1f730:	3ed9d7ba 	mrccc	7, 6, sp, cr9, cr10, {5}
   1f734:	3ed97cc4 	cdpcc	12, 13, cr7, cr9, cr4, {6}
   1f738:	3ed921ab 	cdpcc	1, 13, cr2, cr9, cr11, {5}
   1f73c:	3ed8c693 	mrccc	6, 6, ip, cr8, cr3, {4}
   1f740:	3ed86b7b 	vmovcc.u8	r6, d8[3]
   1f744:	3ed81062 	cdpcc	0, 13, cr1, cr8, cr2, {3}
   1f748:	3ed7b54a 	cdpcc	5, 13, cr11, cr7, cr10, {2}
   1f74c:	3ed75a10 	mrccc	10, 6, r5, cr7, cr0, {0}
   1f750:	3ed6fed6 	mrccc	14, 6, APSR_nzcv, cr6, cr6, {6}
   1f754:	3ed6a39c 	mrccc	3, 6, sl, cr6, cr12, {4}
   1f758:	3ed64841 	cdpcc	8, 13, cr4, cr6, cr1, {2}
   1f75c:	3ed5ed07 	cdpcc	13, 13, cr14, cr5, cr7, {0}
   1f760:	3ed591ac 	atnccdp	f1, #4.0
   1f764:	3ed53650 	mrccc	6, 6, r3, cr5, cr0, {2}
   1f768:	3ed4dad3 	mrccc	10, 6, sp, cr4, cr3, {6}
   1f76c:	3ed47f56 	mrccc	15, 6, r7, cr4, cr6, {2}
   1f770:	3ed423d9 	mrccc	3, 6, r2, cr4, cr9, {6}
   1f774:	3ed3c85c 	mrccc	8, 6, ip, cr3, cr12, {2}
   1f778:	3ed36cdf 	mrccc	12, 6, r6, cr3, cr15, {6}
   1f77c:	3ed31141 	cdpcc	1, 13, cr1, cr3, cr1, {2}
   1f780:	3ed2b5a2 	cdpcc	5, 13, cr11, cr2, cr2, {5}
   1f784:	3ed25a04 	vfnmscc.f32	s11, s4, s8
   1f788:	3ed1fe65 	cdpcc	14, 13, cr15, cr1, cr5, {3}
   1f78c:	3ed1a2a5 	cdpcc	2, 13, cr10, cr1, cr5, {5}
   1f790:	3ed146e5 	cdpcc	6, 13, cr4, cr1, cr5, {7}
   1f794:	3ed0eb25 	vfnmscc.f64	d30, d0, d21
   1f798:	3ed08f65 	cdpcc	15, 13, cr8, cr0, cr5, {3}
   1f79c:	3ed03383 	cdpcc	3, 13, cr3, cr0, cr3, {4}
   1f7a0:	3ecfd7a1 	cdpcc	7, 12, cr13, cr15, cr1, {5}
   1f7a4:	3ecf7bc0 	cdpcc	11, 12, cr7, cr15, cr0, {6}
   1f7a8:	3ecf1fde 	mcrcc	15, 6, r1, cr15, cr14, {6}
   1f7ac:	3ecec3db 	mcrcc	3, 6, ip, cr14, cr11, {6}
   1f7b0:	3ece67f9 	mcrcc	7, 6, r6, cr14, cr9, {7}
   1f7b4:	3ece0bf6 	mcrcc	11, 6, r0, cr14, cr6, {7}
   1f7b8:	3ecdafd1 	mcrcc	15, 6, sl, cr13, cr1, {6}
   1f7bc:	3ecd53ce 	cdpcc	3, 12, cr5, cr13, cr14, {6}
   1f7c0:	3eccf7a9 	cdpcc	7, 12, cr15, cr12, cr9, {5}
   1f7c4:	3ecc9b84 	vdivcc.f64	d25, d28, d4
   1f7c8:	3ecc3f60 	cdpcc	15, 12, cr3, cr12, cr0, {3}
   1f7cc:	3ecbe33b 	mcrcc	3, 6, lr, cr11, cr11, {1}
   1f7d0:	3ecb86f4 	mcrcc	6, 6, r8, cr11, cr4, {7}
   1f7d4:	3ecb2aae 	vdivcc.f32	s5, s23, s29
   1f7d8:	3ecace68 	cdpcc	14, 12, cr12, cr10, cr8, {3}
   1f7dc:	3eca7200 	cdpcc	2, 12, cr7, cr10, cr0, {0}
   1f7e0:	3eca15ba 	mcrcc	5, 6, r1, cr10, cr10, {5}
   1f7e4:	3ec9b952 	mcrcc	9, 6, fp, cr9, cr2, {2}
   1f7e8:	3ec95cea 	cdpcc	12, 12, cr5, cr9, cr10, {7}
   1f7ec:	3ec90082 	cdpcc	0, 12, cr0, cr9, cr2, {4}
   1f7f0:	3ec8a3f9 	mcrcc	3, 6, sl, cr8, cr9, {7}
   1f7f4:	3ec8476f 	cdpcc	7, 12, cr4, cr8, cr15, {3}
   1f7f8:	3ec7eae6 	cdpcc	10, 12, cr14, cr7, cr6, {7}
   1f7fc:	3ec78e5c 	mcrcc	14, 6, r8, cr7, cr12, {2}
   1f800:	3ec731d3 	mcrcc	1, 6, r3, cr7, cr3, {6}
   1f804:	3ec6d528 	cdpcc	5, 12, cr13, cr6, cr8, {1}
   1f808:	3ec6787d 	mcrcc	8, 6, r7, cr6, cr13, {3}
   1f80c:	3ec61bd2 	mcrcc	11, 6, r1, cr6, cr2, {6}
   1f810:	3ec5bf27 	cdpcc	15, 12, cr11, cr5, cr7, {1}
   1f814:	3ec5625a 	mcrcc	2, 6, r6, cr5, cr10, {2}
   1f818:	3ec5058e 	cdpcc	5, 12, cr0, cr5, cr14, {4}
   1f81c:	3ec4a8c1 	cdpcc	8, 12, cr10, cr4, cr1, {6}
   1f820:	3ec44bf5 	mcrcc	11, 6, r4, cr4, cr5, {7}
   1f824:	3ec3ef07 	cdpcc	15, 12, cr14, cr3, cr7, {0}
   1f828:	3ec3923a 	mcrcc	2, 6, r9, cr3, cr10, {1}
   1f82c:	3ec3354c 	cdpcc	5, 12, cr3, cr3, cr12, {2}
   1f830:	3ec2d85e 	mcrcc	8, 6, sp, cr2, cr14, {2}
   1f834:	3ec27b4e 	cdpcc	11, 12, cr7, cr2, cr14, {2}
   1f838:	3ec21e60 	cdpcc	14, 12, cr1, cr2, cr0, {3}
   1f83c:	3ec1c151 	mcrcc	1, 6, ip, cr1, cr1, {2}
   1f840:	3ec16441 	cdpcc	4, 12, cr6, cr1, cr1, {2}
   1f844:	3ec10710 	mcrcc	7, 6, r0, cr1, cr0, {0}
   1f848:	3ec0aa00 	vdivcc.f32	s21, s0, s0
   1f84c:	3ec04ccf 	cdpcc	12, 12, cr4, cr0, cr15, {6}
   1f850:	3ebfef9e 	mrccc	15, 5, lr, cr15, cr14, {4}
   1f854:	3ebf926c 	cdpcc	2, 11, cr9, cr15, cr12, {3}
   1f858:	3ebf353b 	mrccc	5, 5, r3, cr15, cr11, {1}
   1f85c:	3ebed7e9 	cdpcc	7, 11, cr13, cr14, cr9, {7}
   1f860:	3ebe7a96 	mrccc	10, 5, r7, cr14, cr6, {4}
   1f864:	3ebe1d43 	cdpcc	13, 11, cr1, cr14, cr3, {2}
   1f868:	3ebdbff0 	mrccc	15, 5, fp, cr13, cr0, {7}
   1f86c:	3ebd627c 	mrccc	2, 5, r6, cr13, cr12, {3}
   1f870:	3ebd0529 	cdpcc	5, 11, cr0, cr13, cr9, {1}
   1f874:	3ebca7b5 	mrccc	7, 5, sl, cr12, cr5, {5}
   1f878:	3ebc4a41 	vcvtrcc.u32.f32	s8, s2
   1f87c:	3ebbecab 	cdpcc	12, 11, cr14, cr11, cr11, {5}
   1f880:	3ebb8f36 	mrccc	15, 5, r8, cr11, cr6, {1}
   1f884:	3ebb31a1 	frdcc<illegal precision>p	f3, f3, f1
   1f888:	3ebad40b 	cdpcc	4, 11, cr13, cr10, cr11, {0}
   1f88c:	3eba7675 	mrccc	6, 5, r7, cr10, cr5, {3}
   1f890:	3eba18bd 	mrccc	8, 5, r1, cr10, cr13, {5}
   1f894:	3eb9bb28 	cdpcc	11, 11, cr11, cr9, cr8, {1}
   1f898:	3eb95d70 	mrccc	13, 5, r5, cr9, cr0, {3}
   1f89c:	3eb8ffb9 	mrccc	15, 5, APSR_nzcv, cr8, cr9, {5}
   1f8a0:	3eb8a201 	cdpcc	2, 11, cr10, cr8, cr1, {0}
   1f8a4:	3eb84428 	cdpcc	4, 11, cr4, cr8, cr8, {1}
   1f8a8:	3eb7e64f 	cdpcc	6, 11, cr14, cr7, cr15, {2}
   1f8ac:	3eb78876 	mrccc	8, 5, r8, cr7, cr6, {3}
   1f8b0:	3eb72a9d 	mrccc	10, 5, r2, cr7, cr13, {4}
   1f8b4:	3eb6ccc4 	cdpcc	12, 11, cr12, cr6, cr4, {6}
   1f8b8:	3eb66eca 	cdpcc	14, 11, cr6, cr6, cr10, {6}
   1f8bc:	3eb610f1 	mrccc	0, 5, r1, cr6, cr1, {7}
   1f8c0:	3eb5b2f6 	mrccc	2, 5, fp, cr5, cr6, {7}
   1f8c4:	3eb554fc 	mrccc	4, 5, r5, cr5, cr12, {7}
   1f8c8:	3eb4f6e0 	cdpcc	6, 11, cr15, cr4, cr0, {7}
   1f8cc:	3eb498e5 	cdpcc	8, 11, cr9, cr4, cr5, {7}
   1f8d0:	3eb43ac9 	vcmpecc.f32	s6, s18
   1f8d4:	3eb3dcad 	cdpcc	12, 11, cr13, cr3, cr13, {5}
   1f8d8:	3eb37e91 	mrccc	14, 5, r7, cr3, cr1, {4}
   1f8dc:	3eb32053 	mrccc	0, 5, r2, cr3, cr3, {2}
   1f8e0:	3eb2c237 	mrccc	2, 5, ip, cr2, cr7, {1}
   1f8e4:	3eb263fa 	mrccc	3, 5, r6, cr2, cr10, {7}
   1f8e8:	3eb205bc 	mrccc	5, 5, r0, cr2, cr12, {5}
   1f8ec:	3eb1a75d 	mrccc	7, 5, sl, cr1, cr13, {2}
   1f8f0:	3eb1491f 	mrccc	9, 5, r4, cr1, cr15, {0}
   1f8f4:	3eb0eac0 	vabscc.f32	s28, s0
   1f8f8:	3eb08c61 	cdpcc	12, 11, cr8, cr0, cr1, {3}
   1f8fc:	3eb02e02 	cdpcc	14, 11, cr2, cr0, cr2, {0}
   1f900:	3eafcfa2 	cdpcc	15, 10, cr12, cr15, cr2, {5}
   1f904:	3eaf7143 	fdvccem	f7, f7, f3
   1f908:	3eaf12c2 	cdpcc	2, 10, cr1, cr15, cr2, {6}
   1f90c:	3eaeb442 	cdpcc	4, 10, cr11, cr14, cr2, {2}
   1f910:	3eae55c1 	cdpcc	5, 10, cr5, cr14, cr1, {6}
   1f914:	3eadf740 	cdpcc	7, 10, cr15, cr13, cr0, {2}
   1f918:	3ead989e 	mcrcc	8, 5, r9, cr13, cr14, {4}
   1f91c:	3ead3a1d 	mcrcc	10, 5, r3, cr13, cr13, {0}
   1f920:	3eacdb7b 	mcrcc	11, 5, sp, cr12, cr11, {3}
   1f924:	3eac7cd9 	mcrcc	12, 5, r7, cr12, cr9, {6}
   1f928:	3eac1e36 	mcrcc	14, 5, r1, cr12, cr6, {1}
   1f92c:	3eabbf72 	mcrcc	15, 5, fp, cr11, cr2, {3}
   1f930:	3eab60af 	cdpcc	0, 10, cr6, cr11, cr15, {5}
   1f934:	3eab020c 	cdpcc	2, 10, cr0, cr11, cr12, {0}
   1f938:	3eaaa348 	cdpcc	3, 10, cr10, cr10, cr8, {2}
   1f93c:	3eaa4463 	cdpcc	4, 10, cr4, cr10, cr3, {3}
   1f940:	3ea9e59f 	mcrcc	5, 5, lr, cr9, cr15, {4}
   1f944:	3ea986ba 	mcrcc	6, 5, r8, cr9, cr10, {5}
   1f948:	3ea927d4 	mcrcc	7, 5, r2, cr9, cr4, {6}
   1f94c:	3ea8c8ef 	cdpcc	8, 10, cr12, cr8, cr15, {7}
   1f950:	3ea86a0a 	vfmacc.f32	s12, s16, s20
   1f954:	3ea80b24 	vfmacc.f64	d0, d8, d20
   1f958:	3ea7ac1d 	mcrcc	12, 5, sl, cr7, cr13, {0}
   1f95c:	3ea74d16 	mcrcc	13, 5, r4, cr7, cr6, {0}
   1f960:	3ea6ee0f 	cdpcc	14, 10, cr14, cr6, cr15, {0}
   1f964:	3ea68f08 	cdpcc	15, 10, cr8, cr6, cr8, {0}
   1f968:	3ea63001 	cdpcc	0, 10, cr3, cr6, cr1, {0}
   1f96c:	3ea5d0d9 	mcrcc	0, 5, sp, cr5, cr9, {6}
   1f970:	3ea571d2 	mcrcc	1, 5, r7, cr5, cr2, {6}
   1f974:	3ea512a9 	cdpcc	2, 10, cr1, cr5, cr9, {5}
   1f978:	3ea4b381 	cdpcc	3, 10, cr11, cr4, cr1, {4}
   1f97c:	3ea45437 	mcrcc	4, 5, r5, cr4, cr7, {1}
   1f980:	3ea3f50e 	cdpcc	5, 10, cr15, cr3, cr14, {0}
   1f984:	3ea395c4 	cdpcc	5, 10, cr9, cr3, cr4, {6}
   1f988:	3ea3367a 	mcrcc	6, 5, r3, cr3, cr10, {3}
   1f98c:	3ea2d730 	mcrcc	7, 5, sp, cr2, cr0, {1}
   1f990:	3ea277e6 	cdpcc	7, 10, cr7, cr2, cr6, {7}
   1f994:	3ea2187a 	mcrcc	8, 5, r1, cr2, cr10, {3}
   1f998:	3ea1b930 	mcrcc	9, 5, fp, cr1, cr0, {1}
   1f99c:	3ea159c5 	cdpcc	9, 10, cr5, cr1, cr5, {6}
   1f9a0:	3ea0fa59 	mcrcc	10, 5, pc, cr0, cr9, {2}	; <UNPREDICTABLE>
   1f9a4:	3ea09aed 	vfmscc.f32	s18, s1, s27
   1f9a8:	3ea03b60 	vfmscc.f64	d3, d0, d16
   1f9ac:	3e9fdbf5 	vmovcc.u16	sp, d31[1]
   1f9b0:	3e9f7c67 	cdpcc	12, 9, cr7, cr15, cr7, {3}
   1f9b4:	3e9f1cda 	mrccc	12, 4, r1, cr15, cr10, {6}
   1f9b8:	3e9ebd4d 	cdpcc	13, 9, cr11, cr14, cr13, {2}
   1f9bc:	3e9e5dc0 	cdpcc	13, 9, cr5, cr14, cr0, {6}
   1f9c0:	3e9dfe11 	mrccc	14, 4, APSR_nzcv, cr13, cr1, {0}
   1f9c4:	3e9d9e84 	cdpcc	14, 9, cr9, cr13, cr4, {4}
   1f9c8:	3e9d3ed5 	mrccc	14, 4, r3, cr13, cr5, {6}
   1f9cc:	3e9cdf26 	cdpcc	15, 9, cr13, cr12, cr6, {1}
   1f9d0:	3e9c7f78 	mrccc	15, 4, r7, cr12, cr8, {3}
   1f9d4:	3e9c1fa7 	cdpcc	15, 9, cr1, cr12, cr7, {5}
   1f9d8:	3e9bbff9 	mrccc	15, 4, fp, cr11, cr9, {7}
   1f9dc:	3e9b6028 	cdpcc	0, 9, cr6, cr11, cr8, {1}
   1f9e0:	3e9b0058 	mrccc	0, 4, r0, cr11, cr8, {2}
   1f9e4:	3e9aa088 	cdpcc	0, 9, cr10, cr10, cr8, {4}
   1f9e8:	3e9a40b8 	mrccc	0, 4, r4, cr10, cr8, {5}
   1f9ec:	3e99e0c6 	cdpcc	0, 9, cr14, cr9, cr6, {6}
   1f9f0:	3e9980f5 	mrccc	0, 4, r8, cr9, cr5, {7}
   1f9f4:	3e992104 	fmlcce	f2, f1, f4
   1f9f8:	3e98c112 	mrccc	1, 4, ip, cr8, cr2, {0}
   1f9fc:	3e986120 	fmlccep	f6, f0, f0
   1fa00:	3e98010c 	fmlcce	f0, f0, #4.0
   1fa04:	3e97a11b 	mrccc	1, 4, sl, cr7, cr11, {0}
   1fa08:	3e974107 	fmlccs	f4, f7, f7
   1fa0c:	3e96e0f4 	mrccc	0, 4, lr, cr6, cr4, {7}
   1fa10:	3e9680e0 	cdpcc	0, 9, cr8, cr6, cr0, {7}
   1fa14:	3e9620cd 	cdpcc	0, 9, cr2, cr6, cr13, {6}
   1fa18:	3e95c0ba 	mrccc	0, 4, ip, cr5, cr10, {5}
   1fa1c:	3e956085 	cdpcc	0, 9, cr6, cr5, cr5, {4}
   1fa20:	3e950071 	mrccc	0, 4, r0, cr5, cr1, {3}
   1fa24:	3e94a03c 	mrccc	0, 4, sl, cr4, cr12, {1}
   1fa28:	3e944007 	cdpcc	0, 9, cr4, cr4, cr7, {0}
   1fa2c:	3e93dfb1 	mrccc	15, 4, sp, cr3, cr1, {5}
   1fa30:	3e937f7c 	mrccc	15, 4, r7, cr3, cr12, {3}
   1fa34:	3e931f25 	cdpcc	15, 9, cr1, cr3, cr5, {1}
   1fa38:	3e92bef0 	mrccc	14, 4, fp, cr2, cr0, {7}
   1fa3c:	3e925e9a 	mrccc	14, 4, r5, cr2, cr10, {4}
   1fa40:	3e91fe43 	cdpcc	14, 9, cr15, cr1, cr3, {2}
   1fa44:	3e919ded 	cdpcc	13, 9, cr9, cr1, cr13, {7}
   1fa48:	3e913d75 	mrccc	13, 4, r3, cr1, cr5, {3}
   1fa4c:	3e90dd1e 	mrccc	13, 4, sp, cr0, cr14, {0}
   1fa50:	3e907ca6 	cdpcc	12, 9, cr7, cr0, cr6, {5}
   1fa54:	3e901c2e 	cdpcc	12, 9, cr1, cr0, cr14, {1}
   1fa58:	3e8fbbb6 	vdupcc.16	d31, fp
   1fa5c:	3e8f5b3e 	vdupcc.16	d15, r5
   1fa60:	3e8efaa4 	vdivcc.f32	s30, s29, s9
   1fa64:	3e8e9a2c 	vdivcc.f32	s18, s28, s25
   1fa68:	3e8e3993 	mcrcc	9, 4, r3, cr14, cr3, {4}
   1fa6c:	3e8dd8f9 	mcrcc	8, 4, sp, cr13, cr9, {7}
   1fa70:	3e8d7860 	cdpcc	8, 8, cr7, cr13, cr0, {3}
   1fa74:	3e8d17c6 	cdpcc	7, 8, cr1, cr13, cr6, {6}
   1fa78:	3e8cb70b 	cdpcc	7, 8, cr11, cr12, cr11, {0}
   1fa7c:	3e8c5671 	mcrcc	6, 4, r5, cr12, cr1, {3}
   1fa80:	3e8bf5b6 	mcrcc	5, 4, pc, cr11, cr6, {5}	; <UNPREDICTABLE>
   1fa84:	3e8b94fb 	mcrcc	4, 4, r9, cr11, cr11, {7}
   1fa88:	3e8b3440 	cdpcc	4, 8, cr3, cr11, cr0, {2}
   1fa8c:	3e8ad384 	cdpcc	3, 8, cr13, cr10, cr4, {4}
   1fa90:	3e8a72c9 	cdpcc	2, 8, cr7, cr10, cr9, {6}
   1fa94:	3e8a11ed 	rmfcc<illegal precision>z	f1, f2, #5.0
   1fa98:	3e89b131 	mcrcc	1, 4, fp, cr9, cr1, {1}
   1fa9c:	3e895055 	mcrcc	0, 4, r5, cr9, cr5, {2}
   1faa0:	3e88ef78 	mcrcc	15, 4, lr, cr8, cr8, {3}
   1faa4:	3e888e9b 	mcrcc	14, 4, r8, cr8, cr11, {4}
   1faa8:	3e882d9d 	mcrcc	13, 4, r2, cr8, cr13, {4}
   1faac:	3e87ccc0 	cdpcc	12, 8, cr12, cr7, cr0, {6}
   1fab0:	3e876bc2 	cdpcc	11, 8, cr6, cr7, cr2, {6}
   1fab4:	3e870ae5 	cdpcc	10, 8, cr0, cr7, cr5, {7}
   1fab8:	3e86a9e7 	cdpcc	9, 8, cr10, cr6, cr7, {7}
   1fabc:	3e8648e9 	cdpcc	8, 8, cr4, cr6, cr9, {7}
   1fac0:	3e85e7c9 	cdpcc	7, 8, cr14, cr5, cr9, {6}
   1fac4:	3e8586cb 	cdpcc	6, 8, cr8, cr5, cr11, {6}
   1fac8:	3e8525cc 	cdpcc	5, 8, cr2, cr5, cr12, {6}
   1facc:	3e84c4ac 	cdpcc	4, 8, cr12, cr4, cr12, {5}
   1fad0:	3e84638d 	cdpcc	3, 8, cr6, cr4, cr13, {4}
   1fad4:	3e84026d 	cdpcc	2, 8, cr0, cr4, cr13, {3}
   1fad8:	3e83a14d 	sinccsm	f2, #5.0
   1fadc:	3e83402d 	cdpcc	0, 8, cr4, cr3, cr13, {1}
   1fae0:	3e82deec 	cdpcc	14, 8, cr13, cr2, cr12, {7}
   1fae4:	3e827dcc 	cdpcc	13, 8, cr7, cr2, cr12, {6}
   1fae8:	3e821c8a 	cdpcc	12, 8, cr1, cr2, cr10, {4}
   1faec:	3e81bb49 	cdpcc	11, 8, cr11, cr1, cr9, {2}
   1faf0:	3e815a08 	vdivcc.f32	s10, s2, s16
   1faf4:	3e80f8c6 	cdpcc	8, 8, cr15, cr0, cr6, {6}
   1faf8:	3e809763 	cdpcc	7, 8, cr9, cr0, cr3, {3}
   1fafc:	3e803622 	cdpcc	6, 8, cr3, cr0, cr2, {1}
   1fb00:	3e7fa97e 	mrccc	9, 3, sl, cr15, cr14, {3}
   1fb04:	3e7ee6fb 	mrccc	6, 3, lr, cr14, cr11, {7}
   1fb08:	3e7e2435 	mrccc	4, 3, r2, cr14, cr5, {1}
   1fb0c:	3e7d6170 	mrccc	1, 3, r6, cr13, cr0, {3}
   1fb10:	3e7c9e67 	cdpcc	14, 7, cr9, cr12, cr7, {3}
   1fb14:	3e7bdba1 	vaddcc.f64	d29, d27, d17
   1fb18:	3e7b18db 	mrccc	8, 3, r1, cr11, cr11, {6}
   1fb1c:	3e7a55d2 	mrccc	5, 3, r5, cr10, cr2, {6}
   1fb20:	3e7992c9 	cdpcc	2, 7, cr9, cr9, cr9, {6}
   1fb24:	3e78cfc0 	cdpcc	15, 7, cr12, cr8, cr0, {6}
   1fb28:	3e780cb7 	mrccc	12, 3, r0, cr8, cr7, {5}
   1fb2c:	3e7749ae 	cdpcc	9, 7, cr4, cr7, cr14, {5}
   1fb30:	3e7686a5 	cdpcc	6, 7, cr8, cr6, cr5, {5}
   1fb34:	3e75c359 	mrccc	3, 3, ip, cr5, cr9, {2}
   1fb38:	3e75000d 	cdpcc	0, 7, cr0, cr5, cr13, {0}
   1fb3c:	3e743d04 	cdpcc	13, 7, cr3, cr4, cr4, {0}
   1fb40:	3e7379b7 	mrccc	9, 3, r7, cr3, cr7, {5}
   1fb44:	3e72b66b 	cdpcc	6, 7, cr11, cr2, cr11, {3}
   1fb48:	3e71f2dc 	mrccc	2, 3, APSR_nzcv, cr1, cr12, {6}
   1fb4c:	3e712f90 	mrccc	15, 3, r2, cr1, cr0, {4}
   1fb50:	3e706c44 	cdpcc	12, 7, cr6, cr0, cr4, {2}
   1fb54:	3e6fa8b5 	mcrcc	8, 3, sl, cr15, cr5, {5}
   1fb58:	3e6ee526 	cdpcc	5, 6, cr14, cr14, cr6, {1}
   1fb5c:	3e6e2196 	mcrcc	1, 3, r2, cr14, cr6, {4}
   1fb60:	3e6d5e07 	cdpcc	14, 6, cr5, cr13, cr7, {0}
   1fb64:	3e6c9a78 	mcrcc	10, 3, r9, cr12, cr8, {3}
   1fb68:	3e6bd6e9 	cdpcc	6, 6, cr13, cr11, cr9, {7}
   1fb6c:	3e6b1316 	mcrcc	3, 3, r1, cr11, cr6, {0}
   1fb70:	3e6a4f87 	cdpcc	15, 6, cr4, cr10, cr7, {4}
   1fb74:	3e698bb5 	vmovcc.8	d25[5], r8
   1fb78:	3e68c7e3 	cdpcc	7, 6, cr12, cr8, cr3, {7}
   1fb7c:	3e680410 	mcrcc	4, 3, r0, cr8, cr0, {0}
   1fb80:	3e67403e 	mcrcc	0, 3, r4, cr7, cr14, {1}
   1fb84:	3e667c6c 	cdpcc	12, 6, cr7, cr6, cr12, {3}
   1fb88:	3e65b899 	mcrcc	8, 3, fp, cr5, cr9, {4}
   1fb8c:	3e64f484 	cdpcc	4, 6, cr15, cr4, cr4, {4}
   1fb90:	3e64306e 	cdpcc	0, 6, cr3, cr4, cr14, {3}
   1fb94:	3e636c9c 	mcrcc	12, 3, r6, cr3, cr12, {4}
   1fb98:	3e62a887 	cdpcc	8, 6, cr10, cr2, cr7, {4}
   1fb9c:	3e61e471 	mcrcc	4, 3, lr, cr1, cr1, {3}
   1fba0:	3e61205c 	mcrcc	0, 3, r2, cr1, cr12, {2}
   1fba4:	3e605c03 	cdpcc	12, 6, cr5, cr0, cr3, {0}
   1fba8:	3e5f97ee 	cdpcc	7, 5, cr9, cr15, cr14, {7}
   1fbac:	3e5ed395 	mrccc	3, 2, sp, cr14, cr5, {4}
   1fbb0:	3e5e0f80 	cdpcc	15, 5, cr0, cr14, cr0, {4}
   1fbb4:	3e5d4b27 	vnmlscc.f64	d20, d13, d23
   1fbb8:	3e5c86cf 	cdpcc	6, 5, cr8, cr12, cr15, {6}
   1fbbc:	3e5bc276 	mrccc	2, 2, ip, cr11, cr6, {3}
   1fbc0:	3e5afe1e 	mrccc	14, 2, APSR_nzcv, cr10, cr14, {0}
   1fbc4:	3e5a3982 	cdpcc	9, 5, cr3, cr10, cr2, {4}
   1fbc8:	3e597529 	cdpcc	5, 5, cr7, cr9, cr9, {1}
   1fbcc:	3e58b08e 	cdpcc	0, 5, cr11, cr8, cr14, {4}
   1fbd0:	3e57ec35 	mrccc	12, 2, lr, cr7, cr5, {1}
   1fbd4:	3e57279a 	mrccc	7, 2, r2, cr7, cr10, {4}
   1fbd8:	3e5662fe 	mrccc	2, 2, r6, cr6, cr14, {7}
   1fbdc:	3e559e62 	cdpcc	14, 5, cr9, cr5, cr2, {3}
   1fbe0:	3e54d9c7 	cdpcc	9, 5, cr13, cr4, cr7, {6}
   1fbe4:	3e5414e8 	cdpcc	4, 5, cr1, cr4, cr8, {7}
   1fbe8:	3e53504c 	cdpcc	0, 5, cr5, cr3, cr12, {2}
   1fbec:	3e528b6e 	vnmlacc.f64	d24, d2, d30
   1fbf0:	3e51c6d2 	mrccc	6, 2, ip, cr1, cr2, {6}
   1fbf4:	3e5101f3 	mrccc	1, 2, r0, cr1, cr3, {7}
   1fbf8:	3e503d14 	mrccc	13, 2, r3, cr0, cr4, {0}
   1fbfc:	3e4f7836 	mcrcc	8, 2, r7, cr15, cr6, {1}
   1fc00:	3e4eb357 	mcrcc	3, 2, fp, cr14, cr7, {2}
   1fc04:	3e4dee78 	mcrcc	14, 2, lr, cr13, cr8, {3}
   1fc08:	3e4d2956 	mcrcc	9, 2, r2, cr13, cr6, {2}
   1fc0c:	3e4c6477 	mcrcc	4, 2, r6, cr12, cr7, {3}
   1fc10:	3e4b9f56 	mcrcc	15, 2, r9, cr11, cr6, {2}
   1fc14:	3e4ada34 	mcrcc	10, 2, sp, cr10, cr4, {1}
   1fc18:	3e4a1555 	mcrcc	5, 2, r1, cr10, cr5, {2}
   1fc1c:	3e495033 	mcrcc	0, 2, r5, cr9, cr3, {1}
   1fc20:	3e488b11 	vmovcc.8	d8[0], r8
   1fc24:	3e47c5ac 	cdpcc	5, 4, cr12, cr7, cr12, {5}
   1fc28:	3e47008a 	cdpcc	0, 4, cr0, cr7, cr10, {4}
   1fc2c:	3e463b69 	vmlscc.f64	d19, d6, d25
   1fc30:	3e457604 	cdpcc	6, 4, cr7, cr5, cr4, {0}
   1fc34:	3e44b09f 	mcrcc	0, 2, fp, cr4, cr15, {4}
   1fc38:	3e43eb7d 	vmovcc.8	d3[3], lr
   1fc3c:	3e432618 	mcrcc	6, 2, r2, cr3, cr8, {0}
   1fc40:	3e4260b3 	mcrcc	0, 2, r6, cr2, cr3, {5}
   1fc44:	3e419b4e 	vmlscc.f64	d25, d1, d14
   1fc48:	3e40d5a6 	cdpcc	5, 4, cr13, cr0, cr6, {5}
   1fc4c:	3e401041 	cdpcc	0, 4, cr1, cr0, cr1, {2}
   1fc50:	3e3f4adc 	mrccc	10, 1, r4, cr15, cr12, {6}
   1fc54:	3e3e8534 	mrccc	5, 1, r8, cr14, cr4, {1}
   1fc58:	3e3dbf8c 	cdpcc	15, 3, cr11, cr13, cr12, {4}
   1fc5c:	3e3cfa27 	vaddcc.f32	s30, s24, s15
   1fc60:	3e3c347f 	mrccc	4, 1, r3, cr12, cr15, {3}
   1fc64:	3e3b6ed6 	mrccc	14, 1, r6, cr11, cr6, {6}
   1fc68:	3e3aa92e 	cdpcc	9, 3, cr10, cr10, cr14, {1}
   1fc6c:	3e39e386 	cdpcc	3, 3, cr14, cr9, cr6, {4}
   1fc70:	3e391d9b 	mrccc	13, 1, r1, cr9, cr11, {4}
   1fc74:	3e3857f3 	mrccc	7, 1, r5, cr8, cr3, {7}
   1fc78:	3e379208 	cdpcc	2, 3, cr9, cr7, cr8, {0}
   1fc7c:	3e36cc60 	cdpcc	12, 3, cr12, cr6, cr0, {3}
   1fc80:	3e360675 	mrccc	6, 1, r0, cr6, cr5, {3}
   1fc84:	3e354089 	cdpcc	0, 3, cr4, cr5, cr9, {4}
   1fc88:	3e347a9e 	mrccc	10, 1, r7, cr4, cr14, {4}
   1fc8c:	3e33b4b3 	mrccc	4, 1, fp, cr3, cr3, {5}
   1fc90:	3e32eec8 	cdpcc	14, 3, cr14, cr2, cr8, {6}
   1fc94:	3e3228dd 	mrccc	8, 1, r2, cr2, cr13, {6}
   1fc98:	3e3162f1 	mrccc	2, 1, r6, cr1, cr1, {7}
   1fc9c:	3e309cc3 	cdpcc	12, 3, cr9, cr0, cr3, {6}
   1fca0:	3e2fd6d8 	mcrcc	6, 1, sp, cr15, cr8, {6}
   1fca4:	3e2f10aa 	cdpcc	0, 2, cr1, cr15, cr10, {5}
   1fca8:	3e2e4a7b 	mcrcc	10, 1, r4, cr14, cr11, {3}
   1fcac:	3e2d844d 	cdpcc	4, 2, cr8, cr13, cr13, {2}
   1fcb0:	3e2cbe1f 	mcrcc	14, 1, fp, cr12, cr15, {0}
   1fcb4:	3e2bf7f0 	mcrcc	7, 1, pc, cr11, cr0, {7}	; <UNPREDICTABLE>
   1fcb8:	3e2b31c2 	sufcc<illegal precision>m	f3, f3, f2
   1fcbc:	3e2a6b94 	vmovcc.32	d26[1], r6
   1fcc0:	3e29a565 	cfsh64cc	mvdx10, mvdx9, #53
   1fcc4:	3e28def4 	mcrcc	14, 1, sp, cr8, cr4, {7}
   1fcc8:	3e2818c6 	cdpcc	8, 2, cr1, cr8, cr6, {6}
   1fccc:	3e275254 	mcrcc	2, 1, r5, cr7, cr4, {2}
   1fcd0:	3e268be3 	vnmulcc.f64	d8, d22, d19
   1fcd4:	3e25c572 	mcrcc	5, 1, ip, cr5, cr2, {3}
   1fcd8:	3e24ff00 	cdpcc	15, 2, cr15, cr4, cr0, {0}
   1fcdc:	3e24388f 	cdpcc	8, 2, cr3, cr4, cr15, {4}
   1fce0:	3e23721d 	mcrcc	2, 1, r7, cr3, cr13, {0}
   1fce4:	3e22abac 	vmulcc.f64	d10, d18, d28
   1fce8:	3e21e53b 	mcrcc	5, 1, lr, cr1, cr11, {1}
   1fcec:	3e211e86 	cdpcc	14, 2, cr1, cr1, cr6, {4}
   1fcf0:	3e205815 	mcrcc	8, 1, r5, cr0, cr5, {0}
   1fcf4:	3e1f9160 	mnfccez	f1, f0
   1fcf8:	3e1ecaef 	vnmlacc.f32	s24, s29, s31
   1fcfc:	3e1e043a 	mrccc	4, 0, r0, cr14, cr10, {1}
   1fd00:	3e1d3d86 	cdpcc	13, 1, cr3, cr13, cr6, {4}
   1fd04:	3e1c76d1 	mrccc	6, 0, r7, cr12, cr1, {6}
   1fd08:	3e1bb01d 	mrccc	0, 0, fp, cr11, cr13, {0}
   1fd0c:	3e1ae968 	cdpcc	9, 1, cr14, cr10, cr8, {3}
   1fd10:	3e1a22b4 	mrccc	2, 0, r2, cr10, cr4, {5}
   1fd14:	3e195bff 	vmovcc.s16	r5, d25[1]
   1fd18:	3e189507 	cfmul32cc	mvfx9, mvfx8, mvfx7
   1fd1c:	3e17ce53 	mrccc	14, 0, ip, cr7, cr3, {2}
   1fd20:	3e17075b 	mrccc	7, 0, r0, cr7, cr11, {2}
   1fd24:	3e164064 	cdpcc	0, 1, cr4, cr6, cr4, {3}
   1fd28:	3e1579af 	cdpcc	9, 1, cr7, cr5, cr15, {5}
   1fd2c:	3e14b2b7 	mrccc	2, 0, fp, cr4, cr7, {5}
   1fd30:	3e13ebc0 	vnmlacc.f64	d14, d19, d0
   1fd34:	3e1324c8 	cdpcc	4, 1, cr2, cr3, cr8, {6}
   1fd38:	3e125dd1 	mrccc	13, 0, r5, cr2, cr1, {6}
   1fd3c:	3e1196d9 	mrccc	6, 0, r9, cr1, cr9, {6}
   1fd40:	3e10cfe1 	cdpcc	15, 1, cr12, cr0, cr1, {7}
   1fd44:	3e1008a7 	cdpcc	8, 1, cr0, cr0, cr7, {5}
   1fd48:	3e0f41af 	adfcc<illegal precision>p	f4, f7, #10.0
   1fd4c:	3e0e7a74 	mcrcc	10, 0, r7, cr14, cr4, {3}
   1fd50:	3e0db37d 	mcrcc	3, 0, fp, cr13, cr13, {3}
   1fd54:	3e0cec42 	cdpcc	12, 0, cr14, cr12, cr2, {2}
   1fd58:	3e0c2507 	cfsh32cc	mvfx2, mvfx12, #7
   1fd5c:	3e0b5e0f 	cdpcc	14, 0, cr5, cr11, cr15, {0}
   1fd60:	3e0a96d5 	mcrcc	6, 0, r9, cr10, cr5, {6}
   1fd64:	3e09cf9a 	mcrcc	15, 0, ip, cr9, cr10, {4}
   1fd68:	3e09085f 	mcrcc	8, 0, r0, cr9, cr15, {2}
   1fd6c:	3e084125 	adfccep	f4, f0, f5
   1fd70:	3e0779a7 	cdpcc	9, 0, cr7, cr7, cr7, {5}
   1fd74:	3e06b26c 	cdpcc	2, 0, cr11, cr6, cr12, {3}
   1fd78:	3e05eb31 	vmovcc.16	d5[0], lr
   1fd7c:	3e0523b3 	mcrcc	3, 0, r2, cr5, cr3, {5}
   1fd80:	3e045c79 	mcrcc	12, 0, r5, cr4, cr9, {3}
   1fd84:	3e0394fb 	mcrcc	4, 0, r9, cr3, cr11, {7}
   1fd88:	3e02cd7d 	mcrcc	13, 0, ip, cr2, cr13, {3}
   1fd8c:	3e020642 	cfmadd32cc	mvax2, mvfx0, mvfx2, mvfx2
   1fd90:	3e013ec4 	cdpcc	14, 0, cr3, cr1, cr4, {6}
   1fd94:	3e007747 	cdpcc	7, 0, cr7, cr0, cr7, {2}
   1fd98:	3dff5f91 	ldclcc	15, cr5, [pc, #580]!	; 1ffe4 <fsintable+0x3fc0>
   1fd9c:	3dfdd096 	ldclcc	0, cr13, [sp, #600]!	; 0x258
   1fda0:	3dfc419a 	ldfcce	f4, [ip, #616]!	; 0x268
   1fda4:	3dfab29e 	lfmcc	f3, 3, [sl, #632]!	; 0x278
   1fda8:	3df9231c 	ldclcc	3, cr2, [r9, #112]!	; 0x70
   1fdac:	3df79421 	cfldrdcc	mvd9, [r7, #132]!	; 0x84
   1fdb0:	3df60525 	cfldr64cc	mvdx0, [r6, #148]!	; 0x94
   1fdb4:	3df475a3 	cfldr64cc	mvdx7, [r4, #652]!	; 0x28c
   1fdb8:	3df2e6a7 	ldclcc	6, cr14, [r2, #668]!	; 0x29c
   1fdbc:	3df15726 	ldclcc	7, cr5, [r1, #152]!	; 0x98
   1fdc0:	3defc7a4 	stclcc	7, cr12, [pc, #656]!	; 20058 <fsintable+0x4034>
   1fdc4:	3dee38a8 	stclcc	8, cr3, [lr, #672]!	; 0x2a0
   1fdc8:	3deca926 	stclcc	9, cr10, [ip, #152]!	; 0x98
   1fdcc:	3deb19a4 	stclcc	9, cr1, [fp, #656]!	; 0x290
   1fdd0:	3de98a22 	stclcc	10, cr8, [r9, #136]!	; 0x88
   1fdd4:	3de7faa0 	stclcc	10, cr15, [r7, #640]!	; 0x280
   1fdd8:	3de66b1e 	stclcc	11, cr6, [r6, #120]!	; 0x78
   1fddc:	3de4db9c 	stclcc	11, cr13, [r4, #624]!	; 0x270
   1fde0:	3de34b94 	stclcc	11, cr4, [r3, #592]!	; 0x250
   1fde4:	3de1bc12 	stclcc	12, cr11, [r1, #72]!	; 0x48
   1fde8:	3de02c91 	stclcc	12, cr2, [r0, #580]!	; 0x244
   1fdec:	3dde9c88 	ldclcc	12, cr9, [lr, #544]	; 0x220
   1fdf0:	3ddd0d06 	ldclcc	13, cr0, [sp, #24]
   1fdf4:	3ddb7cfe 	ldclcc	12, cr7, [fp, #1016]	; 0x3f8
   1fdf8:	3dd9ed7c 	ldclcc	13, cr14, [r9, #496]	; 0x1f0
   1fdfc:	3dd85d74 	ldclcc	13, cr5, [r8, #464]	; 0x1d0
   1fe00:	3dd6cd6c 	ldclcc	13, cr12, [r6, #432]	; 0x1b0
   1fe04:	3dd53dea 	ldclcc	13, cr3, [r5, #936]	; 0x3a8
   1fe08:	3dd3ade2 	ldclcc	13, cr10, [r3, #904]	; 0x388
   1fe0c:	3dd21dda 	ldclcc	13, cr1, [r2, #872]	; 0x368
   1fe10:	3dd08dd2 	ldclcc	13, cr8, [r0, #840]	; 0x348
   1fe14:	3dcefdca 	stclcc	13, cr15, [lr, #808]	; 0x328
   1fe18:	3dcd6dc2 	stclcc	13, cr6, [sp, #776]	; 0x308
   1fe1c:	3dcbddba 	stclcc	13, cr13, [fp, #744]	; 0x2e8
   1fe20:	3dca4d2b 	stclcc	13, cr4, [sl, #172]	; 0xac
   1fe24:	3dc8bd23 	stclcc	13, cr11, [r8, #140]	; 0x8c
   1fe28:	3dc72d1b 	stclcc	13, cr2, [r7, #108]	; 0x6c
   1fe2c:	3dc59c8d 	stclcc	12, cr9, [r5, #564]	; 0x234
   1fe30:	3dc40c84 	stclcc	12, cr0, [r4, #528]	; 0x210
   1fe34:	3dc27bf6 	vstrcc	d23, [r2, #984]	; 0x3d8
   1fe38:	3dc0ebee 	vstrcc	d30, [r0, #952]	; 0x3b8
   1fe3c:	3dbf5b60 	ldccc	11, cr5, [pc, #384]!	; 1ffc4 <fsintable+0x3fa0>
   1fe40:	3dbdcb58 	ldccc	11, cr12, [sp, #352]!	; 0x160
   1fe44:	3dbc3ac9 	ldccc	10, cr3, [ip, #804]!	; 0x324
   1fe48:	3dbaaa3b 	ldccc	10, cr10, [sl, #236]!	; 0xec
   1fe4c:	3db919ac 	ldccc	9, cr1, [r9, #688]!	; 0x2b0
   1fe50:	3db7891e 	ldccc	9, cr8, [r7, #120]!	; 0x78
   1fe54:	3db5f916 	ldccc	9, cr15, [r5, #88]!	; 0x58
   1fe58:	3db46888 	ldccc	8, cr6, [r4, #544]!	; 0x220
   1fe5c:	3db2d7f9 	ldccc	7, cr13, [r2, #996]!	; 0x3e4
   1fe60:	3db146e5 	ldccc	6, cr4, [r1, #916]!	; 0x394
   1fe64:	3dafb656 	stccc	6, cr11, [pc, #344]!	; 1ffc4 <fsintable+0x3fa0>
   1fe68:	3dae25c8 	cfstr32cc	mvfx2, [lr, #800]!	; 0x320
   1fe6c:	3dac953a 	cfstr32cc	mvfx9, [ip, #232]!	; 0xe8
   1fe70:	3dab04ab 	cfstrscc	mvf0, [fp, #684]!	; 0x2ac
   1fe74:	3da97397 	stccc	3, cr7, [r9, #604]!	; 0x25c
   1fe78:	3da7e308 	stccc	3, cr14, [r7, #32]!
   1fe7c:	3da651f4 	stfccs	f5, [r6, #976]!	; 0x3d0
   1fe80:	3da4c166 	stfccd	f4, [r4, #408]!	; 0x198
   1fe84:	3da33051 	stccc	0, cr3, [r3, #324]!	; 0x144
   1fe88:	3da19fc3 	stccc	15, cr9, [r1, #780]!	; 0x30c
   1fe8c:	3da00eae 	stccc	14, cr0, [r0, #696]!	; 0x2b8
   1fe90:	3d9e7e20 	ldccc	14, cr7, [lr, #128]	; 0x80
   1fe94:	3d9ced0b 	ldccc	13, cr14, [ip, #44]	; 0x2c
   1fe98:	3d9b5bf7 	vldrcc	d5, [fp, #988]	; 0x3dc
   1fe9c:	3d99cae2 	vldrcc	s24, [r9, #904]	; 0x388
   1fea0:	3d9839ce 	ldccc	9, cr3, [r8, #824]	; 0x338
   1fea4:	3d96a93f 	ldccc	9, cr10, [r6, #252]	; 0xfc
   1fea8:	3d95182b 	ldccc	8, cr1, [r5, #172]	; 0xac
   1feac:	3d938716 	ldccc	7, cr8, [r3, #88]	; 0x58
   1feb0:	3d91f601 	ldccc	6, cr15, [r1, #4]
   1feb4:	3d9064ed 	cfldrscc	mvf6, [r0, #948]	; 0x3b4
   1feb8:	3d8ed352 	stccc	3, cr13, [lr, #328]	; 0x148
   1febc:	3d8d423e 	sfmcc	f4, 4, [sp, #248]	; 0xf8
   1fec0:	3d8bb129 	stfccd	f3, [fp, #164]	; 0xa4
   1fec4:	3d8a2014 	stccc	0, cr2, [sl, #80]	; 0x50
   1fec8:	3d888f00 	stccc	15, cr8, [r8]
   1fecc:	3d86fd65 	stccc	13, cr15, [r6, #404]	; 0x194
   1fed0:	3d856c51 	stccc	12, cr6, [r5, #324]	; 0x144
   1fed4:	3d83db3c 	vstrcc	d13, [r3, #240]	; 0xf0
   1fed8:	3d8249a1 	stccc	9, cr4, [r2, #644]	; 0x284
   1fedc:	3d80b88d 	stccc	8, cr11, [r0, #564]	; 0x234
   1fee0:	3d7e4de4 	ldclcc	13, cr4, [lr, #-912]!	; 0xfffffc70
   1fee4:	3d7b2bbb 	fldmdbxcc	fp!, {d18-d110}	;@ Deprecated
   1fee8:	3d780885 	ldclcc	8, cr0, [r8, #-532]!	; 0xfffffdec
   1feec:	3d74e65c 	ldclcc	6, cr14, [r4, #-368]!	; 0xfffffe90
   1fef0:	3d71c326 	ldclcc	3, cr12, [r1, #-152]!	; 0xffffff68
   1fef4:	3d6e9ff1 	stclcc	15, cr9, [lr, #-964]!	; 0xfffffc3c
   1fef8:	3d6b7dc8 	stclcc	13, cr7, [fp, #-800]!	; 0xfffffce0
   1fefc:	3d685a92 	vstmdbcc	r8!, {s11-s156}
   1ff00:	3d65375d 	stclcc	7, cr3, [r5, #-372]!	; 0xfffffe8c
   1ff04:	3d621427 	cfstrdcc	mvd1, [r2, #-156]!	; 0xffffff64
   1ff08:	3d5ef0f1 	ldclcc	0, cr15, [lr, #-964]	; 0xfffffc3c
   1ff0c:	3d5bcec8 	ldclcc	14, cr12, [fp, #-800]	; 0xfffffce0
   1ff10:	3d58ab93 	vldrcc	d26, [r8, #-588]	; 0xfffffdb4
   1ff14:	3d55885d 	ldclcc	8, cr8, [r5, #-372]	; 0xfffffe8c
   1ff18:	3d526528 	cfldr64cc	mvdx6, [r2, #-160]	; 0xffffff60
   1ff1c:	3d4f41f2 	stfcce	f4, [pc, #-968]	; 1fb5c <fsintable+0x3b38>
   1ff20:	3d4c1ebd 	stclcc	14, cr1, [ip, #-756]	; 0xfffffd0c
   1ff24:	3d48fb87 	vstrcc	d31, [r8, #-540]	; 0xfffffde4
   1ff28:	3d45d851 	stclcc	8, cr13, [r5, #-324]	; 0xfffffebc
   1ff2c:	3d42b40f 	cfstrdcc	mvd11, [r2, #-60]	; 0xffffffc4
   1ff30:	3d3f90da 	ldccc	0, cr9, [pc, #-872]!	; 1fbd0 <fsintable+0x3bac>
   1ff34:	3d3c6da4 	ldccc	13, cr6, [ip, #-656]!	; 0xfffffd70
   1ff38:	3d394a6f 	vldmdbcc	r9!, {s8-s118}
   1ff3c:	3d362739 	ldccc	7, cr2, [r6, #-228]!	; 0xffffff1c
   1ff40:	3d330404 	cfldrscc	mvf0, [r3, #-16]!
   1ff44:	3d2fdfc2 	stccc	15, cr13, [pc, #-776]!	; 1fc44 <fsintable+0x3c20>
   1ff48:	3d2cbc8c 	stccc	12, cr11, [ip, #-560]!	; 0xfffffdd0
   1ff4c:	3d299956 	stccc	9, cr9, [r9, #-344]!	; 0xfffffea8
   1ff50:	3d267514 	cfstr32cc	mvfx7, [r6, #-80]!	; 0xffffffb0
   1ff54:	3d2351df 	stfccs	f5, [r3, #-892]!	; 0xfffffc84
   1ff58:	3d202ea9 	stccc	14, cr2, [r0, #-676]!	; 0xfffffd5c
   1ff5c:	3d1d0a67 	vldrcc	s0, [sp, #-412]	; 0xfffffe64
   1ff60:	3d19e732 	ldccc	7, cr14, [r9, #-200]	; 0xffffff38
   1ff64:	3d16c2f0 	lfmcc	f4, 1, [r6, #-960]	; 0xfffffc40
   1ff68:	3d139fba 	ldccc	15, cr9, [r3, #-744]	; 0xfffffd18
   1ff6c:	3d107b78 	vldrcc	d7, [r0, #-480]	; 0xfffffe20
   1ff70:	3d0d5843 	stccc	8, cr5, [sp, #-268]	; 0xfffffef4
   1ff74:	3d0a3401 	cfstrscc	mvf3, [sl, #-4]
   1ff78:	3d0710cb 	stccc	0, cr1, [r7, #-812]	; 0xfffffcd4
   1ff7c:	3d03ec89 	stccc	12, cr14, [r3, #-548]	; 0xfffffddc
   1ff80:	3d00c847 	stccc	8, cr12, [r0, #-284]	; 0xfffffee4
   1ff84:	3cfb4a23 	vldmiacc	fp!, {s9-s43}
   1ff88:	3cf5019f 	ldfcce	f0, [r5], #636	; 0x27c
   1ff8c:	3ceebb34 	vstmiacc	lr!, {d27-<overflow reg d52>}
   1ff90:	3ce872b0 	sfmcc	f7, 2, [r8], #704	; 0x2c0
   1ff94:	3ce22a2c 	vstmiacc	r2!, {s5-s48}
   1ff98:	3cdbe1a8 	ldfccp	f6, [fp], {168}	; 0xa8
   1ff9c:	3cd59b3d 	fldmiaxcc	r5, {d25-d54}	;@ Deprecated
   1ffa0:	3ccf52b9 	sfmcc	f5, 2, [pc], {185}	; 0xb9
   1ffa4:	3cc90a35 	vstmiacc	r9, {s1-s53}
   1ffa8:	3cc2c1b1 	stfccp	f4, [r2], {177}	; 0xb1
   1ffac:	3cbc7b46 	vldmiacc	ip!, {d7-<overflow reg d41>}
   1ffb0:	3cb632c2 	lfmcc	f3, 4, [r6], #776	; 0x308
   1ffb4:	3cafea3e 	vstmiacc	pc!, {s28-s89}
   1ffb8:	3ca9a1ba 	stfccd	f2, [r9], #744	; 0x2e8
   1ffbc:	3ca35936 	stccc	9, cr5, [r3], #216	; 0xd8
   1ffc0:	3c9d12cb 	lfmcc	f1, 4, [sp], {203}	; 0xcb
   1ffc4:	3c96ca47 	vldmiacc	r6, {s24-s94}
   1ffc8:	3c9081c3 	ldfccd	f0, [r0], {195}	; 0xc3
   1ffcc:	3c8a393f 	stccc	9, cr3, [sl], {63}	; 0x3f
   1ffd0:	3c83f0bb 	stccc	0, cr15, [r3], {187}	; 0xbb
   1ffd4:	3c7b506e 	ldclcc	0, cr5, [fp], #-440	; 0xfffffe48
   1ffd8:	3c6ebf66 	stclcc	15, cr11, [lr], #-408	; 0xfffffe68
   1ffdc:	3c622e5e 	stclcc	14, cr2, [r2], #-376	; 0xfffffe88
   1ffe0:	3c559d56 	mrrccc	13, 5, r9, r5, cr6
   1ffe4:	3c491080 	mcrrcc	0, 8, r1, r9, cr0
   1ffe8:	3c3c7f78 	ldccc	15, cr7, [ip], #-480	; 0xfffffe20
   1ffec:	3c2fee70 	stccc	14, cr14, [pc], #-448	; 1fe34 <fsintable+0x3e10>
   1fff0:	3c235d68 	stccc	13, cr5, [r3], #-416	; 0xfffffe60
   1fff4:	3c16cc60 	ldccc	12, cr12, [r6], {96}	; 0x60
   1fff8:	3c0a3b58 	stccc	11, cr3, [sl], {88}	; 0x58
   1fffc:	3bfb54a0 	blcc	ffef5284 <__bss_end+0xff5a3284>
   20000:	3be23290 	blcc	ff8aca48 <__bss_end+0xfef5aa48>
   20004:	3bc91080 	blcc	ff26420c <__bss_end+0xfe91220c>
   20008:	3bafee70 	blcc	fec1b9d0 <__bss_end+0xfe2c99d0>
   2000c:	3b96cc60 	blcc	fe5d3194 <__bss_end+0xfdc81194>
   20010:	3b7b54a0 	blcc	1ef5298 <__bss_end+0x15a3298>
   20014:	3b491080 	blcc	126421c <__bss_end+0x91221c>
   20018:	3b16cc60 	blcc	5d31a0 <renderchunk_buffer0+0x4815a0>
   2001c:	3ac91080 	bcc	ff264224 <__bss_end+0xfe912224>
   20020:	3a491080 	bcc	1264228 <__bss_end+0x912228>
   20024:	00000000 	andeq	r0, r0, r0
   20028:	ba491080 	blt	1264230 <__bss_end+0x912230>
   2002c:	bac91080 	blt	ff264234 <__bss_end+0xfe912234>
   20030:	bb16cc60 	bllt	5d31b8 <renderchunk_buffer0+0x4815b8>
   20034:	bb491080 	bllt	126423c <__bss_end+0x91223c>
   20038:	bb7b54a0 	bllt	1ef52c0 <__bss_end+0x15a32c0>
   2003c:	bb96cc60 	bllt	fe5d31c4 <__bss_end+0xfdc811c4>
   20040:	bbafee70 	bllt	fec1ba08 <__bss_end+0xfe2c9a08>
   20044:	bbc91080 	bllt	ff26424c <__bss_end+0xfe91224c>
   20048:	bbe23290 	bllt	ff8aca90 <__bss_end+0xfef5aa90>
   2004c:	bbfb54a0 	bllt	ffef52d4 <__bss_end+0xff5a32d4>
   20050:	bc0a3b58 	stclt	11, cr3, [sl], {88}	; 0x58
   20054:	bc16cc60 	ldclt	12, cr12, [r6], {96}	; 0x60
   20058:	bc235d68 	stclt	13, cr5, [r3], #-416	; 0xfffffe60
   2005c:	bc2fee70 	stclt	14, cr14, [pc], #-448	; 1fea4 <fsintable+0x3e80>
   20060:	bc3c7f78 	ldclt	15, cr7, [ip], #-480	; 0xfffffe20
   20064:	bc491080 	mcrrlt	0, 8, r1, r9, cr0
   20068:	bc559d56 	mrrclt	13, 5, r9, r5, cr6
   2006c:	bc622e5e 	stcllt	14, cr2, [r2], #-376	; 0xfffffe88
   20070:	bc6ebf66 	stcllt	15, cr11, [lr], #-408	; 0xfffffe68
   20074:	bc7b506e 	ldcllt	0, cr5, [fp], #-440	; 0xfffffe48
   20078:	bc83f0bb 	stclt	0, cr15, [r3], {187}	; 0xbb
   2007c:	bc8a393f 	stclt	9, cr3, [sl], {63}	; 0x3f
   20080:	bc9081c3 	ldfltd	f0, [r0], {195}	; 0xc3
   20084:	bc96ca47 	vldmialt	r6, {s24-s94}
   20088:	bc9d12cb 	lfmlt	f1, 4, [sp], {203}	; 0xcb
   2008c:	bca35936 	stclt	9, cr5, [r3], #216	; 0xd8
   20090:	bca9a1ba 	stfltd	f2, [r9], #744	; 0x2e8
   20094:	bcafea3e 	vstmialt	pc!, {s28-s89}
   20098:	bcb632c2 	lfmlt	f3, 4, [r6], #776	; 0x308
   2009c:	bcbc7b46 	vldmialt	ip!, {d7-<overflow reg d41>}
   200a0:	bcc2c1b1 	stfltp	f4, [r2], {177}	; 0xb1
   200a4:	bcc90a35 	vstmialt	r9, {s1-s53}
   200a8:	bccf52b9 	sfmlt	f5, 2, [pc], {185}	; 0xb9
   200ac:	bcd59b3d 	fldmiaxlt	r5, {d25-d54}	;@ Deprecated
   200b0:	bcdbe1a8 	ldfltp	f6, [fp], {168}	; 0xa8
   200b4:	bce22a2c 	vstmialt	r2!, {s5-s48}
   200b8:	bce872b0 	sfmlt	f7, 2, [r8], #704	; 0x2c0
   200bc:	bceebb34 	vstmialt	lr!, {d27-<overflow reg d52>}
   200c0:	bcf5019f 	ldflte	f0, [r5], #636	; 0x27c
   200c4:	bcfb4a23 	vldmialt	fp!, {s9-s43}
   200c8:	bd00c847 	stclt	8, cr12, [r0, #-284]	; 0xfffffee4
   200cc:	bd03ec89 	stclt	12, cr14, [r3, #-548]	; 0xfffffddc
   200d0:	bd0710cb 	stclt	0, cr1, [r7, #-812]	; 0xfffffcd4
   200d4:	bd0a3401 	cfstrslt	mvf3, [sl, #-4]
   200d8:	bd0d5843 	stclt	8, cr5, [sp, #-268]	; 0xfffffef4
   200dc:	bd107b78 	vldrlt	d7, [r0, #-480]	; 0xfffffe20
   200e0:	bd139fba 	ldclt	15, cr9, [r3, #-744]	; 0xfffffd18
   200e4:	bd16c2f0 	lfmlt	f4, 1, [r6, #-960]	; 0xfffffc40
   200e8:	bd19e732 	ldclt	7, cr14, [r9, #-200]	; 0xffffff38
   200ec:	bd1d0a67 	vldrlt	s0, [sp, #-412]	; 0xfffffe64
   200f0:	bd202ea9 	stclt	14, cr2, [r0, #-676]!	; 0xfffffd5c
   200f4:	bd2351df 	stflts	f5, [r3, #-892]!	; 0xfffffc84
   200f8:	bd267514 	cfstr32lt	mvfx7, [r6, #-80]!	; 0xffffffb0
   200fc:	bd299956 	stclt	9, cr9, [r9, #-344]!	; 0xfffffea8
   20100:	bd2cbc8c 	stclt	12, cr11, [ip, #-560]!	; 0xfffffdd0
   20104:	bd2fdfc2 	stclt	15, cr13, [pc, #-776]!	; 1fe04 <fsintable+0x3de0>
   20108:	bd330404 	cfldrslt	mvf0, [r3, #-16]!
   2010c:	bd362739 	ldclt	7, cr2, [r6, #-228]!	; 0xffffff1c
   20110:	bd394a6f 	vldmdblt	r9!, {s8-s118}
   20114:	bd3c6da4 	ldclt	13, cr6, [ip, #-656]!	; 0xfffffd70
   20118:	bd3f90da 	ldclt	0, cr9, [pc, #-872]!	; 1fdb8 <fsintable+0x3d94>
   2011c:	bd42b40f 	cfstrdlt	mvd11, [r2, #-60]	; 0xffffffc4
   20120:	bd45d851 	stcllt	8, cr13, [r5, #-324]	; 0xfffffebc
   20124:	bd48fb87 	vstrlt	d31, [r8, #-540]	; 0xfffffde4
   20128:	bd4c1ebd 	stcllt	14, cr1, [ip, #-756]	; 0xfffffd0c
   2012c:	bd4f41f2 	stflte	f4, [pc, #-968]	; 1fd6c <fsintable+0x3d48>
   20130:	bd526528 	cfldr64lt	mvdx6, [r2, #-160]	; 0xffffff60
   20134:	bd55885d 	ldcllt	8, cr8, [r5, #-372]	; 0xfffffe8c
   20138:	bd58ab93 	vldrlt	d26, [r8, #-588]	; 0xfffffdb4
   2013c:	bd5bcec8 	ldcllt	14, cr12, [fp, #-800]	; 0xfffffce0
   20140:	bd5ef0f1 	ldcllt	0, cr15, [lr, #-964]	; 0xfffffc3c
   20144:	bd621427 	cfstrdlt	mvd1, [r2, #-156]!	; 0xffffff64
   20148:	bd65375d 	stcllt	7, cr3, [r5, #-372]!	; 0xfffffe8c
   2014c:	bd685a92 	vstmdblt	r8!, {s11-s156}
   20150:	bd6b7dc8 	stcllt	13, cr7, [fp, #-800]!	; 0xfffffce0
   20154:	bd6e9ff1 	stcllt	15, cr9, [lr, #-964]!	; 0xfffffc3c
   20158:	bd71c326 	ldcllt	3, cr12, [r1, #-152]!	; 0xffffff68
   2015c:	bd74e65c 	ldcllt	6, cr14, [r4, #-368]!	; 0xfffffe90
   20160:	bd780885 	ldcllt	8, cr0, [r8, #-532]!	; 0xfffffdec
   20164:	bd7b2bbb 	fldmdbxlt	fp!, {d18-d110}	;@ Deprecated
   20168:	bd7e4de4 	ldcllt	13, cr4, [lr, #-912]!	; 0xfffffc70
   2016c:	bd80b88d 	stclt	8, cr11, [r0, #564]	; 0x234
   20170:	bd8249a1 	stclt	9, cr4, [r2, #644]	; 0x284
   20174:	bd83db3c 	vstrlt	d13, [r3, #240]	; 0xf0
   20178:	bd856c51 	stclt	12, cr6, [r5, #324]	; 0x144
   2017c:	bd86fd65 	stclt	13, cr15, [r6, #404]	; 0x194
   20180:	bd888f00 	stclt	15, cr8, [r8]
   20184:	bd8a2014 	stclt	0, cr2, [sl, #80]	; 0x50
   20188:	bd8bb129 	stfltd	f3, [fp, #164]	; 0xa4
   2018c:	bd8d423e 	sfmlt	f4, 4, [sp, #248]	; 0xf8
   20190:	bd8ed352 	stclt	3, cr13, [lr, #328]	; 0x148
   20194:	bd9064ed 	cfldrslt	mvf6, [r0, #948]	; 0x3b4
   20198:	bd91f601 	ldclt	6, cr15, [r1, #4]
   2019c:	bd938716 	ldclt	7, cr8, [r3, #88]	; 0x58
   201a0:	bd95182b 	ldclt	8, cr1, [r5, #172]	; 0xac
   201a4:	bd96a93f 	ldclt	9, cr10, [r6, #252]	; 0xfc
   201a8:	bd9839ce 	ldclt	9, cr3, [r8, #824]	; 0x338
   201ac:	bd99cae2 	vldrlt	s24, [r9, #904]	; 0x388
   201b0:	bd9b5bf7 	vldrlt	d5, [fp, #988]	; 0x3dc
   201b4:	bd9ced0b 	ldclt	13, cr14, [ip, #44]	; 0x2c
   201b8:	bd9e7e20 	ldclt	14, cr7, [lr, #128]	; 0x80
   201bc:	bda00eae 	stclt	14, cr0, [r0, #696]!	; 0x2b8
   201c0:	bda19fc3 	stclt	15, cr9, [r1, #780]!	; 0x30c
   201c4:	bda33051 	stclt	0, cr3, [r3, #324]!	; 0x144
   201c8:	bda4c166 	stfltd	f4, [r4, #408]!	; 0x198
   201cc:	bda651f4 	stflts	f5, [r6, #976]!	; 0x3d0
   201d0:	bda7e308 	stclt	3, cr14, [r7, #32]!
   201d4:	bda97397 	stclt	3, cr7, [r9, #604]!	; 0x25c
   201d8:	bdab04ab 	cfstrslt	mvf0, [fp, #684]!	; 0x2ac
   201dc:	bdac953a 	cfstr32lt	mvfx9, [ip, #232]!	; 0xe8
   201e0:	bdae25c8 	cfstr32lt	mvfx2, [lr, #800]!	; 0x320
   201e4:	bdafb656 	stclt	6, cr11, [pc, #344]!	; 20344 <fsintable+0x4320>
   201e8:	bdb146e5 	ldclt	6, cr4, [r1, #916]!	; 0x394
   201ec:	bdb2d7f9 	ldclt	7, cr13, [r2, #996]!	; 0x3e4
   201f0:	bdb46888 	ldclt	8, cr6, [r4, #544]!	; 0x220
   201f4:	bdb5f916 	ldclt	9, cr15, [r5, #88]!	; 0x58
   201f8:	bdb7891e 	ldclt	9, cr8, [r7, #120]!	; 0x78
   201fc:	bdb919ac 	ldclt	9, cr1, [r9, #688]!	; 0x2b0
   20200:	bdbaaa3b 	ldclt	10, cr10, [sl, #236]!	; 0xec
   20204:	bdbc3ac9 	ldclt	10, cr3, [ip, #804]!	; 0x324
   20208:	bdbdcb58 	ldclt	11, cr12, [sp, #352]!	; 0x160
   2020c:	bdbf5b60 	ldclt	11, cr5, [pc, #384]!	; 20394 <fsintable+0x4370>
   20210:	bdc0ebee 	vstrlt	d30, [r0, #952]	; 0x3b8
   20214:	bdc27bf6 	vstrlt	d23, [r2, #984]	; 0x3d8
   20218:	bdc40c84 	stcllt	12, cr0, [r4, #528]	; 0x210
   2021c:	bdc59c8d 	stcllt	12, cr9, [r5, #564]	; 0x234
   20220:	bdc72d1b 	stcllt	13, cr2, [r7, #108]	; 0x6c
   20224:	bdc8bd23 	stcllt	13, cr11, [r8, #140]	; 0x8c
   20228:	bdca4d2b 	stcllt	13, cr4, [sl, #172]	; 0xac
   2022c:	bdcbddba 	stcllt	13, cr13, [fp, #744]	; 0x2e8
   20230:	bdcd6dc2 	stcllt	13, cr6, [sp, #776]	; 0x308
   20234:	bdcefdca 	stcllt	13, cr15, [lr, #808]	; 0x328
   20238:	bdd08dd2 	ldcllt	13, cr8, [r0, #840]	; 0x348
   2023c:	bdd21dda 	ldcllt	13, cr1, [r2, #872]	; 0x368
   20240:	bdd3ade2 	ldcllt	13, cr10, [r3, #904]	; 0x388
   20244:	bdd53dea 	ldcllt	13, cr3, [r5, #936]	; 0x3a8
   20248:	bdd6cd6c 	ldcllt	13, cr12, [r6, #432]	; 0x1b0
   2024c:	bdd85d74 	ldcllt	13, cr5, [r8, #464]	; 0x1d0
   20250:	bdd9ed7c 	ldcllt	13, cr14, [r9, #496]	; 0x1f0
   20254:	bddb7cfe 	ldcllt	12, cr7, [fp, #1016]	; 0x3f8
   20258:	bddd0d06 	ldcllt	13, cr0, [sp, #24]
   2025c:	bdde9c88 	ldcllt	12, cr9, [lr, #544]	; 0x220
   20260:	bde02c91 	stcllt	12, cr2, [r0, #580]!	; 0x244
   20264:	bde1bc12 	stcllt	12, cr11, [r1, #72]!	; 0x48
   20268:	bde34b94 	stcllt	11, cr4, [r3, #592]!	; 0x250
   2026c:	bde4db9c 	stcllt	11, cr13, [r4, #624]!	; 0x270
   20270:	bde66b1e 	stcllt	11, cr6, [r6, #120]!	; 0x78
   20274:	bde7faa0 	stcllt	10, cr15, [r7, #640]!	; 0x280
   20278:	bde98a22 	stcllt	10, cr8, [r9, #136]!	; 0x88
   2027c:	bdeb19a4 	stcllt	9, cr1, [fp, #656]!	; 0x290
   20280:	bdeca926 	stcllt	9, cr10, [ip, #152]!	; 0x98
   20284:	bdee38a8 	stcllt	8, cr3, [lr, #672]!	; 0x2a0
   20288:	bdefc7a4 	stcllt	7, cr12, [pc, #656]!	; 20520 <fsintable+0x44fc>
   2028c:	bdf15726 	ldcllt	7, cr5, [r1, #152]!	; 0x98
   20290:	bdf2e6a7 	ldcllt	6, cr14, [r2, #668]!	; 0x29c
   20294:	bdf475a3 	cfldr64lt	mvdx7, [r4, #652]!	; 0x28c
   20298:	bdf60525 	cfldr64lt	mvdx0, [r6, #148]!	; 0x94
   2029c:	bdf79421 	cfldrdlt	mvd9, [r7, #132]!	; 0x84
   202a0:	bdf9231c 	ldcllt	3, cr2, [r9, #112]!	; 0x70
   202a4:	bdfab29e 	lfmlt	f3, 3, [sl, #632]!	; 0x278
   202a8:	bdfc419a 	ldflte	f4, [ip, #616]!	; 0x268
   202ac:	bdfdd096 	ldcllt	0, cr13, [sp, #600]!	; 0x258
   202b0:	bdff5f91 	ldcllt	15, cr5, [pc, #580]!	; 204fc <fsintable+0x44d8>
   202b4:	be007747 	cdplt	7, 0, cr7, cr0, cr7, {2}
   202b8:	be013ec4 	cdplt	14, 0, cr3, cr1, cr4, {6}
   202bc:	be020642 	cfmadd32lt	mvax2, mvfx0, mvfx2, mvfx2
   202c0:	be02cd7d 	mcrlt	13, 0, ip, cr2, cr13, {3}
   202c4:	be0394fb 	mcrlt	4, 0, r9, cr3, cr11, {7}
   202c8:	be045c79 	mcrlt	12, 0, r5, cr4, cr9, {3}
   202cc:	be0523b3 	mcrlt	3, 0, r2, cr5, cr3, {5}
   202d0:	be05eb31 	vmovlt.16	d5[0], lr
   202d4:	be06b26c 	cdplt	2, 0, cr11, cr6, cr12, {3}
   202d8:	be0779a7 	cdplt	9, 0, cr7, cr7, cr7, {5}
   202dc:	be084125 	adfltep	f4, f0, f5
   202e0:	be09085f 	mcrlt	8, 0, r0, cr9, cr15, {2}
   202e4:	be09cf9a 	mcrlt	15, 0, ip, cr9, cr10, {4}
   202e8:	be0a96d5 	mcrlt	6, 0, r9, cr10, cr5, {6}
   202ec:	be0b5e0f 	cdplt	14, 0, cr5, cr11, cr15, {0}
   202f0:	be0c2507 	cfsh32lt	mvfx2, mvfx12, #7
   202f4:	be0cec42 	cdplt	12, 0, cr14, cr12, cr2, {2}
   202f8:	be0db37d 	mcrlt	3, 0, fp, cr13, cr13, {3}
   202fc:	be0e7a74 	mcrlt	10, 0, r7, cr14, cr4, {3}
   20300:	be0f41af 	adflt<illegal precision>p	f4, f7, #10.0
   20304:	be1008a7 	cdplt	8, 1, cr0, cr0, cr7, {5}
   20308:	be10cfe1 	cdplt	15, 1, cr12, cr0, cr1, {7}
   2030c:	be1196d9 	mrclt	6, 0, r9, cr1, cr9, {6}
   20310:	be125dd1 	mrclt	13, 0, r5, cr2, cr1, {6}
   20314:	be1324c8 	cdplt	4, 1, cr2, cr3, cr8, {6}
   20318:	be13ebc0 	vnmlalt.f64	d14, d19, d0
   2031c:	be14b2b7 	mrclt	2, 0, fp, cr4, cr7, {5}
   20320:	be1579af 	cdplt	9, 1, cr7, cr5, cr15, {5}
   20324:	be164064 	cdplt	0, 1, cr4, cr6, cr4, {3}
   20328:	be17075b 	mrclt	7, 0, r0, cr7, cr11, {2}
   2032c:	be17ce53 	mrclt	14, 0, ip, cr7, cr3, {2}
   20330:	be189507 	cfmul32lt	mvfx9, mvfx8, mvfx7
   20334:	be195bff 	vmovlt.s16	r5, d25[1]
   20338:	be1a22b4 	mrclt	2, 0, r2, cr10, cr4, {5}
   2033c:	be1ae968 	cdplt	9, 1, cr14, cr10, cr8, {3}
   20340:	be1bb01d 	mrclt	0, 0, fp, cr11, cr13, {0}
   20344:	be1c76d1 	mrclt	6, 0, r7, cr12, cr1, {6}
   20348:	be1d3d86 	cdplt	13, 1, cr3, cr13, cr6, {4}
   2034c:	be1e043a 	mrclt	4, 0, r0, cr14, cr10, {1}
   20350:	be1ecaef 	vnmlalt.f32	s24, s29, s31
   20354:	be1f9160 	mnfltez	f1, f0
   20358:	be205815 	mcrlt	8, 1, r5, cr0, cr5, {0}
   2035c:	be211e86 	cdplt	14, 2, cr1, cr1, cr6, {4}
   20360:	be21e53b 	mcrlt	5, 1, lr, cr1, cr11, {1}
   20364:	be22abac 	vmullt.f64	d10, d18, d28
   20368:	be23721d 	mcrlt	2, 1, r7, cr3, cr13, {0}
   2036c:	be24388f 	cdplt	8, 2, cr3, cr4, cr15, {4}
   20370:	be24ff00 	cdplt	15, 2, cr15, cr4, cr0, {0}
   20374:	be25c572 	mcrlt	5, 1, ip, cr5, cr2, {3}
   20378:	be268be3 	vnmullt.f64	d8, d22, d19
   2037c:	be275254 	mcrlt	2, 1, r5, cr7, cr4, {2}
   20380:	be2818c6 	cdplt	8, 2, cr1, cr8, cr6, {6}
   20384:	be28def4 	mcrlt	14, 1, sp, cr8, cr4, {7}
   20388:	be29a565 	cfsh64lt	mvdx10, mvdx9, #53
   2038c:	be2a6b94 	vmovlt.32	d26[1], r6
   20390:	be2b31c2 	suflt<illegal precision>m	f3, f3, f2
   20394:	be2bf7f0 	mcrlt	7, 1, pc, cr11, cr0, {7}	; <UNPREDICTABLE>
   20398:	be2cbe1f 	mcrlt	14, 1, fp, cr12, cr15, {0}
   2039c:	be2d844d 	cdplt	4, 2, cr8, cr13, cr13, {2}
   203a0:	be2e4a7b 	mcrlt	10, 1, r4, cr14, cr11, {3}
   203a4:	be2f10aa 	cdplt	0, 2, cr1, cr15, cr10, {5}
   203a8:	be2fd6d8 	mcrlt	6, 1, sp, cr15, cr8, {6}
   203ac:	be309cc3 	cdplt	12, 3, cr9, cr0, cr3, {6}
   203b0:	be3162f1 	mrclt	2, 1, r6, cr1, cr1, {7}
   203b4:	be3228dd 	mrclt	8, 1, r2, cr2, cr13, {6}
   203b8:	be32eec8 	cdplt	14, 3, cr14, cr2, cr8, {6}
   203bc:	be33b4b3 	mrclt	4, 1, fp, cr3, cr3, {5}
   203c0:	be347a9e 	mrclt	10, 1, r7, cr4, cr14, {4}
   203c4:	be354089 	cdplt	0, 3, cr4, cr5, cr9, {4}
   203c8:	be360675 	mrclt	6, 1, r0, cr6, cr5, {3}
   203cc:	be36cc60 	cdplt	12, 3, cr12, cr6, cr0, {3}
   203d0:	be379208 	cdplt	2, 3, cr9, cr7, cr8, {0}
   203d4:	be3857f3 	mrclt	7, 1, r5, cr8, cr3, {7}
   203d8:	be391d9b 	mrclt	13, 1, r1, cr9, cr11, {4}
   203dc:	be39e386 	cdplt	3, 3, cr14, cr9, cr6, {4}
   203e0:	be3aa92e 	cdplt	9, 3, cr10, cr10, cr14, {1}
   203e4:	be3b6ed6 	mrclt	14, 1, r6, cr11, cr6, {6}
   203e8:	be3c347f 	mrclt	4, 1, r3, cr12, cr15, {3}
   203ec:	be3cfa27 	vaddlt.f32	s30, s24, s15
   203f0:	be3dbf8c 	cdplt	15, 3, cr11, cr13, cr12, {4}
   203f4:	be3e8534 	mrclt	5, 1, r8, cr14, cr4, {1}
   203f8:	be3f4adc 	mrclt	10, 1, r4, cr15, cr12, {6}
   203fc:	be401041 	cdplt	0, 4, cr1, cr0, cr1, {2}
   20400:	be40d5a6 	cdplt	5, 4, cr13, cr0, cr6, {5}
   20404:	be419b4e 	vmlslt.f64	d25, d1, d14
   20408:	be4260b3 	mcrlt	0, 2, r6, cr2, cr3, {5}
   2040c:	be432618 	mcrlt	6, 2, r2, cr3, cr8, {0}
   20410:	be43eb7d 	vmovlt.8	d3[3], lr
   20414:	be44b09f 	mcrlt	0, 2, fp, cr4, cr15, {4}
   20418:	be457604 	cdplt	6, 4, cr7, cr5, cr4, {0}
   2041c:	be463b69 	vmlslt.f64	d19, d6, d25
   20420:	be47008a 	cdplt	0, 4, cr0, cr7, cr10, {4}
   20424:	be47c5ac 	cdplt	5, 4, cr12, cr7, cr12, {5}
   20428:	be488b11 	vmovlt.8	d8[0], r8
   2042c:	be495033 	mcrlt	0, 2, r5, cr9, cr3, {1}
   20430:	be4a1555 	mcrlt	5, 2, r1, cr10, cr5, {2}
   20434:	be4ada34 	mcrlt	10, 2, sp, cr10, cr4, {1}
   20438:	be4b9f56 	mcrlt	15, 2, r9, cr11, cr6, {2}
   2043c:	be4c6477 	mcrlt	4, 2, r6, cr12, cr7, {3}
   20440:	be4d2956 	mcrlt	9, 2, r2, cr13, cr6, {2}
   20444:	be4dee78 	mcrlt	14, 2, lr, cr13, cr8, {3}
   20448:	be4eb357 	mcrlt	3, 2, fp, cr14, cr7, {2}
   2044c:	be4f7836 	mcrlt	8, 2, r7, cr15, cr6, {1}
   20450:	be503d14 	mrclt	13, 2, r3, cr0, cr4, {0}
   20454:	be5101f3 	mrclt	1, 2, r0, cr1, cr3, {7}
   20458:	be51c6d2 	mrclt	6, 2, ip, cr1, cr2, {6}
   2045c:	be528b6e 	vnmlalt.f64	d24, d2, d30
   20460:	be53504c 	cdplt	0, 5, cr5, cr3, cr12, {2}
   20464:	be5414e8 	cdplt	4, 5, cr1, cr4, cr8, {7}
   20468:	be54d9c7 	cdplt	9, 5, cr13, cr4, cr7, {6}
   2046c:	be559e62 	cdplt	14, 5, cr9, cr5, cr2, {3}
   20470:	be5662fe 	mrclt	2, 2, r6, cr6, cr14, {7}
   20474:	be57279a 	mrclt	7, 2, r2, cr7, cr10, {4}
   20478:	be57ec35 	mrclt	12, 2, lr, cr7, cr5, {1}
   2047c:	be58b08e 	cdplt	0, 5, cr11, cr8, cr14, {4}
   20480:	be597529 	cdplt	5, 5, cr7, cr9, cr9, {1}
   20484:	be5a3982 	cdplt	9, 5, cr3, cr10, cr2, {4}
   20488:	be5afe1e 	mrclt	14, 2, APSR_nzcv, cr10, cr14, {0}
   2048c:	be5bc276 	mrclt	2, 2, ip, cr11, cr6, {3}
   20490:	be5c86cf 	cdplt	6, 5, cr8, cr12, cr15, {6}
   20494:	be5d4b27 	vnmlslt.f64	d20, d13, d23
   20498:	be5e0f80 	cdplt	15, 5, cr0, cr14, cr0, {4}
   2049c:	be5ed395 	mrclt	3, 2, sp, cr14, cr5, {4}
   204a0:	be5f97ee 	cdplt	7, 5, cr9, cr15, cr14, {7}
   204a4:	be605c03 	cdplt	12, 6, cr5, cr0, cr3, {0}
   204a8:	be61205c 	mcrlt	0, 3, r2, cr1, cr12, {2}
   204ac:	be61e471 	mcrlt	4, 3, lr, cr1, cr1, {3}
   204b0:	be62a887 	cdplt	8, 6, cr10, cr2, cr7, {4}
   204b4:	be636c9c 	mcrlt	12, 3, r6, cr3, cr12, {4}
   204b8:	be64306e 	cdplt	0, 6, cr3, cr4, cr14, {3}
   204bc:	be64f484 	cdplt	4, 6, cr15, cr4, cr4, {4}
   204c0:	be65b899 	mcrlt	8, 3, fp, cr5, cr9, {4}
   204c4:	be667c6c 	cdplt	12, 6, cr7, cr6, cr12, {3}
   204c8:	be67403e 	mcrlt	0, 3, r4, cr7, cr14, {1}
   204cc:	be680410 	mcrlt	4, 3, r0, cr8, cr0, {0}
   204d0:	be68c7e3 	cdplt	7, 6, cr12, cr8, cr3, {7}
   204d4:	be698bb5 	vmovlt.8	d25[5], r8
   204d8:	be6a4f87 	cdplt	15, 6, cr4, cr10, cr7, {4}
   204dc:	be6b1316 	mcrlt	3, 3, r1, cr11, cr6, {0}
   204e0:	be6bd6e9 	cdplt	6, 6, cr13, cr11, cr9, {7}
   204e4:	be6c9a78 	mcrlt	10, 3, r9, cr12, cr8, {3}
   204e8:	be6d5e07 	cdplt	14, 6, cr5, cr13, cr7, {0}
   204ec:	be6e2196 	mcrlt	1, 3, r2, cr14, cr6, {4}
   204f0:	be6ee526 	cdplt	5, 6, cr14, cr14, cr6, {1}
   204f4:	be6fa8b5 	mcrlt	8, 3, sl, cr15, cr5, {5}
   204f8:	be706c44 	cdplt	12, 7, cr6, cr0, cr4, {2}
   204fc:	be712f90 	mrclt	15, 3, r2, cr1, cr0, {4}
   20500:	be71f2dc 	mrclt	2, 3, APSR_nzcv, cr1, cr12, {6}
   20504:	be72b66b 	cdplt	6, 7, cr11, cr2, cr11, {3}
   20508:	be7379b7 	mrclt	9, 3, r7, cr3, cr7, {5}
   2050c:	be743d04 	cdplt	13, 7, cr3, cr4, cr4, {0}
   20510:	be75000d 	cdplt	0, 7, cr0, cr5, cr13, {0}
   20514:	be75c359 	mrclt	3, 3, ip, cr5, cr9, {2}
   20518:	be7686a5 	cdplt	6, 7, cr8, cr6, cr5, {5}
   2051c:	be7749ae 	cdplt	9, 7, cr4, cr7, cr14, {5}
   20520:	be780cb7 	mrclt	12, 3, r0, cr8, cr7, {5}
   20524:	be78cfc0 	cdplt	15, 7, cr12, cr8, cr0, {6}
   20528:	be7992c9 	cdplt	2, 7, cr9, cr9, cr9, {6}
   2052c:	be7a55d2 	mrclt	5, 3, r5, cr10, cr2, {6}
   20530:	be7b18db 	mrclt	8, 3, r1, cr11, cr11, {6}
   20534:	be7bdba1 	vaddlt.f64	d29, d27, d17
   20538:	be7c9e67 	cdplt	14, 7, cr9, cr12, cr7, {3}
   2053c:	be7d6170 	mrclt	1, 3, r6, cr13, cr0, {3}
   20540:	be7e2435 	mrclt	4, 3, r2, cr14, cr5, {1}
   20544:	be7ee6fb 	mrclt	6, 3, lr, cr14, cr11, {7}
   20548:	be7fa97e 	mrclt	9, 3, sl, cr15, cr14, {3}
   2054c:	be803622 	cdplt	6, 8, cr3, cr0, cr2, {1}
   20550:	be809763 	cdplt	7, 8, cr9, cr0, cr3, {3}
   20554:	be80f8c6 	cdplt	8, 8, cr15, cr0, cr6, {6}
   20558:	be815a08 	vdivlt.f32	s10, s2, s16
   2055c:	be81bb49 	cdplt	11, 8, cr11, cr1, cr9, {2}
   20560:	be821c8a 	cdplt	12, 8, cr1, cr2, cr10, {4}
   20564:	be827dcc 	cdplt	13, 8, cr7, cr2, cr12, {6}
   20568:	be82deec 	cdplt	14, 8, cr13, cr2, cr12, {7}
   2056c:	be83402d 	cdplt	0, 8, cr4, cr3, cr13, {1}
   20570:	be83a14d 	sinltsm	f2, #5.0
   20574:	be84026d 	cdplt	2, 8, cr0, cr4, cr13, {3}
   20578:	be84638d 	cdplt	3, 8, cr6, cr4, cr13, {4}
   2057c:	be84c4ac 	cdplt	4, 8, cr12, cr4, cr12, {5}
   20580:	be8525cc 	cdplt	5, 8, cr2, cr5, cr12, {6}
   20584:	be8586cb 	cdplt	6, 8, cr8, cr5, cr11, {6}
   20588:	be85e7c9 	cdplt	7, 8, cr14, cr5, cr9, {6}
   2058c:	be8648e9 	cdplt	8, 8, cr4, cr6, cr9, {7}
   20590:	be86a9e7 	cdplt	9, 8, cr10, cr6, cr7, {7}
   20594:	be870ae5 	cdplt	10, 8, cr0, cr7, cr5, {7}
   20598:	be876bc2 	cdplt	11, 8, cr6, cr7, cr2, {6}
   2059c:	be87ccc0 	cdplt	12, 8, cr12, cr7, cr0, {6}
   205a0:	be882d9d 	mcrlt	13, 4, r2, cr8, cr13, {4}
   205a4:	be888e9b 	mcrlt	14, 4, r8, cr8, cr11, {4}
   205a8:	be88ef78 	mcrlt	15, 4, lr, cr8, cr8, {3}
   205ac:	be895055 	mcrlt	0, 4, r5, cr9, cr5, {2}
   205b0:	be89b131 	mcrlt	1, 4, fp, cr9, cr1, {1}
   205b4:	be8a11ed 	rmflt<illegal precision>z	f1, f2, #5.0
   205b8:	be8a72c9 	cdplt	2, 8, cr7, cr10, cr9, {6}
   205bc:	be8ad384 	cdplt	3, 8, cr13, cr10, cr4, {4}
   205c0:	be8b3440 	cdplt	4, 8, cr3, cr11, cr0, {2}
   205c4:	be8b94fb 	mcrlt	4, 4, r9, cr11, cr11, {7}
   205c8:	be8bf5b6 	mcrlt	5, 4, pc, cr11, cr6, {5}	; <UNPREDICTABLE>
   205cc:	be8c5671 	mcrlt	6, 4, r5, cr12, cr1, {3}
   205d0:	be8cb70b 	cdplt	7, 8, cr11, cr12, cr11, {0}
   205d4:	be8d17c6 	cdplt	7, 8, cr1, cr13, cr6, {6}
   205d8:	be8d7860 	cdplt	8, 8, cr7, cr13, cr0, {3}
   205dc:	be8dd8f9 	mcrlt	8, 4, sp, cr13, cr9, {7}
   205e0:	be8e3993 	mcrlt	9, 4, r3, cr14, cr3, {4}
   205e4:	be8e9a2c 	vdivlt.f32	s18, s28, s25
   205e8:	be8efaa4 	vdivlt.f32	s30, s29, s9
   205ec:	be8f5b3e 	vduplt.16	d15, r5
   205f0:	be8fbbb6 	vduplt.16	d31, fp
   205f4:	be901c2e 	cdplt	12, 9, cr1, cr0, cr14, {1}
   205f8:	be907ca6 	cdplt	12, 9, cr7, cr0, cr6, {5}
   205fc:	be90dd1e 	mrclt	13, 4, sp, cr0, cr14, {0}
   20600:	be913d75 	mrclt	13, 4, r3, cr1, cr5, {3}
   20604:	be919ded 	cdplt	13, 9, cr9, cr1, cr13, {7}
   20608:	be91fe43 	cdplt	14, 9, cr15, cr1, cr3, {2}
   2060c:	be925e9a 	mrclt	14, 4, r5, cr2, cr10, {4}
   20610:	be92bef0 	mrclt	14, 4, fp, cr2, cr0, {7}
   20614:	be931f25 	cdplt	15, 9, cr1, cr3, cr5, {1}
   20618:	be937f7c 	mrclt	15, 4, r7, cr3, cr12, {3}
   2061c:	be93dfb1 	mrclt	15, 4, sp, cr3, cr1, {5}
   20620:	be944007 	cdplt	0, 9, cr4, cr4, cr7, {0}
   20624:	be94a03c 	mrclt	0, 4, sl, cr4, cr12, {1}
   20628:	be950071 	mrclt	0, 4, r0, cr5, cr1, {3}
   2062c:	be956085 	cdplt	0, 9, cr6, cr5, cr5, {4}
   20630:	be95c0ba 	mrclt	0, 4, ip, cr5, cr10, {5}
   20634:	be9620cd 	cdplt	0, 9, cr2, cr6, cr13, {6}
   20638:	be9680e0 	cdplt	0, 9, cr8, cr6, cr0, {7}
   2063c:	be96e0f4 	mrclt	0, 4, lr, cr6, cr4, {7}
   20640:	be974107 	fmllts	f4, f7, f7
   20644:	be97a11b 	mrclt	1, 4, sl, cr7, cr11, {0}
   20648:	be98010c 	fmllte	f0, f0, #4.0
   2064c:	be986120 	fmlltep	f6, f0, f0
   20650:	be98c112 	mrclt	1, 4, ip, cr8, cr2, {0}
   20654:	be992104 	fmllte	f2, f1, f4
   20658:	be9980f5 	mrclt	0, 4, r8, cr9, cr5, {7}
   2065c:	be99e0c6 	cdplt	0, 9, cr14, cr9, cr6, {6}
   20660:	be9a40b8 	mrclt	0, 4, r4, cr10, cr8, {5}
   20664:	be9aa088 	cdplt	0, 9, cr10, cr10, cr8, {4}
   20668:	be9b0058 	mrclt	0, 4, r0, cr11, cr8, {2}
   2066c:	be9b6028 	cdplt	0, 9, cr6, cr11, cr8, {1}
   20670:	be9bbff9 	mrclt	15, 4, fp, cr11, cr9, {7}
   20674:	be9c1fa7 	cdplt	15, 9, cr1, cr12, cr7, {5}
   20678:	be9c7f78 	mrclt	15, 4, r7, cr12, cr8, {3}
   2067c:	be9cdf26 	cdplt	15, 9, cr13, cr12, cr6, {1}
   20680:	be9d3ed5 	mrclt	14, 4, r3, cr13, cr5, {6}
   20684:	be9d9e84 	cdplt	14, 9, cr9, cr13, cr4, {4}
   20688:	be9dfe11 	mrclt	14, 4, APSR_nzcv, cr13, cr1, {0}
   2068c:	be9e5dc0 	cdplt	13, 9, cr5, cr14, cr0, {6}
   20690:	be9ebd4d 	cdplt	13, 9, cr11, cr14, cr13, {2}
   20694:	be9f1cda 	mrclt	12, 4, r1, cr15, cr10, {6}
   20698:	be9f7c67 	cdplt	12, 9, cr7, cr15, cr7, {3}
   2069c:	be9fdbf5 	vmovlt.u16	sp, d31[1]
   206a0:	bea03b60 	vfmslt.f64	d3, d0, d16
   206a4:	bea09aed 	vfmslt.f32	s18, s1, s27
   206a8:	bea0fa59 	mcrlt	10, 5, pc, cr0, cr9, {2}	; <UNPREDICTABLE>
   206ac:	bea159c5 	cdplt	9, 10, cr5, cr1, cr5, {6}
   206b0:	bea1b930 	mcrlt	9, 5, fp, cr1, cr0, {1}
   206b4:	bea2187a 	mcrlt	8, 5, r1, cr2, cr10, {3}
   206b8:	bea277e6 	cdplt	7, 10, cr7, cr2, cr6, {7}
   206bc:	bea2d730 	mcrlt	7, 5, sp, cr2, cr0, {1}
   206c0:	bea3367a 	mcrlt	6, 5, r3, cr3, cr10, {3}
   206c4:	bea395c4 	cdplt	5, 10, cr9, cr3, cr4, {6}
   206c8:	bea3f50e 	cdplt	5, 10, cr15, cr3, cr14, {0}
   206cc:	bea45437 	mcrlt	4, 5, r5, cr4, cr7, {1}
   206d0:	bea4b381 	cdplt	3, 10, cr11, cr4, cr1, {4}
   206d4:	bea512a9 	cdplt	2, 10, cr1, cr5, cr9, {5}
   206d8:	bea571d2 	mcrlt	1, 5, r7, cr5, cr2, {6}
   206dc:	bea5d0d9 	mcrlt	0, 5, sp, cr5, cr9, {6}
   206e0:	bea63001 	cdplt	0, 10, cr3, cr6, cr1, {0}
   206e4:	bea68f08 	cdplt	15, 10, cr8, cr6, cr8, {0}
   206e8:	bea6ee0f 	cdplt	14, 10, cr14, cr6, cr15, {0}
   206ec:	bea74d16 	mcrlt	13, 5, r4, cr7, cr6, {0}
   206f0:	bea7ac1d 	mcrlt	12, 5, sl, cr7, cr13, {0}
   206f4:	bea80b24 	vfmalt.f64	d0, d8, d20
   206f8:	bea86a0a 	vfmalt.f32	s12, s16, s20
   206fc:	bea8c8ef 	cdplt	8, 10, cr12, cr8, cr15, {7}
   20700:	bea927d4 	mcrlt	7, 5, r2, cr9, cr4, {6}
   20704:	bea986ba 	mcrlt	6, 5, r8, cr9, cr10, {5}
   20708:	bea9e59f 	mcrlt	5, 5, lr, cr9, cr15, {4}
   2070c:	beaa4463 	cdplt	4, 10, cr4, cr10, cr3, {3}
   20710:	beaaa348 	cdplt	3, 10, cr10, cr10, cr8, {2}
   20714:	beab020c 	cdplt	2, 10, cr0, cr11, cr12, {0}
   20718:	beab60af 	cdplt	0, 10, cr6, cr11, cr15, {5}
   2071c:	beabbf72 	mcrlt	15, 5, fp, cr11, cr2, {3}
   20720:	beac1e36 	mcrlt	14, 5, r1, cr12, cr6, {1}
   20724:	beac7cd9 	mcrlt	12, 5, r7, cr12, cr9, {6}
   20728:	beacdb7b 	mcrlt	11, 5, sp, cr12, cr11, {3}
   2072c:	bead3a1d 	mcrlt	10, 5, r3, cr13, cr13, {0}
   20730:	bead989e 	mcrlt	8, 5, r9, cr13, cr14, {4}
   20734:	beadf740 	cdplt	7, 10, cr15, cr13, cr0, {2}
   20738:	beae55c1 	cdplt	5, 10, cr5, cr14, cr1, {6}
   2073c:	beaeb442 	cdplt	4, 10, cr11, cr14, cr2, {2}
   20740:	beaf12c2 	cdplt	2, 10, cr1, cr15, cr2, {6}
   20744:	beaf7143 	fdvltem	f7, f7, f3
   20748:	beafcfa2 	cdplt	15, 10, cr12, cr15, cr2, {5}
   2074c:	beb02e02 	cdplt	14, 11, cr2, cr0, cr2, {0}
   20750:	beb08c61 	cdplt	12, 11, cr8, cr0, cr1, {3}
   20754:	beb0eac0 	vabslt.f32	s28, s0
   20758:	beb1491f 	mrclt	9, 5, r4, cr1, cr15, {0}
   2075c:	beb1a75d 	mrclt	7, 5, sl, cr1, cr13, {2}
   20760:	beb205bc 	mrclt	5, 5, r0, cr2, cr12, {5}
   20764:	beb263fa 	mrclt	3, 5, r6, cr2, cr10, {7}
   20768:	beb2c237 	mrclt	2, 5, ip, cr2, cr7, {1}
   2076c:	beb32053 	mrclt	0, 5, r2, cr3, cr3, {2}
   20770:	beb37e91 	mrclt	14, 5, r7, cr3, cr1, {4}
   20774:	beb3dcad 	cdplt	12, 11, cr13, cr3, cr13, {5}
   20778:	beb43ac9 	vcmpelt.f32	s6, s18
   2077c:	beb498e5 	cdplt	8, 11, cr9, cr4, cr5, {7}
   20780:	beb4f6e0 	cdplt	6, 11, cr15, cr4, cr0, {7}
   20784:	beb554fc 	mrclt	4, 5, r5, cr5, cr12, {7}
   20788:	beb5b2f6 	mrclt	2, 5, fp, cr5, cr6, {7}
   2078c:	beb610f1 	mrclt	0, 5, r1, cr6, cr1, {7}
   20790:	beb66eca 	cdplt	14, 11, cr6, cr6, cr10, {6}
   20794:	beb6ccc4 	cdplt	12, 11, cr12, cr6, cr4, {6}
   20798:	beb72a9d 	mrclt	10, 5, r2, cr7, cr13, {4}
   2079c:	beb78876 	mrclt	8, 5, r8, cr7, cr6, {3}
   207a0:	beb7e64f 	cdplt	6, 11, cr14, cr7, cr15, {2}
   207a4:	beb84428 	cdplt	4, 11, cr4, cr8, cr8, {1}
   207a8:	beb8a201 	cdplt	2, 11, cr10, cr8, cr1, {0}
   207ac:	beb8ffb9 	mrclt	15, 5, APSR_nzcv, cr8, cr9, {5}
   207b0:	beb95d70 	mrclt	13, 5, r5, cr9, cr0, {3}
   207b4:	beb9bb28 	cdplt	11, 11, cr11, cr9, cr8, {1}
   207b8:	beba18bd 	mrclt	8, 5, r1, cr10, cr13, {5}
   207bc:	beba7675 	mrclt	6, 5, r7, cr10, cr5, {3}
   207c0:	bebad40b 	cdplt	4, 11, cr13, cr10, cr11, {0}
   207c4:	bebb31a1 	frdlt<illegal precision>p	f3, f3, f1
   207c8:	bebb8f36 	mrclt	15, 5, r8, cr11, cr6, {1}
   207cc:	bebbecab 	cdplt	12, 11, cr14, cr11, cr11, {5}
   207d0:	bebc4a41 	vcvtrlt.u32.f32	s8, s2
   207d4:	bebca7b5 	mrclt	7, 5, sl, cr12, cr5, {5}
   207d8:	bebd0529 	cdplt	5, 11, cr0, cr13, cr9, {1}
   207dc:	bebd627c 	mrclt	2, 5, r6, cr13, cr12, {3}
   207e0:	bebdbff0 	mrclt	15, 5, fp, cr13, cr0, {7}
   207e4:	bebe1d43 	cdplt	13, 11, cr1, cr14, cr3, {2}
   207e8:	bebe7a96 	mrclt	10, 5, r7, cr14, cr6, {4}
   207ec:	bebed7e9 	cdplt	7, 11, cr13, cr14, cr9, {7}
   207f0:	bebf353b 	mrclt	5, 5, r3, cr15, cr11, {1}
   207f4:	bebf926c 	cdplt	2, 11, cr9, cr15, cr12, {3}
   207f8:	bebfef9e 	mrclt	15, 5, lr, cr15, cr14, {4}
   207fc:	bec04ccf 	cdplt	12, 12, cr4, cr0, cr15, {6}
   20800:	bec0aa00 	vdivlt.f32	s21, s0, s0
   20804:	bec10710 	mcrlt	7, 6, r0, cr1, cr0, {0}
   20808:	bec16441 	cdplt	4, 12, cr6, cr1, cr1, {2}
   2080c:	bec1c151 	mcrlt	1, 6, ip, cr1, cr1, {2}
   20810:	bec21e60 	cdplt	14, 12, cr1, cr2, cr0, {3}
   20814:	bec27b4e 	cdplt	11, 12, cr7, cr2, cr14, {2}
   20818:	bec2d85e 	mcrlt	8, 6, sp, cr2, cr14, {2}
   2081c:	bec3354c 	cdplt	5, 12, cr3, cr3, cr12, {2}
   20820:	bec3923a 	mcrlt	2, 6, r9, cr3, cr10, {1}
   20824:	bec3ef07 	cdplt	15, 12, cr14, cr3, cr7, {0}
   20828:	bec44bf5 	mcrlt	11, 6, r4, cr4, cr5, {7}
   2082c:	bec4a8c1 	cdplt	8, 12, cr10, cr4, cr1, {6}
   20830:	bec5058e 	cdplt	5, 12, cr0, cr5, cr14, {4}
   20834:	bec5625a 	mcrlt	2, 6, r6, cr5, cr10, {2}
   20838:	bec5bf27 	cdplt	15, 12, cr11, cr5, cr7, {1}
   2083c:	bec61bd2 	mcrlt	11, 6, r1, cr6, cr2, {6}
   20840:	bec6787d 	mcrlt	8, 6, r7, cr6, cr13, {3}
   20844:	bec6d528 	cdplt	5, 12, cr13, cr6, cr8, {1}
   20848:	bec731d3 	mcrlt	1, 6, r3, cr7, cr3, {6}
   2084c:	bec78e5c 	mcrlt	14, 6, r8, cr7, cr12, {2}
   20850:	bec7eae6 	cdplt	10, 12, cr14, cr7, cr6, {7}
   20854:	bec8476f 	cdplt	7, 12, cr4, cr8, cr15, {3}
   20858:	bec8a3f9 	mcrlt	3, 6, sl, cr8, cr9, {7}
   2085c:	bec90082 	cdplt	0, 12, cr0, cr9, cr2, {4}
   20860:	bec95cea 	cdplt	12, 12, cr5, cr9, cr10, {7}
   20864:	bec9b952 	mcrlt	9, 6, fp, cr9, cr2, {2}
   20868:	beca15ba 	mcrlt	5, 6, r1, cr10, cr10, {5}
   2086c:	beca7200 	cdplt	2, 12, cr7, cr10, cr0, {0}
   20870:	becace68 	cdplt	14, 12, cr12, cr10, cr8, {3}
   20874:	becb2aae 	vdivlt.f32	s5, s23, s29
   20878:	becb86f4 	mcrlt	6, 6, r8, cr11, cr4, {7}
   2087c:	becbe33b 	mcrlt	3, 6, lr, cr11, cr11, {1}
   20880:	becc3f60 	cdplt	15, 12, cr3, cr12, cr0, {3}
   20884:	becc9b84 	vdivlt.f64	d25, d28, d4
   20888:	beccf7a9 	cdplt	7, 12, cr15, cr12, cr9, {5}
   2088c:	becd53ce 	cdplt	3, 12, cr5, cr13, cr14, {6}
   20890:	becdafd1 	mcrlt	15, 6, sl, cr13, cr1, {6}
   20894:	bece0bf6 	mcrlt	11, 6, r0, cr14, cr6, {7}
   20898:	bece67f9 	mcrlt	7, 6, r6, cr14, cr9, {7}
   2089c:	becec3db 	mcrlt	3, 6, ip, cr14, cr11, {6}
   208a0:	becf1fde 	mcrlt	15, 6, r1, cr15, cr14, {6}
   208a4:	becf7bc0 	cdplt	11, 12, cr7, cr15, cr0, {6}
   208a8:	becfd7a1 	cdplt	7, 12, cr13, cr15, cr1, {5}
   208ac:	bed03383 	cdplt	3, 13, cr3, cr0, cr3, {4}
   208b0:	bed08f65 	cdplt	15, 13, cr8, cr0, cr5, {3}
   208b4:	bed0eb25 	vfnmslt.f64	d30, d0, d21
   208b8:	bed146e5 	cdplt	6, 13, cr4, cr1, cr5, {7}
   208bc:	bed1a2a5 	cdplt	2, 13, cr10, cr1, cr5, {5}
   208c0:	bed1fe65 	cdplt	14, 13, cr15, cr1, cr5, {3}
   208c4:	bed25a04 	vfnmslt.f32	s11, s4, s8
   208c8:	bed2b5a2 	cdplt	5, 13, cr11, cr2, cr2, {5}
   208cc:	bed31141 	cdplt	1, 13, cr1, cr3, cr1, {2}
   208d0:	bed36cdf 	mrclt	12, 6, r6, cr3, cr15, {6}
   208d4:	bed3c85c 	mrclt	8, 6, ip, cr3, cr12, {2}
   208d8:	bed423d9 	mrclt	3, 6, r2, cr4, cr9, {6}
   208dc:	bed47f56 	mrclt	15, 6, r7, cr4, cr6, {2}
   208e0:	bed4dad3 	mrclt	10, 6, sp, cr4, cr3, {6}
   208e4:	bed53650 	mrclt	6, 6, r3, cr5, cr0, {2}
   208e8:	bed591ac 	atnltdp	f1, #4.0
   208ec:	bed5ed07 	cdplt	13, 13, cr14, cr5, cr7, {0}
   208f0:	bed64841 	cdplt	8, 13, cr4, cr6, cr1, {2}
   208f4:	bed6a39c 	mrclt	3, 6, sl, cr6, cr12, {4}
   208f8:	bed6fed6 	mrclt	14, 6, APSR_nzcv, cr6, cr6, {6}
   208fc:	bed75a10 	mrclt	10, 6, r5, cr7, cr0, {0}
   20900:	bed7b54a 	cdplt	5, 13, cr11, cr7, cr10, {2}
   20904:	bed81062 	cdplt	0, 13, cr1, cr8, cr2, {3}
   20908:	bed86b7b 	vmovlt.u8	r6, d8[3]
   2090c:	bed8c693 	mrclt	6, 6, ip, cr8, cr3, {4}
   20910:	bed921ab 	cdplt	1, 13, cr2, cr9, cr11, {5}
   20914:	bed97cc4 	cdplt	12, 13, cr7, cr9, cr4, {6}
   20918:	bed9d7ba 	mrclt	7, 6, sp, cr9, cr10, {5}
   2091c:	beda32b1 	mrclt	2, 6, r3, cr10, cr1, {5}
   20920:	beda8da8 	cdplt	13, 13, cr8, cr10, cr8, {5}
   20924:	bedae87d 	mrclt	8, 6, lr, cr10, cr13, {3}
   20928:	bedb4352 	mrclt	3, 6, r4, cr11, cr2, {2}
   2092c:	bedb9e28 	cdplt	14, 13, cr9, cr11, cr8, {1}
   20930:	bedbf8fd 	mrclt	8, 6, APSR_nzcv, cr11, cr13, {7}
   20934:	bedc53b1 	mrclt	3, 6, r5, cr12, cr1, {5}
   20938:	bedcae86 	cdplt	14, 13, cr10, cr12, cr6, {4}
   2093c:	bedd0939 	mrclt	9, 6, r0, cr13, cr9, {1}
   20940:	bedd63cc 	cdplt	3, 13, cr6, cr13, cr12, {6}
   20944:	beddbe7f 	mrclt	14, 6, fp, cr13, cr15, {3}
   20948:	bede1911 	mrclt	9, 6, r1, cr14, cr1, {0}
   2094c:	bede73a3 	cdplt	3, 13, cr7, cr14, cr3, {5}
   20950:	bedece36 	mrclt	14, 6, ip, cr14, cr6, {1}
   20954:	bedf28a6 	cdplt	8, 13, cr2, cr15, cr6, {5}
   20958:	bedf8317 	mrclt	3, 6, r8, cr15, cr7, {0}
   2095c:	bedfdd87 	cdplt	13, 13, cr13, cr15, cr7, {4}
   20960:	bee037f8 	mcrlt	7, 7, r3, cr0, cr8, {7}
   20964:	bee09247 	cdplt	2, 14, cr9, cr0, cr7, {2}
   20968:	bee0ec96 	mcrlt	12, 7, lr, cr0, cr6, {4}
   2096c:	bee146e5 	cdplt	6, 14, cr4, cr1, cr5, {7}
   20970:	bee1a134 	mcrlt	1, 7, sl, cr1, cr4, {1}
   20974:	bee1fb61 	vfmslt.f64	d31, d1, d17
   20978:	bee2558f 	cdplt	5, 14, cr5, cr2, cr15, {4}
   2097c:	bee2afbc 	mcrlt	15, 7, sl, cr2, cr12, {5}
   20980:	bee309ea 	cdplt	9, 14, cr0, cr3, cr10, {7}
   20984:	bee363f5 	mcrlt	3, 7, r6, cr3, cr5, {7}
   20988:	bee3be01 	cdplt	14, 14, cr11, cr3, cr1, {0}
   2098c:	bee4180d 	cdplt	8, 14, cr1, cr4, cr13, {0}
   20990:	bee47219 	mcrlt	2, 7, r7, cr4, cr9, {0}
   20994:	bee4cc03 	cdplt	12, 14, cr12, cr4, cr3, {0}
   20998:	bee525ee 	cdplt	5, 14, cr2, cr5, cr14, {7}
   2099c:	bee57fd8 	mcrlt	15, 7, r7, cr5, cr8, {6}
   209a0:	bee5d9a1 	cdplt	9, 14, cr13, cr5, cr1, {5}
   209a4:	bee6336a 	cdplt	3, 14, cr3, cr6, cr10, {3}
   209a8:	bee68d33 	mcrlt	13, 7, r8, cr6, cr3, {1}
   209ac:	bee6e6fb 	mcrlt	6, 7, lr, cr6, cr11, {7}
   209b0:	bee740a3 	cdplt	0, 14, cr4, cr7, cr3, {5}
   209b4:	bee79a6b 	vfmslt.f32	s19, s14, s23
   209b8:	bee7f3f1 	mcrlt	3, 7, pc, cr7, cr1, {7}	; <UNPREDICTABLE>
   209bc:	bee84d98 	mcrlt	13, 7, r4, cr8, cr8, {4}
   209c0:	bee8a71e 	mcrlt	7, 7, sl, cr8, cr14, {0}
   209c4:	bee900c5 	cdplt	0, 14, cr0, cr9, cr5, {6}
   209c8:	bee95a29 	vfmalt.f32	s11, s18, s19
   209cc:	bee9b3af 	cdplt	3, 14, cr11, cr9, cr15, {5}
   209d0:	beea0d13 	mcrlt	13, 7, r0, cr10, cr3, {0}
   209d4:	beea6677 	mcrlt	6, 7, r6, cr10, cr7, {3}
   209d8:	beeabfdb 	mcrlt	15, 7, fp, cr10, cr11, {6}
   209dc:	beeb193f 	mcrlt	9, 7, r1, cr11, cr15, {1}
   209e0:	beeb7282 	cdplt	2, 14, cr7, cr11, cr2, {4}
   209e4:	beebcbc5 	vfmslt.f64	d28, d27, d5
   209e8:	beec24e6 	cdplt	4, 14, cr2, cr12, cr6, {7}
   209ec:	beec7e28 	cdplt	14, 14, cr7, cr12, cr8, {1}
   209f0:	beecd749 	cdplt	7, 14, cr13, cr12, cr9, {2}
   209f4:	beed306a 	cdplt	0, 14, cr3, cr13, cr10, {3}
   209f8:	beed896a 	cdplt	9, 14, cr8, cr13, cr10, {3}
   209fc:	beede28b 	cdplt	2, 14, cr14, cr13, cr11, {4}
   20a00:	beee3b8a 	vfmalt.f64	d19, d30, d10
   20a04:	beee9468 	cdplt	4, 14, cr9, cr14, cr8, {3}
   20a08:	beeeed67 	cdplt	13, 14, cr14, cr14, cr7, {3}
   20a0c:	beef4645 	cdplt	6, 14, cr4, cr15, cr5, {2}
   20a10:	beef9f23 	cdplt	15, 14, cr9, cr15, cr3, {1}
   20a14:	beeff801 	cdplt	8, 14, cr15, cr15, cr1, {0}
   20a18:	bef050be 	mrclt	0, 7, r5, cr0, cr14, {5}
   20a1c:	bef0a97a 	mrclt	9, 7, sl, cr0, cr10, {3}
   20a20:	bef10236 	mrclt	2, 7, r0, cr1, cr6, {1}
   20a24:	bef15af3 	mrclt	10, 7, r5, cr1, cr3, {7}
   20a28:	bef1b38d 	cdplt	3, 15, cr11, cr1, cr13, {4}
   20a2c:	bef20c28 	cdplt	12, 15, cr0, cr2, cr8, {1}
   20a30:	bef264c3 	cdplt	4, 15, cr6, cr2, cr3, {6}
   20a34:	bef2bd3c 	mrclt	13, 7, fp, cr2, cr12, {1}
   20a38:	bef315b5 	mrclt	5, 7, r1, cr3, cr5, {5}
   20a3c:	bef36e2f 	cdplt	14, 15, cr6, cr3, cr15, {1}
   20a40:	bef3c6a8 	cdplt	6, 15, cr12, cr3, cr8, {5}
   20a44:	bef41f00 	cdplt	15, 15, cr1, cr4, cr0, {0}
   20a48:	bef47757 	mrclt	7, 7, r7, cr4, cr7, {2}
   20a4c:	bef4cfaf 	cdplt	15, 15, cr12, cr4, cr15, {5}
   20a50:	bef52807 	cdplt	8, 15, cr2, cr5, cr7, {0}
   20a54:	bef5803d 	mrclt	0, 7, r8, cr5, cr13, {1}
   20a58:	bef5d873 	mrclt	8, 7, sp, cr5, cr3, {3}
   20a5c:	bef63088 	cdplt	0, 15, cr3, cr6, cr8, {4}
   20a60:	bef688be 	mrclt	8, 7, r8, cr6, cr14, {5}
   20a64:	bef6e0d2 	mrclt	0, 7, lr, cr6, cr2, {6}
   20a68:	bef738e7 	cdplt	8, 15, cr3, cr7, cr7, {7}
   20a6c:	bef790da 	mrclt	0, 7, r9, cr7, cr10, {6}
   20a70:	bef7e8cd 	cdplt	8, 15, cr14, cr7, cr13, {6}
   20a74:	bef840c0 	cdplt	0, 15, cr4, cr8, cr0, {6}
   20a78:	bef898b3 	mrclt	8, 7, r9, cr8, cr3, {5}
   20a7c:	bef8f084 	cdplt	0, 15, cr15, cr8, cr4, {4}
   20a80:	bef94856 	mrclt	8, 7, r4, cr9, cr6, {2}
   20a84:	bef9a027 	cdplt	0, 15, cr10, cr9, cr7, {1}
   20a88:	bef9f7f9 	mrclt	7, 7, APSR_nzcv, cr9, cr9, {7}
   20a8c:	befa4fa9 	cdplt	15, 15, cr4, cr10, cr9, {5}
   20a90:	befaa759 	mrclt	7, 7, sl, cr10, cr9, {2}
   20a94:	befafee7 	cdplt	14, 15, cr15, cr10, cr7, {7}
   20a98:	befb5697 	mrclt	6, 7, r5, cr11, cr7, {4}
   20a9c:	befbae25 	cdplt	14, 15, cr10, cr11, cr5, {1}
   20aa0:	befc05b4 	mrclt	5, 7, r0, cr12, cr4, {5}
   20aa4:	befc5d20 	cdplt	13, 15, cr5, cr12, cr0, {1}
   20aa8:	befcb48d 	cdplt	4, 15, cr11, cr12, cr13, {4}
   20aac:	befd0bfa 	vmovlt.u8	r0, d29[7]
   20ab0:	befd6367 	cdplt	3, 15, cr6, cr13, cr7, {3}
   20ab4:	befdbab2 	mrclt	10, 7, fp, cr13, cr2, {5}
   20ab8:	befe11fd 	mrclt	1, 7, r1, cr14, cr13, {7}
   20abc:	befe6949 	cdplt	9, 15, cr6, cr14, cr9, {2}
   20ac0:	befec094 	mrclt	0, 7, ip, cr14, cr4, {4}
   20ac4:	beff17be 	mrclt	7, 7, r1, cr15, cr14, {5}
   20ac8:	beff6ee7 	cdplt	14, 15, cr6, cr15, cr7, {7}
   20acc:	beffc5ef 	cdplt	5, 15, cr12, cr15, cr15, {7}
   20ad0:	bf000e7c 	svclt	0x00000e7c
   20ad4:	bf003a00 	svclt	0x00003a00
   20ad8:	bf006584 	svclt	0x00006584
   20adc:	bf0090f7 	svclt	0x000090f7
   20ae0:	bf00bc7b 	svclt	0x0000bc7b
   20ae4:	bf00e7de 	svclt	0x0000e7de
   20ae8:	bf011351 	svclt	0x00011351
   20aec:	bf013eb4 	svclt	0x00013eb4
   20af0:	bf016a16 	svclt	0x00016a16
   20af4:	bf019579 	svclt	0x00019579
   20af8:	bf01c0ca 	svclt	0x0001c0ca
   20afc:	bf01ec1c 	svclt	0x0001ec1c
   20b00:	bf02176e 	svclt	0x0002176e
   20b04:	bf0242af 	svclt	0x000242af
   20b08:	bf026df0 	svclt	0x00026df0
   20b0c:	bf029931 	svclt	0x00029931
   20b10:	bf02c472 	svclt	0x0002c472
   20b14:	bf02efa2 	svclt	0x0002efa2
   20b18:	bf031ad2 	svclt	0x00031ad2
   20b1c:	bf0345f1 	svclt	0x000345f1
   20b20:	bf037122 	svclt	0x00037122
   20b24:	bf039c41 	svclt	0x00039c41
   20b28:	bf03c750 	svclt	0x0003c750
   20b2c:	bf03f26f 	svclt	0x0003f26f
   20b30:	bf041d7e 	svclt	0x00041d7e
   20b34:	bf04488c 	svclt	0x0004488c
   20b38:	bf04738a 	svclt	0x0004738a
   20b3c:	bf049e99 	svclt	0x00049e99
   20b40:	bf04c986 	svclt	0x0004c986
   20b44:	bf04f484 	svclt	0x0004f484
   20b48:	bf051f71 	svclt	0x00051f71
   20b4c:	bf054a5e 	svclt	0x00054a5e
   20b50:	bf05754b 	svclt	0x0005754b
   20b54:	bf05a027 	svclt	0x0005a027
   20b58:	bf05cb04 	svclt	0x0005cb04
   20b5c:	bf05f5e0 	svclt	0x0005f5e0
   20b60:	bf0620bc 	svclt	0x000620bc
   20b64:	bf064b88 	svclt	0x00064b88
   20b68:	bf067653 	svclt	0x00067653
   20b6c:	bf06a10e 	svclt	0x0006a10e
   20b70:	bf06cbc9 	svclt	0x0006cbc9
   20b74:	bf06f683 	svclt	0x0006f683
   20b78:	bf07213e 	svclt	0x0007213e
   20b7c:	bf074be8 	svclt	0x00074be8
   20b80:	bf077692 	svclt	0x00077692
   20b84:	bf07a13c 	svclt	0x0007a13c
   20b88:	bf07cbd5 	svclt	0x0007cbd5
   20b8c:	bf07f66f 	svclt	0x0007f66f
   20b90:	bf082108 	svclt	0x00082108
   20b94:	bf084b90 	svclt	0x00084b90
   20b98:	bf087619 	svclt	0x00087619
   20b9c:	bf08a0a1 	svclt	0x0008a0a1
   20ba0:	bf08cb19 	svclt	0x0008cb19
   20ba4:	bf08f5a1 	svclt	0x0008f5a1
   20ba8:	bf092008 	svclt	0x00092008
   20bac:	bf094a80 	svclt	0x00094a80
   20bb0:	bf0974e6 	svclt	0x000974e6
   20bb4:	bf099f4d 	svclt	0x00099f4d
   20bb8:	bf09c9b4 	svclt	0x0009c9b4
   20bbc:	bf09f40a 	svclt	0x0009f40a
   20bc0:	bf0a1e60 	svclt	0x000a1e60
   20bc4:	bf0a48a6 	svclt	0x000a48a6
   20bc8:	bf0a72fc 	svclt	0x000a72fc
   20bcc:	bf0a9d41 	svclt	0x000a9d41
   20bd0:	bf0ac775 	svclt	0x000ac775
   20bd4:	bf0af1bb 	svclt	0x000af1bb
   20bd8:	bf0b1bef 	svclt	0x000b1bef
   20bdc:	bf0b4624 	svclt	0x000b4624
   20be0:	bf0b7048 	svclt	0x000b7048
   20be4:	bf0b9a6b 	svclt	0x000b9a6b
   20be8:	bf0bc48f 	svclt	0x000bc48f
   20bec:	bf0beea2 	svclt	0x000beea2
   20bf0:	bf0c18b5 	svclt	0x000c18b5
   20bf4:	bf0c42c8 	svclt	0x000c42c8
   20bf8:	bf0c6cdb 	svclt	0x000c6cdb
   20bfc:	bf0c96dd 	svclt	0x000c96dd
   20c00:	bf0cc0cf 	svclt	0x000cc0cf
   20c04:	bf0cead1 	svclt	0x000cead1
   20c08:	bf0d14c2 	svclt	0x000d14c2
   20c0c:	bf0d3eb4 	svclt	0x000d3eb4
   20c10:	bf0d68a5 	svclt	0x000d68a5
   20c14:	bf0d9286 	svclt	0x000d9286
   20c18:	bf0dbc66 	svclt	0x000dbc66
   20c1c:	bf0de636 	svclt	0x000de636
   20c20:	bf0e1006 	svclt	0x000e1006
   20c24:	bf0e39d6 	svclt	0x000e39d6
   20c28:	bf0e63a6 	svclt	0x000e63a6
   20c2c:	bf0e8d65 	svclt	0x000e8d65
   20c30:	bf0eb724 	svclt	0x000eb724
   20c34:	bf0ee0e3 	svclt	0x000ee0e3
   20c38:	bf0f0a91 	svclt	0x000f0a91
   20c3c:	bf0f3440 	svclt	0x000f3440
   20c40:	bf0f5ddd 	svclt	0x000f5ddd
   20c44:	bf0f878b 	svclt	0x000f878b
   20c48:	bf0fb129 	svclt	0x000fb129
   20c4c:	bf0fdab6 	svclt	0x000fdab6
   20c50:	bf100443 	svclt	0x00100443
   20c54:	bf102dcf 	svclt	0x00102dcf
   20c58:	bf10575c 	svclt	0x0010575c
   20c5c:	bf1080d8 	svclt	0x001080d8
   20c60:	bf10aa54 	svclt	0x0010aa54
   20c64:	bf10d3d0 	svclt	0x0010d3d0
   20c68:	bf10fd3b 	svclt	0x0010fd3b
   20c6c:	bf1126a6 	svclt	0x001126a6
   20c70:	bf115012 	svclt	0x00115012
   20c74:	bf11796c 	svclt	0x0011796c
   20c78:	bf11a2c6 	svclt	0x0011a2c6
   20c7c:	bf11cc21 	svclt	0x0011cc21
   20c80:	bf11f56a 	svclt	0x0011f56a
   20c84:	bf121eb4 	svclt	0x00121eb4
   20c88:	bf1247ed 	svclt	0x001247ed
   20c8c:	bf127137 	svclt	0x00127137
   20c90:	bf129a70 	svclt	0x00129a70
   20c94:	bf12c398 	svclt	0x0012c398
   20c98:	bf12ecc0 	svclt	0x0012ecc0
   20c9c:	bf1315e8 	svclt	0x001315e8
   20ca0:	bf133f10 	svclt	0x00133f10
   20ca4:	bf136827 	svclt	0x00136827
   20ca8:	bf13913f 	svclt	0x0013913f
   20cac:	bf13ba56 	svclt	0x0013ba56
   20cb0:	bf13e35c 	svclt	0x0013e35c
   20cb4:	bf140c63 	svclt	0x00140c63
   20cb8:	bf143559 	svclt	0x00143559
   20cbc:	bf145e5f 	svclt	0x00145e5f
   20cc0:	bf148744 	svclt	0x00148744
   20cc4:	bf14b03a 	svclt	0x0014b03a
   20cc8:	bf14d91f 	svclt	0x0014d91f
   20ccc:	bf150204 	svclt	0x00150204
   20cd0:	bf152ad8 	svclt	0x00152ad8
   20cd4:	bf1553bd 	svclt	0x001553bd
   20cd8:	bf157c81 	svclt	0x00157c81
   20cdc:	bf15a555 	svclt	0x0015a555
   20ce0:	bf15ce18 	svclt	0x0015ce18
   20ce4:	bf15f6dc 	svclt	0x0015f6dc
   20ce8:	bf161f8e 	svclt	0x00161f8e
   20cec:	bf164841 	svclt	0x00164841
   20cf0:	bf1670f4 	svclt	0x001670f4
   20cf4:	bf1699a6 	svclt	0x001699a6
   20cf8:	bf16c248 	svclt	0x0016c248
   20cfc:	bf16ead9 	svclt	0x0016ead9
   20d00:	bf17137b 	svclt	0x0017137b
   20d04:	bf173c0c 	svclt	0x00173c0c
   20d08:	bf17648c 	svclt	0x0017648c
   20d0c:	bf178d1e 	svclt	0x00178d1e
   20d10:	bf17b59e 	svclt	0x0017b59e
   20d14:	bf17de0d 	svclt	0x0017de0d
   20d18:	bf18068e 	svclt	0x0018068e
   20d1c:	bf182eec 	svclt	0x00182eec
   20d20:	bf18575c 	svclt	0x0018575c
   20d24:	bf187fbb 	svclt	0x00187fbb
   20d28:	bf18a81a 	svclt	0x0018a81a
   20d2c:	bf18d078 	svclt	0x0018d078
   20d30:	bf18f8c6 	svclt	0x0018f8c6
   20d34:	bf192114 	svclt	0x00192114
   20d38:	bf194952 	svclt	0x00194952
   20d3c:	bf19718f 	svclt	0x0019718f
   20d40:	bf1999cc 	svclt	0x001999cc
   20d44:	bf19c1f8 	svclt	0x0019c1f8
   20d48:	bf19ea36 	svclt	0x0019ea36
   20d4c:	bf1a1251 	svclt	0x001a1251
   20d50:	bf1a3a7e 	svclt	0x001a3a7e
   20d54:	bf1a6299 	svclt	0x001a6299
   20d58:	bf1a8aa4 	svclt	0x001a8aa4
   20d5c:	bf1ab2c0 	svclt	0x001ab2c0
   20d60:	bf1adaba 	svclt	0x001adaba
   20d64:	bf1b02c5 	svclt	0x001b02c5
   20d68:	bf1b2abf 	svclt	0x001b2abf
   20d6c:	bf1b52b9 	svclt	0x001b52b9
   20d70:	bf1b7ab3 	svclt	0x001b7ab3
   20d74:	bf1ba29c 	svclt	0x001ba29c
   20d78:	bf1bca86 	svclt	0x001bca86
   20d7c:	bf1bf25e 	svclt	0x001bf25e
   20d80:	bf1c1a37 	svclt	0x001c1a37
   20d84:	bf1c420f 	svclt	0x001c420f
   20d88:	bf1c69d7 	svclt	0x001c69d7
   20d8c:	bf1c919f 	svclt	0x001c919f
   20d90:	bf1cb967 	svclt	0x001cb967
   20d94:	bf1ce11e 	svclt	0x001ce11e
   20d98:	bf1d08d5 	svclt	0x001d08d5
   20d9c:	bf1d308c 	svclt	0x001d308c
   20da0:	bf1d5832 	svclt	0x001d5832
   20da4:	bf1d7fd8 	svclt	0x001d7fd8
   20da8:	bf1da76e 	svclt	0x001da76e
   20dac:	bf1dcf03 	svclt	0x001dcf03
   20db0:	bf1df698 	svclt	0x001df698
   20db4:	bf1e1e1d 	svclt	0x001e1e1d
   20db8:	bf1e45a2 	svclt	0x001e45a2
   20dbc:	bf1e6d26 	svclt	0x001e6d26
   20dc0:	bf1e949a 	svclt	0x001e949a
   20dc4:	bf1ebc0e 	svclt	0x001ebc0e
   20dc8:	bf1ee382 	svclt	0x001ee382
   20dcc:	bf1f0ae5 	svclt	0x001f0ae5
   20dd0:	bf1f3248 	svclt	0x001f3248
   20dd4:	bf1f599b 	svclt	0x001f599b
   20dd8:	bf1f80ed 	svclt	0x001f80ed
   20ddc:	bf1fa83f 	svclt	0x001fa83f
   20de0:	bf1fcf81 	svclt	0x001fcf81
   20de4:	bf1ff6c2 	svclt	0x001ff6c2
   20de8:	bf201e04 	svclt	0x00201e04
   20dec:	bf204535 	svclt	0x00204535
   20df0:	bf206c66 	svclt	0x00206c66
   20df4:	bf209396 	svclt	0x00209396
   20df8:	bf20bab6 	svclt	0x0020bab6
   20dfc:	bf20e1d6 	svclt	0x0020e1d6
   20e00:	bf2108e6 	svclt	0x002108e6
   20e04:	bf212ff5 	svclt	0x00212ff5
   20e08:	bf215704 	svclt	0x00215704
   20e0c:	bf217e02 	svclt	0x00217e02
   20e10:	bf21a501 	svclt	0x0021a501
   20e14:	bf21cbff 	svclt	0x0021cbff
   20e18:	bf21f2ed 	svclt	0x0021f2ed
   20e1c:	bf2219db 	svclt	0x002219db
   20e20:	bf2240b8 	svclt	0x002240b8
   20e24:	bf226794 	svclt	0x00226794
   20e28:	bf228e71 	svclt	0x00228e71
   20e2c:	bf22b53d 	svclt	0x0022b53d
   20e30:	bf22dc0a 	svclt	0x0022dc0a
   20e34:	bf2302d6 	svclt	0x002302d6
   20e38:	bf232991 	svclt	0x00232991
   20e3c:	bf23504c 	svclt	0x0023504c
   20e40:	bf2376f7 	svclt	0x002376f7
   20e44:	bf239da1 	svclt	0x00239da1
   20e48:	bf23c44c 	svclt	0x0023c44c
   20e4c:	bf23eae6 	svclt	0x0023eae6
   20e50:	bf241180 	svclt	0x00241180
   20e54:	bf243819 	svclt	0x00243819
   20e58:	bf245ea2 	svclt	0x00245ea2
   20e5c:	bf24852b 	svclt	0x0024852b
   20e60:	bf24aba4 	svclt	0x0024aba4
   20e64:	bf24d22d 	svclt	0x0024d22d
   20e68:	bf24f894 	svclt	0x0024f894
   20e6c:	bf251f0c 	svclt	0x00251f0c
   20e70:	bf254563 	svclt	0x00254563
   20e74:	bf256bca 	svclt	0x00256bca
   20e78:	bf259221 	svclt	0x00259221
   20e7c:	bf25b878 	svclt	0x0025b878
   20e80:	bf25debe 	svclt	0x0025debe
   20e84:	bf260503 	svclt	0x00260503
   20e88:	bf262b49 	svclt	0x00262b49
   20e8c:	bf26517e 	svclt	0x0026517e
   20e90:	bf2677b4 	svclt	0x002677b4
   20e94:	bf269de9 	svclt	0x00269de9
   20e98:	bf26c40d 	svclt	0x0026c40d
   20e9c:	bf26ea31 	svclt	0x0026ea31
   20ea0:	bf271045 	svclt	0x00271045
   20ea4:	bf273659 	svclt	0x00273659
   20ea8:	bf275c5b 	svclt	0x00275c5b
   20eac:	bf27826f 	svclt	0x0027826f
   20eb0:	bf27a861 	svclt	0x0027a861
   20eb4:	bf27ce64 	svclt	0x0027ce64
   20eb8:	bf27f456 	svclt	0x0027f456
   20ebc:	bf281a48 	svclt	0x00281a48
   20ec0:	bf284029 	svclt	0x00284029
   20ec4:	bf28660a 	svclt	0x0028660a
   20ec8:	bf288bdb 	svclt	0x00288bdb
   20ecc:	bf28b1ab 	svclt	0x0028b1ab
   20ed0:	bf28d77b 	svclt	0x0028d77b
   20ed4:	bf28fd3b 	svclt	0x0028fd3b
   20ed8:	bf2922fb 	svclt	0x002922fb
   20edc:	bf2948bb 	svclt	0x002948bb
   20ee0:	bf296e69 	svclt	0x00296e69
   20ee4:	bf299418 	svclt	0x00299418
   20ee8:	bf29b9b6 	svclt	0x0029b9b6
   20eec:	bf29df55 	svclt	0x0029df55
   20ef0:	bf2a04f3 	svclt	0x002a04f3
   20ef4:	bf2a2a80 	svclt	0x002a2a80
   20ef8:	bf2a500d 	svclt	0x002a500d
   20efc:	bf2a758a 	svclt	0x002a758a
   20f00:	bf2a9b07 	svclt	0x002a9b07
   20f04:	bf2ac083 	svclt	0x002ac083
   20f08:	bf2ae5ef 	svclt	0x002ae5ef
   20f0c:	bf2b0b5b 	svclt	0x002b0b5b
   20f10:	bf2b30c6 	svclt	0x002b30c6
   20f14:	bf2b5621 	svclt	0x002b5621
   20f18:	bf2b7b6c 	svclt	0x002b7b6c
   20f1c:	bf2ba0c7 	svclt	0x002ba0c7
   20f20:	bf2bc600 	svclt	0x002bc600
   20f24:	bf2beb4a 	svclt	0x002beb4a
   20f28:	bf2c1084 	svclt	0x002c1084
   20f2c:	bf2c35bd 	svclt	0x002c35bd
   20f30:	bf2c5ae6 	svclt	0x002c5ae6
   20f34:	bf2c800f 	svclt	0x002c800f
   20f38:	bf2ca537 	svclt	0x002ca537
   20f3c:	bf2cca4f 	svclt	0x002cca4f
   20f40:	bf2cef56 	svclt	0x002cef56
   20f44:	bf2d146e 	svclt	0x002d146e
   20f48:	bf2d3975 	svclt	0x002d3975
   20f4c:	bf2d5e6c 	svclt	0x002d5e6c
   20f50:	bf2d8362 	svclt	0x002d8362
   20f54:	bf2da858 	svclt	0x002da858
   20f58:	bf2dcd3e 	svclt	0x002dcd3e
   20f5c:	bf2df224 	svclt	0x002df224
   20f60:	bf2e1709 	svclt	0x002e1709
   20f64:	bf2e3bde 	svclt	0x002e3bde
   20f68:	bf2e60b3 	svclt	0x002e60b3
   20f6c:	bf2e8577 	svclt	0x002e8577
   20f70:	bf2eaa3b 	svclt	0x002eaa3b
   20f74:	bf2eceff 	svclt	0x002eceff
   20f78:	bf2ef3b2 	svclt	0x002ef3b2
   20f7c:	bf2f1855 	svclt	0x002f1855
   20f80:	bf2f3d08 	svclt	0x002f3d08
   20f84:	bf2f61aa 	svclt	0x002f61aa
   20f88:	bf2f863c 	svclt	0x002f863c
   20f8c:	bf2faace 	svclt	0x002faace
   20f90:	bf2fcf5f 	svclt	0x002fcf5f
   20f94:	bf2ff3e0 	svclt	0x002ff3e0
   20f98:	bf301861 	svclt	0x00301861
   20f9c:	bf303ce2 	svclt	0x00303ce2
   20fa0:	bf306152 	svclt	0x00306152
   20fa4:	bf3085c2 	svclt	0x003085c2
   20fa8:	bf30aa22 	svclt	0x0030aa22
   20fac:	bf30ce81 	svclt	0x0030ce81
   20fb0:	bf30f2d0 	svclt	0x0030f2d0
   20fb4:	bf31171e 	svclt	0x0031171e
   20fb8:	bf313b6d 	svclt	0x00313b6d
   20fbc:	bf315fab 	svclt	0x00315fab
   20fc0:	bf3183e8 	svclt	0x003183e8
   20fc4:	bf31a815 	svclt	0x0031a815
   20fc8:	bf31cc42 	svclt	0x0031cc42
   20fcc:	bf31f06f 	svclt	0x0031f06f
   20fd0:	bf32148c 	svclt	0x0032148c
   20fd4:	bf3238a8 	svclt	0x003238a8
   20fd8:	bf325cc4 	svclt	0x00325cc4
   20fdc:	bf3280d0 	svclt	0x003280d0
   20fe0:	bf32a4ca 	svclt	0x0032a4ca
   20fe4:	bf32c8c5 	svclt	0x0032c8c5
   20fe8:	bf32ecc0 	svclt	0x0032ecc0
   20fec:	bf3310aa 	svclt	0x003310aa
   20ff0:	bf333494 	svclt	0x00333494
   20ff4:	bf33587d 	svclt	0x0033587d
   20ff8:	bf337c57 	svclt	0x00337c57
   20ffc:	bf33a030 	svclt	0x0033a030
   21000:	bf33c3f8 	svclt	0x0033c3f8
   21004:	bf33e7c0 	svclt	0x0033e7c0
   21008:	bf340b78 	svclt	0x00340b78
   2100c:	bf342f30 	svclt	0x00342f30
   21010:	bf3452e7 	svclt	0x003452e7
   21014:	bf34768e 	svclt	0x0034768e
   21018:	bf349a35 	svclt	0x00349a35
   2101c:	bf34bdcb 	svclt	0x0034bdcb
   21020:	bf34e161 	svclt	0x0034e161
   21024:	bf3504f7 	svclt	0x003504f7
   21028:	bf35287c 	svclt	0x0035287c
   2102c:	bf354c01 	svclt	0x00354c01
   21030:	bf356f76 	svclt	0x00356f76
   21034:	bf3592ea 	svclt	0x003592ea
   21038:	bf35b64e 	svclt	0x0035b64e
   2103c:	bf35d9b2 	svclt	0x0035d9b2
   21040:	bf35fd15 	svclt	0x0035fd15
   21044:	bf362068 	svclt	0x00362068
   21048:	bf3643bb 	svclt	0x003643bb
   2104c:	bf3666fd 	svclt	0x003666fd
   21050:	bf368a40 	svclt	0x00368a40
   21054:	bf36ad82 	svclt	0x0036ad82
   21058:	bf36d0b3 	svclt	0x0036d0b3
   2105c:	bf36f3e4 	svclt	0x0036f3e4
   21060:	bf371705 	svclt	0x00371705
   21064:	bf373a26 	svclt	0x00373a26
   21068:	bf375d35 	svclt	0x00375d35
   2106c:	bf378045 	svclt	0x00378045
   21070:	bf37a355 	svclt	0x0037a355
   21074:	bf37c654 	svclt	0x0037c654
   21078:	bf37e953 	svclt	0x0037e953
   2107c:	bf380c41 	svclt	0x00380c41
   21080:	bf382f30 	svclt	0x00382f30
   21084:	bf38521e 	svclt	0x0038521e
   21088:	bf3874fb 	svclt	0x003874fb
   2108c:	bf3897c8 	svclt	0x003897c8
   21090:	bf38ba95 	svclt	0x0038ba95
   21094:	bf38dd61 	svclt	0x0038dd61
   21098:	bf39002e 	svclt	0x0039002e
   2109c:	bf3922d9 	svclt	0x003922d9
   210a0:	bf394595 	svclt	0x00394595
   210a4:	bf396840 	svclt	0x00396840
   210a8:	bf398aec 	svclt	0x00398aec
   210ac:	bf39ad86 	svclt	0x0039ad86
   210b0:	bf39d020 	svclt	0x0039d020
   210b4:	bf39f2aa 	svclt	0x0039f2aa
   210b8:	bf3a1533 	svclt	0x003a1533
   210bc:	bf3a37bd 	svclt	0x003a37bd
   210c0:	bf3a5a36 	svclt	0x003a5a36
   210c4:	bf3a7c9e 	svclt	0x003a7c9e
   210c8:	bf3a9f17 	svclt	0x003a9f17
   210cc:	bf3ac16e 	svclt	0x003ac16e
   210d0:	bf3ae3d6 	svclt	0x003ae3d6
   210d4:	bf3b062d 	svclt	0x003b062d
   210d8:	bf3b2874 	svclt	0x003b2874
   210dc:	bf3b4aba 	svclt	0x003b4aba
   210e0:	bf3b6d01 	svclt	0x003b6d01
   210e4:	bf3b8f36 	svclt	0x003b8f36
   210e8:	bf3bb16c 	svclt	0x003bb16c
   210ec:	bf3bd391 	svclt	0x003bd391
   210f0:	bf3bf5b6 	svclt	0x003bf5b6
   210f4:	bf3c17db 	svclt	0x003c17db
   210f8:	bf3c39ef 	svclt	0x003c39ef
   210fc:	bf3c5c03 	svclt	0x003c5c03
   21100:	bf3c7e07 	svclt	0x003c7e07
   21104:	bf3ca00a 	svclt	0x003ca00a
   21108:	bf3cc1fd 	svclt	0x003cc1fd
   2110c:	bf3ce3ef 	svclt	0x003ce3ef
   21110:	bf3d05d1 	svclt	0x003d05d1
   21114:	bf3d27b3 	svclt	0x003d27b3
   21118:	bf3d4995 	svclt	0x003d4995
   2111c:	bf3d6b66 	svclt	0x003d6b66
   21120:	bf3d8d37 	svclt	0x003d8d37
   21124:	bf3daef7 	svclt	0x003daef7
   21128:	bf3dd0b7 	svclt	0x003dd0b7
   2112c:	bf3df267 	svclt	0x003df267
   21130:	bf3e1416 	svclt	0x003e1416
   21134:	bf3e35c6 	svclt	0x003e35c6
   21138:	bf3e5764 	svclt	0x003e5764
   2113c:	bf3e7903 	svclt	0x003e7903
   21140:	bf3e9a91 	svclt	0x003e9a91
   21144:	bf3ebc1f 	svclt	0x003ebc1f
   21148:	bf3edd9c 	svclt	0x003edd9c
   2114c:	bf3eff19 	svclt	0x003eff19
   21150:	bf3f2096 	svclt	0x003f2096
   21154:	bf3f4203 	svclt	0x003f4203
   21158:	bf3f635e 	svclt	0x003f635e
   2115c:	bf3f84ba 	svclt	0x003f84ba
   21160:	bf3fa616 	svclt	0x003fa616
   21164:	bf3fc760 	svclt	0x003fc760
   21168:	bf3fe8ab 	svclt	0x003fe8ab
   2116c:	bf4009f6 	svclt	0x004009f6
   21170:	bf402b30 	svclt	0x00402b30
   21174:	bf404c59 	svclt	0x00404c59
   21178:	bf406d83 	svclt	0x00406d83
   2117c:	bf408eac 	svclt	0x00408eac
   21180:	bf40afc4 	svclt	0x0040afc4
   21184:	bf40d0dd 	svclt	0x0040d0dd
   21188:	bf40f1e5 	svclt	0x0040f1e5
   2118c:	bf4112ec 	svclt	0x004112ec
   21190:	bf4133e3 	svclt	0x004133e3
   21194:	bf4154da 	svclt	0x004154da
   21198:	bf4175d1 	svclt	0x004175d1
   2119c:	bf4196b7 	svclt	0x004196b7
   211a0:	bf41b79e 	svclt	0x0041b79e
   211a4:	bf41d873 	svclt	0x0041d873
   211a8:	bf41f948 	svclt	0x0041f948
   211ac:	bf421a0d 	svclt	0x00421a0d
   211b0:	bf423ad2 	svclt	0x00423ad2
   211b4:	bf425b85 	svclt	0x00425b85
   211b8:	bf427c39 	svclt	0x00427c39
   211bc:	bf429ced 	svclt	0x00429ced
   211c0:	bf42bd90 	svclt	0x0042bd90
   211c4:	bf42de22 	svclt	0x0042de22
   211c8:	bf42fec5 	svclt	0x0042fec5
   211cc:	bf431f47 	svclt	0x00431f47
   211d0:	bf433fd9 	svclt	0x00433fd9
   211d4:	bf43604a 	svclt	0x0043604a
   211d8:	bf4380cb 	svclt	0x004380cb
   211dc:	bf43a13c 	svclt	0x0043a13c
   211e0:	bf43c19c 	svclt	0x0043c19c
   211e4:	bf43e1fc 	svclt	0x0043e1fc
   211e8:	bf44025c 	svclt	0x0044025c
   211ec:	bf4422ab 	svclt	0x004422ab
   211f0:	bf4442fa 	svclt	0x004442fa
   211f4:	bf446339 	svclt	0x00446339
   211f8:	bf448377 	svclt	0x00448377
   211fc:	bf44a3a5 	svclt	0x0044a3a5
   21200:	bf44c3d2 	svclt	0x0044c3d2
   21204:	bf44e3ef 	svclt	0x0044e3ef
   21208:	bf45040c 	svclt	0x0045040c
   2120c:	bf452429 	svclt	0x00452429
   21210:	bf454435 	svclt	0x00454435
   21214:	bf456441 	svclt	0x00456441
   21218:	bf45843c 	svclt	0x0045843c
   2121c:	bf45a427 	svclt	0x0045a427
   21220:	bf45c422 	svclt	0x0045c422
   21224:	bf45e3fc 	svclt	0x0045e3fc
   21228:	bf4603e6 	svclt	0x004603e6
   2122c:	bf4623c0 	svclt	0x004623c0
   21230:	bf464389 	svclt	0x00464389
   21234:	bf466352 	svclt	0x00466352
   21238:	bf46831b 	svclt	0x0046831b
   2123c:	bf46a2d3 	svclt	0x0046a2d3
   21240:	bf46c27a 	svclt	0x0046c27a
   21244:	bf46e222 	svclt	0x0046e222
   21248:	bf4701c9 	svclt	0x004701c9
   2124c:	bf472160 	svclt	0x00472160
   21250:	bf4740f6 	svclt	0x004740f6
   21254:	bf47608d 	svclt	0x0047608d
   21258:	bf478002 	svclt	0x00478002
   2125c:	bf479f88 	svclt	0x00479f88
   21260:	bf47befd 	svclt	0x0047befd
   21264:	bf47de61 	svclt	0x0047de61
   21268:	bf47fdc6 	svclt	0x0047fdc6
   2126c:	bf481d2a 	svclt	0x00481d2a
   21270:	bf483c7d 	svclt	0x00483c7d
   21274:	bf485bd1 	svclt	0x00485bd1
   21278:	bf487b14 	svclt	0x00487b14
   2127c:	bf489a56 	svclt	0x00489a56
   21280:	bf48b988 	svclt	0x0048b988
   21284:	bf48d8ba 	svclt	0x0048d8ba
   21288:	bf48f7db 	svclt	0x0048f7db
   2128c:	bf4916fd 	svclt	0x004916fd
   21290:	bf49360d 	svclt	0x0049360d
   21294:	bf49551d 	svclt	0x0049551d
   21298:	bf49742e 	svclt	0x0049742e
   2129c:	bf49932d 	svclt	0x0049932d
   212a0:	bf49b21c 	svclt	0x0049b21c
   212a4:	bf49d10b 	svclt	0x0049d10b
   212a8:	bf49effa 	svclt	0x0049effa
   212ac:	bf4a0ed8 	svclt	0x004a0ed8
   212b0:	bf4a2db6 	svclt	0x004a2db6
   212b4:	bf4a4c83 	svclt	0x004a4c83
   212b8:	bf4a6b51 	svclt	0x004a6b51
   212bc:	bf4a8a0d 	svclt	0x004a8a0d
   212c0:	bf4aa8ca 	svclt	0x004aa8ca
   212c4:	bf4ac786 	svclt	0x004ac786
   212c8:	bf4ae632 	svclt	0x004ae632
   212cc:	bf4b04cd 	svclt	0x004b04cd
   212d0:	bf4b2368 	svclt	0x004b2368
   212d4:	bf4b41f2 	svclt	0x004b41f2
   212d8:	bf4b608d 	svclt	0x004b608d
   212dc:	bf4b7f06 	svclt	0x004b7f06
   212e0:	bf4b9d80 	svclt	0x004b9d80
   212e4:	bf4bbbf9 	svclt	0x004bbbf9
   212e8:	bf4bda62 	svclt	0x004bda62
   212ec:	bf4bf8cb 	svclt	0x004bf8cb
   212f0:	bf4c1722 	svclt	0x004c1722
   212f4:	bf4c357a 	svclt	0x004c357a
   212f8:	bf4c53c1 	svclt	0x004c53c1
   212fc:	bf4c7208 	svclt	0x004c7208
   21300:	bf4c903f 	svclt	0x004c903f
   21304:	bf4cae75 	svclt	0x004cae75
   21308:	bf4cccab 	svclt	0x004cccab
   2130c:	bf4cead1 	svclt	0x004cead1
   21310:	bf4d08e6 	svclt	0x004d08e6
   21314:	bf4d26fa 	svclt	0x004d26fa
   21318:	bf4d450f 	svclt	0x004d450f
   2131c:	bf4d6313 	svclt	0x004d6313
   21320:	bf4d8106 	svclt	0x004d8106
   21324:	bf4d9f0a 	svclt	0x004d9f0a
   21328:	bf4dbced 	svclt	0x004dbced
   2132c:	bf4ddacf 	svclt	0x004ddacf
   21330:	bf4df8b1 	svclt	0x004df8b1
   21334:	bf4e1683 	svclt	0x004e1683
   21338:	bf4e3455 	svclt	0x004e3455
   2133c:	bf4e5215 	svclt	0x004e5215
   21340:	bf4e6fd6 	svclt	0x004e6fd6
   21344:	bf4e8d97 	svclt	0x004e8d97
   21348:	bf4eab36 	svclt	0x004eab36
   2134c:	bf4ec8e7 	svclt	0x004ec8e7
   21350:	bf4ee686 	svclt	0x004ee686
   21354:	bf4f0414 	svclt	0x004f0414
   21358:	bf4f21a3 	svclt	0x004f21a3
   2135c:	bf4f3f31 	svclt	0x004f3f31
   21360:	bf4f5caf 	svclt	0x004f5caf
   21364:	bf4f7a1c 	svclt	0x004f7a1c
   21368:	bf4f9789 	svclt	0x004f9789
   2136c:	bf4fb4f6 	svclt	0x004fb4f6
   21370:	bf4fd252 	svclt	0x004fd252
   21374:	bf4fefae 	svclt	0x004fefae
   21378:	bf500cfa 	svclt	0x00500cfa
   2137c:	bf502a35 	svclt	0x00502a35
   21380:	bf504780 	svclt	0x00504780
   21384:	bf5064aa 	svclt	0x005064aa
   21388:	bf5081e4 	svclt	0x005081e4
   2138c:	bf509efe 	svclt	0x00509efe
   21390:	bf50bc27 	svclt	0x0050bc27
   21394:	bf50d930 	svclt	0x0050d930
   21398:	bf50f649 	svclt	0x0050f649
   2139c:	bf511351 	svclt	0x00511351
   213a0:	bf513049 	svclt	0x00513049
   213a4:	bf514d40 	svclt	0x00514d40
   213a8:	bf516a27 	svclt	0x00516a27
   213ac:	bf51870e 	svclt	0x0051870e
   213b0:	bf51a3f4 	svclt	0x0051a3f4
   213b4:	bf51c0ca 	svclt	0x0051c0ca
   213b8:	bf51dd90 	svclt	0x0051dd90
   213bc:	bf51fa55 	svclt	0x0051fa55
   213c0:	bf521709 	svclt	0x00521709
   213c4:	bf5233ce 	svclt	0x005233ce
   213c8:	bf525072 	svclt	0x00525072
   213cc:	bf526d16 	svclt	0x00526d16
   213d0:	bf5289b9 	svclt	0x005289b9
   213d4:	bf52a64c 	svclt	0x0052a64c
   213d8:	bf52c2ce 	svclt	0x0052c2ce
   213dc:	bf52df61 	svclt	0x0052df61
   213e0:	bf52fbd2 	svclt	0x0052fbd2
   213e4:	bf531844 	svclt	0x00531844
   213e8:	bf5334b5 	svclt	0x005334b5
   213ec:	bf535116 	svclt	0x00535116
   213f0:	bf536d76 	svclt	0x00536d76
   213f4:	bf5389c6 	svclt	0x005389c6
   213f8:	bf53a616 	svclt	0x0053a616
   213fc:	bf53c255 	svclt	0x0053c255
   21400:	bf53de94 	svclt	0x0053de94
   21404:	bf53fac2 	svclt	0x0053fac2
   21408:	bf5416f0 	svclt	0x005416f0
   2140c:	bf54330d 	svclt	0x0054330d
   21410:	bf544f2b 	svclt	0x00544f2b
   21414:	bf546b38 	svclt	0x00546b38
   21418:	bf548744 	svclt	0x00548744
   2141c:	bf54a340 	svclt	0x0054a340
   21420:	bf54bf3c 	svclt	0x0054bf3c
   21424:	bf54db38 	svclt	0x0054db38
   21428:	bf54f712 	svclt	0x0054f712
   2142c:	bf5512fd 	svclt	0x005512fd
   21430:	bf552ed8 	svclt	0x00552ed8
   21434:	bf554aa1 	svclt	0x00554aa1
   21438:	bf55666b 	svclt	0x0055666b
   2143c:	bf558234 	svclt	0x00558234
   21440:	bf559ddc 	svclt	0x00559ddc
   21444:	bf55b995 	svclt	0x0055b995
   21448:	bf55d53d 	svclt	0x0055d53d
   2144c:	bf55f0d4 	svclt	0x0055f0d4
   21450:	bf560c6b 	svclt	0x00560c6b
   21454:	bf562802 	svclt	0x00562802
   21458:	bf564389 	svclt	0x00564389
   2145c:	bf565eff 	svclt	0x00565eff
   21460:	bf567a74 	svclt	0x00567a74
   21464:	bf5695ea 	svclt	0x005695ea
   21468:	bf56b14f 	svclt	0x0056b14f
   2146c:	bf56cca3 	svclt	0x0056cca3
   21470:	bf56e7f7 	svclt	0x0056e7f7
   21474:	bf57034b 	svclt	0x0057034b
   21478:	bf571e8e 	svclt	0x00571e8e
   2147c:	bf5739c1 	svclt	0x005739c1
   21480:	bf5754f3 	svclt	0x005754f3
   21484:	bf577026 	svclt	0x00577026
   21488:	bf578b48 	svclt	0x00578b48
   2148c:	bf57a66a 	svclt	0x0057a66a
   21490:	bf57c17b 	svclt	0x0057c17b
   21494:	bf57dc7b 	svclt	0x0057dc7b
   21498:	bf57f77b 	svclt	0x0057f77b
   2149c:	bf58127b 	svclt	0x0058127b
   214a0:	bf582d6b 	svclt	0x00582d6b
   214a4:	bf58485a 	svclt	0x0058485a
   214a8:	bf586339 	svclt	0x00586339
   214ac:	bf587e07 	svclt	0x00587e07
   214b0:	bf5898d4 	svclt	0x005898d4
   214b4:	bf58b3a2 	svclt	0x0058b3a2
   214b8:	bf58ce5f 	svclt	0x0058ce5f
   214bc:	bf58e91d 	svclt	0x0058e91d
   214c0:	bf5903c9 	svclt	0x005903c9
   214c4:	bf591e64 	svclt	0x00591e64
   214c8:	bf593900 	svclt	0x00593900
   214cc:	bf59539c 	svclt	0x0059539c
   214d0:	bf596e26 	svclt	0x00596e26
   214d4:	bf5988b1 	svclt	0x005988b1
   214d8:	bf59a32b 	svclt	0x0059a32b
   214dc:	bf59bd94 	svclt	0x0059bd94
   214e0:	bf59d80e 	svclt	0x0059d80e
   214e4:	bf59f267 	svclt	0x0059f267
   214e8:	bf5a0cbf 	svclt	0x005a0cbf
   214ec:	bf5a2718 	svclt	0x005a2718
   214f0:	bf5a415f 	svclt	0x005a415f
   214f4:	bf5a5ba7 	svclt	0x005a5ba7
   214f8:	bf5a75de 	svclt	0x005a75de
   214fc:	bf5a9004 	svclt	0x005a9004
   21500:	bf5aaa2a 	svclt	0x005aaa2a
   21504:	bf5ac450 	svclt	0x005ac450
   21508:	bf5ade65 	svclt	0x005ade65
   2150c:	bf5af87b 	svclt	0x005af87b
   21510:	bf5b127f 	svclt	0x005b127f
   21514:	bf5b2c73 	svclt	0x005b2c73
   21518:	bf5b4667 	svclt	0x005b4667
   2151c:	bf5b605b 	svclt	0x005b605b
   21520:	bf5b7a3e 	svclt	0x005b7a3e
   21524:	bf5b9421 	svclt	0x005b9421
   21528:	bf5badf3 	svclt	0x005badf3
   2152c:	bf5bc7b4 	svclt	0x005bc7b4
   21530:	bf5be176 	svclt	0x005be176
   21534:	bf5bfb37 	svclt	0x005bfb37
   21538:	bf5c14e8 	svclt	0x005c14e8
   2153c:	bf5c2e88 	svclt	0x005c2e88
   21540:	bf5c4828 	svclt	0x005c4828
   21544:	bf5c61c8 	svclt	0x005c61c8
   21548:	bf5c7b57 	svclt	0x005c7b57
   2154c:	bf5c94d5 	svclt	0x005c94d5
   21550:	bf5cae53 	svclt	0x005cae53
   21554:	bf5cc7d2 	svclt	0x005cc7d2
   21558:	bf5ce13f 	svclt	0x005ce13f
   2155c:	bf5cfa9c 	svclt	0x005cfa9c
   21560:	bf5d13f9 	svclt	0x005d13f9
   21564:	bf5d2d56 	svclt	0x005d2d56
   21568:	bf5d46a2 	svclt	0x005d46a2
   2156c:	bf5d5fdd 	svclt	0x005d5fdd
   21570:	bf5d7918 	svclt	0x005d7918
   21574:	bf5d9253 	svclt	0x005d9253
   21578:	bf5dab7e 	svclt	0x005dab7e
   2157c:	bf5dc497 	svclt	0x005dc497
   21580:	bf5dddb1 	svclt	0x005dddb1
   21584:	bf5df6ba 	svclt	0x005df6ba
   21588:	bf5e0fc3 	svclt	0x005e0fc3
   2158c:	bf5e28bb 	svclt	0x005e28bb
   21590:	bf5e41b3 	svclt	0x005e41b3
   21594:	bf5e5aab 	svclt	0x005e5aab
   21598:	bf5e7393 	svclt	0x005e7393
   2159c:	bf5e8c69 	svclt	0x005e8c69
   215a0:	bf5ea540 	svclt	0x005ea540
   215a4:	bf5ebe06 	svclt	0x005ebe06
   215a8:	bf5ed6cb 	svclt	0x005ed6cb
   215ac:	bf5eef80 	svclt	0x005eef80
   215b0:	bf5f0835 	svclt	0x005f0835
   215b4:	bf5f20da 	svclt	0x005f20da
   215b8:	bf5f397e 	svclt	0x005f397e
   215bc:	bf5f5211 	svclt	0x005f5211
   215c0:	bf5f6aa5 	svclt	0x005f6aa5
   215c4:	bf5f8327 	svclt	0x005f8327
   215c8:	bf5f9baa 	svclt	0x005f9baa
   215cc:	bf5fb41c 	svclt	0x005fb41c
   215d0:	bf5fcc8e 	svclt	0x005fcc8e
   215d4:	bf5fe4ef 	svclt	0x005fe4ef
   215d8:	bf5ffd3f 	svclt	0x005ffd3f
   215dc:	bf601590 	svclt	0x00601590
   215e0:	bf602de0 	svclt	0x00602de0
   215e4:	bf604620 	svclt	0x00604620
   215e8:	bf605e5f 	svclt	0x00605e5f
   215ec:	bf60768e 	svclt	0x0060768e
   215f0:	bf608eac 	svclt	0x00608eac
   215f4:	bf60a6ca 	svclt	0x0060a6ca
   215f8:	bf60bee8 	svclt	0x0060bee8
   215fc:	bf60d6f5 	svclt	0x0060d6f5
   21600:	bf60eef2 	svclt	0x0060eef2
   21604:	bf6106ee 	svclt	0x006106ee
   21608:	bf611eeb 	svclt	0x00611eeb
   2160c:	bf6136d6 	svclt	0x006136d6
   21610:	bf614eb1 	svclt	0x00614eb1
   21614:	bf61668c 	svclt	0x0061668c
   21618:	bf617e56 	svclt	0x00617e56
   2161c:	bf619620 	svclt	0x00619620
   21620:	bf61adda 	svclt	0x0061adda
   21624:	bf61c593 	svclt	0x0061c593
   21628:	bf61dd4c 	svclt	0x0061dd4c
   2162c:	bf61f4e4 	svclt	0x0061f4e4
   21630:	bf620c8d 	svclt	0x00620c8d
   21634:	bf622414 	svclt	0x00622414
   21638:	bf623bac 	svclt	0x00623bac
   2163c:	bf625322 	svclt	0x00625322
   21640:	bf626a98 	svclt	0x00626a98
   21644:	bf62820e 	svclt	0x0062820e
   21648:	bf629974 	svclt	0x00629974
   2164c:	bf62b0d9 	svclt	0x0062b0d9
   21650:	bf62c82e 	svclt	0x0062c82e
   21654:	bf62df83 	svclt	0x0062df83
   21658:	bf62f6c7 	svclt	0x0062f6c7
   2165c:	bf630dfa 	svclt	0x00630dfa
   21660:	bf63252d 	svclt	0x0063252d
   21664:	bf633c60 	svclt	0x00633c60
   21668:	bf635382 	svclt	0x00635382
   2166c:	bf636a94 	svclt	0x00636a94
   21670:	bf6381a6 	svclt	0x006381a6
   21674:	bf6398a6 	svclt	0x006398a6
   21678:	bf63afa7 	svclt	0x0063afa7
   2167c:	bf63c6a8 	svclt	0x0063c6a8
   21680:	bf63dd87 	svclt	0x0063dd87
   21684:	bf63f477 	svclt	0x0063f477
   21688:	bf640b56 	svclt	0x00640b56
   2168c:	bf642225 	svclt	0x00642225
   21690:	bf6438e3 	svclt	0x006438e3
   21694:	bf644fb1 	svclt	0x00644fb1
   21698:	bf64665e 	svclt	0x0064665e
   2169c:	bf647d1c 	svclt	0x00647d1c
   216a0:	bf6493b8 	svclt	0x006493b8
   216a4:	bf64aa54 	svclt	0x0064aa54
   216a8:	bf64c0f0 	svclt	0x0064c0f0
   216ac:	bf64d77b 	svclt	0x0064d77b
   216b0:	bf64edf6 	svclt	0x0064edf6
   216b4:	bf650471 	svclt	0x00650471
   216b8:	bf651aeb 	svclt	0x00651aeb
   216bc:	bf653155 	svclt	0x00653155
   216c0:	bf6547ae 	svclt	0x006547ae
   216c4:	bf655e07 	svclt	0x00655e07
   216c8:	bf657460 	svclt	0x00657460
   216cc:	bf658a98 	svclt	0x00658a98
   216d0:	bf65a0e0 	svclt	0x0065a0e0
   216d4:	bf65b717 	svclt	0x0065b717
   216d8:	bf65cd3e 	svclt	0x0065cd3e
   216dc:	bf65e365 	svclt	0x0065e365
   216e0:	bf65f97b 	svclt	0x0065f97b
   216e4:	bf660f80 	svclt	0x00660f80
   216e8:	bf662596 	svclt	0x00662596
   216ec:	bf663b8a 	svclt	0x00663b8a
   216f0:	bf66517e 	svclt	0x0066517e
   216f4:	bf666773 	svclt	0x00666773
   216f8:	bf667d56 	svclt	0x00667d56
   216fc:	bf669329 	svclt	0x00669329
   21700:	bf66a8fc 	svclt	0x0066a8fc
   21704:	bf66becf 	svclt	0x0066becf
   21708:	bf66d491 	svclt	0x0066d491
   2170c:	bf66ea42 	svclt	0x0066ea42
   21710:	bf66fff3 	svclt	0x0066fff3
   21714:	bf671594 	svclt	0x00671594
   21718:	bf672b34 	svclt	0x00672b34
   2171c:	bf6740c4 	svclt	0x006740c4
   21720:	bf675654 	svclt	0x00675654
   21724:	bf676bd3 	svclt	0x00676bd3
   21728:	bf678152 	svclt	0x00678152
   2172c:	bf6796c0 	svclt	0x006796c0
   21730:	bf67ac2e 	svclt	0x0067ac2e
   21734:	bf67c18b 	svclt	0x0067c18b
   21738:	bf67d6d8 	svclt	0x0067d6d8
   2173c:	bf67ec25 	svclt	0x0067ec25
   21740:	bf680171 	svclt	0x00680171
   21744:	bf6816ad 	svclt	0x006816ad
   21748:	bf682bd8 	svclt	0x00682bd8
   2174c:	bf684103 	svclt	0x00684103
   21750:	bf68561d 	svclt	0x0068561d
   21754:	bf686b38 	svclt	0x00686b38
   21758:	bf688041 	svclt	0x00688041
   2175c:	bf68954a 	svclt	0x0068954a
   21760:	bf68aa43 	svclt	0x0068aa43
   21764:	bf68bf3c 	svclt	0x0068bf3c
   21768:	bf68d424 	svclt	0x0068d424
   2176c:	bf68e90c 	svclt	0x0068e90c
   21770:	bf68fde3 	svclt	0x0068fde3
   21774:	bf6912a9 	svclt	0x006912a9
   21778:	bf692770 	svclt	0x00692770
   2177c:	bf693c36 	svclt	0x00693c36
   21780:	bf6950ec 	svclt	0x006950ec
   21784:	bf696590 	svclt	0x00696590
   21788:	bf697a35 	svclt	0x00697a35
   2178c:	bf698ec9 	svclt	0x00698ec9
   21790:	bf69a35d 	svclt	0x0069a35d
   21794:	bf69b7e1 	svclt	0x0069b7e1
   21798:	bf69cc64 	svclt	0x0069cc64
   2179c:	bf69e0d6 	svclt	0x0069e0d6
   217a0:	bf69f549 	svclt	0x0069f549
   217a4:	bf6a09ab 	svclt	0x006a09ab
   217a8:	bf6a1dfc 	svclt	0x006a1dfc
   217ac:	bf6a324d 	svclt	0x006a324d
   217b0:	bf6a469d 	svclt	0x006a469d
   217b4:	bf6a5ade 	svclt	0x006a5ade
   217b8:	bf6a6f0d 	svclt	0x006a6f0d
   217bc:	bf6a833c 	svclt	0x006a833c
   217c0:	bf6a975b 	svclt	0x006a975b
   217c4:	bf6aab7a 	svclt	0x006aab7a
   217c8:	bf6abf87 	svclt	0x006abf87
   217cc:	bf6ad395 	svclt	0x006ad395
   217d0:	bf6ae792 	svclt	0x006ae792
   217d4:	bf6afb8f 	svclt	0x006afb8f
   217d8:	bf6b0f7c 	svclt	0x006b0f7c
   217dc:	bf6b2357 	svclt	0x006b2357
   217e0:	bf6b3733 	svclt	0x006b3733
   217e4:	bf6b4b0e 	svclt	0x006b4b0e
   217e8:	bf6b5ed9 	svclt	0x006b5ed9
   217ec:	bf6b7293 	svclt	0x006b7293
   217f0:	bf6b864d 	svclt	0x006b864d
   217f4:	bf6b99f6 	svclt	0x006b99f6
   217f8:	bf6bad9f 	svclt	0x006bad9f
   217fc:	bf6bc137 	svclt	0x006bc137
   21800:	bf6bd4d0 	svclt	0x006bd4d0
   21804:	bf6be857 	svclt	0x006be857
   21808:	bf6bfbdf 	svclt	0x006bfbdf
   2180c:	bf6c0f56 	svclt	0x006c0f56
   21810:	bf6c22bc 	svclt	0x006c22bc
   21814:	bf6c3622 	svclt	0x006c3622
   21818:	bf6c4988 	svclt	0x006c4988
   2181c:	bf6c5ccd 	svclt	0x006c5ccd
   21820:	bf6c7022 	svclt	0x006c7022
   21824:	bf6c8366 	svclt	0x006c8366
   21828:	bf6c969a 	svclt	0x006c969a
   2182c:	bf6ca9bd 	svclt	0x006ca9bd
   21830:	bf6cbcf1 	svclt	0x006cbcf1
   21834:	bf6cd003 	svclt	0x006cd003
   21838:	bf6ce315 	svclt	0x006ce315
   2183c:	bf6cf627 	svclt	0x006cf627
   21840:	bf6d0929 	svclt	0x006d0929
   21844:	bf6d1c19 	svclt	0x006d1c19
   21848:	bf6d2f0a 	svclt	0x006d2f0a
   2184c:	bf6d41ea 	svclt	0x006d41ea
   21850:	bf6d54ca 	svclt	0x006d54ca
   21854:	bf6d67a9 	svclt	0x006d67a9
   21858:	bf6d7a68 	svclt	0x006d7a68
   2185c:	bf6d8d26 	svclt	0x006d8d26
   21860:	bf6d9fe4 	svclt	0x006d9fe4
   21864:	bf6db292 	svclt	0x006db292
   21868:	bf6dc53f 	svclt	0x006dc53f
   2186c:	bf6dd7dc 	svclt	0x006dd7dc
   21870:	bf6dea68 	svclt	0x006dea68
   21874:	bf6dfcf4 	svclt	0x006dfcf4
   21878:	bf6e0f6f 	svclt	0x006e0f6f
   2187c:	bf6e21ea 	svclt	0x006e21ea
   21880:	bf6e3455 	svclt	0x006e3455
   21884:	bf6e46bf 	svclt	0x006e46bf
   21888:	bf6e5919 	svclt	0x006e5919
   2188c:	bf6e6b72 	svclt	0x006e6b72
   21890:	bf6e7dbb 	svclt	0x006e7dbb
   21894:	bf6e8ff3 	svclt	0x006e8ff3
   21898:	bf6ea22b 	svclt	0x006ea22b
   2189c:	bf6eb463 	svclt	0x006eb463
   218a0:	bf6ec67a 	svclt	0x006ec67a
   218a4:	bf6ed8a1 	svclt	0x006ed8a1
   218a8:	bf6eeab8 	svclt	0x006eeab8
   218ac:	bf6efcbd 	svclt	0x006efcbd
   218b0:	bf6f0eb2 	svclt	0x006f0eb2
   218b4:	bf6f20b8 	svclt	0x006f20b8
   218b8:	bf6f329c 	svclt	0x006f329c
   218bc:	bf6f4480 	svclt	0x006f4480
   218c0:	bf6f5665 	svclt	0x006f5665
   218c4:	bf6f6838 	svclt	0x006f6838
   218c8:	bf6f79fb 	svclt	0x006f79fb
   218cc:	bf6f8bbd 	svclt	0x006f8bbd
   218d0:	bf6f9d6f 	svclt	0x006f9d6f
   218d4:	bf6faf21 	svclt	0x006faf21
   218d8:	bf6fc0c2 	svclt	0x006fc0c2
   218dc:	bf6fd252 	svclt	0x006fd252
   218e0:	bf6fe3f3 	svclt	0x006fe3f3
   218e4:	bf6ff573 	svclt	0x006ff573
   218e8:	bf7006f2 	svclt	0x007006f2
   218ec:	bf701861 	svclt	0x00701861
   218f0:	bf7029d0 	svclt	0x007029d0
   218f4:	bf703b3f 	svclt	0x00703b3f
   218f8:	bf704c8c 	svclt	0x00704c8c
   218fc:	bf705dd9 	svclt	0x00705dd9
   21900:	bf706f26 	svclt	0x00706f26
   21904:	bf708063 	svclt	0x00708063
   21908:	bf70919f 	svclt	0x0070919f
   2190c:	bf70a2cb 	svclt	0x0070a2cb
   21910:	bf70b3e5 	svclt	0x0070b3e5
   21914:	bf70c500 	svclt	0x0070c500
   21918:	bf70d60a 	svclt	0x0070d60a
   2191c:	bf70e714 	svclt	0x0070e714
   21920:	bf70f80e 	svclt	0x0070f80e
   21924:	bf710907 	svclt	0x00710907
   21928:	bf7119f0 	svclt	0x007119f0
   2192c:	bf712ad8 	svclt	0x00712ad8
   21930:	bf713bb0 	svclt	0x00713bb0
   21934:	bf714c77 	svclt	0x00714c77
   21938:	bf715d3e 	svclt	0x00715d3e
   2193c:	bf716df4 	svclt	0x00716df4
   21940:	bf717eaa 	svclt	0x00717eaa
   21944:	bf718f50 	svclt	0x00718f50
   21948:	bf719ff5 	svclt	0x00719ff5
   2194c:	bf71b08a 	svclt	0x0071b08a
   21950:	bf71c11e 	svclt	0x0071c11e
   21954:	bf71d1a2 	svclt	0x0071d1a2
   21958:	bf71e215 	svclt	0x0071e215
   2195c:	bf71f288 	svclt	0x0071f288
   21960:	bf7202fb 	svclt	0x007202fb
   21964:	bf72134d 	svclt	0x0072134d
   21968:	bf7223af 	svclt	0x007223af
   2196c:	bf7233f0 	svclt	0x007233f0
   21970:	bf724431 	svclt	0x00724431
   21974:	bf725471 	svclt	0x00725471
   21978:	bf7264a1 	svclt	0x007264a1
   2197c:	bf7274c1 	svclt	0x007274c1
   21980:	bf7284e0 	svclt	0x007284e0
   21984:	bf7294ff 	svclt	0x007294ff
   21988:	bf72a4fd 	svclt	0x0072a4fd
   2198c:	bf72b50b 	svclt	0x0072b50b
   21990:	bf72c4f8 	svclt	0x0072c4f8
   21994:	bf72d4e5 	svclt	0x0072d4e5
   21998:	bf72e4d2 	svclt	0x0072e4d2
   2199c:	bf72f4ae 	svclt	0x0072f4ae
   219a0:	bf730479 	svclt	0x00730479
   219a4:	bf731444 	svclt	0x00731444
   219a8:	bf7323ff 	svclt	0x007323ff
   219ac:	bf7333b9 	svclt	0x007333b9
   219b0:	bf734363 	svclt	0x00734363
   219b4:	bf73530d 	svclt	0x0073530d
   219b8:	bf7362a6 	svclt	0x007362a6
   219bc:	bf73723f 	svclt	0x0073723f
   219c0:	bf7381c7 	svclt	0x007381c7
   219c4:	bf73913f 	svclt	0x0073913f
   219c8:	bf73a0b6 	svclt	0x0073a0b6
   219cc:	bf73b01d 	svclt	0x0073b01d
   219d0:	bf73bf83 	svclt	0x0073bf83
   219d4:	bf73ced9 	svclt	0x0073ced9
   219d8:	bf73de2f 	svclt	0x0073de2f
   219dc:	bf73ed74 	svclt	0x0073ed74
   219e0:	bf73fca8 	svclt	0x0073fca8
   219e4:	bf740bdd 	svclt	0x00740bdd
   219e8:	bf741b00 	svclt	0x00741b00
   219ec:	bf742a24 	svclt	0x00742a24
   219f0:	bf743937 	svclt	0x00743937
   219f4:	bf744849 	svclt	0x00744849
   219f8:	bf74574b 	svclt	0x0074574b
   219fc:	bf74664d 	svclt	0x0074664d
   21a00:	bf74753e 	svclt	0x0074753e
   21a04:	bf74841f 	svclt	0x0074841f
   21a08:	bf7492ff 	svclt	0x007492ff
   21a0c:	bf74a1cf 	svclt	0x0074a1cf
   21a10:	bf74b09f 	svclt	0x0074b09f
   21a14:	bf74bf5d 	svclt	0x0074bf5d
   21a18:	bf74ce1c 	svclt	0x0074ce1c
   21a1c:	bf74dcca 	svclt	0x0074dcca
   21a20:	bf74eb68 	svclt	0x0074eb68
   21a24:	bf74fa05 	svclt	0x0074fa05
   21a28:	bf7508a2 	svclt	0x007508a2
   21a2c:	bf75172f 	svclt	0x0075172f
   21a30:	bf7525ab 	svclt	0x007525ab
   21a34:	bf753416 	svclt	0x00753416
   21a38:	bf754291 	svclt	0x00754291
   21a3c:	bf7550ec 	svclt	0x007550ec
   21a40:	bf755f46 	svclt	0x00755f46
   21a44:	bf756d8f 	svclt	0x00756d8f
   21a48:	bf757bd9 	svclt	0x00757bd9
   21a4c:	bf758a22 	svclt	0x00758a22
   21a50:	bf75984a 	svclt	0x0075984a
   21a54:	bf75a683 	svclt	0x0075a683
   21a58:	bf75b49a 	svclt	0x0075b49a
   21a5c:	bf75c2b1 	svclt	0x0075c2b1
   21a60:	bf75d0c8 	svclt	0x0075d0c8
   21a64:	bf75dece 	svclt	0x0075dece
   21a68:	bf75ecc4 	svclt	0x0075ecc4
   21a6c:	bf75fab9 	svclt	0x0075fab9
   21a70:	bf76089e 	svclt	0x0076089e
   21a74:	bf761672 	svclt	0x00761672
   21a78:	bf762457 	svclt	0x00762457
   21a7c:	bf76321a 	svclt	0x0076321a
   21a80:	bf763fdd 	svclt	0x00763fdd
   21a84:	bf764d90 	svclt	0x00764d90
   21a88:	bf765b42 	svclt	0x00765b42
   21a8c:	bf7668e4 	svclt	0x007668e4
   21a90:	bf767686 	svclt	0x00767686
   21a94:	bf768416 	svclt	0x00768416
   21a98:	bf7691a7 	svclt	0x007691a7
   21a9c:	bf769f27 	svclt	0x00769f27
   21aa0:	bf76ac97 	svclt	0x0076ac97
   21aa4:	bf76ba06 	svclt	0x0076ba06
   21aa8:	bf76c765 	svclt	0x0076c765
   21aac:	bf76d4c3 	svclt	0x0076d4c3
   21ab0:	bf76e211 	svclt	0x0076e211
   21ab4:	bf76ef5f 	svclt	0x0076ef5f
   21ab8:	bf76fc9c 	svclt	0x0076fc9c
   21abc:	bf7709c8 	svclt	0x007709c8
   21ac0:	bf7716f4 	svclt	0x007716f4
   21ac4:	bf772410 	svclt	0x00772410
   21ac8:	bf77312b 	svclt	0x0077312b
   21acc:	bf773e36 	svclt	0x00773e36
   21ad0:	bf774b40 	svclt	0x00774b40
   21ad4:	bf77583a 	svclt	0x0077583a
   21ad8:	bf776523 	svclt	0x00776523
   21adc:	bf77720d 	svclt	0x0077720d
   21ae0:	bf777ef6 	svclt	0x00777ef6
   21ae4:	bf778bbd 	svclt	0x00778bbd
   21ae8:	bf779896 	svclt	0x00779896
   21aec:	bf77a54c 	svclt	0x0077a54c
   21af0:	bf77b203 	svclt	0x0077b203
   21af4:	bf77beba 	svclt	0x0077beba
   21af8:	bf77cb60 	svclt	0x0077cb60
   21afc:	bf77d7f5 	svclt	0x0077d7f5
   21b00:	bf77e48a 	svclt	0x0077e48a
   21b04:	bf77f10f 	svclt	0x0077f10f
   21b08:	bf77fd93 	svclt	0x0077fd93
   21b0c:	bf780a07 	svclt	0x00780a07
   21b10:	bf78166a 	svclt	0x0078166a
   21b14:	bf7822cd 	svclt	0x007822cd
   21b18:	bf782f30 	svclt	0x00782f30
   21b1c:	bf783b71 	svclt	0x00783b71
   21b20:	bf7847c3 	svclt	0x007847c3
   21b24:	bf7853f4 	svclt	0x007853f4
   21b28:	bf786024 	svclt	0x00786024
   21b2c:	bf786c55 	svclt	0x00786c55
   21b30:	bf787875 	svclt	0x00787875
   21b34:	bf788484 	svclt	0x00788484
   21b38:	bf789093 	svclt	0x00789093
   21b3c:	bf789c91 	svclt	0x00789c91
   21b40:	bf78a88f 	svclt	0x0078a88f
   21b44:	bf78b47c 	svclt	0x0078b47c
   21b48:	bf78c059 	svclt	0x0078c059
   21b4c:	bf78cc36 	svclt	0x0078cc36
   21b50:	bf78d812 	svclt	0x0078d812
   21b54:	bf78e3ce 	svclt	0x0078e3ce
   21b58:	bf78ef9a 	svclt	0x0078ef9a
   21b5c:	bf78fb44 	svclt	0x0078fb44
   21b60:	bf7906ee 	svclt	0x007906ee
   21b64:	bf791299 	svclt	0x00791299
   21b68:	bf791e32 	svclt	0x00791e32
   21b6c:	bf7929bb 	svclt	0x007929bb
   21b70:	bf793544 	svclt	0x00793544
   21b74:	bf7940bc 	svclt	0x007940bc
   21b78:	bf794c34 	svclt	0x00794c34
   21b7c:	bf79579b 	svclt	0x0079579b
   21b80:	bf7962f1 	svclt	0x007962f1
   21b84:	bf796e48 	svclt	0x00796e48
   21b88:	bf79799e 	svclt	0x0079799e
   21b8c:	bf7984e4 	svclt	0x007984e4
   21b90:	bf799019 	svclt	0x00799019
   21b94:	bf799b3d 	svclt	0x00799b3d
   21b98:	bf79a661 	svclt	0x0079a661
   21b9c:	bf79b185 	svclt	0x0079b185
   21ba0:	bf79bc99 	svclt	0x0079bc99
   21ba4:	bf79c79b 	svclt	0x0079c79b
   21ba8:	bf79d29e 	svclt	0x0079d29e
   21bac:	bf79dd90 	svclt	0x0079dd90
   21bb0:	bf79e881 	svclt	0x0079e881
   21bb4:	bf79f362 	svclt	0x0079f362
   21bb8:	bf79fe33 	svclt	0x0079fe33
   21bbc:	bf7a0903 	svclt	0x007a0903
   21bc0:	bf7a13c2 	svclt	0x007a13c2
   21bc4:	bf7a1e82 	svclt	0x007a1e82
   21bc8:	bf7a2930 	svclt	0x007a2930
   21bcc:	bf7a33df 	svclt	0x007a33df
   21bd0:	bf7a3e7d 	svclt	0x007a3e7d
   21bd4:	bf7a490a 	svclt	0x007a490a
   21bd8:	bf7a5397 	svclt	0x007a5397
   21bdc:	bf7a5e24 	svclt	0x007a5e24
   21be0:	bf7a6890 	svclt	0x007a6890
   21be4:	bf7a72fc 	svclt	0x007a72fc
   21be8:	bf7a7d67 	svclt	0x007a7d67
   21bec:	bf7a87c2 	svclt	0x007a87c2
   21bf0:	bf7a920c 	svclt	0x007a920c
   21bf4:	bf7a9c56 	svclt	0x007a9c56
   21bf8:	bf7aa68f 	svclt	0x007aa68f
   21bfc:	bf7ab0c9 	svclt	0x007ab0c9
   21c00:	bf7abaf1 	svclt	0x007abaf1
   21c04:	bf7ac519 	svclt	0x007ac519
   21c08:	bf7acf31 	svclt	0x007acf31
   21c0c:	bf7ad938 	svclt	0x007ad938
   21c10:	bf7ae33f 	svclt	0x007ae33f
   21c14:	bf7aed35 	svclt	0x007aed35
   21c18:	bf7af72b 	svclt	0x007af72b
   21c1c:	bf7b0111 	svclt	0x007b0111
   21c20:	bf7b0ae5 	svclt	0x007b0ae5
   21c24:	bf7b14ba 	svclt	0x007b14ba
   21c28:	bf7b1e8e 	svclt	0x007b1e8e
   21c2c:	bf7b2841 	svclt	0x007b2841
   21c30:	bf7b3205 	svclt	0x007b3205
   21c34:	bf7b3ba7 	svclt	0x007b3ba7
   21c38:	bf7b454a 	svclt	0x007b454a
   21c3c:	bf7b4eec 	svclt	0x007b4eec
   21c40:	bf7b587d 	svclt	0x007b587d
   21c44:	bf7b61fe 	svclt	0x007b61fe
   21c48:	bf7b6b7f 	svclt	0x007b6b7f
   21c4c:	bf7b74ef 	svclt	0x007b74ef
   21c50:	bf7b7e4e 	svclt	0x007b7e4e
   21c54:	bf7b87ad 	svclt	0x007b87ad
   21c58:	bf7b910c 	svclt	0x007b910c
   21c5c:	bf7b9a5b 	svclt	0x007b9a5b
   21c60:	bf7ba398 	svclt	0x007ba398
   21c64:	bf7bacc5 	svclt	0x007bacc5
   21c68:	bf7bb603 	svclt	0x007bb603
   21c6c:	bf7bbf1f 	svclt	0x007bbf1f
   21c70:	bf7bc83b 	svclt	0x007bc83b
   21c74:	bf7bd146 	svclt	0x007bd146
   21c78:	bf7bda51 	svclt	0x007bda51
   21c7c:	bf7be34c 	svclt	0x007be34c
   21c80:	bf7bec46 	svclt	0x007bec46
   21c84:	bf7bf530 	svclt	0x007bf530
   21c88:	bf7bfe19 	svclt	0x007bfe19
   21c8c:	bf7c06e2 	svclt	0x007c06e2
   21c90:	bf7c0fbb 	svclt	0x007c0fbb
   21c94:	bf7c1883 	svclt	0x007c1883
   21c98:	bf7c213a 	svclt	0x007c213a
   21c9c:	bf7c29e1 	svclt	0x007c29e1
   21ca0:	bf7c3287 	svclt	0x007c3287
   21ca4:	bf7c3b2e 	svclt	0x007c3b2e
   21ca8:	bf7c43b3 	svclt	0x007c43b3
   21cac:	bf7c4c49 	svclt	0x007c4c49
   21cb0:	bf7c54bd 	svclt	0x007c54bd
   21cb4:	bf7c5d42 	svclt	0x007c5d42
   21cb8:	bf7c65a5 	svclt	0x007c65a5
   21cbc:	bf7c6e09 	svclt	0x007c6e09
   21cc0:	bf7c765c 	svclt	0x007c765c
   21cc4:	bf7c7eae 	svclt	0x007c7eae
   21cc8:	bf7c86f0 	svclt	0x007c86f0
   21ccc:	bf7c8f32 	svclt	0x007c8f32
   21cd0:	bf7c9763 	svclt	0x007c9763
   21cd4:	bf7c9f84 	svclt	0x007c9f84
   21cd8:	bf7ca7a4 	svclt	0x007ca7a4
   21cdc:	bf7cafc4 	svclt	0x007cafc4
   21ce0:	bf7cb7c3 	svclt	0x007cb7c3
   21ce4:	bf7cbfc2 	svclt	0x007cbfc2
   21ce8:	bf7cc7c1 	svclt	0x007cc7c1
   21cec:	bf7ccfaf 	svclt	0x007ccfaf
   21cf0:	bf7cd78c 	svclt	0x007cd78c
   21cf4:	bf7cdf6a 	svclt	0x007cdf6a
   21cf8:	bf7ce736 	svclt	0x007ce736
   21cfc:	bf7cef03 	svclt	0x007cef03
   21d00:	bf7cf6be 	svclt	0x007cf6be
   21d04:	bf7cfe7a 	svclt	0x007cfe7a
   21d08:	bf7d0614 	svclt	0x007d0614
   21d0c:	bf7d0dbf 	svclt	0x007d0dbf
   21d10:	bf7d1559 	svclt	0x007d1559
   21d14:	bf7d1ce3 	svclt	0x007d1ce3
   21d18:	bf7d245b 	svclt	0x007d245b
   21d1c:	bf7d2bd4 	svclt	0x007d2bd4
   21d20:	bf7d334c 	svclt	0x007d334c
   21d24:	bf7d3ab4 	svclt	0x007d3ab4
   21d28:	bf7d420b 	svclt	0x007d420b
   21d2c:	bf7d4952 	svclt	0x007d4952
   21d30:	bf7d50a9 	svclt	0x007d50a9
   21d34:	bf7d57de 	svclt	0x007d57de
   21d38:	bf7d5f14 	svclt	0x007d5f14
   21d3c:	bf7d6638 	svclt	0x007d6638
   21d40:	bf7d6d5d 	svclt	0x007d6d5d
   21d44:	bf7d7471 	svclt	0x007d7471
   21d48:	bf7d7b85 	svclt	0x007d7b85
   21d4c:	bf7d8288 	svclt	0x007d8288
   21d50:	bf7d897a 	svclt	0x007d897a
   21d54:	bf7d906d 	svclt	0x007d906d
   21d58:	bf7d974e 	svclt	0x007d974e
   21d5c:	bf7d9e30 	svclt	0x007d9e30
   21d60:	bf7da501 	svclt	0x007da501
   21d64:	bf7dabd2 	svclt	0x007dabd2
   21d68:	bf7db292 	svclt	0x007db292
   21d6c:	bf7db941 	svclt	0x007db941
   21d70:	bf7dbff0 	svclt	0x007dbff0
   21d74:	bf7dc68f 	svclt	0x007dc68f
   21d78:	bf7dcd1c 	svclt	0x007dcd1c
   21d7c:	bf7dd3aa 	svclt	0x007dd3aa
   21d80:	bf7dda38 	svclt	0x007dda38
   21d84:	bf7de0b5 	svclt	0x007de0b5
   21d88:	bf7de721 	svclt	0x007de721
   21d8c:	bf7ded8d 	svclt	0x007ded8d
   21d90:	bf7df3e9 	svclt	0x007df3e9
   21d94:	bf7dfa33 	svclt	0x007dfa33
   21d98:	bf7e007e 	svclt	0x007e007e
   21d9c:	bf7e06c8 	svclt	0x007e06c8
   21da0:	bf7e0cf2 	svclt	0x007e0cf2
   21da4:	bf7e132b 	svclt	0x007e132b
   21da8:	bf7e1944 	svclt	0x007e1944
   21dac:	bf7e1f5c 	svclt	0x007e1f5c
   21db0:	bf7e2574 	svclt	0x007e2574
   21db4:	bf7e2b6b 	svclt	0x007e2b6b
   21db8:	bf7e3172 	svclt	0x007e3172
   21dbc:	bf7e3758 	svclt	0x007e3758
   21dc0:	bf7e3d3e 	svclt	0x007e3d3e
   21dc4:	bf7e4324 	svclt	0x007e4324
   21dc8:	bf7e48f9 	svclt	0x007e48f9
   21dcc:	bf7e4ebe 	svclt	0x007e4ebe
   21dd0:	bf7e5482 	svclt	0x007e5482
   21dd4:	bf7e5a36 	svclt	0x007e5a36
   21dd8:	bf7e5fe9 	svclt	0x007e5fe9
   21ddc:	bf7e658c 	svclt	0x007e658c
   21de0:	bf7e6b1e 	svclt	0x007e6b1e
   21de4:	bf7e70b0 	svclt	0x007e70b0
   21de8:	bf7e7632 	svclt	0x007e7632
   21dec:	bf7e7bb3 	svclt	0x007e7bb3
   21df0:	bf7e8124 	svclt	0x007e8124
   21df4:	bf7e8683 	svclt	0x007e8683
   21df8:	bf7e8be3 	svclt	0x007e8be3
   21dfc:	bf7e9143 	svclt	0x007e9143
   21e00:	bf7e9681 	svclt	0x007e9681
   21e04:	bf7e9bd0 	svclt	0x007e9bd0
   21e08:	bf7ea0fd 	svclt	0x007ea0fd
   21e0c:	bf7ea62b 	svclt	0x007ea62b
   21e10:	bf7eab58 	svclt	0x007eab58
   21e14:	bf7eb064 	svclt	0x007eb064
   21e18:	bf7eb580 	svclt	0x007eb580
   21e1c:	bf7eba7c 	svclt	0x007eba7c
   21e20:	bf7ebf77 	svclt	0x007ebf77
   21e24:	bf7ec472 	svclt	0x007ec472
   21e28:	bf7ec95c 	svclt	0x007ec95c
   21e2c:	bf7ece36 	svclt	0x007ece36
   21e30:	bf7ed30f 	svclt	0x007ed30f
   21e34:	bf7ed7d8 	svclt	0x007ed7d8
   21e38:	bf7edc90 	svclt	0x007edc90
   21e3c:	bf7ee148 	svclt	0x007ee148
   21e40:	bf7ee600 	svclt	0x007ee600
   21e44:	bf7eea96 	svclt	0x007eea96
   21e48:	bf7eef3d 	svclt	0x007eef3d
   21e4c:	bf7ef3c3 	svclt	0x007ef3c3
   21e50:	bf7ef848 	svclt	0x007ef848
   21e54:	bf7efcce 	svclt	0x007efcce
   21e58:	bf7f0143 	svclt	0x007f0143
   21e5c:	bf7f05a7 	svclt	0x007f05a7
   21e60:	bf7f0a0b 	svclt	0x007f0a0b
   21e64:	bf7f0e5e 	svclt	0x007f0e5e
   21e68:	bf7f12a1 	svclt	0x007f12a1
   21e6c:	bf7f16e3 	svclt	0x007f16e3
   21e70:	bf7f1b15 	svclt	0x007f1b15
   21e74:	bf7f1f47 	svclt	0x007f1f47
   21e78:	bf7f2368 	svclt	0x007f2368
   21e7c:	bf7f2789 	svclt	0x007f2789
   21e80:	bf7f2b99 	svclt	0x007f2b99
   21e84:	bf7f2f98 	svclt	0x007f2f98
   21e88:	bf7f3398 	svclt	0x007f3398
   21e8c:	bf7f3786 	svclt	0x007f3786
   21e90:	bf7f3b75 	svclt	0x007f3b75
   21e94:	bf7f3f53 	svclt	0x007f3f53
   21e98:	bf7f4331 	svclt	0x007f4331
   21e9c:	bf7f46ed 	svclt	0x007f46ed
   21ea0:	bf7f4aba 	svclt	0x007f4aba
   21ea4:	bf7f4e66 	svclt	0x007f4e66
   21ea8:	bf7f5222 	svclt	0x007f5222
   21eac:	bf7f55bd 	svclt	0x007f55bd
   21eb0:	bf7f5958 	svclt	0x007f5958
   21eb4:	bf7f5ce2 	svclt	0x007f5ce2
   21eb8:	bf7f606b 	svclt	0x007f606b
   21ebc:	bf7f63e5 	svclt	0x007f63e5
   21ec0:	bf7f675e 	svclt	0x007f675e
   21ec4:	bf7f6ac6 	svclt	0x007f6ac6
   21ec8:	bf7f6e2f 	svclt	0x007f6e2f
   21ecc:	bf7f7176 	svclt	0x007f7176
   21ed0:	bf7f74cd 	svclt	0x007f74cd
   21ed4:	bf7f7803 	svclt	0x007f7803
   21ed8:	bf7f7b39 	svclt	0x007f7b39
   21edc:	bf7f7e6f 	svclt	0x007f7e6f
   21ee0:	bf7f8195 	svclt	0x007f8195
   21ee4:	bf7f84a9 	svclt	0x007f84a9
   21ee8:	bf7f87be 	svclt	0x007f87be
   21eec:	bf7f8ac2 	svclt	0x007f8ac2
   21ef0:	bf7f8dc5 	svclt	0x007f8dc5
   21ef4:	bf7f90b8 	svclt	0x007f90b8
   21ef8:	bf7f939a 	svclt	0x007f939a
   21efc:	bf7f967d 	svclt	0x007f967d
   21f00:	bf7f994e 	svclt	0x007f994e
   21f04:	bf7f9c20 	svclt	0x007f9c20
   21f08:	bf7f9ee0 	svclt	0x007f9ee0
   21f0c:	bf7fa190 	svclt	0x007fa190
   21f10:	bf7fa440 	svclt	0x007fa440
   21f14:	bf7fa6df 	svclt	0x007fa6df
   21f18:	bf7fa97e 	svclt	0x007fa97e
   21f1c:	bf7fac0c 	svclt	0x007fac0c
   21f20:	bf7fae9b 	svclt	0x007fae9b
   21f24:	bf7fb107 	svclt	0x007fb107
   21f28:	bf7fb385 	svclt	0x007fb385
   21f2c:	bf7fb5f2 	svclt	0x007fb5f2
   21f30:	bf7fb84e 	svclt	0x007fb84e
   21f34:	bf7fba99 	svclt	0x007fba99
   21f38:	bf7fbce4 	svclt	0x007fbce4
   21f3c:	bf7fbf2f 	svclt	0x007fbf2f
   21f40:	bf7fc16a 	svclt	0x007fc16a
   21f44:	bf7fc393 	svclt	0x007fc393
   21f48:	bf7fc5ac 	svclt	0x007fc5ac
   21f4c:	bf7fc7c5 	svclt	0x007fc7c5
   21f50:	bf7fc9de 	svclt	0x007fc9de
   21f54:	bf7fcbe6 	svclt	0x007fcbe6
   21f58:	bf7fcddd 	svclt	0x007fcddd
   21f5c:	bf7fcfd5 	svclt	0x007fcfd5
   21f60:	bf7fd1bb 	svclt	0x007fd1bb
   21f64:	bf7fd391 	svclt	0x007fd391
   21f68:	bf7fd567 	svclt	0x007fd567
   21f6c:	bf7fd73d 	svclt	0x007fd73d
   21f70:	bf7fd8f1 	svclt	0x007fd8f1
   21f74:	bf7fdab6 	svclt	0x007fdab6
   21f78:	bf7fdc59 	svclt	0x007fdc59
   21f7c:	bf7fddfd 	svclt	0x007fddfd
   21f80:	bf7fdfa0 	svclt	0x007fdfa0
   21f84:	bf7fe122 	svclt	0x007fe122
   21f88:	bf7fe2b5 	svclt	0x007fe2b5
   21f8c:	bf7fe426 	svclt	0x007fe426
   21f90:	bf7fe597 	svclt	0x007fe597
   21f94:	bf7fe708 	svclt	0x007fe708
   21f98:	bf7fe868 	svclt	0x007fe868
   21f9c:	bf7fe9b8 	svclt	0x007fe9b8
   21fa0:	bf7feb07 	svclt	0x007feb07
   21fa4:	bf7fec46 	svclt	0x007fec46
   21fa8:	bf7fed74 	svclt	0x007fed74
   21fac:	bf7feea2 	svclt	0x007feea2
   21fb0:	bf7fefd0 	svclt	0x007fefd0
   21fb4:	bf7ff0dc 	svclt	0x007ff0dc
   21fb8:	bf7ff1fa 	svclt	0x007ff1fa
   21fbc:	bf7ff2f5 	svclt	0x007ff2f5
   21fc0:	bf7ff3f1 	svclt	0x007ff3f1
   21fc4:	bf7ff4ed 	svclt	0x007ff4ed
   21fc8:	bf7ff5c7 	svclt	0x007ff5c7
   21fcc:	bf7ff6b2 	svclt	0x007ff6b2
   21fd0:	bf7ff77b 	svclt	0x007ff77b
   21fd4:	bf7ff844 	svclt	0x007ff844
   21fd8:	bf7ff90e 	svclt	0x007ff90e
   21fdc:	bf7ff9c6 	svclt	0x007ff9c6
   21fe0:	bf7ffa6e 	svclt	0x007ffa6e
   21fe4:	bf7ffb16 	svclt	0x007ffb16
   21fe8:	bf7ffbad 	svclt	0x007ffbad
   21fec:	bf7ffc33 	svclt	0x007ffc33
   21ff0:	bf7ffcb9 	svclt	0x007ffcb9
   21ff4:	bf7ffd3f 	svclt	0x007ffd3f
   21ff8:	bf7ffda4 	svclt	0x007ffda4
   21ffc:	bf7ffe19 	svclt	0x007ffe19
   22000:	bf7ffe6d 	svclt	0x007ffe6d
   22004:	bf7ffec1 	svclt	0x007ffec1
   22008:	bf7fff15 	svclt	0x007fff15
   2200c:	bf7fff47 	svclt	0x007fff47
   22010:	bf7fff8b 	svclt	0x007fff8b
   22014:	bf7fffac 	svclt	0x007fffac
   22018:	bf7fffce 	svclt	0x007fffce
   2201c:	bf7fffef 	svclt	0x007fffef
   22020:	bf800000 	svclt	0x00800000
   22024:	bf800000 	svclt	0x00800000
   22028:	bf800000 	svclt	0x00800000
   2202c:	bf7fffef 	svclt	0x007fffef
   22030:	bf7fffce 	svclt	0x007fffce
   22034:	bf7fffac 	svclt	0x007fffac
   22038:	bf7fff8b 	svclt	0x007fff8b
   2203c:	bf7fff47 	svclt	0x007fff47
   22040:	bf7fff15 	svclt	0x007fff15
   22044:	bf7ffec1 	svclt	0x007ffec1
   22048:	bf7ffe6d 	svclt	0x007ffe6d
   2204c:	bf7ffe19 	svclt	0x007ffe19
   22050:	bf7ffda4 	svclt	0x007ffda4
   22054:	bf7ffd3f 	svclt	0x007ffd3f
   22058:	bf7ffcb9 	svclt	0x007ffcb9
   2205c:	bf7ffc33 	svclt	0x007ffc33
   22060:	bf7ffbad 	svclt	0x007ffbad
   22064:	bf7ffb16 	svclt	0x007ffb16
   22068:	bf7ffa6e 	svclt	0x007ffa6e
   2206c:	bf7ff9c6 	svclt	0x007ff9c6
   22070:	bf7ff90e 	svclt	0x007ff90e
   22074:	bf7ff844 	svclt	0x007ff844
   22078:	bf7ff77b 	svclt	0x007ff77b
   2207c:	bf7ff6b2 	svclt	0x007ff6b2
   22080:	bf7ff5c7 	svclt	0x007ff5c7
   22084:	bf7ff4ed 	svclt	0x007ff4ed
   22088:	bf7ff3f1 	svclt	0x007ff3f1
   2208c:	bf7ff2f5 	svclt	0x007ff2f5
   22090:	bf7ff1fa 	svclt	0x007ff1fa
   22094:	bf7ff0dc 	svclt	0x007ff0dc
   22098:	bf7fefd0 	svclt	0x007fefd0
   2209c:	bf7feea2 	svclt	0x007feea2
   220a0:	bf7fed74 	svclt	0x007fed74
   220a4:	bf7fec46 	svclt	0x007fec46
   220a8:	bf7feb07 	svclt	0x007feb07
   220ac:	bf7fe9b8 	svclt	0x007fe9b8
   220b0:	bf7fe868 	svclt	0x007fe868
   220b4:	bf7fe708 	svclt	0x007fe708
   220b8:	bf7fe597 	svclt	0x007fe597
   220bc:	bf7fe426 	svclt	0x007fe426
   220c0:	bf7fe2b5 	svclt	0x007fe2b5
   220c4:	bf7fe122 	svclt	0x007fe122
   220c8:	bf7fdfa0 	svclt	0x007fdfa0
   220cc:	bf7fddfd 	svclt	0x007fddfd
   220d0:	bf7fdc59 	svclt	0x007fdc59
   220d4:	bf7fdab6 	svclt	0x007fdab6
   220d8:	bf7fd8f1 	svclt	0x007fd8f1
   220dc:	bf7fd73d 	svclt	0x007fd73d
   220e0:	bf7fd567 	svclt	0x007fd567
   220e4:	bf7fd391 	svclt	0x007fd391
   220e8:	bf7fd1bb 	svclt	0x007fd1bb
   220ec:	bf7fcfd5 	svclt	0x007fcfd5
   220f0:	bf7fcddd 	svclt	0x007fcddd
   220f4:	bf7fcbe6 	svclt	0x007fcbe6
   220f8:	bf7fc9de 	svclt	0x007fc9de
   220fc:	bf7fc7c5 	svclt	0x007fc7c5
   22100:	bf7fc5ac 	svclt	0x007fc5ac
   22104:	bf7fc393 	svclt	0x007fc393
   22108:	bf7fc16a 	svclt	0x007fc16a
   2210c:	bf7fbf2f 	svclt	0x007fbf2f
   22110:	bf7fbce4 	svclt	0x007fbce4
   22114:	bf7fba99 	svclt	0x007fba99
   22118:	bf7fb84e 	svclt	0x007fb84e
   2211c:	bf7fb5f2 	svclt	0x007fb5f2
   22120:	bf7fb385 	svclt	0x007fb385
   22124:	bf7fb107 	svclt	0x007fb107
   22128:	bf7fae9b 	svclt	0x007fae9b
   2212c:	bf7fac0c 	svclt	0x007fac0c
   22130:	bf7fa97e 	svclt	0x007fa97e
   22134:	bf7fa6df 	svclt	0x007fa6df
   22138:	bf7fa440 	svclt	0x007fa440
   2213c:	bf7fa190 	svclt	0x007fa190
   22140:	bf7f9ee0 	svclt	0x007f9ee0
   22144:	bf7f9c20 	svclt	0x007f9c20
   22148:	bf7f994e 	svclt	0x007f994e
   2214c:	bf7f967d 	svclt	0x007f967d
   22150:	bf7f939a 	svclt	0x007f939a
   22154:	bf7f90b8 	svclt	0x007f90b8
   22158:	bf7f8dc5 	svclt	0x007f8dc5
   2215c:	bf7f8ac2 	svclt	0x007f8ac2
   22160:	bf7f87be 	svclt	0x007f87be
   22164:	bf7f84a9 	svclt	0x007f84a9
   22168:	bf7f8195 	svclt	0x007f8195
   2216c:	bf7f7e6f 	svclt	0x007f7e6f
   22170:	bf7f7b39 	svclt	0x007f7b39
   22174:	bf7f7803 	svclt	0x007f7803
   22178:	bf7f74cd 	svclt	0x007f74cd
   2217c:	bf7f7176 	svclt	0x007f7176
   22180:	bf7f6e2f 	svclt	0x007f6e2f
   22184:	bf7f6ac6 	svclt	0x007f6ac6
   22188:	bf7f675e 	svclt	0x007f675e
   2218c:	bf7f63e5 	svclt	0x007f63e5
   22190:	bf7f606b 	svclt	0x007f606b
   22194:	bf7f5ce2 	svclt	0x007f5ce2
   22198:	bf7f5958 	svclt	0x007f5958
   2219c:	bf7f55bd 	svclt	0x007f55bd
   221a0:	bf7f5222 	svclt	0x007f5222
   221a4:	bf7f4e66 	svclt	0x007f4e66
   221a8:	bf7f4aba 	svclt	0x007f4aba
   221ac:	bf7f46ed 	svclt	0x007f46ed
   221b0:	bf7f4331 	svclt	0x007f4331
   221b4:	bf7f3f53 	svclt	0x007f3f53
   221b8:	bf7f3b75 	svclt	0x007f3b75
   221bc:	bf7f3786 	svclt	0x007f3786
   221c0:	bf7f3398 	svclt	0x007f3398
   221c4:	bf7f2f98 	svclt	0x007f2f98
   221c8:	bf7f2b99 	svclt	0x007f2b99
   221cc:	bf7f2789 	svclt	0x007f2789
   221d0:	bf7f2368 	svclt	0x007f2368
   221d4:	bf7f1f47 	svclt	0x007f1f47
   221d8:	bf7f1b15 	svclt	0x007f1b15
   221dc:	bf7f16e3 	svclt	0x007f16e3
   221e0:	bf7f12a1 	svclt	0x007f12a1
   221e4:	bf7f0e5e 	svclt	0x007f0e5e
   221e8:	bf7f0a0b 	svclt	0x007f0a0b
   221ec:	bf7f05a7 	svclt	0x007f05a7
   221f0:	bf7f0143 	svclt	0x007f0143
   221f4:	bf7efcce 	svclt	0x007efcce
   221f8:	bf7ef848 	svclt	0x007ef848
   221fc:	bf7ef3c3 	svclt	0x007ef3c3
   22200:	bf7eef3d 	svclt	0x007eef3d
   22204:	bf7eea96 	svclt	0x007eea96
   22208:	bf7ee600 	svclt	0x007ee600
   2220c:	bf7ee148 	svclt	0x007ee148
   22210:	bf7edc90 	svclt	0x007edc90
   22214:	bf7ed7d8 	svclt	0x007ed7d8
   22218:	bf7ed30f 	svclt	0x007ed30f
   2221c:	bf7ece36 	svclt	0x007ece36
   22220:	bf7ec95c 	svclt	0x007ec95c
   22224:	bf7ec472 	svclt	0x007ec472
   22228:	bf7ebf77 	svclt	0x007ebf77
   2222c:	bf7eba7c 	svclt	0x007eba7c
   22230:	bf7eb580 	svclt	0x007eb580
   22234:	bf7eb064 	svclt	0x007eb064
   22238:	bf7eab58 	svclt	0x007eab58
   2223c:	bf7ea62b 	svclt	0x007ea62b
   22240:	bf7ea0fd 	svclt	0x007ea0fd
   22244:	bf7e9bd0 	svclt	0x007e9bd0
   22248:	bf7e9681 	svclt	0x007e9681
   2224c:	bf7e9143 	svclt	0x007e9143
   22250:	bf7e8be3 	svclt	0x007e8be3
   22254:	bf7e8683 	svclt	0x007e8683
   22258:	bf7e8124 	svclt	0x007e8124
   2225c:	bf7e7bb3 	svclt	0x007e7bb3
   22260:	bf7e7632 	svclt	0x007e7632
   22264:	bf7e70b0 	svclt	0x007e70b0
   22268:	bf7e6b1e 	svclt	0x007e6b1e
   2226c:	bf7e658c 	svclt	0x007e658c
   22270:	bf7e5fe9 	svclt	0x007e5fe9
   22274:	bf7e5a36 	svclt	0x007e5a36
   22278:	bf7e5482 	svclt	0x007e5482
   2227c:	bf7e4ebe 	svclt	0x007e4ebe
   22280:	bf7e48f9 	svclt	0x007e48f9
   22284:	bf7e4324 	svclt	0x007e4324
   22288:	bf7e3d3e 	svclt	0x007e3d3e
   2228c:	bf7e3758 	svclt	0x007e3758
   22290:	bf7e3172 	svclt	0x007e3172
   22294:	bf7e2b6b 	svclt	0x007e2b6b
   22298:	bf7e2574 	svclt	0x007e2574
   2229c:	bf7e1f5c 	svclt	0x007e1f5c
   222a0:	bf7e1944 	svclt	0x007e1944
   222a4:	bf7e132b 	svclt	0x007e132b
   222a8:	bf7e0cf2 	svclt	0x007e0cf2
   222ac:	bf7e06c8 	svclt	0x007e06c8
   222b0:	bf7e007e 	svclt	0x007e007e
   222b4:	bf7dfa33 	svclt	0x007dfa33
   222b8:	bf7df3e9 	svclt	0x007df3e9
   222bc:	bf7ded8d 	svclt	0x007ded8d
   222c0:	bf7de721 	svclt	0x007de721
   222c4:	bf7de0b5 	svclt	0x007de0b5
   222c8:	bf7dda38 	svclt	0x007dda38
   222cc:	bf7dd3aa 	svclt	0x007dd3aa
   222d0:	bf7dcd1c 	svclt	0x007dcd1c
   222d4:	bf7dc68f 	svclt	0x007dc68f
   222d8:	bf7dbff0 	svclt	0x007dbff0
   222dc:	bf7db941 	svclt	0x007db941
   222e0:	bf7db292 	svclt	0x007db292
   222e4:	bf7dabd2 	svclt	0x007dabd2
   222e8:	bf7da501 	svclt	0x007da501
   222ec:	bf7d9e30 	svclt	0x007d9e30
   222f0:	bf7d974e 	svclt	0x007d974e
   222f4:	bf7d906d 	svclt	0x007d906d
   222f8:	bf7d897a 	svclt	0x007d897a
   222fc:	bf7d8288 	svclt	0x007d8288
   22300:	bf7d7b85 	svclt	0x007d7b85
   22304:	bf7d7471 	svclt	0x007d7471
   22308:	bf7d6d5d 	svclt	0x007d6d5d
   2230c:	bf7d6638 	svclt	0x007d6638
   22310:	bf7d5f14 	svclt	0x007d5f14
   22314:	bf7d57de 	svclt	0x007d57de
   22318:	bf7d50a9 	svclt	0x007d50a9
   2231c:	bf7d4952 	svclt	0x007d4952
   22320:	bf7d420b 	svclt	0x007d420b
   22324:	bf7d3ab4 	svclt	0x007d3ab4
   22328:	bf7d334c 	svclt	0x007d334c
   2232c:	bf7d2bd4 	svclt	0x007d2bd4
   22330:	bf7d245b 	svclt	0x007d245b
   22334:	bf7d1ce3 	svclt	0x007d1ce3
   22338:	bf7d1559 	svclt	0x007d1559
   2233c:	bf7d0dbf 	svclt	0x007d0dbf
   22340:	bf7d0614 	svclt	0x007d0614
   22344:	bf7cfe7a 	svclt	0x007cfe7a
   22348:	bf7cf6be 	svclt	0x007cf6be
   2234c:	bf7cef03 	svclt	0x007cef03
   22350:	bf7ce736 	svclt	0x007ce736
   22354:	bf7cdf6a 	svclt	0x007cdf6a
   22358:	bf7cd78c 	svclt	0x007cd78c
   2235c:	bf7ccfaf 	svclt	0x007ccfaf
   22360:	bf7cc7c1 	svclt	0x007cc7c1
   22364:	bf7cbfc2 	svclt	0x007cbfc2
   22368:	bf7cb7c3 	svclt	0x007cb7c3
   2236c:	bf7cafc4 	svclt	0x007cafc4
   22370:	bf7ca7a4 	svclt	0x007ca7a4
   22374:	bf7c9f84 	svclt	0x007c9f84
   22378:	bf7c9763 	svclt	0x007c9763
   2237c:	bf7c8f32 	svclt	0x007c8f32
   22380:	bf7c86f0 	svclt	0x007c86f0
   22384:	bf7c7eae 	svclt	0x007c7eae
   22388:	bf7c765c 	svclt	0x007c765c
   2238c:	bf7c6e09 	svclt	0x007c6e09
   22390:	bf7c65a5 	svclt	0x007c65a5
   22394:	bf7c5d42 	svclt	0x007c5d42
   22398:	bf7c54bd 	svclt	0x007c54bd
   2239c:	bf7c4c49 	svclt	0x007c4c49
   223a0:	bf7c43b3 	svclt	0x007c43b3
   223a4:	bf7c3b2e 	svclt	0x007c3b2e
   223a8:	bf7c3287 	svclt	0x007c3287
   223ac:	bf7c29e1 	svclt	0x007c29e1
   223b0:	bf7c213a 	svclt	0x007c213a
   223b4:	bf7c1883 	svclt	0x007c1883
   223b8:	bf7c0fbb 	svclt	0x007c0fbb
   223bc:	bf7c06e2 	svclt	0x007c06e2
   223c0:	bf7bfe19 	svclt	0x007bfe19
   223c4:	bf7bf530 	svclt	0x007bf530
   223c8:	bf7bec46 	svclt	0x007bec46
   223cc:	bf7be34c 	svclt	0x007be34c
   223d0:	bf7bda51 	svclt	0x007bda51
   223d4:	bf7bd146 	svclt	0x007bd146
   223d8:	bf7bc83b 	svclt	0x007bc83b
   223dc:	bf7bbf1f 	svclt	0x007bbf1f
   223e0:	bf7bb603 	svclt	0x007bb603
   223e4:	bf7bacc5 	svclt	0x007bacc5
   223e8:	bf7ba398 	svclt	0x007ba398
   223ec:	bf7b9a5b 	svclt	0x007b9a5b
   223f0:	bf7b910c 	svclt	0x007b910c
   223f4:	bf7b87ad 	svclt	0x007b87ad
   223f8:	bf7b7e4e 	svclt	0x007b7e4e
   223fc:	bf7b74ef 	svclt	0x007b74ef
   22400:	bf7b6b7f 	svclt	0x007b6b7f
   22404:	bf7b61fe 	svclt	0x007b61fe
   22408:	bf7b587d 	svclt	0x007b587d
   2240c:	bf7b4eec 	svclt	0x007b4eec
   22410:	bf7b454a 	svclt	0x007b454a
   22414:	bf7b3ba7 	svclt	0x007b3ba7
   22418:	bf7b3205 	svclt	0x007b3205
   2241c:	bf7b2841 	svclt	0x007b2841
   22420:	bf7b1e8e 	svclt	0x007b1e8e
   22424:	bf7b14ba 	svclt	0x007b14ba
   22428:	bf7b0ae5 	svclt	0x007b0ae5
   2242c:	bf7b0111 	svclt	0x007b0111
   22430:	bf7af72b 	svclt	0x007af72b
   22434:	bf7aed35 	svclt	0x007aed35
   22438:	bf7ae33f 	svclt	0x007ae33f
   2243c:	bf7ad938 	svclt	0x007ad938
   22440:	bf7acf31 	svclt	0x007acf31
   22444:	bf7ac519 	svclt	0x007ac519
   22448:	bf7abaf1 	svclt	0x007abaf1
   2244c:	bf7ab0c9 	svclt	0x007ab0c9
   22450:	bf7aa68f 	svclt	0x007aa68f
   22454:	bf7a9c56 	svclt	0x007a9c56
   22458:	bf7a920c 	svclt	0x007a920c
   2245c:	bf7a87c2 	svclt	0x007a87c2
   22460:	bf7a7d67 	svclt	0x007a7d67
   22464:	bf7a72fc 	svclt	0x007a72fc
   22468:	bf7a6890 	svclt	0x007a6890
   2246c:	bf7a5e24 	svclt	0x007a5e24
   22470:	bf7a5397 	svclt	0x007a5397
   22474:	bf7a490a 	svclt	0x007a490a
   22478:	bf7a3e7d 	svclt	0x007a3e7d
   2247c:	bf7a33df 	svclt	0x007a33df
   22480:	bf7a2930 	svclt	0x007a2930
   22484:	bf7a1e82 	svclt	0x007a1e82
   22488:	bf7a13c2 	svclt	0x007a13c2
   2248c:	bf7a0903 	svclt	0x007a0903
   22490:	bf79fe33 	svclt	0x0079fe33
   22494:	bf79f362 	svclt	0x0079f362
   22498:	bf79e881 	svclt	0x0079e881
   2249c:	bf79dd90 	svclt	0x0079dd90
   224a0:	bf79d29e 	svclt	0x0079d29e
   224a4:	bf79c79b 	svclt	0x0079c79b
   224a8:	bf79bc99 	svclt	0x0079bc99
   224ac:	bf79b185 	svclt	0x0079b185
   224b0:	bf79a661 	svclt	0x0079a661
   224b4:	bf799b3d 	svclt	0x00799b3d
   224b8:	bf799019 	svclt	0x00799019
   224bc:	bf7984e4 	svclt	0x007984e4
   224c0:	bf79799e 	svclt	0x0079799e
   224c4:	bf796e48 	svclt	0x00796e48
   224c8:	bf7962f1 	svclt	0x007962f1
   224cc:	bf79579b 	svclt	0x0079579b
   224d0:	bf794c34 	svclt	0x00794c34
   224d4:	bf7940bc 	svclt	0x007940bc
   224d8:	bf793544 	svclt	0x00793544
   224dc:	bf7929bb 	svclt	0x007929bb
   224e0:	bf791e32 	svclt	0x00791e32
   224e4:	bf791299 	svclt	0x00791299
   224e8:	bf7906ee 	svclt	0x007906ee
   224ec:	bf78fb44 	svclt	0x0078fb44
   224f0:	bf78ef9a 	svclt	0x0078ef9a
   224f4:	bf78e3ce 	svclt	0x0078e3ce
   224f8:	bf78d812 	svclt	0x0078d812
   224fc:	bf78cc36 	svclt	0x0078cc36
   22500:	bf78c059 	svclt	0x0078c059
   22504:	bf78b47c 	svclt	0x0078b47c
   22508:	bf78a88f 	svclt	0x0078a88f
   2250c:	bf789c91 	svclt	0x00789c91
   22510:	bf789093 	svclt	0x00789093
   22514:	bf788484 	svclt	0x00788484
   22518:	bf787875 	svclt	0x00787875
   2251c:	bf786c55 	svclt	0x00786c55
   22520:	bf786024 	svclt	0x00786024
   22524:	bf7853f4 	svclt	0x007853f4
   22528:	bf7847c3 	svclt	0x007847c3
   2252c:	bf783b71 	svclt	0x00783b71
   22530:	bf782f30 	svclt	0x00782f30
   22534:	bf7822cd 	svclt	0x007822cd
   22538:	bf78166a 	svclt	0x0078166a
   2253c:	bf780a07 	svclt	0x00780a07
   22540:	bf77fd93 	svclt	0x0077fd93
   22544:	bf77f10f 	svclt	0x0077f10f
   22548:	bf77e48a 	svclt	0x0077e48a
   2254c:	bf77d7f5 	svclt	0x0077d7f5
   22550:	bf77cb60 	svclt	0x0077cb60
   22554:	bf77beba 	svclt	0x0077beba
   22558:	bf77b203 	svclt	0x0077b203
   2255c:	bf77a54c 	svclt	0x0077a54c
   22560:	bf779896 	svclt	0x00779896
   22564:	bf778bbd 	svclt	0x00778bbd
   22568:	bf777ef6 	svclt	0x00777ef6
   2256c:	bf77720d 	svclt	0x0077720d
   22570:	bf776523 	svclt	0x00776523
   22574:	bf77583a 	svclt	0x0077583a
   22578:	bf774b40 	svclt	0x00774b40
   2257c:	bf773e36 	svclt	0x00773e36
   22580:	bf77312b 	svclt	0x0077312b
   22584:	bf772410 	svclt	0x00772410
   22588:	bf7716f4 	svclt	0x007716f4
   2258c:	bf7709c8 	svclt	0x007709c8
   22590:	bf76fc9c 	svclt	0x0076fc9c
   22594:	bf76ef5f 	svclt	0x0076ef5f
   22598:	bf76e211 	svclt	0x0076e211
   2259c:	bf76d4c3 	svclt	0x0076d4c3
   225a0:	bf76c765 	svclt	0x0076c765
   225a4:	bf76ba06 	svclt	0x0076ba06
   225a8:	bf76ac97 	svclt	0x0076ac97
   225ac:	bf769f27 	svclt	0x00769f27
   225b0:	bf7691a7 	svclt	0x007691a7
   225b4:	bf768416 	svclt	0x00768416
   225b8:	bf767686 	svclt	0x00767686
   225bc:	bf7668e4 	svclt	0x007668e4
   225c0:	bf765b42 	svclt	0x00765b42
   225c4:	bf764d90 	svclt	0x00764d90
   225c8:	bf763fdd 	svclt	0x00763fdd
   225cc:	bf76321a 	svclt	0x0076321a
   225d0:	bf762457 	svclt	0x00762457
   225d4:	bf761672 	svclt	0x00761672
   225d8:	bf76089e 	svclt	0x0076089e
   225dc:	bf75fab9 	svclt	0x0075fab9
   225e0:	bf75ecc4 	svclt	0x0075ecc4
   225e4:	bf75dece 	svclt	0x0075dece
   225e8:	bf75d0c8 	svclt	0x0075d0c8
   225ec:	bf75c2b1 	svclt	0x0075c2b1
   225f0:	bf75b49a 	svclt	0x0075b49a
   225f4:	bf75a683 	svclt	0x0075a683
   225f8:	bf75984a 	svclt	0x0075984a
   225fc:	bf758a22 	svclt	0x00758a22
   22600:	bf757bd9 	svclt	0x00757bd9
   22604:	bf756d8f 	svclt	0x00756d8f
   22608:	bf755f46 	svclt	0x00755f46
   2260c:	bf7550ec 	svclt	0x007550ec
   22610:	bf754291 	svclt	0x00754291
   22614:	bf753416 	svclt	0x00753416
   22618:	bf7525ab 	svclt	0x007525ab
   2261c:	bf75172f 	svclt	0x0075172f
   22620:	bf7508a2 	svclt	0x007508a2
   22624:	bf74fa05 	svclt	0x0074fa05
   22628:	bf74eb68 	svclt	0x0074eb68
   2262c:	bf74dcca 	svclt	0x0074dcca
   22630:	bf74ce1c 	svclt	0x0074ce1c
   22634:	bf74bf5d 	svclt	0x0074bf5d
   22638:	bf74b09f 	svclt	0x0074b09f
   2263c:	bf74a1cf 	svclt	0x0074a1cf
   22640:	bf7492ff 	svclt	0x007492ff
   22644:	bf74841f 	svclt	0x0074841f
   22648:	bf74753e 	svclt	0x0074753e
   2264c:	bf74664d 	svclt	0x0074664d
   22650:	bf74574b 	svclt	0x0074574b
   22654:	bf744849 	svclt	0x00744849
   22658:	bf743937 	svclt	0x00743937
   2265c:	bf742a24 	svclt	0x00742a24
   22660:	bf741b00 	svclt	0x00741b00
   22664:	bf740bdd 	svclt	0x00740bdd
   22668:	bf73fca8 	svclt	0x0073fca8
   2266c:	bf73ed74 	svclt	0x0073ed74
   22670:	bf73de2f 	svclt	0x0073de2f
   22674:	bf73ced9 	svclt	0x0073ced9
   22678:	bf73bf83 	svclt	0x0073bf83
   2267c:	bf73b01d 	svclt	0x0073b01d
   22680:	bf73a0b6 	svclt	0x0073a0b6
   22684:	bf73913f 	svclt	0x0073913f
   22688:	bf7381c7 	svclt	0x007381c7
   2268c:	bf73723f 	svclt	0x0073723f
   22690:	bf7362a6 	svclt	0x007362a6
   22694:	bf73530d 	svclt	0x0073530d
   22698:	bf734363 	svclt	0x00734363
   2269c:	bf7333b9 	svclt	0x007333b9
   226a0:	bf7323ff 	svclt	0x007323ff
   226a4:	bf731444 	svclt	0x00731444
   226a8:	bf730479 	svclt	0x00730479
   226ac:	bf72f4ae 	svclt	0x0072f4ae
   226b0:	bf72e4d2 	svclt	0x0072e4d2
   226b4:	bf72d4e5 	svclt	0x0072d4e5
   226b8:	bf72c4f8 	svclt	0x0072c4f8
   226bc:	bf72b50b 	svclt	0x0072b50b
   226c0:	bf72a4fd 	svclt	0x0072a4fd
   226c4:	bf7294ff 	svclt	0x007294ff
   226c8:	bf7284e0 	svclt	0x007284e0
   226cc:	bf7274c1 	svclt	0x007274c1
   226d0:	bf7264a1 	svclt	0x007264a1
   226d4:	bf725471 	svclt	0x00725471
   226d8:	bf724431 	svclt	0x00724431
   226dc:	bf7233f0 	svclt	0x007233f0
   226e0:	bf7223af 	svclt	0x007223af
   226e4:	bf72134d 	svclt	0x0072134d
   226e8:	bf7202fb 	svclt	0x007202fb
   226ec:	bf71f288 	svclt	0x0071f288
   226f0:	bf71e215 	svclt	0x0071e215
   226f4:	bf71d1a2 	svclt	0x0071d1a2
   226f8:	bf71c11e 	svclt	0x0071c11e
   226fc:	bf71b08a 	svclt	0x0071b08a
   22700:	bf719ff5 	svclt	0x00719ff5
   22704:	bf718f50 	svclt	0x00718f50
   22708:	bf717eaa 	svclt	0x00717eaa
   2270c:	bf716df4 	svclt	0x00716df4
   22710:	bf715d3e 	svclt	0x00715d3e
   22714:	bf714c77 	svclt	0x00714c77
   22718:	bf713bb0 	svclt	0x00713bb0
   2271c:	bf712ad8 	svclt	0x00712ad8
   22720:	bf7119f0 	svclt	0x007119f0
   22724:	bf710907 	svclt	0x00710907
   22728:	bf70f80e 	svclt	0x0070f80e
   2272c:	bf70e714 	svclt	0x0070e714
   22730:	bf70d60a 	svclt	0x0070d60a
   22734:	bf70c500 	svclt	0x0070c500
   22738:	bf70b3e5 	svclt	0x0070b3e5
   2273c:	bf70a2cb 	svclt	0x0070a2cb
   22740:	bf70919f 	svclt	0x0070919f
   22744:	bf708063 	svclt	0x00708063
   22748:	bf706f26 	svclt	0x00706f26
   2274c:	bf705dd9 	svclt	0x00705dd9
   22750:	bf704c8c 	svclt	0x00704c8c
   22754:	bf703b3f 	svclt	0x00703b3f
   22758:	bf7029d0 	svclt	0x007029d0
   2275c:	bf701861 	svclt	0x00701861
   22760:	bf7006f2 	svclt	0x007006f2
   22764:	bf6ff573 	svclt	0x006ff573
   22768:	bf6fe3f3 	svclt	0x006fe3f3
   2276c:	bf6fd252 	svclt	0x006fd252
   22770:	bf6fc0c2 	svclt	0x006fc0c2
   22774:	bf6faf21 	svclt	0x006faf21
   22778:	bf6f9d6f 	svclt	0x006f9d6f
   2277c:	bf6f8bbd 	svclt	0x006f8bbd
   22780:	bf6f79fb 	svclt	0x006f79fb
   22784:	bf6f6838 	svclt	0x006f6838
   22788:	bf6f5665 	svclt	0x006f5665
   2278c:	bf6f4480 	svclt	0x006f4480
   22790:	bf6f329c 	svclt	0x006f329c
   22794:	bf6f20b8 	svclt	0x006f20b8
   22798:	bf6f0eb2 	svclt	0x006f0eb2
   2279c:	bf6efcbd 	svclt	0x006efcbd
   227a0:	bf6eeab8 	svclt	0x006eeab8
   227a4:	bf6ed8a1 	svclt	0x006ed8a1
   227a8:	bf6ec67a 	svclt	0x006ec67a
   227ac:	bf6eb463 	svclt	0x006eb463
   227b0:	bf6ea22b 	svclt	0x006ea22b
   227b4:	bf6e8ff3 	svclt	0x006e8ff3
   227b8:	bf6e7dbb 	svclt	0x006e7dbb
   227bc:	bf6e6b72 	svclt	0x006e6b72
   227c0:	bf6e5919 	svclt	0x006e5919
   227c4:	bf6e46bf 	svclt	0x006e46bf
   227c8:	bf6e3455 	svclt	0x006e3455
   227cc:	bf6e21ea 	svclt	0x006e21ea
   227d0:	bf6e0f6f 	svclt	0x006e0f6f
   227d4:	bf6dfcf4 	svclt	0x006dfcf4
   227d8:	bf6dea68 	svclt	0x006dea68
   227dc:	bf6dd7dc 	svclt	0x006dd7dc
   227e0:	bf6dc53f 	svclt	0x006dc53f
   227e4:	bf6db292 	svclt	0x006db292
   227e8:	bf6d9fe4 	svclt	0x006d9fe4
   227ec:	bf6d8d26 	svclt	0x006d8d26
   227f0:	bf6d7a68 	svclt	0x006d7a68
   227f4:	bf6d67a9 	svclt	0x006d67a9
   227f8:	bf6d54ca 	svclt	0x006d54ca
   227fc:	bf6d41ea 	svclt	0x006d41ea
   22800:	bf6d2f0a 	svclt	0x006d2f0a
   22804:	bf6d1c19 	svclt	0x006d1c19
   22808:	bf6d0929 	svclt	0x006d0929
   2280c:	bf6cf627 	svclt	0x006cf627
   22810:	bf6ce315 	svclt	0x006ce315
   22814:	bf6cd003 	svclt	0x006cd003
   22818:	bf6cbcf1 	svclt	0x006cbcf1
   2281c:	bf6ca9bd 	svclt	0x006ca9bd
   22820:	bf6c969a 	svclt	0x006c969a
   22824:	bf6c8366 	svclt	0x006c8366
   22828:	bf6c7022 	svclt	0x006c7022
   2282c:	bf6c5ccd 	svclt	0x006c5ccd
   22830:	bf6c4988 	svclt	0x006c4988
   22834:	bf6c3622 	svclt	0x006c3622
   22838:	bf6c22bc 	svclt	0x006c22bc
   2283c:	bf6c0f56 	svclt	0x006c0f56
   22840:	bf6bfbdf 	svclt	0x006bfbdf
   22844:	bf6be857 	svclt	0x006be857
   22848:	bf6bd4d0 	svclt	0x006bd4d0
   2284c:	bf6bc137 	svclt	0x006bc137
   22850:	bf6bad9f 	svclt	0x006bad9f
   22854:	bf6b99f6 	svclt	0x006b99f6
   22858:	bf6b864d 	svclt	0x006b864d
   2285c:	bf6b7293 	svclt	0x006b7293
   22860:	bf6b5ed9 	svclt	0x006b5ed9
   22864:	bf6b4b0e 	svclt	0x006b4b0e
   22868:	bf6b3733 	svclt	0x006b3733
   2286c:	bf6b2357 	svclt	0x006b2357
   22870:	bf6b0f7c 	svclt	0x006b0f7c
   22874:	bf6afb8f 	svclt	0x006afb8f
   22878:	bf6ae792 	svclt	0x006ae792
   2287c:	bf6ad395 	svclt	0x006ad395
   22880:	bf6abf87 	svclt	0x006abf87
   22884:	bf6aab7a 	svclt	0x006aab7a
   22888:	bf6a975b 	svclt	0x006a975b
   2288c:	bf6a833c 	svclt	0x006a833c
   22890:	bf6a6f0d 	svclt	0x006a6f0d
   22894:	bf6a5ade 	svclt	0x006a5ade
   22898:	bf6a469d 	svclt	0x006a469d
   2289c:	bf6a324d 	svclt	0x006a324d
   228a0:	bf6a1dfc 	svclt	0x006a1dfc
   228a4:	bf6a09ab 	svclt	0x006a09ab
   228a8:	bf69f549 	svclt	0x0069f549
   228ac:	bf69e0d6 	svclt	0x0069e0d6
   228b0:	bf69cc64 	svclt	0x0069cc64
   228b4:	bf69b7e1 	svclt	0x0069b7e1
   228b8:	bf69a35d 	svclt	0x0069a35d
   228bc:	bf698ec9 	svclt	0x00698ec9
   228c0:	bf697a35 	svclt	0x00697a35
   228c4:	bf696590 	svclt	0x00696590
   228c8:	bf6950ec 	svclt	0x006950ec
   228cc:	bf693c36 	svclt	0x00693c36
   228d0:	bf692770 	svclt	0x00692770
   228d4:	bf6912a9 	svclt	0x006912a9
   228d8:	bf68fde3 	svclt	0x0068fde3
   228dc:	bf68e90c 	svclt	0x0068e90c
   228e0:	bf68d424 	svclt	0x0068d424
   228e4:	bf68bf3c 	svclt	0x0068bf3c
   228e8:	bf68aa43 	svclt	0x0068aa43
   228ec:	bf68954a 	svclt	0x0068954a
   228f0:	bf688041 	svclt	0x00688041
   228f4:	bf686b38 	svclt	0x00686b38
   228f8:	bf68561d 	svclt	0x0068561d
   228fc:	bf684103 	svclt	0x00684103
   22900:	bf682bd8 	svclt	0x00682bd8
   22904:	bf6816ad 	svclt	0x006816ad
   22908:	bf680171 	svclt	0x00680171
   2290c:	bf67ec25 	svclt	0x0067ec25
   22910:	bf67d6d8 	svclt	0x0067d6d8
   22914:	bf67c18b 	svclt	0x0067c18b
   22918:	bf67ac2e 	svclt	0x0067ac2e
   2291c:	bf6796c0 	svclt	0x006796c0
   22920:	bf678152 	svclt	0x00678152
   22924:	bf676bd3 	svclt	0x00676bd3
   22928:	bf675654 	svclt	0x00675654
   2292c:	bf6740c4 	svclt	0x006740c4
   22930:	bf672b34 	svclt	0x00672b34
   22934:	bf671594 	svclt	0x00671594
   22938:	bf66fff3 	svclt	0x0066fff3
   2293c:	bf66ea42 	svclt	0x0066ea42
   22940:	bf66d491 	svclt	0x0066d491
   22944:	bf66becf 	svclt	0x0066becf
   22948:	bf66a8fc 	svclt	0x0066a8fc
   2294c:	bf669329 	svclt	0x00669329
   22950:	bf667d56 	svclt	0x00667d56
   22954:	bf666773 	svclt	0x00666773
   22958:	bf66517e 	svclt	0x0066517e
   2295c:	bf663b8a 	svclt	0x00663b8a
   22960:	bf662596 	svclt	0x00662596
   22964:	bf660f80 	svclt	0x00660f80
   22968:	bf65f97b 	svclt	0x0065f97b
   2296c:	bf65e365 	svclt	0x0065e365
   22970:	bf65cd3e 	svclt	0x0065cd3e
   22974:	bf65b717 	svclt	0x0065b717
   22978:	bf65a0e0 	svclt	0x0065a0e0
   2297c:	bf658a98 	svclt	0x00658a98
   22980:	bf657460 	svclt	0x00657460
   22984:	bf655e07 	svclt	0x00655e07
   22988:	bf6547ae 	svclt	0x006547ae
   2298c:	bf653155 	svclt	0x00653155
   22990:	bf651aeb 	svclt	0x00651aeb
   22994:	bf650471 	svclt	0x00650471
   22998:	bf64edf6 	svclt	0x0064edf6
   2299c:	bf64d77b 	svclt	0x0064d77b
   229a0:	bf64c0f0 	svclt	0x0064c0f0
   229a4:	bf64aa54 	svclt	0x0064aa54
   229a8:	bf6493b8 	svclt	0x006493b8
   229ac:	bf647d1c 	svclt	0x00647d1c
   229b0:	bf64665e 	svclt	0x0064665e
   229b4:	bf644fb1 	svclt	0x00644fb1
   229b8:	bf6438e3 	svclt	0x006438e3
   229bc:	bf642225 	svclt	0x00642225
   229c0:	bf640b56 	svclt	0x00640b56
   229c4:	bf63f477 	svclt	0x0063f477
   229c8:	bf63dd87 	svclt	0x0063dd87
   229cc:	bf63c6a8 	svclt	0x0063c6a8
   229d0:	bf63afa7 	svclt	0x0063afa7
   229d4:	bf6398a6 	svclt	0x006398a6
   229d8:	bf6381a6 	svclt	0x006381a6
   229dc:	bf636a94 	svclt	0x00636a94
   229e0:	bf635382 	svclt	0x00635382
   229e4:	bf633c60 	svclt	0x00633c60
   229e8:	bf63252d 	svclt	0x0063252d
   229ec:	bf630dfa 	svclt	0x00630dfa
   229f0:	bf62f6c7 	svclt	0x0062f6c7
   229f4:	bf62df83 	svclt	0x0062df83
   229f8:	bf62c82e 	svclt	0x0062c82e
   229fc:	bf62b0d9 	svclt	0x0062b0d9
   22a00:	bf629974 	svclt	0x00629974
   22a04:	bf62820e 	svclt	0x0062820e
   22a08:	bf626a98 	svclt	0x00626a98
   22a0c:	bf625322 	svclt	0x00625322
   22a10:	bf623bac 	svclt	0x00623bac
   22a14:	bf622414 	svclt	0x00622414
   22a18:	bf620c8d 	svclt	0x00620c8d
   22a1c:	bf61f4e4 	svclt	0x0061f4e4
   22a20:	bf61dd4c 	svclt	0x0061dd4c
   22a24:	bf61c593 	svclt	0x0061c593
   22a28:	bf61adda 	svclt	0x0061adda
   22a2c:	bf619620 	svclt	0x00619620
   22a30:	bf617e56 	svclt	0x00617e56
   22a34:	bf61668c 	svclt	0x0061668c
   22a38:	bf614eb1 	svclt	0x00614eb1
   22a3c:	bf6136d6 	svclt	0x006136d6
   22a40:	bf611eeb 	svclt	0x00611eeb
   22a44:	bf6106ee 	svclt	0x006106ee
   22a48:	bf60eef2 	svclt	0x0060eef2
   22a4c:	bf60d6f5 	svclt	0x0060d6f5
   22a50:	bf60bee8 	svclt	0x0060bee8
   22a54:	bf60a6ca 	svclt	0x0060a6ca
   22a58:	bf608eac 	svclt	0x00608eac
   22a5c:	bf60768e 	svclt	0x0060768e
   22a60:	bf605e5f 	svclt	0x00605e5f
   22a64:	bf604620 	svclt	0x00604620
   22a68:	bf602de0 	svclt	0x00602de0
   22a6c:	bf601590 	svclt	0x00601590
   22a70:	bf5ffd3f 	svclt	0x005ffd3f
   22a74:	bf5fe4ef 	svclt	0x005fe4ef
   22a78:	bf5fcc8e 	svclt	0x005fcc8e
   22a7c:	bf5fb41c 	svclt	0x005fb41c
   22a80:	bf5f9baa 	svclt	0x005f9baa
   22a84:	bf5f8327 	svclt	0x005f8327
   22a88:	bf5f6aa5 	svclt	0x005f6aa5
   22a8c:	bf5f5211 	svclt	0x005f5211
   22a90:	bf5f397e 	svclt	0x005f397e
   22a94:	bf5f20da 	svclt	0x005f20da
   22a98:	bf5f0835 	svclt	0x005f0835
   22a9c:	bf5eef80 	svclt	0x005eef80
   22aa0:	bf5ed6cb 	svclt	0x005ed6cb
   22aa4:	bf5ebe06 	svclt	0x005ebe06
   22aa8:	bf5ea540 	svclt	0x005ea540
   22aac:	bf5e8c69 	svclt	0x005e8c69
   22ab0:	bf5e7393 	svclt	0x005e7393
   22ab4:	bf5e5aab 	svclt	0x005e5aab
   22ab8:	bf5e41b3 	svclt	0x005e41b3
   22abc:	bf5e28bb 	svclt	0x005e28bb
   22ac0:	bf5e0fc3 	svclt	0x005e0fc3
   22ac4:	bf5df6ba 	svclt	0x005df6ba
   22ac8:	bf5dddb1 	svclt	0x005dddb1
   22acc:	bf5dc497 	svclt	0x005dc497
   22ad0:	bf5dab7e 	svclt	0x005dab7e
   22ad4:	bf5d9253 	svclt	0x005d9253
   22ad8:	bf5d7918 	svclt	0x005d7918
   22adc:	bf5d5fdd 	svclt	0x005d5fdd
   22ae0:	bf5d46a2 	svclt	0x005d46a2
   22ae4:	bf5d2d56 	svclt	0x005d2d56
   22ae8:	bf5d13f9 	svclt	0x005d13f9
   22aec:	bf5cfa9c 	svclt	0x005cfa9c
   22af0:	bf5ce13f 	svclt	0x005ce13f
   22af4:	bf5cc7d2 	svclt	0x005cc7d2
   22af8:	bf5cae53 	svclt	0x005cae53
   22afc:	bf5c94d5 	svclt	0x005c94d5
   22b00:	bf5c7b57 	svclt	0x005c7b57
   22b04:	bf5c61c8 	svclt	0x005c61c8
   22b08:	bf5c4828 	svclt	0x005c4828
   22b0c:	bf5c2e88 	svclt	0x005c2e88
   22b10:	bf5c14e8 	svclt	0x005c14e8
   22b14:	bf5bfb37 	svclt	0x005bfb37
   22b18:	bf5be176 	svclt	0x005be176
   22b1c:	bf5bc7b4 	svclt	0x005bc7b4
   22b20:	bf5badf3 	svclt	0x005badf3
   22b24:	bf5b9421 	svclt	0x005b9421
   22b28:	bf5b7a3e 	svclt	0x005b7a3e
   22b2c:	bf5b605b 	svclt	0x005b605b
   22b30:	bf5b4667 	svclt	0x005b4667
   22b34:	bf5b2c73 	svclt	0x005b2c73
   22b38:	bf5b127f 	svclt	0x005b127f
   22b3c:	bf5af87b 	svclt	0x005af87b
   22b40:	bf5ade65 	svclt	0x005ade65
   22b44:	bf5ac450 	svclt	0x005ac450
   22b48:	bf5aaa2a 	svclt	0x005aaa2a
   22b4c:	bf5a9004 	svclt	0x005a9004
   22b50:	bf5a75de 	svclt	0x005a75de
   22b54:	bf5a5ba7 	svclt	0x005a5ba7
   22b58:	bf5a415f 	svclt	0x005a415f
   22b5c:	bf5a2718 	svclt	0x005a2718
   22b60:	bf5a0cbf 	svclt	0x005a0cbf
   22b64:	bf59f267 	svclt	0x0059f267
   22b68:	bf59d80e 	svclt	0x0059d80e
   22b6c:	bf59bd94 	svclt	0x0059bd94
   22b70:	bf59a32b 	svclt	0x0059a32b
   22b74:	bf5988b1 	svclt	0x005988b1
   22b78:	bf596e26 	svclt	0x00596e26
   22b7c:	bf59539c 	svclt	0x0059539c
   22b80:	bf593900 	svclt	0x00593900
   22b84:	bf591e64 	svclt	0x00591e64
   22b88:	bf5903c9 	svclt	0x005903c9
   22b8c:	bf58e91d 	svclt	0x0058e91d
   22b90:	bf58ce5f 	svclt	0x0058ce5f
   22b94:	bf58b3a2 	svclt	0x0058b3a2
   22b98:	bf5898d4 	svclt	0x005898d4
   22b9c:	bf587e07 	svclt	0x00587e07
   22ba0:	bf586339 	svclt	0x00586339
   22ba4:	bf58485a 	svclt	0x0058485a
   22ba8:	bf582d6b 	svclt	0x00582d6b
   22bac:	bf58127b 	svclt	0x0058127b
   22bb0:	bf57f77b 	svclt	0x0057f77b
   22bb4:	bf57dc7b 	svclt	0x0057dc7b
   22bb8:	bf57c17b 	svclt	0x0057c17b
   22bbc:	bf57a66a 	svclt	0x0057a66a
   22bc0:	bf578b48 	svclt	0x00578b48
   22bc4:	bf577026 	svclt	0x00577026
   22bc8:	bf5754f3 	svclt	0x005754f3
   22bcc:	bf5739c1 	svclt	0x005739c1
   22bd0:	bf571e8e 	svclt	0x00571e8e
   22bd4:	bf57034b 	svclt	0x0057034b
   22bd8:	bf56e7f7 	svclt	0x0056e7f7
   22bdc:	bf56cca3 	svclt	0x0056cca3
   22be0:	bf56b14f 	svclt	0x0056b14f
   22be4:	bf5695ea 	svclt	0x005695ea
   22be8:	bf567a74 	svclt	0x00567a74
   22bec:	bf565eff 	svclt	0x00565eff
   22bf0:	bf564389 	svclt	0x00564389
   22bf4:	bf562802 	svclt	0x00562802
   22bf8:	bf560c6b 	svclt	0x00560c6b
   22bfc:	bf55f0d4 	svclt	0x0055f0d4
   22c00:	bf55d53d 	svclt	0x0055d53d
   22c04:	bf55b995 	svclt	0x0055b995
   22c08:	bf559ddc 	svclt	0x00559ddc
   22c0c:	bf558234 	svclt	0x00558234
   22c10:	bf55666b 	svclt	0x0055666b
   22c14:	bf554aa1 	svclt	0x00554aa1
   22c18:	bf552ed8 	svclt	0x00552ed8
   22c1c:	bf5512fd 	svclt	0x005512fd
   22c20:	bf54f712 	svclt	0x0054f712
   22c24:	bf54db38 	svclt	0x0054db38
   22c28:	bf54bf3c 	svclt	0x0054bf3c
   22c2c:	bf54a340 	svclt	0x0054a340
   22c30:	bf548744 	svclt	0x00548744
   22c34:	bf546b38 	svclt	0x00546b38
   22c38:	bf544f2b 	svclt	0x00544f2b
   22c3c:	bf54330d 	svclt	0x0054330d
   22c40:	bf5416f0 	svclt	0x005416f0
   22c44:	bf53fac2 	svclt	0x0053fac2
   22c48:	bf53de94 	svclt	0x0053de94
   22c4c:	bf53c255 	svclt	0x0053c255
   22c50:	bf53a616 	svclt	0x0053a616
   22c54:	bf5389c6 	svclt	0x005389c6
   22c58:	bf536d76 	svclt	0x00536d76
   22c5c:	bf535116 	svclt	0x00535116
   22c60:	bf5334b5 	svclt	0x005334b5
   22c64:	bf531844 	svclt	0x00531844
   22c68:	bf52fbd2 	svclt	0x0052fbd2
   22c6c:	bf52df61 	svclt	0x0052df61
   22c70:	bf52c2ce 	svclt	0x0052c2ce
   22c74:	bf52a64c 	svclt	0x0052a64c
   22c78:	bf5289b9 	svclt	0x005289b9
   22c7c:	bf526d16 	svclt	0x00526d16
   22c80:	bf525072 	svclt	0x00525072
   22c84:	bf5233ce 	svclt	0x005233ce
   22c88:	bf521709 	svclt	0x00521709
   22c8c:	bf51fa55 	svclt	0x0051fa55
   22c90:	bf51dd90 	svclt	0x0051dd90
   22c94:	bf51c0ca 	svclt	0x0051c0ca
   22c98:	bf51a3f4 	svclt	0x0051a3f4
   22c9c:	bf51870e 	svclt	0x0051870e
   22ca0:	bf516a27 	svclt	0x00516a27
   22ca4:	bf514d40 	svclt	0x00514d40
   22ca8:	bf513049 	svclt	0x00513049
   22cac:	bf511351 	svclt	0x00511351
   22cb0:	bf50f649 	svclt	0x0050f649
   22cb4:	bf50d930 	svclt	0x0050d930
   22cb8:	bf50bc27 	svclt	0x0050bc27
   22cbc:	bf509efe 	svclt	0x00509efe
   22cc0:	bf5081e4 	svclt	0x005081e4
   22cc4:	bf5064aa 	svclt	0x005064aa
   22cc8:	bf504780 	svclt	0x00504780
   22ccc:	bf502a35 	svclt	0x00502a35
   22cd0:	bf500cfa 	svclt	0x00500cfa
   22cd4:	bf4fefae 	svclt	0x004fefae
   22cd8:	bf4fd252 	svclt	0x004fd252
   22cdc:	bf4fb4f6 	svclt	0x004fb4f6
   22ce0:	bf4f9789 	svclt	0x004f9789
   22ce4:	bf4f7a1c 	svclt	0x004f7a1c
   22ce8:	bf4f5caf 	svclt	0x004f5caf
   22cec:	bf4f3f31 	svclt	0x004f3f31
   22cf0:	bf4f21a3 	svclt	0x004f21a3
   22cf4:	bf4f0414 	svclt	0x004f0414
   22cf8:	bf4ee686 	svclt	0x004ee686
   22cfc:	bf4ec8e7 	svclt	0x004ec8e7
   22d00:	bf4eab36 	svclt	0x004eab36
   22d04:	bf4e8d97 	svclt	0x004e8d97
   22d08:	bf4e6fd6 	svclt	0x004e6fd6
   22d0c:	bf4e5215 	svclt	0x004e5215
   22d10:	bf4e3455 	svclt	0x004e3455
   22d14:	bf4e1683 	svclt	0x004e1683
   22d18:	bf4df8b1 	svclt	0x004df8b1
   22d1c:	bf4ddacf 	svclt	0x004ddacf
   22d20:	bf4dbced 	svclt	0x004dbced
   22d24:	bf4d9f0a 	svclt	0x004d9f0a
   22d28:	bf4d8106 	svclt	0x004d8106
   22d2c:	bf4d6313 	svclt	0x004d6313
   22d30:	bf4d450f 	svclt	0x004d450f
   22d34:	bf4d26fa 	svclt	0x004d26fa
   22d38:	bf4d08e6 	svclt	0x004d08e6
   22d3c:	bf4cead1 	svclt	0x004cead1
   22d40:	bf4cccab 	svclt	0x004cccab
   22d44:	bf4cae75 	svclt	0x004cae75
   22d48:	bf4c903f 	svclt	0x004c903f
   22d4c:	bf4c7208 	svclt	0x004c7208
   22d50:	bf4c53c1 	svclt	0x004c53c1
   22d54:	bf4c357a 	svclt	0x004c357a
   22d58:	bf4c1722 	svclt	0x004c1722
   22d5c:	bf4bf8cb 	svclt	0x004bf8cb
   22d60:	bf4bda62 	svclt	0x004bda62
   22d64:	bf4bbbf9 	svclt	0x004bbbf9
   22d68:	bf4b9d80 	svclt	0x004b9d80
   22d6c:	bf4b7f06 	svclt	0x004b7f06
   22d70:	bf4b608d 	svclt	0x004b608d
   22d74:	bf4b41f2 	svclt	0x004b41f2
   22d78:	bf4b2368 	svclt	0x004b2368
   22d7c:	bf4b04cd 	svclt	0x004b04cd
   22d80:	bf4ae632 	svclt	0x004ae632
   22d84:	bf4ac786 	svclt	0x004ac786
   22d88:	bf4aa8ca 	svclt	0x004aa8ca
   22d8c:	bf4a8a0d 	svclt	0x004a8a0d
   22d90:	bf4a6b51 	svclt	0x004a6b51
   22d94:	bf4a4c83 	svclt	0x004a4c83
   22d98:	bf4a2db6 	svclt	0x004a2db6
   22d9c:	bf4a0ed8 	svclt	0x004a0ed8
   22da0:	bf49effa 	svclt	0x0049effa
   22da4:	bf49d10b 	svclt	0x0049d10b
   22da8:	bf49b21c 	svclt	0x0049b21c
   22dac:	bf49932d 	svclt	0x0049932d
   22db0:	bf49742e 	svclt	0x0049742e
   22db4:	bf49551d 	svclt	0x0049551d
   22db8:	bf49360d 	svclt	0x0049360d
   22dbc:	bf4916fd 	svclt	0x004916fd
   22dc0:	bf48f7db 	svclt	0x0048f7db
   22dc4:	bf48d8ba 	svclt	0x0048d8ba
   22dc8:	bf48b988 	svclt	0x0048b988
   22dcc:	bf489a56 	svclt	0x00489a56
   22dd0:	bf487b14 	svclt	0x00487b14
   22dd4:	bf485bd1 	svclt	0x00485bd1
   22dd8:	bf483c7d 	svclt	0x00483c7d
   22ddc:	bf481d2a 	svclt	0x00481d2a
   22de0:	bf47fdc6 	svclt	0x0047fdc6
   22de4:	bf47de61 	svclt	0x0047de61
   22de8:	bf47befd 	svclt	0x0047befd
   22dec:	bf479f88 	svclt	0x00479f88
   22df0:	bf478002 	svclt	0x00478002
   22df4:	bf47608d 	svclt	0x0047608d
   22df8:	bf4740f6 	svclt	0x004740f6
   22dfc:	bf472160 	svclt	0x00472160
   22e00:	bf4701c9 	svclt	0x004701c9
   22e04:	bf46e222 	svclt	0x0046e222
   22e08:	bf46c27a 	svclt	0x0046c27a
   22e0c:	bf46a2d3 	svclt	0x0046a2d3
   22e10:	bf46831b 	svclt	0x0046831b
   22e14:	bf466352 	svclt	0x00466352
   22e18:	bf464389 	svclt	0x00464389
   22e1c:	bf4623c0 	svclt	0x004623c0
   22e20:	bf4603e6 	svclt	0x004603e6
   22e24:	bf45e3fc 	svclt	0x0045e3fc
   22e28:	bf45c422 	svclt	0x0045c422
   22e2c:	bf45a427 	svclt	0x0045a427
   22e30:	bf45843c 	svclt	0x0045843c
   22e34:	bf456441 	svclt	0x00456441
   22e38:	bf454435 	svclt	0x00454435
   22e3c:	bf452429 	svclt	0x00452429
   22e40:	bf45040c 	svclt	0x0045040c
   22e44:	bf44e3ef 	svclt	0x0044e3ef
   22e48:	bf44c3d2 	svclt	0x0044c3d2
   22e4c:	bf44a3a5 	svclt	0x0044a3a5
   22e50:	bf448377 	svclt	0x00448377
   22e54:	bf446339 	svclt	0x00446339
   22e58:	bf4442fa 	svclt	0x004442fa
   22e5c:	bf4422ab 	svclt	0x004422ab
   22e60:	bf44025c 	svclt	0x0044025c
   22e64:	bf43e1fc 	svclt	0x0043e1fc
   22e68:	bf43c19c 	svclt	0x0043c19c
   22e6c:	bf43a13c 	svclt	0x0043a13c
   22e70:	bf4380cb 	svclt	0x004380cb
   22e74:	bf43604a 	svclt	0x0043604a
   22e78:	bf433fd9 	svclt	0x00433fd9
   22e7c:	bf431f47 	svclt	0x00431f47
   22e80:	bf42fec5 	svclt	0x0042fec5
   22e84:	bf42de22 	svclt	0x0042de22
   22e88:	bf42bd90 	svclt	0x0042bd90
   22e8c:	bf429ced 	svclt	0x00429ced
   22e90:	bf427c39 	svclt	0x00427c39
   22e94:	bf425b85 	svclt	0x00425b85
   22e98:	bf423ad2 	svclt	0x00423ad2
   22e9c:	bf421a0d 	svclt	0x00421a0d
   22ea0:	bf41f948 	svclt	0x0041f948
   22ea4:	bf41d873 	svclt	0x0041d873
   22ea8:	bf41b79e 	svclt	0x0041b79e
   22eac:	bf4196b7 	svclt	0x004196b7
   22eb0:	bf4175d1 	svclt	0x004175d1
   22eb4:	bf4154da 	svclt	0x004154da
   22eb8:	bf4133e3 	svclt	0x004133e3
   22ebc:	bf4112ec 	svclt	0x004112ec
   22ec0:	bf40f1e5 	svclt	0x0040f1e5
   22ec4:	bf40d0dd 	svclt	0x0040d0dd
   22ec8:	bf40afc4 	svclt	0x0040afc4
   22ecc:	bf408eac 	svclt	0x00408eac
   22ed0:	bf406d83 	svclt	0x00406d83
   22ed4:	bf404c59 	svclt	0x00404c59
   22ed8:	bf402b30 	svclt	0x00402b30
   22edc:	bf4009f6 	svclt	0x004009f6
   22ee0:	bf3fe8ab 	svclt	0x003fe8ab
   22ee4:	bf3fc760 	svclt	0x003fc760
   22ee8:	bf3fa616 	svclt	0x003fa616
   22eec:	bf3f84ba 	svclt	0x003f84ba
   22ef0:	bf3f635e 	svclt	0x003f635e
   22ef4:	bf3f4203 	svclt	0x003f4203
   22ef8:	bf3f2096 	svclt	0x003f2096
   22efc:	bf3eff19 	svclt	0x003eff19
   22f00:	bf3edd9c 	svclt	0x003edd9c
   22f04:	bf3ebc1f 	svclt	0x003ebc1f
   22f08:	bf3e9a91 	svclt	0x003e9a91
   22f0c:	bf3e7903 	svclt	0x003e7903
   22f10:	bf3e5764 	svclt	0x003e5764
   22f14:	bf3e35c6 	svclt	0x003e35c6
   22f18:	bf3e1416 	svclt	0x003e1416
   22f1c:	bf3df267 	svclt	0x003df267
   22f20:	bf3dd0b7 	svclt	0x003dd0b7
   22f24:	bf3daef7 	svclt	0x003daef7
   22f28:	bf3d8d37 	svclt	0x003d8d37
   22f2c:	bf3d6b66 	svclt	0x003d6b66
   22f30:	bf3d4995 	svclt	0x003d4995
   22f34:	bf3d27b3 	svclt	0x003d27b3
   22f38:	bf3d05d1 	svclt	0x003d05d1
   22f3c:	bf3ce3ef 	svclt	0x003ce3ef
   22f40:	bf3cc1fd 	svclt	0x003cc1fd
   22f44:	bf3ca00a 	svclt	0x003ca00a
   22f48:	bf3c7e07 	svclt	0x003c7e07
   22f4c:	bf3c5c03 	svclt	0x003c5c03
   22f50:	bf3c39ef 	svclt	0x003c39ef
   22f54:	bf3c17db 	svclt	0x003c17db
   22f58:	bf3bf5b6 	svclt	0x003bf5b6
   22f5c:	bf3bd391 	svclt	0x003bd391
   22f60:	bf3bb16c 	svclt	0x003bb16c
   22f64:	bf3b8f36 	svclt	0x003b8f36
   22f68:	bf3b6d01 	svclt	0x003b6d01
   22f6c:	bf3b4aba 	svclt	0x003b4aba
   22f70:	bf3b2874 	svclt	0x003b2874
   22f74:	bf3b062d 	svclt	0x003b062d
   22f78:	bf3ae3d6 	svclt	0x003ae3d6
   22f7c:	bf3ac16e 	svclt	0x003ac16e
   22f80:	bf3a9f17 	svclt	0x003a9f17
   22f84:	bf3a7c9e 	svclt	0x003a7c9e
   22f88:	bf3a5a36 	svclt	0x003a5a36
   22f8c:	bf3a37bd 	svclt	0x003a37bd
   22f90:	bf3a1533 	svclt	0x003a1533
   22f94:	bf39f2aa 	svclt	0x0039f2aa
   22f98:	bf39d020 	svclt	0x0039d020
   22f9c:	bf39ad86 	svclt	0x0039ad86
   22fa0:	bf398aec 	svclt	0x00398aec
   22fa4:	bf396840 	svclt	0x00396840
   22fa8:	bf394595 	svclt	0x00394595
   22fac:	bf3922d9 	svclt	0x003922d9
   22fb0:	bf39002e 	svclt	0x0039002e
   22fb4:	bf38dd61 	svclt	0x0038dd61
   22fb8:	bf38ba95 	svclt	0x0038ba95
   22fbc:	bf3897c8 	svclt	0x003897c8
   22fc0:	bf3874fb 	svclt	0x003874fb
   22fc4:	bf38521e 	svclt	0x0038521e
   22fc8:	bf382f30 	svclt	0x00382f30
   22fcc:	bf380c41 	svclt	0x00380c41
   22fd0:	bf37e953 	svclt	0x0037e953
   22fd4:	bf37c654 	svclt	0x0037c654
   22fd8:	bf37a355 	svclt	0x0037a355
   22fdc:	bf378045 	svclt	0x00378045
   22fe0:	bf375d35 	svclt	0x00375d35
   22fe4:	bf373a26 	svclt	0x00373a26
   22fe8:	bf371705 	svclt	0x00371705
   22fec:	bf36f3e4 	svclt	0x0036f3e4
   22ff0:	bf36d0b3 	svclt	0x0036d0b3
   22ff4:	bf36ad82 	svclt	0x0036ad82
   22ff8:	bf368a40 	svclt	0x00368a40
   22ffc:	bf3666fd 	svclt	0x003666fd
   23000:	bf3643bb 	svclt	0x003643bb
   23004:	bf362068 	svclt	0x00362068
   23008:	bf35fd15 	svclt	0x0035fd15
   2300c:	bf35d9b2 	svclt	0x0035d9b2
   23010:	bf35b64e 	svclt	0x0035b64e
   23014:	bf3592ea 	svclt	0x003592ea
   23018:	bf356f76 	svclt	0x00356f76
   2301c:	bf354c01 	svclt	0x00354c01
   23020:	bf35287c 	svclt	0x0035287c
   23024:	bf3504f7 	svclt	0x003504f7
   23028:	bf34e161 	svclt	0x0034e161
   2302c:	bf34bdcb 	svclt	0x0034bdcb
   23030:	bf349a35 	svclt	0x00349a35
   23034:	bf34768e 	svclt	0x0034768e
   23038:	bf3452e7 	svclt	0x003452e7
   2303c:	bf342f30 	svclt	0x00342f30
   23040:	bf340b78 	svclt	0x00340b78
   23044:	bf33e7c0 	svclt	0x0033e7c0
   23048:	bf33c3f8 	svclt	0x0033c3f8
   2304c:	bf33a030 	svclt	0x0033a030
   23050:	bf337c57 	svclt	0x00337c57
   23054:	bf33587d 	svclt	0x0033587d
   23058:	bf333494 	svclt	0x00333494
   2305c:	bf3310aa 	svclt	0x003310aa
   23060:	bf32ecc0 	svclt	0x0032ecc0
   23064:	bf32c8c5 	svclt	0x0032c8c5
   23068:	bf32a4ca 	svclt	0x0032a4ca
   2306c:	bf3280d0 	svclt	0x003280d0
   23070:	bf325cc4 	svclt	0x00325cc4
   23074:	bf3238a8 	svclt	0x003238a8
   23078:	bf32148c 	svclt	0x0032148c
   2307c:	bf31f06f 	svclt	0x0031f06f
   23080:	bf31cc42 	svclt	0x0031cc42
   23084:	bf31a815 	svclt	0x0031a815
   23088:	bf3183e8 	svclt	0x003183e8
   2308c:	bf315fab 	svclt	0x00315fab
   23090:	bf313b6d 	svclt	0x00313b6d
   23094:	bf31171e 	svclt	0x0031171e
   23098:	bf30f2d0 	svclt	0x0030f2d0
   2309c:	bf30ce81 	svclt	0x0030ce81
   230a0:	bf30aa22 	svclt	0x0030aa22
   230a4:	bf3085c2 	svclt	0x003085c2
   230a8:	bf306152 	svclt	0x00306152
   230ac:	bf303ce2 	svclt	0x00303ce2
   230b0:	bf301861 	svclt	0x00301861
   230b4:	bf2ff3e0 	svclt	0x002ff3e0
   230b8:	bf2fcf5f 	svclt	0x002fcf5f
   230bc:	bf2faace 	svclt	0x002faace
   230c0:	bf2f863c 	svclt	0x002f863c
   230c4:	bf2f61aa 	svclt	0x002f61aa
   230c8:	bf2f3d08 	svclt	0x002f3d08
   230cc:	bf2f1855 	svclt	0x002f1855
   230d0:	bf2ef3b2 	svclt	0x002ef3b2
   230d4:	bf2eceff 	svclt	0x002eceff
   230d8:	bf2eaa3b 	svclt	0x002eaa3b
   230dc:	bf2e8577 	svclt	0x002e8577
   230e0:	bf2e60b3 	svclt	0x002e60b3
   230e4:	bf2e3bde 	svclt	0x002e3bde
   230e8:	bf2e1709 	svclt	0x002e1709
   230ec:	bf2df224 	svclt	0x002df224
   230f0:	bf2dcd3e 	svclt	0x002dcd3e
   230f4:	bf2da858 	svclt	0x002da858
   230f8:	bf2d8362 	svclt	0x002d8362
   230fc:	bf2d5e6c 	svclt	0x002d5e6c
   23100:	bf2d3975 	svclt	0x002d3975
   23104:	bf2d146e 	svclt	0x002d146e
   23108:	bf2cef56 	svclt	0x002cef56
   2310c:	bf2cca4f 	svclt	0x002cca4f
   23110:	bf2ca537 	svclt	0x002ca537
   23114:	bf2c800f 	svclt	0x002c800f
   23118:	bf2c5ae6 	svclt	0x002c5ae6
   2311c:	bf2c35bd 	svclt	0x002c35bd
   23120:	bf2c1084 	svclt	0x002c1084
   23124:	bf2beb4a 	svclt	0x002beb4a
   23128:	bf2bc600 	svclt	0x002bc600
   2312c:	bf2ba0c7 	svclt	0x002ba0c7
   23130:	bf2b7b6c 	svclt	0x002b7b6c
   23134:	bf2b5621 	svclt	0x002b5621
   23138:	bf2b30c6 	svclt	0x002b30c6
   2313c:	bf2b0b5b 	svclt	0x002b0b5b
   23140:	bf2ae5ef 	svclt	0x002ae5ef
   23144:	bf2ac083 	svclt	0x002ac083
   23148:	bf2a9b07 	svclt	0x002a9b07
   2314c:	bf2a758a 	svclt	0x002a758a
   23150:	bf2a500d 	svclt	0x002a500d
   23154:	bf2a2a80 	svclt	0x002a2a80
   23158:	bf2a04f3 	svclt	0x002a04f3
   2315c:	bf29df55 	svclt	0x0029df55
   23160:	bf29b9b6 	svclt	0x0029b9b6
   23164:	bf299418 	svclt	0x00299418
   23168:	bf296e69 	svclt	0x00296e69
   2316c:	bf2948bb 	svclt	0x002948bb
   23170:	bf2922fb 	svclt	0x002922fb
   23174:	bf28fd3b 	svclt	0x0028fd3b
   23178:	bf28d77b 	svclt	0x0028d77b
   2317c:	bf28b1ab 	svclt	0x0028b1ab
   23180:	bf288bdb 	svclt	0x00288bdb
   23184:	bf28660a 	svclt	0x0028660a
   23188:	bf284029 	svclt	0x00284029
   2318c:	bf281a48 	svclt	0x00281a48
   23190:	bf27f456 	svclt	0x0027f456
   23194:	bf27ce64 	svclt	0x0027ce64
   23198:	bf27a861 	svclt	0x0027a861
   2319c:	bf27826f 	svclt	0x0027826f
   231a0:	bf275c5b 	svclt	0x00275c5b
   231a4:	bf273659 	svclt	0x00273659
   231a8:	bf271045 	svclt	0x00271045
   231ac:	bf26ea31 	svclt	0x0026ea31
   231b0:	bf26c40d 	svclt	0x0026c40d
   231b4:	bf269de9 	svclt	0x00269de9
   231b8:	bf2677b4 	svclt	0x002677b4
   231bc:	bf26517e 	svclt	0x0026517e
   231c0:	bf262b49 	svclt	0x00262b49
   231c4:	bf260503 	svclt	0x00260503
   231c8:	bf25debe 	svclt	0x0025debe
   231cc:	bf25b878 	svclt	0x0025b878
   231d0:	bf259221 	svclt	0x00259221
   231d4:	bf256bca 	svclt	0x00256bca
   231d8:	bf254563 	svclt	0x00254563
   231dc:	bf251f0c 	svclt	0x00251f0c
   231e0:	bf24f894 	svclt	0x0024f894
   231e4:	bf24d22d 	svclt	0x0024d22d
   231e8:	bf24aba4 	svclt	0x0024aba4
   231ec:	bf24852b 	svclt	0x0024852b
   231f0:	bf245ea2 	svclt	0x00245ea2
   231f4:	bf243819 	svclt	0x00243819
   231f8:	bf241180 	svclt	0x00241180
   231fc:	bf23eae6 	svclt	0x0023eae6
   23200:	bf23c44c 	svclt	0x0023c44c
   23204:	bf239da1 	svclt	0x00239da1
   23208:	bf2376f7 	svclt	0x002376f7
   2320c:	bf23504c 	svclt	0x0023504c
   23210:	bf232991 	svclt	0x00232991
   23214:	bf2302d6 	svclt	0x002302d6
   23218:	bf22dc0a 	svclt	0x0022dc0a
   2321c:	bf22b53d 	svclt	0x0022b53d
   23220:	bf228e71 	svclt	0x00228e71
   23224:	bf226794 	svclt	0x00226794
   23228:	bf2240b8 	svclt	0x002240b8
   2322c:	bf2219db 	svclt	0x002219db
   23230:	bf21f2ed 	svclt	0x0021f2ed
   23234:	bf21cbff 	svclt	0x0021cbff
   23238:	bf21a501 	svclt	0x0021a501
   2323c:	bf217e02 	svclt	0x00217e02
   23240:	bf215704 	svclt	0x00215704
   23244:	bf212ff5 	svclt	0x00212ff5
   23248:	bf2108e6 	svclt	0x002108e6
   2324c:	bf20e1d6 	svclt	0x0020e1d6
   23250:	bf20bab6 	svclt	0x0020bab6
   23254:	bf209396 	svclt	0x00209396
   23258:	bf206c66 	svclt	0x00206c66
   2325c:	bf204535 	svclt	0x00204535
   23260:	bf201e04 	svclt	0x00201e04
   23264:	bf1ff6c2 	svclt	0x001ff6c2
   23268:	bf1fcf81 	svclt	0x001fcf81
   2326c:	bf1fa83f 	svclt	0x001fa83f
   23270:	bf1f80ed 	svclt	0x001f80ed
   23274:	bf1f599b 	svclt	0x001f599b
   23278:	bf1f3248 	svclt	0x001f3248
   2327c:	bf1f0ae5 	svclt	0x001f0ae5
   23280:	bf1ee382 	svclt	0x001ee382
   23284:	bf1ebc0e 	svclt	0x001ebc0e
   23288:	bf1e949a 	svclt	0x001e949a
   2328c:	bf1e6d26 	svclt	0x001e6d26
   23290:	bf1e45a2 	svclt	0x001e45a2
   23294:	bf1e1e1d 	svclt	0x001e1e1d
   23298:	bf1df698 	svclt	0x001df698
   2329c:	bf1dcf03 	svclt	0x001dcf03
   232a0:	bf1da76e 	svclt	0x001da76e
   232a4:	bf1d7fd8 	svclt	0x001d7fd8
   232a8:	bf1d5832 	svclt	0x001d5832
   232ac:	bf1d308c 	svclt	0x001d308c
   232b0:	bf1d08d5 	svclt	0x001d08d5
   232b4:	bf1ce11e 	svclt	0x001ce11e
   232b8:	bf1cb967 	svclt	0x001cb967
   232bc:	bf1c919f 	svclt	0x001c919f
   232c0:	bf1c69d7 	svclt	0x001c69d7
   232c4:	bf1c420f 	svclt	0x001c420f
   232c8:	bf1c1a37 	svclt	0x001c1a37
   232cc:	bf1bf25e 	svclt	0x001bf25e
   232d0:	bf1bca86 	svclt	0x001bca86
   232d4:	bf1ba29c 	svclt	0x001ba29c
   232d8:	bf1b7ab3 	svclt	0x001b7ab3
   232dc:	bf1b52b9 	svclt	0x001b52b9
   232e0:	bf1b2abf 	svclt	0x001b2abf
   232e4:	bf1b02c5 	svclt	0x001b02c5
   232e8:	bf1adaba 	svclt	0x001adaba
   232ec:	bf1ab2c0 	svclt	0x001ab2c0
   232f0:	bf1a8aa4 	svclt	0x001a8aa4
   232f4:	bf1a6299 	svclt	0x001a6299
   232f8:	bf1a3a7e 	svclt	0x001a3a7e
   232fc:	bf1a1251 	svclt	0x001a1251
   23300:	bf19ea36 	svclt	0x0019ea36
   23304:	bf19c1f8 	svclt	0x0019c1f8
   23308:	bf1999cc 	svclt	0x001999cc
   2330c:	bf19718f 	svclt	0x0019718f
   23310:	bf194952 	svclt	0x00194952
   23314:	bf192114 	svclt	0x00192114
   23318:	bf18f8c6 	svclt	0x0018f8c6
   2331c:	bf18d078 	svclt	0x0018d078
   23320:	bf18a81a 	svclt	0x0018a81a
   23324:	bf187fbb 	svclt	0x00187fbb
   23328:	bf18575c 	svclt	0x0018575c
   2332c:	bf182eec 	svclt	0x00182eec
   23330:	bf18068e 	svclt	0x0018068e
   23334:	bf17de0d 	svclt	0x0017de0d
   23338:	bf17b59e 	svclt	0x0017b59e
   2333c:	bf178d1e 	svclt	0x00178d1e
   23340:	bf17648c 	svclt	0x0017648c
   23344:	bf173c0c 	svclt	0x00173c0c
   23348:	bf17137b 	svclt	0x0017137b
   2334c:	bf16ead9 	svclt	0x0016ead9
   23350:	bf16c248 	svclt	0x0016c248
   23354:	bf1699a6 	svclt	0x001699a6
   23358:	bf1670f4 	svclt	0x001670f4
   2335c:	bf164841 	svclt	0x00164841
   23360:	bf161f8e 	svclt	0x00161f8e
   23364:	bf15f6dc 	svclt	0x0015f6dc
   23368:	bf15ce18 	svclt	0x0015ce18
   2336c:	bf15a555 	svclt	0x0015a555
   23370:	bf157c81 	svclt	0x00157c81
   23374:	bf1553bd 	svclt	0x001553bd
   23378:	bf152ad8 	svclt	0x00152ad8
   2337c:	bf150204 	svclt	0x00150204
   23380:	bf14d91f 	svclt	0x0014d91f
   23384:	bf14b03a 	svclt	0x0014b03a
   23388:	bf148744 	svclt	0x00148744
   2338c:	bf145e5f 	svclt	0x00145e5f
   23390:	bf143559 	svclt	0x00143559
   23394:	bf140c63 	svclt	0x00140c63
   23398:	bf13e35c 	svclt	0x0013e35c
   2339c:	bf13ba56 	svclt	0x0013ba56
   233a0:	bf13913f 	svclt	0x0013913f
   233a4:	bf136827 	svclt	0x00136827
   233a8:	bf133f10 	svclt	0x00133f10
   233ac:	bf1315e8 	svclt	0x001315e8
   233b0:	bf12ecc0 	svclt	0x0012ecc0
   233b4:	bf12c398 	svclt	0x0012c398
   233b8:	bf129a70 	svclt	0x00129a70
   233bc:	bf127137 	svclt	0x00127137
   233c0:	bf1247ed 	svclt	0x001247ed
   233c4:	bf121eb4 	svclt	0x00121eb4
   233c8:	bf11f56a 	svclt	0x0011f56a
   233cc:	bf11cc21 	svclt	0x0011cc21
   233d0:	bf11a2c6 	svclt	0x0011a2c6
   233d4:	bf11796c 	svclt	0x0011796c
   233d8:	bf115012 	svclt	0x00115012
   233dc:	bf1126a6 	svclt	0x001126a6
   233e0:	bf10fd3b 	svclt	0x0010fd3b
   233e4:	bf10d3d0 	svclt	0x0010d3d0
   233e8:	bf10aa54 	svclt	0x0010aa54
   233ec:	bf1080d8 	svclt	0x001080d8
   233f0:	bf10575c 	svclt	0x0010575c
   233f4:	bf102dcf 	svclt	0x00102dcf
   233f8:	bf100443 	svclt	0x00100443
   233fc:	bf0fdab6 	svclt	0x000fdab6
   23400:	bf0fb129 	svclt	0x000fb129
   23404:	bf0f878b 	svclt	0x000f878b
   23408:	bf0f5ddd 	svclt	0x000f5ddd
   2340c:	bf0f3440 	svclt	0x000f3440
   23410:	bf0f0a91 	svclt	0x000f0a91
   23414:	bf0ee0e3 	svclt	0x000ee0e3
   23418:	bf0eb724 	svclt	0x000eb724
   2341c:	bf0e8d65 	svclt	0x000e8d65
   23420:	bf0e63a6 	svclt	0x000e63a6
   23424:	bf0e39d6 	svclt	0x000e39d6
   23428:	bf0e1006 	svclt	0x000e1006
   2342c:	bf0de636 	svclt	0x000de636
   23430:	bf0dbc66 	svclt	0x000dbc66
   23434:	bf0d9286 	svclt	0x000d9286
   23438:	bf0d68a5 	svclt	0x000d68a5
   2343c:	bf0d3eb4 	svclt	0x000d3eb4
   23440:	bf0d14c2 	svclt	0x000d14c2
   23444:	bf0cead1 	svclt	0x000cead1
   23448:	bf0cc0cf 	svclt	0x000cc0cf
   2344c:	bf0c96dd 	svclt	0x000c96dd
   23450:	bf0c6cdb 	svclt	0x000c6cdb
   23454:	bf0c42c8 	svclt	0x000c42c8
   23458:	bf0c18b5 	svclt	0x000c18b5
   2345c:	bf0beea2 	svclt	0x000beea2
   23460:	bf0bc48f 	svclt	0x000bc48f
   23464:	bf0b9a6b 	svclt	0x000b9a6b
   23468:	bf0b7048 	svclt	0x000b7048
   2346c:	bf0b4624 	svclt	0x000b4624
   23470:	bf0b1bef 	svclt	0x000b1bef
   23474:	bf0af1bb 	svclt	0x000af1bb
   23478:	bf0ac775 	svclt	0x000ac775
   2347c:	bf0a9d41 	svclt	0x000a9d41
   23480:	bf0a72fc 	svclt	0x000a72fc
   23484:	bf0a48a6 	svclt	0x000a48a6
   23488:	bf0a1e60 	svclt	0x000a1e60
   2348c:	bf09f40a 	svclt	0x0009f40a
   23490:	bf09c9b4 	svclt	0x0009c9b4
   23494:	bf099f4d 	svclt	0x00099f4d
   23498:	bf0974e6 	svclt	0x000974e6
   2349c:	bf094a80 	svclt	0x00094a80
   234a0:	bf092008 	svclt	0x00092008
   234a4:	bf08f5a1 	svclt	0x0008f5a1
   234a8:	bf08cb19 	svclt	0x0008cb19
   234ac:	bf08a0a1 	svclt	0x0008a0a1
   234b0:	bf087619 	svclt	0x00087619
   234b4:	bf084b90 	svclt	0x00084b90
   234b8:	bf082108 	svclt	0x00082108
   234bc:	bf07f66f 	svclt	0x0007f66f
   234c0:	bf07cbd5 	svclt	0x0007cbd5
   234c4:	bf07a13c 	svclt	0x0007a13c
   234c8:	bf077692 	svclt	0x00077692
   234cc:	bf074be8 	svclt	0x00074be8
   234d0:	bf07213e 	svclt	0x0007213e
   234d4:	bf06f683 	svclt	0x0006f683
   234d8:	bf06cbc9 	svclt	0x0006cbc9
   234dc:	bf06a10e 	svclt	0x0006a10e
   234e0:	bf067653 	svclt	0x00067653
   234e4:	bf064b88 	svclt	0x00064b88
   234e8:	bf0620bc 	svclt	0x000620bc
   234ec:	bf05f5e0 	svclt	0x0005f5e0
   234f0:	bf05cb04 	svclt	0x0005cb04
   234f4:	bf05a027 	svclt	0x0005a027
   234f8:	bf05754b 	svclt	0x0005754b
   234fc:	bf054a5e 	svclt	0x00054a5e
   23500:	bf051f71 	svclt	0x00051f71
   23504:	bf04f484 	svclt	0x0004f484
   23508:	bf04c986 	svclt	0x0004c986
   2350c:	bf049e99 	svclt	0x00049e99
   23510:	bf04738a 	svclt	0x0004738a
   23514:	bf04488c 	svclt	0x0004488c
   23518:	bf041d7e 	svclt	0x00041d7e
   2351c:	bf03f26f 	svclt	0x0003f26f
   23520:	bf03c750 	svclt	0x0003c750
   23524:	bf039c41 	svclt	0x00039c41
   23528:	bf037122 	svclt	0x00037122
   2352c:	bf0345f1 	svclt	0x000345f1
   23530:	bf031ad2 	svclt	0x00031ad2
   23534:	bf02efa2 	svclt	0x0002efa2
   23538:	bf02c472 	svclt	0x0002c472
   2353c:	bf029931 	svclt	0x00029931
   23540:	bf026df0 	svclt	0x00026df0
   23544:	bf0242af 	svclt	0x000242af
   23548:	bf02176e 	svclt	0x0002176e
   2354c:	bf01ec1c 	svclt	0x0001ec1c
   23550:	bf01c0ca 	svclt	0x0001c0ca
   23554:	bf019579 	svclt	0x00019579
   23558:	bf016a16 	svclt	0x00016a16
   2355c:	bf013eb4 	svclt	0x00013eb4
   23560:	bf011351 	svclt	0x00011351
   23564:	bf00e7de 	svclt	0x0000e7de
   23568:	bf00bc7b 	svclt	0x0000bc7b
   2356c:	bf0090f7 	svclt	0x000090f7
   23570:	bf006584 	svclt	0x00006584
   23574:	bf003a00 	svclt	0x00003a00
   23578:	bf000e7c 	svclt	0x00000e7c
   2357c:	beffc5ef 	cdplt	5, 15, cr12, cr15, cr15, {7}
   23580:	beff6ee7 	cdplt	14, 15, cr6, cr15, cr7, {7}
   23584:	beff17be 	mrclt	7, 7, r1, cr15, cr14, {5}
   23588:	befec094 	mrclt	0, 7, ip, cr14, cr4, {4}
   2358c:	befe6949 	cdplt	9, 15, cr6, cr14, cr9, {2}
   23590:	befe11fd 	mrclt	1, 7, r1, cr14, cr13, {7}
   23594:	befdbab2 	mrclt	10, 7, fp, cr13, cr2, {5}
   23598:	befd6367 	cdplt	3, 15, cr6, cr13, cr7, {3}
   2359c:	befd0bfa 	vmovlt.u8	r0, d29[7]
   235a0:	befcb48d 	cdplt	4, 15, cr11, cr12, cr13, {4}
   235a4:	befc5d20 	cdplt	13, 15, cr5, cr12, cr0, {1}
   235a8:	befc05b4 	mrclt	5, 7, r0, cr12, cr4, {5}
   235ac:	befbae25 	cdplt	14, 15, cr10, cr11, cr5, {1}
   235b0:	befb5697 	mrclt	6, 7, r5, cr11, cr7, {4}
   235b4:	befafee7 	cdplt	14, 15, cr15, cr10, cr7, {7}
   235b8:	befaa759 	mrclt	7, 7, sl, cr10, cr9, {2}
   235bc:	befa4fa9 	cdplt	15, 15, cr4, cr10, cr9, {5}
   235c0:	bef9f7f9 	mrclt	7, 7, APSR_nzcv, cr9, cr9, {7}
   235c4:	bef9a027 	cdplt	0, 15, cr10, cr9, cr7, {1}
   235c8:	bef94856 	mrclt	8, 7, r4, cr9, cr6, {2}
   235cc:	bef8f084 	cdplt	0, 15, cr15, cr8, cr4, {4}
   235d0:	bef898b3 	mrclt	8, 7, r9, cr8, cr3, {5}
   235d4:	bef840c0 	cdplt	0, 15, cr4, cr8, cr0, {6}
   235d8:	bef7e8cd 	cdplt	8, 15, cr14, cr7, cr13, {6}
   235dc:	bef790da 	mrclt	0, 7, r9, cr7, cr10, {6}
   235e0:	bef738e7 	cdplt	8, 15, cr3, cr7, cr7, {7}
   235e4:	bef6e0d2 	mrclt	0, 7, lr, cr6, cr2, {6}
   235e8:	bef688be 	mrclt	8, 7, r8, cr6, cr14, {5}
   235ec:	bef63088 	cdplt	0, 15, cr3, cr6, cr8, {4}
   235f0:	bef5d873 	mrclt	8, 7, sp, cr5, cr3, {3}
   235f4:	bef5803d 	mrclt	0, 7, r8, cr5, cr13, {1}
   235f8:	bef52807 	cdplt	8, 15, cr2, cr5, cr7, {0}
   235fc:	bef4cfaf 	cdplt	15, 15, cr12, cr4, cr15, {5}
   23600:	bef47757 	mrclt	7, 7, r7, cr4, cr7, {2}
   23604:	bef41f00 	cdplt	15, 15, cr1, cr4, cr0, {0}
   23608:	bef3c6a8 	cdplt	6, 15, cr12, cr3, cr8, {5}
   2360c:	bef36e2f 	cdplt	14, 15, cr6, cr3, cr15, {1}
   23610:	bef315b5 	mrclt	5, 7, r1, cr3, cr5, {5}
   23614:	bef2bd3c 	mrclt	13, 7, fp, cr2, cr12, {1}
   23618:	bef264c3 	cdplt	4, 15, cr6, cr2, cr3, {6}
   2361c:	bef20c28 	cdplt	12, 15, cr0, cr2, cr8, {1}
   23620:	bef1b38d 	cdplt	3, 15, cr11, cr1, cr13, {4}
   23624:	bef15af3 	mrclt	10, 7, r5, cr1, cr3, {7}
   23628:	bef10236 	mrclt	2, 7, r0, cr1, cr6, {1}
   2362c:	bef0a97a 	mrclt	9, 7, sl, cr0, cr10, {3}
   23630:	bef050be 	mrclt	0, 7, r5, cr0, cr14, {5}
   23634:	beeff801 	cdplt	8, 14, cr15, cr15, cr1, {0}
   23638:	beef9f23 	cdplt	15, 14, cr9, cr15, cr3, {1}
   2363c:	beef4645 	cdplt	6, 14, cr4, cr15, cr5, {2}
   23640:	beeeed67 	cdplt	13, 14, cr14, cr14, cr7, {3}
   23644:	beee9468 	cdplt	4, 14, cr9, cr14, cr8, {3}
   23648:	beee3b8a 	vfmalt.f64	d19, d30, d10
   2364c:	beede28b 	cdplt	2, 14, cr14, cr13, cr11, {4}
   23650:	beed896a 	cdplt	9, 14, cr8, cr13, cr10, {3}
   23654:	beed306a 	cdplt	0, 14, cr3, cr13, cr10, {3}
   23658:	beecd749 	cdplt	7, 14, cr13, cr12, cr9, {2}
   2365c:	beec7e28 	cdplt	14, 14, cr7, cr12, cr8, {1}
   23660:	beec24e6 	cdplt	4, 14, cr2, cr12, cr6, {7}
   23664:	beebcbc5 	vfmslt.f64	d28, d27, d5
   23668:	beeb7282 	cdplt	2, 14, cr7, cr11, cr2, {4}
   2366c:	beeb193f 	mcrlt	9, 7, r1, cr11, cr15, {1}
   23670:	beeabfdb 	mcrlt	15, 7, fp, cr10, cr11, {6}
   23674:	beea6677 	mcrlt	6, 7, r6, cr10, cr7, {3}
   23678:	beea0d13 	mcrlt	13, 7, r0, cr10, cr3, {0}
   2367c:	bee9b3af 	cdplt	3, 14, cr11, cr9, cr15, {5}
   23680:	bee95a29 	vfmalt.f32	s11, s18, s19
   23684:	bee900c5 	cdplt	0, 14, cr0, cr9, cr5, {6}
   23688:	bee8a71e 	mcrlt	7, 7, sl, cr8, cr14, {0}
   2368c:	bee84d98 	mcrlt	13, 7, r4, cr8, cr8, {4}
   23690:	bee7f3f1 	mcrlt	3, 7, pc, cr7, cr1, {7}	; <UNPREDICTABLE>
   23694:	bee79a6b 	vfmslt.f32	s19, s14, s23
   23698:	bee740a3 	cdplt	0, 14, cr4, cr7, cr3, {5}
   2369c:	bee6e6fb 	mcrlt	6, 7, lr, cr6, cr11, {7}
   236a0:	bee68d33 	mcrlt	13, 7, r8, cr6, cr3, {1}
   236a4:	bee6336a 	cdplt	3, 14, cr3, cr6, cr10, {3}
   236a8:	bee5d9a1 	cdplt	9, 14, cr13, cr5, cr1, {5}
   236ac:	bee57fd8 	mcrlt	15, 7, r7, cr5, cr8, {6}
   236b0:	bee525ee 	cdplt	5, 14, cr2, cr5, cr14, {7}
   236b4:	bee4cc03 	cdplt	12, 14, cr12, cr4, cr3, {0}
   236b8:	bee47219 	mcrlt	2, 7, r7, cr4, cr9, {0}
   236bc:	bee4180d 	cdplt	8, 14, cr1, cr4, cr13, {0}
   236c0:	bee3be01 	cdplt	14, 14, cr11, cr3, cr1, {0}
   236c4:	bee363f5 	mcrlt	3, 7, r6, cr3, cr5, {7}
   236c8:	bee309ea 	cdplt	9, 14, cr0, cr3, cr10, {7}
   236cc:	bee2afbc 	mcrlt	15, 7, sl, cr2, cr12, {5}
   236d0:	bee2558f 	cdplt	5, 14, cr5, cr2, cr15, {4}
   236d4:	bee1fb61 	vfmslt.f64	d31, d1, d17
   236d8:	bee1a134 	mcrlt	1, 7, sl, cr1, cr4, {1}
   236dc:	bee146e5 	cdplt	6, 14, cr4, cr1, cr5, {7}
   236e0:	bee0ec96 	mcrlt	12, 7, lr, cr0, cr6, {4}
   236e4:	bee09247 	cdplt	2, 14, cr9, cr0, cr7, {2}
   236e8:	bee037f8 	mcrlt	7, 7, r3, cr0, cr8, {7}
   236ec:	bedfdd87 	cdplt	13, 13, cr13, cr15, cr7, {4}
   236f0:	bedf8317 	mrclt	3, 6, r8, cr15, cr7, {0}
   236f4:	bedf28a6 	cdplt	8, 13, cr2, cr15, cr6, {5}
   236f8:	bedece36 	mrclt	14, 6, ip, cr14, cr6, {1}
   236fc:	bede73a3 	cdplt	3, 13, cr7, cr14, cr3, {5}
   23700:	bede1911 	mrclt	9, 6, r1, cr14, cr1, {0}
   23704:	beddbe7f 	mrclt	14, 6, fp, cr13, cr15, {3}
   23708:	bedd63cc 	cdplt	3, 13, cr6, cr13, cr12, {6}
   2370c:	bedd0939 	mrclt	9, 6, r0, cr13, cr9, {1}
   23710:	bedcae86 	cdplt	14, 13, cr10, cr12, cr6, {4}
   23714:	bedc53b1 	mrclt	3, 6, r5, cr12, cr1, {5}
   23718:	bedbf8fd 	mrclt	8, 6, APSR_nzcv, cr11, cr13, {7}
   2371c:	bedb9e28 	cdplt	14, 13, cr9, cr11, cr8, {1}
   23720:	bedb4352 	mrclt	3, 6, r4, cr11, cr2, {2}
   23724:	bedae87d 	mrclt	8, 6, lr, cr10, cr13, {3}
   23728:	beda8da8 	cdplt	13, 13, cr8, cr10, cr8, {5}
   2372c:	beda32b1 	mrclt	2, 6, r3, cr10, cr1, {5}
   23730:	bed9d7ba 	mrclt	7, 6, sp, cr9, cr10, {5}
   23734:	bed97cc4 	cdplt	12, 13, cr7, cr9, cr4, {6}
   23738:	bed921ab 	cdplt	1, 13, cr2, cr9, cr11, {5}
   2373c:	bed8c693 	mrclt	6, 6, ip, cr8, cr3, {4}
   23740:	bed86b7b 	vmovlt.u8	r6, d8[3]
   23744:	bed81062 	cdplt	0, 13, cr1, cr8, cr2, {3}
   23748:	bed7b54a 	cdplt	5, 13, cr11, cr7, cr10, {2}
   2374c:	bed75a10 	mrclt	10, 6, r5, cr7, cr0, {0}
   23750:	bed6fed6 	mrclt	14, 6, APSR_nzcv, cr6, cr6, {6}
   23754:	bed6a39c 	mrclt	3, 6, sl, cr6, cr12, {4}
   23758:	bed64841 	cdplt	8, 13, cr4, cr6, cr1, {2}
   2375c:	bed5ed07 	cdplt	13, 13, cr14, cr5, cr7, {0}
   23760:	bed591ac 	atnltdp	f1, #4.0
   23764:	bed53650 	mrclt	6, 6, r3, cr5, cr0, {2}
   23768:	bed4dad3 	mrclt	10, 6, sp, cr4, cr3, {6}
   2376c:	bed47f56 	mrclt	15, 6, r7, cr4, cr6, {2}
   23770:	bed423d9 	mrclt	3, 6, r2, cr4, cr9, {6}
   23774:	bed3c85c 	mrclt	8, 6, ip, cr3, cr12, {2}
   23778:	bed36cdf 	mrclt	12, 6, r6, cr3, cr15, {6}
   2377c:	bed31141 	cdplt	1, 13, cr1, cr3, cr1, {2}
   23780:	bed2b5a2 	cdplt	5, 13, cr11, cr2, cr2, {5}
   23784:	bed25a04 	vfnmslt.f32	s11, s4, s8
   23788:	bed1fe65 	cdplt	14, 13, cr15, cr1, cr5, {3}
   2378c:	bed1a2a5 	cdplt	2, 13, cr10, cr1, cr5, {5}
   23790:	bed146e5 	cdplt	6, 13, cr4, cr1, cr5, {7}
   23794:	bed0eb25 	vfnmslt.f64	d30, d0, d21
   23798:	bed08f65 	cdplt	15, 13, cr8, cr0, cr5, {3}
   2379c:	bed03383 	cdplt	3, 13, cr3, cr0, cr3, {4}
   237a0:	becfd7a1 	cdplt	7, 12, cr13, cr15, cr1, {5}
   237a4:	becf7bc0 	cdplt	11, 12, cr7, cr15, cr0, {6}
   237a8:	becf1fde 	mcrlt	15, 6, r1, cr15, cr14, {6}
   237ac:	becec3db 	mcrlt	3, 6, ip, cr14, cr11, {6}
   237b0:	bece67f9 	mcrlt	7, 6, r6, cr14, cr9, {7}
   237b4:	bece0bf6 	mcrlt	11, 6, r0, cr14, cr6, {7}
   237b8:	becdafd1 	mcrlt	15, 6, sl, cr13, cr1, {6}
   237bc:	becd53ce 	cdplt	3, 12, cr5, cr13, cr14, {6}
   237c0:	beccf7a9 	cdplt	7, 12, cr15, cr12, cr9, {5}
   237c4:	becc9b84 	vdivlt.f64	d25, d28, d4
   237c8:	becc3f60 	cdplt	15, 12, cr3, cr12, cr0, {3}
   237cc:	becbe33b 	mcrlt	3, 6, lr, cr11, cr11, {1}
   237d0:	becb86f4 	mcrlt	6, 6, r8, cr11, cr4, {7}
   237d4:	becb2aae 	vdivlt.f32	s5, s23, s29
   237d8:	becace68 	cdplt	14, 12, cr12, cr10, cr8, {3}
   237dc:	beca7200 	cdplt	2, 12, cr7, cr10, cr0, {0}
   237e0:	beca15ba 	mcrlt	5, 6, r1, cr10, cr10, {5}
   237e4:	bec9b952 	mcrlt	9, 6, fp, cr9, cr2, {2}
   237e8:	bec95cea 	cdplt	12, 12, cr5, cr9, cr10, {7}
   237ec:	bec90082 	cdplt	0, 12, cr0, cr9, cr2, {4}
   237f0:	bec8a3f9 	mcrlt	3, 6, sl, cr8, cr9, {7}
   237f4:	bec8476f 	cdplt	7, 12, cr4, cr8, cr15, {3}
   237f8:	bec7eae6 	cdplt	10, 12, cr14, cr7, cr6, {7}
   237fc:	bec78e5c 	mcrlt	14, 6, r8, cr7, cr12, {2}
   23800:	bec731d3 	mcrlt	1, 6, r3, cr7, cr3, {6}
   23804:	bec6d528 	cdplt	5, 12, cr13, cr6, cr8, {1}
   23808:	bec6787d 	mcrlt	8, 6, r7, cr6, cr13, {3}
   2380c:	bec61bd2 	mcrlt	11, 6, r1, cr6, cr2, {6}
   23810:	bec5bf27 	cdplt	15, 12, cr11, cr5, cr7, {1}
   23814:	bec5625a 	mcrlt	2, 6, r6, cr5, cr10, {2}
   23818:	bec5058e 	cdplt	5, 12, cr0, cr5, cr14, {4}
   2381c:	bec4a8c1 	cdplt	8, 12, cr10, cr4, cr1, {6}
   23820:	bec44bf5 	mcrlt	11, 6, r4, cr4, cr5, {7}
   23824:	bec3ef07 	cdplt	15, 12, cr14, cr3, cr7, {0}
   23828:	bec3923a 	mcrlt	2, 6, r9, cr3, cr10, {1}
   2382c:	bec3354c 	cdplt	5, 12, cr3, cr3, cr12, {2}
   23830:	bec2d85e 	mcrlt	8, 6, sp, cr2, cr14, {2}
   23834:	bec27b4e 	cdplt	11, 12, cr7, cr2, cr14, {2}
   23838:	bec21e60 	cdplt	14, 12, cr1, cr2, cr0, {3}
   2383c:	bec1c151 	mcrlt	1, 6, ip, cr1, cr1, {2}
   23840:	bec16441 	cdplt	4, 12, cr6, cr1, cr1, {2}
   23844:	bec10710 	mcrlt	7, 6, r0, cr1, cr0, {0}
   23848:	bec0aa00 	vdivlt.f32	s21, s0, s0
   2384c:	bec04ccf 	cdplt	12, 12, cr4, cr0, cr15, {6}
   23850:	bebfef9e 	mrclt	15, 5, lr, cr15, cr14, {4}
   23854:	bebf926c 	cdplt	2, 11, cr9, cr15, cr12, {3}
   23858:	bebf353b 	mrclt	5, 5, r3, cr15, cr11, {1}
   2385c:	bebed7e9 	cdplt	7, 11, cr13, cr14, cr9, {7}
   23860:	bebe7a96 	mrclt	10, 5, r7, cr14, cr6, {4}
   23864:	bebe1d43 	cdplt	13, 11, cr1, cr14, cr3, {2}
   23868:	bebdbff0 	mrclt	15, 5, fp, cr13, cr0, {7}
   2386c:	bebd627c 	mrclt	2, 5, r6, cr13, cr12, {3}
   23870:	bebd0529 	cdplt	5, 11, cr0, cr13, cr9, {1}
   23874:	bebca7b5 	mrclt	7, 5, sl, cr12, cr5, {5}
   23878:	bebc4a41 	vcvtrlt.u32.f32	s8, s2
   2387c:	bebbecab 	cdplt	12, 11, cr14, cr11, cr11, {5}
   23880:	bebb8f36 	mrclt	15, 5, r8, cr11, cr6, {1}
   23884:	bebb31a1 	frdlt<illegal precision>p	f3, f3, f1
   23888:	bebad40b 	cdplt	4, 11, cr13, cr10, cr11, {0}
   2388c:	beba7675 	mrclt	6, 5, r7, cr10, cr5, {3}
   23890:	beba18bd 	mrclt	8, 5, r1, cr10, cr13, {5}
   23894:	beb9bb28 	cdplt	11, 11, cr11, cr9, cr8, {1}
   23898:	beb95d70 	mrclt	13, 5, r5, cr9, cr0, {3}
   2389c:	beb8ffb9 	mrclt	15, 5, APSR_nzcv, cr8, cr9, {5}
   238a0:	beb8a201 	cdplt	2, 11, cr10, cr8, cr1, {0}
   238a4:	beb84428 	cdplt	4, 11, cr4, cr8, cr8, {1}
   238a8:	beb7e64f 	cdplt	6, 11, cr14, cr7, cr15, {2}
   238ac:	beb78876 	mrclt	8, 5, r8, cr7, cr6, {3}
   238b0:	beb72a9d 	mrclt	10, 5, r2, cr7, cr13, {4}
   238b4:	beb6ccc4 	cdplt	12, 11, cr12, cr6, cr4, {6}
   238b8:	beb66eca 	cdplt	14, 11, cr6, cr6, cr10, {6}
   238bc:	beb610f1 	mrclt	0, 5, r1, cr6, cr1, {7}
   238c0:	beb5b2f6 	mrclt	2, 5, fp, cr5, cr6, {7}
   238c4:	beb554fc 	mrclt	4, 5, r5, cr5, cr12, {7}
   238c8:	beb4f6e0 	cdplt	6, 11, cr15, cr4, cr0, {7}
   238cc:	beb498e5 	cdplt	8, 11, cr9, cr4, cr5, {7}
   238d0:	beb43ac9 	vcmpelt.f32	s6, s18
   238d4:	beb3dcad 	cdplt	12, 11, cr13, cr3, cr13, {5}
   238d8:	beb37e91 	mrclt	14, 5, r7, cr3, cr1, {4}
   238dc:	beb32053 	mrclt	0, 5, r2, cr3, cr3, {2}
   238e0:	beb2c237 	mrclt	2, 5, ip, cr2, cr7, {1}
   238e4:	beb263fa 	mrclt	3, 5, r6, cr2, cr10, {7}
   238e8:	beb205bc 	mrclt	5, 5, r0, cr2, cr12, {5}
   238ec:	beb1a75d 	mrclt	7, 5, sl, cr1, cr13, {2}
   238f0:	beb1491f 	mrclt	9, 5, r4, cr1, cr15, {0}
   238f4:	beb0eac0 	vabslt.f32	s28, s0
   238f8:	beb08c61 	cdplt	12, 11, cr8, cr0, cr1, {3}
   238fc:	beb02e02 	cdplt	14, 11, cr2, cr0, cr2, {0}
   23900:	beafcfa2 	cdplt	15, 10, cr12, cr15, cr2, {5}
   23904:	beaf7143 	fdvltem	f7, f7, f3
   23908:	beaf12c2 	cdplt	2, 10, cr1, cr15, cr2, {6}
   2390c:	beaeb442 	cdplt	4, 10, cr11, cr14, cr2, {2}
   23910:	beae55c1 	cdplt	5, 10, cr5, cr14, cr1, {6}
   23914:	beadf740 	cdplt	7, 10, cr15, cr13, cr0, {2}
   23918:	bead989e 	mcrlt	8, 5, r9, cr13, cr14, {4}
   2391c:	bead3a1d 	mcrlt	10, 5, r3, cr13, cr13, {0}
   23920:	beacdb7b 	mcrlt	11, 5, sp, cr12, cr11, {3}
   23924:	beac7cd9 	mcrlt	12, 5, r7, cr12, cr9, {6}
   23928:	beac1e36 	mcrlt	14, 5, r1, cr12, cr6, {1}
   2392c:	beabbf72 	mcrlt	15, 5, fp, cr11, cr2, {3}
   23930:	beab60af 	cdplt	0, 10, cr6, cr11, cr15, {5}
   23934:	beab020c 	cdplt	2, 10, cr0, cr11, cr12, {0}
   23938:	beaaa348 	cdplt	3, 10, cr10, cr10, cr8, {2}
   2393c:	beaa4463 	cdplt	4, 10, cr4, cr10, cr3, {3}
   23940:	bea9e59f 	mcrlt	5, 5, lr, cr9, cr15, {4}
   23944:	bea986ba 	mcrlt	6, 5, r8, cr9, cr10, {5}
   23948:	bea927d4 	mcrlt	7, 5, r2, cr9, cr4, {6}
   2394c:	bea8c8ef 	cdplt	8, 10, cr12, cr8, cr15, {7}
   23950:	bea86a0a 	vfmalt.f32	s12, s16, s20
   23954:	bea80b24 	vfmalt.f64	d0, d8, d20
   23958:	bea7ac1d 	mcrlt	12, 5, sl, cr7, cr13, {0}
   2395c:	bea74d16 	mcrlt	13, 5, r4, cr7, cr6, {0}
   23960:	bea6ee0f 	cdplt	14, 10, cr14, cr6, cr15, {0}
   23964:	bea68f08 	cdplt	15, 10, cr8, cr6, cr8, {0}
   23968:	bea63001 	cdplt	0, 10, cr3, cr6, cr1, {0}
   2396c:	bea5d0d9 	mcrlt	0, 5, sp, cr5, cr9, {6}
   23970:	bea571d2 	mcrlt	1, 5, r7, cr5, cr2, {6}
   23974:	bea512a9 	cdplt	2, 10, cr1, cr5, cr9, {5}
   23978:	bea4b381 	cdplt	3, 10, cr11, cr4, cr1, {4}
   2397c:	bea45437 	mcrlt	4, 5, r5, cr4, cr7, {1}
   23980:	bea3f50e 	cdplt	5, 10, cr15, cr3, cr14, {0}
   23984:	bea395c4 	cdplt	5, 10, cr9, cr3, cr4, {6}
   23988:	bea3367a 	mcrlt	6, 5, r3, cr3, cr10, {3}
   2398c:	bea2d730 	mcrlt	7, 5, sp, cr2, cr0, {1}
   23990:	bea277e6 	cdplt	7, 10, cr7, cr2, cr6, {7}
   23994:	bea2187a 	mcrlt	8, 5, r1, cr2, cr10, {3}
   23998:	bea1b930 	mcrlt	9, 5, fp, cr1, cr0, {1}
   2399c:	bea159c5 	cdplt	9, 10, cr5, cr1, cr5, {6}
   239a0:	bea0fa59 	mcrlt	10, 5, pc, cr0, cr9, {2}	; <UNPREDICTABLE>
   239a4:	bea09aed 	vfmslt.f32	s18, s1, s27
   239a8:	bea03b60 	vfmslt.f64	d3, d0, d16
   239ac:	be9fdbf5 	vmovlt.u16	sp, d31[1]
   239b0:	be9f7c67 	cdplt	12, 9, cr7, cr15, cr7, {3}
   239b4:	be9f1cda 	mrclt	12, 4, r1, cr15, cr10, {6}
   239b8:	be9ebd4d 	cdplt	13, 9, cr11, cr14, cr13, {2}
   239bc:	be9e5dc0 	cdplt	13, 9, cr5, cr14, cr0, {6}
   239c0:	be9dfe11 	mrclt	14, 4, APSR_nzcv, cr13, cr1, {0}
   239c4:	be9d9e84 	cdplt	14, 9, cr9, cr13, cr4, {4}
   239c8:	be9d3ed5 	mrclt	14, 4, r3, cr13, cr5, {6}
   239cc:	be9cdf26 	cdplt	15, 9, cr13, cr12, cr6, {1}
   239d0:	be9c7f78 	mrclt	15, 4, r7, cr12, cr8, {3}
   239d4:	be9c1fa7 	cdplt	15, 9, cr1, cr12, cr7, {5}
   239d8:	be9bbff9 	mrclt	15, 4, fp, cr11, cr9, {7}
   239dc:	be9b6028 	cdplt	0, 9, cr6, cr11, cr8, {1}
   239e0:	be9b0058 	mrclt	0, 4, r0, cr11, cr8, {2}
   239e4:	be9aa088 	cdplt	0, 9, cr10, cr10, cr8, {4}
   239e8:	be9a40b8 	mrclt	0, 4, r4, cr10, cr8, {5}
   239ec:	be99e0c6 	cdplt	0, 9, cr14, cr9, cr6, {6}
   239f0:	be9980f5 	mrclt	0, 4, r8, cr9, cr5, {7}
   239f4:	be992104 	fmllte	f2, f1, f4
   239f8:	be98c112 	mrclt	1, 4, ip, cr8, cr2, {0}
   239fc:	be986120 	fmlltep	f6, f0, f0
   23a00:	be98010c 	fmllte	f0, f0, #4.0
   23a04:	be97a11b 	mrclt	1, 4, sl, cr7, cr11, {0}
   23a08:	be974107 	fmllts	f4, f7, f7
   23a0c:	be96e0f4 	mrclt	0, 4, lr, cr6, cr4, {7}
   23a10:	be9680e0 	cdplt	0, 9, cr8, cr6, cr0, {7}
   23a14:	be9620cd 	cdplt	0, 9, cr2, cr6, cr13, {6}
   23a18:	be95c0ba 	mrclt	0, 4, ip, cr5, cr10, {5}
   23a1c:	be956085 	cdplt	0, 9, cr6, cr5, cr5, {4}
   23a20:	be950071 	mrclt	0, 4, r0, cr5, cr1, {3}
   23a24:	be94a03c 	mrclt	0, 4, sl, cr4, cr12, {1}
   23a28:	be944007 	cdplt	0, 9, cr4, cr4, cr7, {0}
   23a2c:	be93dfb1 	mrclt	15, 4, sp, cr3, cr1, {5}
   23a30:	be937f7c 	mrclt	15, 4, r7, cr3, cr12, {3}
   23a34:	be931f25 	cdplt	15, 9, cr1, cr3, cr5, {1}
   23a38:	be92bef0 	mrclt	14, 4, fp, cr2, cr0, {7}
   23a3c:	be925e9a 	mrclt	14, 4, r5, cr2, cr10, {4}
   23a40:	be91fe43 	cdplt	14, 9, cr15, cr1, cr3, {2}
   23a44:	be919ded 	cdplt	13, 9, cr9, cr1, cr13, {7}
   23a48:	be913d75 	mrclt	13, 4, r3, cr1, cr5, {3}
   23a4c:	be90dd1e 	mrclt	13, 4, sp, cr0, cr14, {0}
   23a50:	be907ca6 	cdplt	12, 9, cr7, cr0, cr6, {5}
   23a54:	be901c2e 	cdplt	12, 9, cr1, cr0, cr14, {1}
   23a58:	be8fbbb6 	vduplt.16	d31, fp
   23a5c:	be8f5b3e 	vduplt.16	d15, r5
   23a60:	be8efaa4 	vdivlt.f32	s30, s29, s9
   23a64:	be8e9a2c 	vdivlt.f32	s18, s28, s25
   23a68:	be8e3993 	mcrlt	9, 4, r3, cr14, cr3, {4}
   23a6c:	be8dd8f9 	mcrlt	8, 4, sp, cr13, cr9, {7}
   23a70:	be8d7860 	cdplt	8, 8, cr7, cr13, cr0, {3}
   23a74:	be8d17c6 	cdplt	7, 8, cr1, cr13, cr6, {6}
   23a78:	be8cb70b 	cdplt	7, 8, cr11, cr12, cr11, {0}
   23a7c:	be8c5671 	mcrlt	6, 4, r5, cr12, cr1, {3}
   23a80:	be8bf5b6 	mcrlt	5, 4, pc, cr11, cr6, {5}	; <UNPREDICTABLE>
   23a84:	be8b94fb 	mcrlt	4, 4, r9, cr11, cr11, {7}
   23a88:	be8b3440 	cdplt	4, 8, cr3, cr11, cr0, {2}
   23a8c:	be8ad384 	cdplt	3, 8, cr13, cr10, cr4, {4}
   23a90:	be8a72c9 	cdplt	2, 8, cr7, cr10, cr9, {6}
   23a94:	be8a11ed 	rmflt<illegal precision>z	f1, f2, #5.0
   23a98:	be89b131 	mcrlt	1, 4, fp, cr9, cr1, {1}
   23a9c:	be895055 	mcrlt	0, 4, r5, cr9, cr5, {2}
   23aa0:	be88ef78 	mcrlt	15, 4, lr, cr8, cr8, {3}
   23aa4:	be888e9b 	mcrlt	14, 4, r8, cr8, cr11, {4}
   23aa8:	be882d9d 	mcrlt	13, 4, r2, cr8, cr13, {4}
   23aac:	be87ccc0 	cdplt	12, 8, cr12, cr7, cr0, {6}
   23ab0:	be876bc2 	cdplt	11, 8, cr6, cr7, cr2, {6}
   23ab4:	be870ae5 	cdplt	10, 8, cr0, cr7, cr5, {7}
   23ab8:	be86a9e7 	cdplt	9, 8, cr10, cr6, cr7, {7}
   23abc:	be8648e9 	cdplt	8, 8, cr4, cr6, cr9, {7}
   23ac0:	be85e7c9 	cdplt	7, 8, cr14, cr5, cr9, {6}
   23ac4:	be8586cb 	cdplt	6, 8, cr8, cr5, cr11, {6}
   23ac8:	be8525cc 	cdplt	5, 8, cr2, cr5, cr12, {6}
   23acc:	be84c4ac 	cdplt	4, 8, cr12, cr4, cr12, {5}
   23ad0:	be84638d 	cdplt	3, 8, cr6, cr4, cr13, {4}
   23ad4:	be84026d 	cdplt	2, 8, cr0, cr4, cr13, {3}
   23ad8:	be83a14d 	sinltsm	f2, #5.0
   23adc:	be83402d 	cdplt	0, 8, cr4, cr3, cr13, {1}
   23ae0:	be82deec 	cdplt	14, 8, cr13, cr2, cr12, {7}
   23ae4:	be827dcc 	cdplt	13, 8, cr7, cr2, cr12, {6}
   23ae8:	be821c8a 	cdplt	12, 8, cr1, cr2, cr10, {4}
   23aec:	be81bb49 	cdplt	11, 8, cr11, cr1, cr9, {2}
   23af0:	be815a08 	vdivlt.f32	s10, s2, s16
   23af4:	be80f8c6 	cdplt	8, 8, cr15, cr0, cr6, {6}
   23af8:	be809763 	cdplt	7, 8, cr9, cr0, cr3, {3}
   23afc:	be803622 	cdplt	6, 8, cr3, cr0, cr2, {1}
   23b00:	be7fa97e 	mrclt	9, 3, sl, cr15, cr14, {3}
   23b04:	be7ee6fb 	mrclt	6, 3, lr, cr14, cr11, {7}
   23b08:	be7e2435 	mrclt	4, 3, r2, cr14, cr5, {1}
   23b0c:	be7d6170 	mrclt	1, 3, r6, cr13, cr0, {3}
   23b10:	be7c9e67 	cdplt	14, 7, cr9, cr12, cr7, {3}
   23b14:	be7bdba1 	vaddlt.f64	d29, d27, d17
   23b18:	be7b18db 	mrclt	8, 3, r1, cr11, cr11, {6}
   23b1c:	be7a55d2 	mrclt	5, 3, r5, cr10, cr2, {6}
   23b20:	be7992c9 	cdplt	2, 7, cr9, cr9, cr9, {6}
   23b24:	be78cfc0 	cdplt	15, 7, cr12, cr8, cr0, {6}
   23b28:	be780cb7 	mrclt	12, 3, r0, cr8, cr7, {5}
   23b2c:	be7749ae 	cdplt	9, 7, cr4, cr7, cr14, {5}
   23b30:	be7686a5 	cdplt	6, 7, cr8, cr6, cr5, {5}
   23b34:	be75c359 	mrclt	3, 3, ip, cr5, cr9, {2}
   23b38:	be75000d 	cdplt	0, 7, cr0, cr5, cr13, {0}
   23b3c:	be743d04 	cdplt	13, 7, cr3, cr4, cr4, {0}
   23b40:	be7379b7 	mrclt	9, 3, r7, cr3, cr7, {5}
   23b44:	be72b66b 	cdplt	6, 7, cr11, cr2, cr11, {3}
   23b48:	be71f2dc 	mrclt	2, 3, APSR_nzcv, cr1, cr12, {6}
   23b4c:	be712f90 	mrclt	15, 3, r2, cr1, cr0, {4}
   23b50:	be706c44 	cdplt	12, 7, cr6, cr0, cr4, {2}
   23b54:	be6fa8b5 	mcrlt	8, 3, sl, cr15, cr5, {5}
   23b58:	be6ee526 	cdplt	5, 6, cr14, cr14, cr6, {1}
   23b5c:	be6e2196 	mcrlt	1, 3, r2, cr14, cr6, {4}
   23b60:	be6d5e07 	cdplt	14, 6, cr5, cr13, cr7, {0}
   23b64:	be6c9a78 	mcrlt	10, 3, r9, cr12, cr8, {3}
   23b68:	be6bd6e9 	cdplt	6, 6, cr13, cr11, cr9, {7}
   23b6c:	be6b1316 	mcrlt	3, 3, r1, cr11, cr6, {0}
   23b70:	be6a4f87 	cdplt	15, 6, cr4, cr10, cr7, {4}
   23b74:	be698bb5 	vmovlt.8	d25[5], r8
   23b78:	be68c7e3 	cdplt	7, 6, cr12, cr8, cr3, {7}
   23b7c:	be680410 	mcrlt	4, 3, r0, cr8, cr0, {0}
   23b80:	be67403e 	mcrlt	0, 3, r4, cr7, cr14, {1}
   23b84:	be667c6c 	cdplt	12, 6, cr7, cr6, cr12, {3}
   23b88:	be65b899 	mcrlt	8, 3, fp, cr5, cr9, {4}
   23b8c:	be64f484 	cdplt	4, 6, cr15, cr4, cr4, {4}
   23b90:	be64306e 	cdplt	0, 6, cr3, cr4, cr14, {3}
   23b94:	be636c9c 	mcrlt	12, 3, r6, cr3, cr12, {4}
   23b98:	be62a887 	cdplt	8, 6, cr10, cr2, cr7, {4}
   23b9c:	be61e471 	mcrlt	4, 3, lr, cr1, cr1, {3}
   23ba0:	be61205c 	mcrlt	0, 3, r2, cr1, cr12, {2}
   23ba4:	be605c03 	cdplt	12, 6, cr5, cr0, cr3, {0}
   23ba8:	be5f97ee 	cdplt	7, 5, cr9, cr15, cr14, {7}
   23bac:	be5ed395 	mrclt	3, 2, sp, cr14, cr5, {4}
   23bb0:	be5e0f80 	cdplt	15, 5, cr0, cr14, cr0, {4}
   23bb4:	be5d4b27 	vnmlslt.f64	d20, d13, d23
   23bb8:	be5c86cf 	cdplt	6, 5, cr8, cr12, cr15, {6}
   23bbc:	be5bc276 	mrclt	2, 2, ip, cr11, cr6, {3}
   23bc0:	be5afe1e 	mrclt	14, 2, APSR_nzcv, cr10, cr14, {0}
   23bc4:	be5a3982 	cdplt	9, 5, cr3, cr10, cr2, {4}
   23bc8:	be597529 	cdplt	5, 5, cr7, cr9, cr9, {1}
   23bcc:	be58b08e 	cdplt	0, 5, cr11, cr8, cr14, {4}
   23bd0:	be57ec35 	mrclt	12, 2, lr, cr7, cr5, {1}
   23bd4:	be57279a 	mrclt	7, 2, r2, cr7, cr10, {4}
   23bd8:	be5662fe 	mrclt	2, 2, r6, cr6, cr14, {7}
   23bdc:	be559e62 	cdplt	14, 5, cr9, cr5, cr2, {3}
   23be0:	be54d9c7 	cdplt	9, 5, cr13, cr4, cr7, {6}
   23be4:	be5414e8 	cdplt	4, 5, cr1, cr4, cr8, {7}
   23be8:	be53504c 	cdplt	0, 5, cr5, cr3, cr12, {2}
   23bec:	be528b6e 	vnmlalt.f64	d24, d2, d30
   23bf0:	be51c6d2 	mrclt	6, 2, ip, cr1, cr2, {6}
   23bf4:	be5101f3 	mrclt	1, 2, r0, cr1, cr3, {7}
   23bf8:	be503d14 	mrclt	13, 2, r3, cr0, cr4, {0}
   23bfc:	be4f7836 	mcrlt	8, 2, r7, cr15, cr6, {1}
   23c00:	be4eb357 	mcrlt	3, 2, fp, cr14, cr7, {2}
   23c04:	be4dee78 	mcrlt	14, 2, lr, cr13, cr8, {3}
   23c08:	be4d2956 	mcrlt	9, 2, r2, cr13, cr6, {2}
   23c0c:	be4c6477 	mcrlt	4, 2, r6, cr12, cr7, {3}
   23c10:	be4b9f56 	mcrlt	15, 2, r9, cr11, cr6, {2}
   23c14:	be4ada34 	mcrlt	10, 2, sp, cr10, cr4, {1}
   23c18:	be4a1555 	mcrlt	5, 2, r1, cr10, cr5, {2}
   23c1c:	be495033 	mcrlt	0, 2, r5, cr9, cr3, {1}
   23c20:	be488b11 	vmovlt.8	d8[0], r8
   23c24:	be47c5ac 	cdplt	5, 4, cr12, cr7, cr12, {5}
   23c28:	be47008a 	cdplt	0, 4, cr0, cr7, cr10, {4}
   23c2c:	be463b69 	vmlslt.f64	d19, d6, d25
   23c30:	be457604 	cdplt	6, 4, cr7, cr5, cr4, {0}
   23c34:	be44b09f 	mcrlt	0, 2, fp, cr4, cr15, {4}
   23c38:	be43eb7d 	vmovlt.8	d3[3], lr
   23c3c:	be432618 	mcrlt	6, 2, r2, cr3, cr8, {0}
   23c40:	be4260b3 	mcrlt	0, 2, r6, cr2, cr3, {5}
   23c44:	be419b4e 	vmlslt.f64	d25, d1, d14
   23c48:	be40d5a6 	cdplt	5, 4, cr13, cr0, cr6, {5}
   23c4c:	be401041 	cdplt	0, 4, cr1, cr0, cr1, {2}
   23c50:	be3f4adc 	mrclt	10, 1, r4, cr15, cr12, {6}
   23c54:	be3e8534 	mrclt	5, 1, r8, cr14, cr4, {1}
   23c58:	be3dbf8c 	cdplt	15, 3, cr11, cr13, cr12, {4}
   23c5c:	be3cfa27 	vaddlt.f32	s30, s24, s15
   23c60:	be3c347f 	mrclt	4, 1, r3, cr12, cr15, {3}
   23c64:	be3b6ed6 	mrclt	14, 1, r6, cr11, cr6, {6}
   23c68:	be3aa92e 	cdplt	9, 3, cr10, cr10, cr14, {1}
   23c6c:	be39e386 	cdplt	3, 3, cr14, cr9, cr6, {4}
   23c70:	be391d9b 	mrclt	13, 1, r1, cr9, cr11, {4}
   23c74:	be3857f3 	mrclt	7, 1, r5, cr8, cr3, {7}
   23c78:	be379208 	cdplt	2, 3, cr9, cr7, cr8, {0}
   23c7c:	be36cc60 	cdplt	12, 3, cr12, cr6, cr0, {3}
   23c80:	be360675 	mrclt	6, 1, r0, cr6, cr5, {3}
   23c84:	be354089 	cdplt	0, 3, cr4, cr5, cr9, {4}
   23c88:	be347a9e 	mrclt	10, 1, r7, cr4, cr14, {4}
   23c8c:	be33b4b3 	mrclt	4, 1, fp, cr3, cr3, {5}
   23c90:	be32eec8 	cdplt	14, 3, cr14, cr2, cr8, {6}
   23c94:	be3228dd 	mrclt	8, 1, r2, cr2, cr13, {6}
   23c98:	be3162f1 	mrclt	2, 1, r6, cr1, cr1, {7}
   23c9c:	be309cc3 	cdplt	12, 3, cr9, cr0, cr3, {6}
   23ca0:	be2fd6d8 	mcrlt	6, 1, sp, cr15, cr8, {6}
   23ca4:	be2f10aa 	cdplt	0, 2, cr1, cr15, cr10, {5}
   23ca8:	be2e4a7b 	mcrlt	10, 1, r4, cr14, cr11, {3}
   23cac:	be2d844d 	cdplt	4, 2, cr8, cr13, cr13, {2}
   23cb0:	be2cbe1f 	mcrlt	14, 1, fp, cr12, cr15, {0}
   23cb4:	be2bf7f0 	mcrlt	7, 1, pc, cr11, cr0, {7}	; <UNPREDICTABLE>
   23cb8:	be2b31c2 	suflt<illegal precision>m	f3, f3, f2
   23cbc:	be2a6b94 	vmovlt.32	d26[1], r6
   23cc0:	be29a565 	cfsh64lt	mvdx10, mvdx9, #53
   23cc4:	be28def4 	mcrlt	14, 1, sp, cr8, cr4, {7}
   23cc8:	be2818c6 	cdplt	8, 2, cr1, cr8, cr6, {6}
   23ccc:	be275254 	mcrlt	2, 1, r5, cr7, cr4, {2}
   23cd0:	be268be3 	vnmullt.f64	d8, d22, d19
   23cd4:	be25c572 	mcrlt	5, 1, ip, cr5, cr2, {3}
   23cd8:	be24ff00 	cdplt	15, 2, cr15, cr4, cr0, {0}
   23cdc:	be24388f 	cdplt	8, 2, cr3, cr4, cr15, {4}
   23ce0:	be23721d 	mcrlt	2, 1, r7, cr3, cr13, {0}
   23ce4:	be22abac 	vmullt.f64	d10, d18, d28
   23ce8:	be21e53b 	mcrlt	5, 1, lr, cr1, cr11, {1}
   23cec:	be211e86 	cdplt	14, 2, cr1, cr1, cr6, {4}
   23cf0:	be205815 	mcrlt	8, 1, r5, cr0, cr5, {0}
   23cf4:	be1f9160 	mnfltez	f1, f0
   23cf8:	be1ecaef 	vnmlalt.f32	s24, s29, s31
   23cfc:	be1e043a 	mrclt	4, 0, r0, cr14, cr10, {1}
   23d00:	be1d3d86 	cdplt	13, 1, cr3, cr13, cr6, {4}
   23d04:	be1c76d1 	mrclt	6, 0, r7, cr12, cr1, {6}
   23d08:	be1bb01d 	mrclt	0, 0, fp, cr11, cr13, {0}
   23d0c:	be1ae968 	cdplt	9, 1, cr14, cr10, cr8, {3}
   23d10:	be1a22b4 	mrclt	2, 0, r2, cr10, cr4, {5}
   23d14:	be195bff 	vmovlt.s16	r5, d25[1]
   23d18:	be189507 	cfmul32lt	mvfx9, mvfx8, mvfx7
   23d1c:	be17ce53 	mrclt	14, 0, ip, cr7, cr3, {2}
   23d20:	be17075b 	mrclt	7, 0, r0, cr7, cr11, {2}
   23d24:	be164064 	cdplt	0, 1, cr4, cr6, cr4, {3}
   23d28:	be1579af 	cdplt	9, 1, cr7, cr5, cr15, {5}
   23d2c:	be14b2b7 	mrclt	2, 0, fp, cr4, cr7, {5}
   23d30:	be13ebc0 	vnmlalt.f64	d14, d19, d0
   23d34:	be1324c8 	cdplt	4, 1, cr2, cr3, cr8, {6}
   23d38:	be125dd1 	mrclt	13, 0, r5, cr2, cr1, {6}
   23d3c:	be1196d9 	mrclt	6, 0, r9, cr1, cr9, {6}
   23d40:	be10cfe1 	cdplt	15, 1, cr12, cr0, cr1, {7}
   23d44:	be1008a7 	cdplt	8, 1, cr0, cr0, cr7, {5}
   23d48:	be0f41af 	adflt<illegal precision>p	f4, f7, #10.0
   23d4c:	be0e7a74 	mcrlt	10, 0, r7, cr14, cr4, {3}
   23d50:	be0db37d 	mcrlt	3, 0, fp, cr13, cr13, {3}
   23d54:	be0cec42 	cdplt	12, 0, cr14, cr12, cr2, {2}
   23d58:	be0c2507 	cfsh32lt	mvfx2, mvfx12, #7
   23d5c:	be0b5e0f 	cdplt	14, 0, cr5, cr11, cr15, {0}
   23d60:	be0a96d5 	mcrlt	6, 0, r9, cr10, cr5, {6}
   23d64:	be09cf9a 	mcrlt	15, 0, ip, cr9, cr10, {4}
   23d68:	be09085f 	mcrlt	8, 0, r0, cr9, cr15, {2}
   23d6c:	be084125 	adfltep	f4, f0, f5
   23d70:	be0779a7 	cdplt	9, 0, cr7, cr7, cr7, {5}
   23d74:	be06b26c 	cdplt	2, 0, cr11, cr6, cr12, {3}
   23d78:	be05eb31 	vmovlt.16	d5[0], lr
   23d7c:	be0523b3 	mcrlt	3, 0, r2, cr5, cr3, {5}
   23d80:	be045c79 	mcrlt	12, 0, r5, cr4, cr9, {3}
   23d84:	be0394fb 	mcrlt	4, 0, r9, cr3, cr11, {7}
   23d88:	be02cd7d 	mcrlt	13, 0, ip, cr2, cr13, {3}
   23d8c:	be020642 	cfmadd32lt	mvax2, mvfx0, mvfx2, mvfx2
   23d90:	be013ec4 	cdplt	14, 0, cr3, cr1, cr4, {6}
   23d94:	be007747 	cdplt	7, 0, cr7, cr0, cr7, {2}
   23d98:	bdff5f91 	ldcllt	15, cr5, [pc, #580]!	; 23fe4 <fsintable+0x7fc0>
   23d9c:	bdfdd096 	ldcllt	0, cr13, [sp, #600]!	; 0x258
   23da0:	bdfc419a 	ldflte	f4, [ip, #616]!	; 0x268
   23da4:	bdfab29e 	lfmlt	f3, 3, [sl, #632]!	; 0x278
   23da8:	bdf9231c 	ldcllt	3, cr2, [r9, #112]!	; 0x70
   23dac:	bdf79421 	cfldrdlt	mvd9, [r7, #132]!	; 0x84
   23db0:	bdf60525 	cfldr64lt	mvdx0, [r6, #148]!	; 0x94
   23db4:	bdf475a3 	cfldr64lt	mvdx7, [r4, #652]!	; 0x28c
   23db8:	bdf2e6a7 	ldcllt	6, cr14, [r2, #668]!	; 0x29c
   23dbc:	bdf15726 	ldcllt	7, cr5, [r1, #152]!	; 0x98
   23dc0:	bdefc7a4 	stcllt	7, cr12, [pc, #656]!	; 24058 <fsintable+0x8034>
   23dc4:	bdee38a8 	stcllt	8, cr3, [lr, #672]!	; 0x2a0
   23dc8:	bdeca926 	stcllt	9, cr10, [ip, #152]!	; 0x98
   23dcc:	bdeb19a4 	stcllt	9, cr1, [fp, #656]!	; 0x290
   23dd0:	bde98a22 	stcllt	10, cr8, [r9, #136]!	; 0x88
   23dd4:	bde7faa0 	stcllt	10, cr15, [r7, #640]!	; 0x280
   23dd8:	bde66b1e 	stcllt	11, cr6, [r6, #120]!	; 0x78
   23ddc:	bde4db9c 	stcllt	11, cr13, [r4, #624]!	; 0x270
   23de0:	bde34b94 	stcllt	11, cr4, [r3, #592]!	; 0x250
   23de4:	bde1bc12 	stcllt	12, cr11, [r1, #72]!	; 0x48
   23de8:	bde02c91 	stcllt	12, cr2, [r0, #580]!	; 0x244
   23dec:	bdde9c88 	ldcllt	12, cr9, [lr, #544]	; 0x220
   23df0:	bddd0d06 	ldcllt	13, cr0, [sp, #24]
   23df4:	bddb7cfe 	ldcllt	12, cr7, [fp, #1016]	; 0x3f8
   23df8:	bdd9ed7c 	ldcllt	13, cr14, [r9, #496]	; 0x1f0
   23dfc:	bdd85d74 	ldcllt	13, cr5, [r8, #464]	; 0x1d0
   23e00:	bdd6cd6c 	ldcllt	13, cr12, [r6, #432]	; 0x1b0
   23e04:	bdd53dea 	ldcllt	13, cr3, [r5, #936]	; 0x3a8
   23e08:	bdd3ade2 	ldcllt	13, cr10, [r3, #904]	; 0x388
   23e0c:	bdd21dda 	ldcllt	13, cr1, [r2, #872]	; 0x368
   23e10:	bdd08dd2 	ldcllt	13, cr8, [r0, #840]	; 0x348
   23e14:	bdcefdca 	stcllt	13, cr15, [lr, #808]	; 0x328
   23e18:	bdcd6dc2 	stcllt	13, cr6, [sp, #776]	; 0x308
   23e1c:	bdcbddba 	stcllt	13, cr13, [fp, #744]	; 0x2e8
   23e20:	bdca4d2b 	stcllt	13, cr4, [sl, #172]	; 0xac
   23e24:	bdc8bd23 	stcllt	13, cr11, [r8, #140]	; 0x8c
   23e28:	bdc72d1b 	stcllt	13, cr2, [r7, #108]	; 0x6c
   23e2c:	bdc59c8d 	stcllt	12, cr9, [r5, #564]	; 0x234
   23e30:	bdc40c84 	stcllt	12, cr0, [r4, #528]	; 0x210
   23e34:	bdc27bf6 	vstrlt	d23, [r2, #984]	; 0x3d8
   23e38:	bdc0ebee 	vstrlt	d30, [r0, #952]	; 0x3b8
   23e3c:	bdbf5b60 	ldclt	11, cr5, [pc, #384]!	; 23fc4 <fsintable+0x7fa0>
   23e40:	bdbdcb58 	ldclt	11, cr12, [sp, #352]!	; 0x160
   23e44:	bdbc3ac9 	ldclt	10, cr3, [ip, #804]!	; 0x324
   23e48:	bdbaaa3b 	ldclt	10, cr10, [sl, #236]!	; 0xec
   23e4c:	bdb919ac 	ldclt	9, cr1, [r9, #688]!	; 0x2b0
   23e50:	bdb7891e 	ldclt	9, cr8, [r7, #120]!	; 0x78
   23e54:	bdb5f916 	ldclt	9, cr15, [r5, #88]!	; 0x58
   23e58:	bdb46888 	ldclt	8, cr6, [r4, #544]!	; 0x220
   23e5c:	bdb2d7f9 	ldclt	7, cr13, [r2, #996]!	; 0x3e4
   23e60:	bdb146e5 	ldclt	6, cr4, [r1, #916]!	; 0x394
   23e64:	bdafb656 	stclt	6, cr11, [pc, #344]!	; 23fc4 <fsintable+0x7fa0>
   23e68:	bdae25c8 	cfstr32lt	mvfx2, [lr, #800]!	; 0x320
   23e6c:	bdac953a 	cfstr32lt	mvfx9, [ip, #232]!	; 0xe8
   23e70:	bdab04ab 	cfstrslt	mvf0, [fp, #684]!	; 0x2ac
   23e74:	bda97397 	stclt	3, cr7, [r9, #604]!	; 0x25c
   23e78:	bda7e308 	stclt	3, cr14, [r7, #32]!
   23e7c:	bda651f4 	stflts	f5, [r6, #976]!	; 0x3d0
   23e80:	bda4c166 	stfltd	f4, [r4, #408]!	; 0x198
   23e84:	bda33051 	stclt	0, cr3, [r3, #324]!	; 0x144
   23e88:	bda19fc3 	stclt	15, cr9, [r1, #780]!	; 0x30c
   23e8c:	bda00eae 	stclt	14, cr0, [r0, #696]!	; 0x2b8
   23e90:	bd9e7e20 	ldclt	14, cr7, [lr, #128]	; 0x80
   23e94:	bd9ced0b 	ldclt	13, cr14, [ip, #44]	; 0x2c
   23e98:	bd9b5bf7 	vldrlt	d5, [fp, #988]	; 0x3dc
   23e9c:	bd99cae2 	vldrlt	s24, [r9, #904]	; 0x388
   23ea0:	bd9839ce 	ldclt	9, cr3, [r8, #824]	; 0x338
   23ea4:	bd96a93f 	ldclt	9, cr10, [r6, #252]	; 0xfc
   23ea8:	bd95182b 	ldclt	8, cr1, [r5, #172]	; 0xac
   23eac:	bd938716 	ldclt	7, cr8, [r3, #88]	; 0x58
   23eb0:	bd91f601 	ldclt	6, cr15, [r1, #4]
   23eb4:	bd9064ed 	cfldrslt	mvf6, [r0, #948]	; 0x3b4
   23eb8:	bd8ed352 	stclt	3, cr13, [lr, #328]	; 0x148
   23ebc:	bd8d423e 	sfmlt	f4, 4, [sp, #248]	; 0xf8
   23ec0:	bd8bb129 	stfltd	f3, [fp, #164]	; 0xa4
   23ec4:	bd8a2014 	stclt	0, cr2, [sl, #80]	; 0x50
   23ec8:	bd888f00 	stclt	15, cr8, [r8]
   23ecc:	bd86fd65 	stclt	13, cr15, [r6, #404]	; 0x194
   23ed0:	bd856c51 	stclt	12, cr6, [r5, #324]	; 0x144
   23ed4:	bd83db3c 	vstrlt	d13, [r3, #240]	; 0xf0
   23ed8:	bd8249a1 	stclt	9, cr4, [r2, #644]	; 0x284
   23edc:	bd80b88d 	stclt	8, cr11, [r0, #564]	; 0x234
   23ee0:	bd7e4de4 	ldcllt	13, cr4, [lr, #-912]!	; 0xfffffc70
   23ee4:	bd7b2bbb 	fldmdbxlt	fp!, {d18-d110}	;@ Deprecated
   23ee8:	bd780885 	ldcllt	8, cr0, [r8, #-532]!	; 0xfffffdec
   23eec:	bd74e65c 	ldcllt	6, cr14, [r4, #-368]!	; 0xfffffe90
   23ef0:	bd71c326 	ldcllt	3, cr12, [r1, #-152]!	; 0xffffff68
   23ef4:	bd6e9ff1 	stcllt	15, cr9, [lr, #-964]!	; 0xfffffc3c
   23ef8:	bd6b7dc8 	stcllt	13, cr7, [fp, #-800]!	; 0xfffffce0
   23efc:	bd685a92 	vstmdblt	r8!, {s11-s156}
   23f00:	bd65375d 	stcllt	7, cr3, [r5, #-372]!	; 0xfffffe8c
   23f04:	bd621427 	cfstrdlt	mvd1, [r2, #-156]!	; 0xffffff64
   23f08:	bd5ef0f1 	ldcllt	0, cr15, [lr, #-964]	; 0xfffffc3c
   23f0c:	bd5bcec8 	ldcllt	14, cr12, [fp, #-800]	; 0xfffffce0
   23f10:	bd58ab93 	vldrlt	d26, [r8, #-588]	; 0xfffffdb4
   23f14:	bd55885d 	ldcllt	8, cr8, [r5, #-372]	; 0xfffffe8c
   23f18:	bd526528 	cfldr64lt	mvdx6, [r2, #-160]	; 0xffffff60
   23f1c:	bd4f41f2 	stflte	f4, [pc, #-968]	; 23b5c <fsintable+0x7b38>
   23f20:	bd4c1ebd 	stcllt	14, cr1, [ip, #-756]	; 0xfffffd0c
   23f24:	bd48fb87 	vstrlt	d31, [r8, #-540]	; 0xfffffde4
   23f28:	bd45d851 	stcllt	8, cr13, [r5, #-324]	; 0xfffffebc
   23f2c:	bd42b40f 	cfstrdlt	mvd11, [r2, #-60]	; 0xffffffc4
   23f30:	bd3f90da 	ldclt	0, cr9, [pc, #-872]!	; 23bd0 <fsintable+0x7bac>
   23f34:	bd3c6da4 	ldclt	13, cr6, [ip, #-656]!	; 0xfffffd70
   23f38:	bd394a6f 	vldmdblt	r9!, {s8-s118}
   23f3c:	bd362739 	ldclt	7, cr2, [r6, #-228]!	; 0xffffff1c
   23f40:	bd330404 	cfldrslt	mvf0, [r3, #-16]!
   23f44:	bd2fdfc2 	stclt	15, cr13, [pc, #-776]!	; 23c44 <fsintable+0x7c20>
   23f48:	bd2cbc8c 	stclt	12, cr11, [ip, #-560]!	; 0xfffffdd0
   23f4c:	bd299956 	stclt	9, cr9, [r9, #-344]!	; 0xfffffea8
   23f50:	bd267514 	cfstr32lt	mvfx7, [r6, #-80]!	; 0xffffffb0
   23f54:	bd2351df 	stflts	f5, [r3, #-892]!	; 0xfffffc84
   23f58:	bd202ea9 	stclt	14, cr2, [r0, #-676]!	; 0xfffffd5c
   23f5c:	bd1d0a67 	vldrlt	s0, [sp, #-412]	; 0xfffffe64
   23f60:	bd19e732 	ldclt	7, cr14, [r9, #-200]	; 0xffffff38
   23f64:	bd16c2f0 	lfmlt	f4, 1, [r6, #-960]	; 0xfffffc40
   23f68:	bd139fba 	ldclt	15, cr9, [r3, #-744]	; 0xfffffd18
   23f6c:	bd107b78 	vldrlt	d7, [r0, #-480]	; 0xfffffe20
   23f70:	bd0d5843 	stclt	8, cr5, [sp, #-268]	; 0xfffffef4
   23f74:	bd0a3401 	cfstrslt	mvf3, [sl, #-4]
   23f78:	bd0710cb 	stclt	0, cr1, [r7, #-812]	; 0xfffffcd4
   23f7c:	bd03ec89 	stclt	12, cr14, [r3, #-548]	; 0xfffffddc
   23f80:	bd00c847 	stclt	8, cr12, [r0, #-284]	; 0xfffffee4
   23f84:	bcfb4a23 	vldmialt	fp!, {s9-s43}
   23f88:	bcf5019f 	ldflte	f0, [r5], #636	; 0x27c
   23f8c:	bceebb34 	vstmialt	lr!, {d27-<overflow reg d52>}
   23f90:	bce872b0 	sfmlt	f7, 2, [r8], #704	; 0x2c0
   23f94:	bce22a2c 	vstmialt	r2!, {s5-s48}
   23f98:	bcdbe1a8 	ldfltp	f6, [fp], {168}	; 0xa8
   23f9c:	bcd59b3d 	fldmiaxlt	r5, {d25-d54}	;@ Deprecated
   23fa0:	bccf52b9 	sfmlt	f5, 2, [pc], {185}	; 0xb9
   23fa4:	bcc90a35 	vstmialt	r9, {s1-s53}
   23fa8:	bcc2c1b1 	stfltp	f4, [r2], {177}	; 0xb1
   23fac:	bcbc7b46 	vldmialt	ip!, {d7-<overflow reg d41>}
   23fb0:	bcb632c2 	lfmlt	f3, 4, [r6], #776	; 0x308
   23fb4:	bcafea3e 	vstmialt	pc!, {s28-s89}
   23fb8:	bca9a1ba 	stfltd	f2, [r9], #744	; 0x2e8
   23fbc:	bca35936 	stclt	9, cr5, [r3], #216	; 0xd8
   23fc0:	bc9d12cb 	lfmlt	f1, 4, [sp], {203}	; 0xcb
   23fc4:	bc96ca47 	vldmialt	r6, {s24-s94}
   23fc8:	bc9081c3 	ldfltd	f0, [r0], {195}	; 0xc3
   23fcc:	bc8a393f 	stclt	9, cr3, [sl], {63}	; 0x3f
   23fd0:	bc83f0bb 	stclt	0, cr15, [r3], {187}	; 0xbb
   23fd4:	bc7b506e 	ldcllt	0, cr5, [fp], #-440	; 0xfffffe48
   23fd8:	bc6ebf66 	stcllt	15, cr11, [lr], #-408	; 0xfffffe68
   23fdc:	bc622e5e 	stcllt	14, cr2, [r2], #-376	; 0xfffffe88
   23fe0:	bc559d56 	mrrclt	13, 5, r9, r5, cr6
   23fe4:	bc491080 	mcrrlt	0, 8, r1, r9, cr0
   23fe8:	bc3c7f78 	ldclt	15, cr7, [ip], #-480	; 0xfffffe20
   23fec:	bc2fee70 	stclt	14, cr14, [pc], #-448	; 23e34 <fsintable+0x7e10>
   23ff0:	bc235d68 	stclt	13, cr5, [r3], #-416	; 0xfffffe60
   23ff4:	bc16cc60 	ldclt	12, cr12, [r6], {96}	; 0x60
   23ff8:	bc0a3b58 	stclt	11, cr3, [sl], {88}	; 0x58
   23ffc:	bbfb54a0 	bllt	ffef9284 <__bss_end+0xff5a7284>
   24000:	bbe23290 	bllt	ff8b0a48 <__bss_end+0xfef5ea48>
   24004:	bbc91080 	bllt	ff26820c <__bss_end+0xfe91620c>
   24008:	bbafee70 	bllt	fec1f9d0 <__bss_end+0xfe2cd9d0>
   2400c:	bb96cc60 	bllt	fe5d7194 <__bss_end+0xfdc85194>
   24010:	bb7b54a0 	bllt	1ef9298 <__bss_end+0x15a7298>
   24014:	bb491080 	bllt	126821c <__bss_end+0x91621c>
   24018:	bb16cc60 	bllt	5d71a0 <renderchunk_buffer0+0x4855a0>
   2401c:	bac91080 	blt	ff268224 <__bss_end+0xfe916224>
   24020:	ba491080 	blt	1268228 <__bss_end+0x916228>

Disassembly of section .bss:

00025000 <__bss_start>:
	...

00025100 <command_index>:
	...

00025200 <mailbox_fb_data>:
	...

00025300 <p>:
	...

00025700 <is_fb_init>:
   25700:	00000000 	andeq	r0, r0, r0

00025704 <stick>:
   25704:	00000000 	andeq	r0, r0, r0

00025708 <offset>:
   25708:	00000000 	andeq	r0, r0, r0

0002570c <float_offset>:
   2570c:	00000000 	andeq	r0, r0, r0

00025710 <frame>:
   25710:	00000000 	andeq	r0, r0, r0

00025714 <dmadata>:
	...

00025b14 <frames>:
   25b14:	00000000 	andeq	r0, r0, r0

00025b18 <last>:
   25b18:	00000000 	andeq	r0, r0, r0

00025b1c <buffer>:
	...

00151c00 <renderchunk_buffer0>:
	...

00951c00 <context>:
	...

Disassembly of section .ARM.attributes:

00000000 <.ARM.attributes>:
   0:	00003c41 	andeq	r3, r0, r1, asr #24
   4:	61656100 	cmnvs	r5, r0, lsl #2
   8:	01006962 	tsteq	r0, r2, ror #18
   c:	00000032 	andeq	r0, r0, r2, lsr r0
  10:	726f4305 	rsbvc	r4, pc, #335544320	; 0x14000000
  14:	2d786574 	cfldr64cs	mvdx6, [r8, #-464]!	; 0xfffffe30
  18:	06003741 	streq	r3, [r0], -r1, asr #14
  1c:	0841070a 	stmdaeq	r1, {r1, r3, r8, r9, sl}^
  20:	0a020901 	beq	8242c <buffer+0x5c910>
  24:	12020c05 	andne	r0, r2, #1280	; 0x500
  28:	15011404 	strne	r1, [r1, #-1028]	; 0xfffffbfc
  2c:	18031701 	stmdane	r3, {r0, r8, r9, sl, ip}
  30:	1c011a01 	stcne	10, cr1, [r1], {1}
  34:	2a012201 	bcs	48840 <buffer+0x22d24>
  38:	44022c01 	strmi	r2, [r2], #-3073	; 0xfffff3ff
  3c:	Address 0x0000003c is out of bounds.


Disassembly of section .comment:

00000000 <.comment>:
   0:	3a434347 	bcc	10d0d24 <__bss_end+0x77ed24>
   4:	4e472820 	cdpmi	8, 4, cr2, cr7, cr0, {1}
   8:	6f542055 	svcvs	0x00542055
   c:	20736c6f 	rsbscs	r6, r3, pc, ror #24
  10:	20726f66 	rsbscs	r6, r2, r6, ror #30
  14:	204d5241 	subcs	r5, sp, r1, asr #4
  18:	65626d45 	strbvs	r6, [r2, #-3397]!	; 0xfffff2bb
  1c:	64656464 	strbtvs	r6, [r5], #-1124	; 0xfffffb9c
  20:	6f725020 	svcvs	0x00725020
  24:	73736563 	cmnvc	r3, #415236096	; 0x18c00000
  28:	2973726f 	ldmdbcs	r3!, {r0, r1, r2, r3, r5, r6, r9, ip, sp, lr}^
  2c:	322e3520 	eorcc	r3, lr, #32, 10	; 0x8000000
  30:	3220312e 	eorcc	r3, r0, #-2147483637	; 0x8000000b
  34:	31353130 	teqcc	r5, r0, lsr r1
  38:	20323032 	eorscs	r3, r2, r2, lsr r0
  3c:	6c657228 	sfmvs	f7, 2, [r5], #-160	; 0xffffff60
  40:	65736165 	ldrbvs	r6, [r3, #-357]!	; 0xfffffe9b
  44:	415b2029 	cmpmi	fp, r9, lsr #32
  48:	652f4d52 	strvs	r4, [pc, #-3410]!	; fffff2fe <__bss_end+0xff6ad2fe>
  4c:	6465626d 	strbtvs	r6, [r5], #-621	; 0xfffffd93
  50:	2d646564 	cfstr64cs	mvdx6, [r4, #-400]!	; 0xfffffe70
  54:	72622d35 	rsbvc	r2, r2, #3392	; 0xd40
  58:	68636e61 	stmdavs	r3!, {r0, r5, r6, r9, sl, fp, sp, lr}^
  5c:	76657220 	strbtvc	r7, [r5], -r0, lsr #4
  60:	6f697369 	svcvs	0x00697369
  64:	3332206e 	teqcc	r2, #110	; 0x6e
  68:	38343831 	ldmdacc	r4!, {r0, r4, r5, fp, ip, sp}
  6c:	Address 0x0000006c is out of bounds.

