
image.elf:     file format elf32-littlearm


Disassembly of section .text:

00008000 <__start>:
    8000:	e3a00000 	mov	r0, #0
    8004:	e3a01000 	mov	r1, #0
    8008:	e3a02000 	mov	r2, #0
    800c:	e3a03000 	mov	r3, #0
    8010:	e3a04000 	mov	r4, #0
    8014:	e3a05000 	mov	r5, #0
    8018:	e3a06000 	mov	r6, #0
    801c:	e3a07000 	mov	r7, #0
    8020:	e3a08000 	mov	r8, #0
    8024:	e3a09000 	mov	r9, #0
    8028:	e3a0a000 	mov	sl, #0
    802c:	e3a0b000 	mov	fp, #0
    8030:	ee110f10 	mrc	15, 0, r0, cr1, cr0, {0}
    8034:	e3800004 	orr	r0, r0, #4
    8038:	e3800b02 	orr	r0, r0, #2048	; 0x800
    803c:	e3800a01 	orr	r0, r0, #4096	; 0x1000
    8040:	ee010f10 	mcr	15, 0, r0, cr1, cr0, {0}
    8044:	ee110f50 	mrc	15, 0, r0, cr1, cr0, {2}
    8048:	e3800603 	orr	r0, r0, #3145728	; 0x300000
    804c:	e2800503 	add	r0, r0, #12582912	; 0xc00000
    8050:	ee010f50 	mcr	15, 0, r0, cr1, cr0, {2}
    8054:	e3a00101 	mov	r0, #1073741824	; 0x40000000
    8058:	eee80a10 	vmsr	fpexc, r0
    805c:	ee100fb0 	mrc	15, 0, r0, cr0, cr0, {5}
    8060:	e3500003 	cmp	r0, #3
    8064:	0a000007 	beq	8088 <_core1_boot>
    8068:	e3500002 	cmp	r0, #2
    806c:	0a000005 	beq	8088 <_core1_boot>
    8070:	e3500001 	cmp	r0, #1
    8074:	0a000003 	beq	8088 <_core1_boot>
    8078:	e3a0d902 	mov	sp, #32768	; 0x8000
    807c:	e3a000d3 	mov	r0, #211	; 0xd3
    8080:	e129f000 	msr	CPSR_fc, r0
    8084:	ea000c20 	b	b10c <main>

00008088 <_core1_boot>:
    8088:	eafffffe 	b	8088 <_core1_boot>

0000808c <DataMemoryBarrierAll>:
    808c:	e3a00000 	mov	r0, #0
    8090:	ee070f16 	mcr	15, 0, r0, cr7, cr6, {0}
    8094:	ee070f1a 	mcr	15, 0, r0, cr7, cr10, {0}
    8098:	ee070f1e 	mcr	15, 0, r0, cr7, cr14, {0}
    809c:	ee070f9a 	mcr	15, 0, r0, cr7, cr10, {4}
    80a0:	ee070fba 	mcr	15, 0, r0, cr7, cr10, {5}
    80a4:	e1a0f00e 	mov	pc, lr

000080a8 <MemoryBarrier>:
    80a8:	ee07cf15 	mcr	15, 0, ip, cr7, cr5, {0}
    80ac:	ee07cfd5 	mcr	15, 0, ip, cr7, cr5, {6}
    80b0:	ee07cf9a 	mcr	15, 0, ip, cr7, cr10, {4}
    80b4:	ee07cf95 	mcr	15, 0, ip, cr7, cr5, {4}
    80b8:	e1a0f00e 	mov	pc, lr

000080bc <SetupCache>:
    80bc:	e3a00000 	mov	r0, #0
    80c0:	ee070f17 	mcr	15, 0, r0, cr7, cr7, {0}
    80c4:	ee080f17 	mcr	15, 0, r0, cr8, cr7, {0}
    80c8:	ee110f10 	mrc	15, 0, r0, cr1, cr0, {0}
    80cc:	e59f104c 	ldr	r1, [pc, #76]	; 8120 <reset_jump+0x14>
    80d0:	e1800001 	orr	r0, r0, r1
    80d4:	ee010f10 	mcr	15, 0, r0, cr1, cr0, {0}
    80d8:	e1a0f00e 	mov	pc, lr

000080dc <DiscardDataCache>:
    80dc:	e3a00000 	mov	r0, #0
    80e0:	ee070f16 	mcr	15, 0, r0, cr7, cr6, {0}
    80e4:	e1a0f00e 	mov	pc, lr

000080e8 <DataMemoryBarrier>:
    80e8:	e3a00000 	mov	r0, #0
    80ec:	ee070fba 	mcr	15, 0, r0, cr7, cr10, {5}
    80f0:	e1a0f00e 	mov	pc, lr

000080f4 <DataSyncBarrier>:
    80f4:	e3a00000 	mov	r0, #0
    80f8:	ee070f9a 	mcr	15, 0, r0, cr7, cr10, {4}
    80fc:	e1a0f00e 	mov	pc, lr

00008100 <FlushCache>:
    8100:	e3a00000 	mov	r0, #0
    8104:	ee070f1a 	mcr	15, 0, r0, cr7, cr10, {0}
    8108:	e1a0f00e 	mov	pc, lr

0000810c <reset_jump>:
    810c:	e3a01000 	mov	r1, #0
    8110:	e3a02000 	mov	r2, #0
    8114:	e3a03000 	mov	r3, #0
    8118:	e3a04000 	mov	r4, #0
    811c:	e1a0f000 	mov	pc, r0
    8120:	00001004 	andeq	r1, r0, r4

00008124 <get_fontdata16x16>:
    8124:	e30c0000 	movw	r0, #49152	; 0xc000
    8128:	e3400000 	movt	r0, #0
    812c:	e12fff1e 	bx	lr

00008130 <Vs_Set>:
    8130:	f3b40c40 	vdup.32	q0, d0[0]
    8134:	f4000a8f 	vst1.32	{d0-d1}, [r0]
    8138:	e12fff1e 	bx	lr

0000813c <Vs_Set4>:
    813c:	e24dd010 	sub	sp, sp, #16
    8140:	ed8d0a00 	vstr	s0, [sp]
    8144:	edcd0a01 	vstr	s1, [sp, #4]
    8148:	ed8d1a02 	vstr	s2, [sp, #8]
    814c:	edcd1a03 	vstr	s3, [sp, #12]
    8150:	f46d0adf 	vld1.64	{d16-d17}, [sp :64]
    8154:	f4400a8f 	vst1.32	{d16-d17}, [r0]
    8158:	e28dd010 	add	sp, sp, #16
    815c:	e12fff1e 	bx	lr

00008160 <VVs_Add4>:
    8160:	edd17a00 	vldr	s15, [r1]
    8164:	ee777a80 	vadd.f32	s15, s15, s0
    8168:	edc07a00 	vstr	s15, [r0]
    816c:	edd17a01 	vldr	s15, [r1, #4]
    8170:	ee777a80 	vadd.f32	s15, s15, s0
    8174:	edc07a01 	vstr	s15, [r0, #4]
    8178:	edd17a02 	vldr	s15, [r1, #8]
    817c:	ee777a80 	vadd.f32	s15, s15, s0
    8180:	edc07a02 	vstr	s15, [r0, #8]
    8184:	edd17a03 	vldr	s15, [r1, #12]
    8188:	ee370a80 	vadd.f32	s0, s15, s0
    818c:	ed800a03 	vstr	s0, [r0, #12]
    8190:	e12fff1e 	bx	lr

00008194 <VVs_Add3>:
    8194:	edd17a00 	vldr	s15, [r1]
    8198:	ee777a80 	vadd.f32	s15, s15, s0
    819c:	edc07a00 	vstr	s15, [r0]
    81a0:	edd17a01 	vldr	s15, [r1, #4]
    81a4:	ee777a80 	vadd.f32	s15, s15, s0
    81a8:	edc07a01 	vstr	s15, [r0, #4]
    81ac:	edd17a02 	vldr	s15, [r1, #8]
    81b0:	ee370a80 	vadd.f32	s0, s15, s0
    81b4:	ed800a02 	vstr	s0, [r0, #8]
    81b8:	e12fff1e 	bx	lr

000081bc <VVs_Sub4>:
    81bc:	edd17a00 	vldr	s15, [r1]
    81c0:	ee777ac0 	vsub.f32	s15, s15, s0
    81c4:	edc07a00 	vstr	s15, [r0]
    81c8:	edd17a01 	vldr	s15, [r1, #4]
    81cc:	ee777ac0 	vsub.f32	s15, s15, s0
    81d0:	edc07a01 	vstr	s15, [r0, #4]
    81d4:	edd17a02 	vldr	s15, [r1, #8]
    81d8:	ee777ac0 	vsub.f32	s15, s15, s0
    81dc:	edc07a02 	vstr	s15, [r0, #8]
    81e0:	edd17a03 	vldr	s15, [r1, #12]
    81e4:	ee370ac0 	vsub.f32	s0, s15, s0
    81e8:	ed800a03 	vstr	s0, [r0, #12]
    81ec:	e12fff1e 	bx	lr

000081f0 <VVs_Sub3>:
    81f0:	edd17a00 	vldr	s15, [r1]
    81f4:	ee777ac0 	vsub.f32	s15, s15, s0
    81f8:	edc07a00 	vstr	s15, [r0]
    81fc:	edd17a01 	vldr	s15, [r1, #4]
    8200:	ee777ac0 	vsub.f32	s15, s15, s0
    8204:	edc07a01 	vstr	s15, [r0, #4]
    8208:	edd17a02 	vldr	s15, [r1, #8]
    820c:	ee370ac0 	vsub.f32	s0, s15, s0
    8210:	ed800a02 	vstr	s0, [r0, #8]
    8214:	e12fff1e 	bx	lr

00008218 <VVs_Mul4>:
    8218:	edd17a00 	vldr	s15, [r1]
    821c:	ee677a80 	vmul.f32	s15, s15, s0
    8220:	edc07a00 	vstr	s15, [r0]
    8224:	edd17a01 	vldr	s15, [r1, #4]
    8228:	ee677a80 	vmul.f32	s15, s15, s0
    822c:	edc07a01 	vstr	s15, [r0, #4]
    8230:	edd17a02 	vldr	s15, [r1, #8]
    8234:	ee677a80 	vmul.f32	s15, s15, s0
    8238:	edc07a02 	vstr	s15, [r0, #8]
    823c:	edd17a03 	vldr	s15, [r1, #12]
    8240:	ee270a80 	vmul.f32	s0, s15, s0
    8244:	ed800a03 	vstr	s0, [r0, #12]
    8248:	e12fff1e 	bx	lr

0000824c <VVs_Mul3>:
    824c:	edd17a00 	vldr	s15, [r1]
    8250:	ee677a80 	vmul.f32	s15, s15, s0
    8254:	edc07a00 	vstr	s15, [r0]
    8258:	edd17a01 	vldr	s15, [r1, #4]
    825c:	ee677a80 	vmul.f32	s15, s15, s0
    8260:	edc07a01 	vstr	s15, [r0, #4]
    8264:	edd17a02 	vldr	s15, [r1, #8]
    8268:	ee270a80 	vmul.f32	s0, s15, s0
    826c:	ed800a02 	vstr	s0, [r0, #8]
    8270:	e12fff1e 	bx	lr

00008274 <VVs_Div4>:
    8274:	ed917a00 	vldr	s14, [r1]
    8278:	eec77a00 	vdiv.f32	s15, s14, s0
    827c:	edc07a00 	vstr	s15, [r0]
    8280:	ed917a01 	vldr	s14, [r1, #4]
    8284:	eec77a00 	vdiv.f32	s15, s14, s0
    8288:	edc07a01 	vstr	s15, [r0, #4]
    828c:	ed917a02 	vldr	s14, [r1, #8]
    8290:	eec77a00 	vdiv.f32	s15, s14, s0
    8294:	edc07a02 	vstr	s15, [r0, #8]
    8298:	ed917a03 	vldr	s14, [r1, #12]
    829c:	eec77a00 	vdiv.f32	s15, s14, s0
    82a0:	edc07a03 	vstr	s15, [r0, #12]
    82a4:	e12fff1e 	bx	lr

000082a8 <VVs_Div3>:
    82a8:	ed917a00 	vldr	s14, [r1]
    82ac:	eec77a00 	vdiv.f32	s15, s14, s0
    82b0:	edc07a00 	vstr	s15, [r0]
    82b4:	ed917a01 	vldr	s14, [r1, #4]
    82b8:	eec77a00 	vdiv.f32	s15, s14, s0
    82bc:	edc07a01 	vstr	s15, [r0, #4]
    82c0:	ed917a02 	vldr	s14, [r1, #8]
    82c4:	eec77a00 	vdiv.f32	s15, s14, s0
    82c8:	edc07a02 	vstr	s15, [r0, #8]
    82cc:	e12fff1e 	bx	lr

000082d0 <VVV_Add4>:
    82d0:	ed917a00 	vldr	s14, [r1]
    82d4:	edd27a00 	vldr	s15, [r2]
    82d8:	ee777a87 	vadd.f32	s15, s15, s14
    82dc:	edc07a00 	vstr	s15, [r0]
    82e0:	ed927a01 	vldr	s14, [r2, #4]
    82e4:	edd17a01 	vldr	s15, [r1, #4]
    82e8:	ee777a87 	vadd.f32	s15, s15, s14
    82ec:	edc07a01 	vstr	s15, [r0, #4]
    82f0:	ed927a02 	vldr	s14, [r2, #8]
    82f4:	edd17a02 	vldr	s15, [r1, #8]
    82f8:	ee777a87 	vadd.f32	s15, s15, s14
    82fc:	edc07a02 	vstr	s15, [r0, #8]
    8300:	edd17a03 	vldr	s15, [r1, #12]
    8304:	ed927a03 	vldr	s14, [r2, #12]
    8308:	ee777a87 	vadd.f32	s15, s15, s14
    830c:	edc07a03 	vstr	s15, [r0, #12]
    8310:	e12fff1e 	bx	lr

00008314 <VVV_Add3>:
    8314:	ed917a00 	vldr	s14, [r1]
    8318:	edd27a00 	vldr	s15, [r2]
    831c:	ee777a87 	vadd.f32	s15, s15, s14
    8320:	edc07a00 	vstr	s15, [r0]
    8324:	ed927a01 	vldr	s14, [r2, #4]
    8328:	edd17a01 	vldr	s15, [r1, #4]
    832c:	ee777a87 	vadd.f32	s15, s15, s14
    8330:	edc07a01 	vstr	s15, [r0, #4]
    8334:	edd17a02 	vldr	s15, [r1, #8]
    8338:	ed927a02 	vldr	s14, [r2, #8]
    833c:	ee777a87 	vadd.f32	s15, s15, s14
    8340:	edc07a02 	vstr	s15, [r0, #8]
    8344:	e12fff1e 	bx	lr

00008348 <VVV_Sub4>:
    8348:	ed927a00 	vldr	s14, [r2]
    834c:	edd17a00 	vldr	s15, [r1]
    8350:	ee777ac7 	vsub.f32	s15, s15, s14
    8354:	edc07a00 	vstr	s15, [r0]
    8358:	ed927a01 	vldr	s14, [r2, #4]
    835c:	edd17a01 	vldr	s15, [r1, #4]
    8360:	ee777ac7 	vsub.f32	s15, s15, s14
    8364:	edc07a01 	vstr	s15, [r0, #4]
    8368:	ed927a02 	vldr	s14, [r2, #8]
    836c:	edd17a02 	vldr	s15, [r1, #8]
    8370:	ee777ac7 	vsub.f32	s15, s15, s14
    8374:	edc07a02 	vstr	s15, [r0, #8]
    8378:	edd17a03 	vldr	s15, [r1, #12]
    837c:	ed927a03 	vldr	s14, [r2, #12]
    8380:	ee777ac7 	vsub.f32	s15, s15, s14
    8384:	edc07a03 	vstr	s15, [r0, #12]
    8388:	e12fff1e 	bx	lr

0000838c <VVV_Sub3>:
    838c:	ed927a00 	vldr	s14, [r2]
    8390:	edd17a00 	vldr	s15, [r1]
    8394:	ee777ac7 	vsub.f32	s15, s15, s14
    8398:	edc07a00 	vstr	s15, [r0]
    839c:	ed927a01 	vldr	s14, [r2, #4]
    83a0:	edd17a01 	vldr	s15, [r1, #4]
    83a4:	ee777ac7 	vsub.f32	s15, s15, s14
    83a8:	edc07a01 	vstr	s15, [r0, #4]
    83ac:	edd17a02 	vldr	s15, [r1, #8]
    83b0:	ed927a02 	vldr	s14, [r2, #8]
    83b4:	ee777ac7 	vsub.f32	s15, s15, s14
    83b8:	edc07a02 	vstr	s15, [r0, #8]
    83bc:	e12fff1e 	bx	lr

000083c0 <VVV_Mul4>:
    83c0:	ed917a00 	vldr	s14, [r1]
    83c4:	edd27a00 	vldr	s15, [r2]
    83c8:	ee677a87 	vmul.f32	s15, s15, s14
    83cc:	edc07a00 	vstr	s15, [r0]
    83d0:	ed927a01 	vldr	s14, [r2, #4]
    83d4:	edd17a01 	vldr	s15, [r1, #4]
    83d8:	ee677a87 	vmul.f32	s15, s15, s14
    83dc:	edc07a01 	vstr	s15, [r0, #4]
    83e0:	ed927a02 	vldr	s14, [r2, #8]
    83e4:	edd17a02 	vldr	s15, [r1, #8]
    83e8:	ee677a87 	vmul.f32	s15, s15, s14
    83ec:	edc07a02 	vstr	s15, [r0, #8]
    83f0:	edd17a03 	vldr	s15, [r1, #12]
    83f4:	ed927a03 	vldr	s14, [r2, #12]
    83f8:	ee677a87 	vmul.f32	s15, s15, s14
    83fc:	edc07a03 	vstr	s15, [r0, #12]
    8400:	e12fff1e 	bx	lr

00008404 <VVV_Mul3>:
    8404:	ed917a00 	vldr	s14, [r1]
    8408:	edd27a00 	vldr	s15, [r2]
    840c:	ee677a87 	vmul.f32	s15, s15, s14
    8410:	edc07a00 	vstr	s15, [r0]
    8414:	ed927a01 	vldr	s14, [r2, #4]
    8418:	edd17a01 	vldr	s15, [r1, #4]
    841c:	ee677a87 	vmul.f32	s15, s15, s14
    8420:	edc07a01 	vstr	s15, [r0, #4]
    8424:	edd17a02 	vldr	s15, [r1, #8]
    8428:	ed927a02 	vldr	s14, [r2, #8]
    842c:	ee677a87 	vmul.f32	s15, s15, s14
    8430:	edc07a02 	vstr	s15, [r0, #8]
    8434:	e12fff1e 	bx	lr

00008438 <VVV_Div4>:
    8438:	edd16a00 	vldr	s13, [r1]
    843c:	ed927a00 	vldr	s14, [r2]
    8440:	eec67a87 	vdiv.f32	s15, s13, s14
    8444:	edc07a00 	vstr	s15, [r0]
    8448:	edd16a01 	vldr	s13, [r1, #4]
    844c:	ed927a01 	vldr	s14, [r2, #4]
    8450:	eec67a87 	vdiv.f32	s15, s13, s14
    8454:	edc07a01 	vstr	s15, [r0, #4]
    8458:	edd16a02 	vldr	s13, [r1, #8]
    845c:	ed927a02 	vldr	s14, [r2, #8]
    8460:	eec67a87 	vdiv.f32	s15, s13, s14
    8464:	edc07a02 	vstr	s15, [r0, #8]
    8468:	edd16a03 	vldr	s13, [r1, #12]
    846c:	ed927a03 	vldr	s14, [r2, #12]
    8470:	eec67a87 	vdiv.f32	s15, s13, s14
    8474:	edc07a03 	vstr	s15, [r0, #12]
    8478:	e12fff1e 	bx	lr

0000847c <VVV_Div3>:
    847c:	edd16a00 	vldr	s13, [r1]
    8480:	ed927a00 	vldr	s14, [r2]
    8484:	eec67a87 	vdiv.f32	s15, s13, s14
    8488:	edc07a00 	vstr	s15, [r0]
    848c:	edd16a01 	vldr	s13, [r1, #4]
    8490:	ed927a01 	vldr	s14, [r2, #4]
    8494:	eec67a87 	vdiv.f32	s15, s13, s14
    8498:	edc07a01 	vstr	s15, [r0, #4]
    849c:	edd16a02 	vldr	s13, [r1, #8]
    84a0:	ed927a02 	vldr	s14, [r2, #8]
    84a4:	eec67a87 	vdiv.f32	s15, s13, s14
    84a8:	edc07a02 	vstr	s15, [r0, #8]
    84ac:	e12fff1e 	bx	lr

000084b0 <VV_Dot>:
    84b0:	edd07a01 	vldr	s15, [r0, #4]
    84b4:	ed910a01 	vldr	s0, [r1, #4]
    84b8:	ed906a00 	vldr	s12, [r0]
    84bc:	ee270a80 	vmul.f32	s0, s15, s0
    84c0:	edd16a00 	vldr	s13, [r1]
    84c4:	ed907a02 	vldr	s14, [r0, #8]
    84c8:	edd17a02 	vldr	s15, [r1, #8]
    84cc:	eea60a26 	vfma.f32	s0, s12, s13
    84d0:	eea70a27 	vfma.f32	s0, s14, s15
    84d4:	e12fff1e 	bx	lr

000084d8 <V_Length>:
    84d8:	edd07a01 	vldr	s15, [r0, #4]
    84dc:	edd06a00 	vldr	s13, [r0]
    84e0:	ee677aa7 	vmul.f32	s15, s15, s15
    84e4:	ed907a02 	vldr	s14, [r0, #8]
    84e8:	e52de004 	push	{lr}		; (str lr, [sp, #-4]!)
    84ec:	e24dd00c 	sub	sp, sp, #12
    84f0:	eee67aa6 	vfma.f32	s15, s13, s13
    84f4:	e28d3008 	add	r3, sp, #8
    84f8:	eee77a07 	vfma.f32	s15, s14, s14
    84fc:	ed637a01 	vstmdb	r3!, {s15}
    8500:	e1a00003 	mov	r0, r3
    8504:	eb0006c7 	bl	a028 <_fsqrt>
    8508:	e28dd00c 	add	sp, sp, #12
    850c:	e49df004 	pop	{pc}		; (ldr pc, [sp], #4)

00008510 <V_Normalize>:
    8510:	e92d4010 	push	{r4, lr}
    8514:	e1a04000 	mov	r4, r0
    8518:	e24dd008 	sub	sp, sp, #8
    851c:	edd47a01 	vldr	s15, [r4, #4]
    8520:	e28d0008 	add	r0, sp, #8
    8524:	edd46a00 	vldr	s13, [r4]
    8528:	ee677aa7 	vmul.f32	s15, s15, s15
    852c:	ed947a02 	vldr	s14, [r4, #8]
    8530:	eee67aa6 	vfma.f32	s15, s13, s13
    8534:	eee77a07 	vfma.f32	s15, s14, s14
    8538:	ed607a01 	vstmdb	r0!, {s15}
    853c:	eb0006b9 	bl	a028 <_fsqrt>
    8540:	eef77a00 	vmov.f32	s15, #112	; 0x3f800000  1.0
    8544:	edd46a00 	vldr	s13, [r4]
    8548:	ed947a01 	vldr	s14, [r4, #4]
    854c:	ee870a80 	vdiv.f32	s0, s15, s0
    8550:	edd47a02 	vldr	s15, [r4, #8]
    8554:	ee666a80 	vmul.f32	s13, s13, s0
    8558:	ee277a00 	vmul.f32	s14, s14, s0
    855c:	ee270a80 	vmul.f32	s0, s15, s0
    8560:	edc46a00 	vstr	s13, [r4]
    8564:	ed847a01 	vstr	s14, [r4, #4]
    8568:	ed840a02 	vstr	s0, [r4, #8]
    856c:	e28dd008 	add	sp, sp, #8
    8570:	e8bd8010 	pop	{r4, pc}

00008574 <VVV_Cross>:
    8574:	ed917a02 	vldr	s14, [r1, #8]
    8578:	edd27a01 	vldr	s15, [r2, #4]
    857c:	edd16a01 	vldr	s13, [r1, #4]
    8580:	ee677ac7 	vnmul.f32	s15, s15, s14
    8584:	ed927a02 	vldr	s14, [r2, #8]
    8588:	eee67a87 	vfma.f32	s15, s13, s14
    858c:	edc07a00 	vstr	s15, [r0]
    8590:	ed917a00 	vldr	s14, [r1]
    8594:	edd27a02 	vldr	s15, [r2, #8]
    8598:	edd16a02 	vldr	s13, [r1, #8]
    859c:	ee677ac7 	vnmul.f32	s15, s15, s14
    85a0:	ed927a00 	vldr	s14, [r2]
    85a4:	eee67a87 	vfma.f32	s15, s13, s14
    85a8:	edc07a01 	vstr	s15, [r0, #4]
    85ac:	ed917a01 	vldr	s14, [r1, #4]
    85b0:	edd27a00 	vldr	s15, [r2]
    85b4:	edd16a00 	vldr	s13, [r1]
    85b8:	ee677ac7 	vnmul.f32	s15, s15, s14
    85bc:	ed927a01 	vldr	s14, [r2, #4]
    85c0:	eee67a87 	vfma.f32	s15, s13, s14
    85c4:	edc07a02 	vstr	s15, [r0, #8]
    85c8:	e12fff1e 	bx	lr

000085cc <MI_Ident>:
    85cc:	eddf6b0f 	vldr	d22, [pc, #60]	; 8610 <MI_Ident+0x44>
    85d0:	eddf7b10 	vldr	d23, [pc, #64]	; 8618 <MI_Ident+0x4c>
    85d4:	eddf4b11 	vldr	d20, [pc, #68]	; 8620 <MI_Ident+0x54>
    85d8:	eddf5b12 	vldr	d21, [pc, #72]	; 8628 <MI_Ident+0x5c>
    85dc:	eddf2b13 	vldr	d18, [pc, #76]	; 8630 <MI_Ident+0x64>
    85e0:	eddf3b14 	vldr	d19, [pc, #80]	; 8638 <MI_Ident+0x6c>
    85e4:	eddf0b15 	vldr	d16, [pc, #84]	; 8640 <MI_Ident+0x74>
    85e8:	eddf1b16 	vldr	d17, [pc, #88]	; 8648 <MI_Ident+0x7c>
    85ec:	e2801010 	add	r1, r0, #16
    85f0:	e2802020 	add	r2, r0, #32
    85f4:	e2803030 	add	r3, r0, #48	; 0x30
    85f8:	f4406a8f 	vst1.32	{d22-d23}, [r0]
    85fc:	f4414a8f 	vst1.32	{d20-d21}, [r1]
    8600:	f4422a8f 	vst1.32	{d18-d19}, [r2]
    8604:	f4430a8f 	vst1.32	{d16-d17}, [r3]
    8608:	e12fff1e 	bx	lr
    860c:	e320f000 	nop	{0}
    8610:	3f800000 	svccc	0x00800000
	...
    8624:	3f800000 	svccc	0x00800000
	...
    8638:	3f800000 	svccc	0x00800000
	...
    864c:	3f800000 	svccc	0x00800000

00008650 <VMV_Mult>:
    8650:	ed927a01 	vldr	s14, [r2, #4]
    8654:	edd17a01 	vldr	s15, [r1, #4]
    8658:	edd16a00 	vldr	s13, [r1]
    865c:	ee677a87 	vmul.f32	s15, s15, s14
    8660:	ed927a00 	vldr	s14, [r2]
    8664:	edd15a02 	vldr	s11, [r1, #8]
    8668:	ed926a02 	vldr	s12, [r2, #8]
    866c:	eee67a87 	vfma.f32	s15, s13, s14
    8670:	edd16a03 	vldr	s13, [r1, #12]
    8674:	ed927a03 	vldr	s14, [r2, #12]
    8678:	eee57a86 	vfma.f32	s15, s11, s12
    867c:	eee67a87 	vfma.f32	s15, s13, s14
    8680:	edc07a00 	vstr	s15, [r0]
    8684:	ed927a01 	vldr	s14, [r2, #4]
    8688:	edd17a05 	vldr	s15, [r1, #20]
    868c:	edd16a04 	vldr	s13, [r1, #16]
    8690:	ee677a87 	vmul.f32	s15, s15, s14
    8694:	ed927a00 	vldr	s14, [r2]
    8698:	edd15a06 	vldr	s11, [r1, #24]
    869c:	ed926a02 	vldr	s12, [r2, #8]
    86a0:	eee67a87 	vfma.f32	s15, s13, s14
    86a4:	edd16a07 	vldr	s13, [r1, #28]
    86a8:	ed927a03 	vldr	s14, [r2, #12]
    86ac:	eee57a86 	vfma.f32	s15, s11, s12
    86b0:	eee67a87 	vfma.f32	s15, s13, s14
    86b4:	edc07a01 	vstr	s15, [r0, #4]
    86b8:	ed927a01 	vldr	s14, [r2, #4]
    86bc:	edd17a09 	vldr	s15, [r1, #36]	; 0x24
    86c0:	edd16a08 	vldr	s13, [r1, #32]
    86c4:	ee677a87 	vmul.f32	s15, s15, s14
    86c8:	ed927a00 	vldr	s14, [r2]
    86cc:	edd15a0a 	vldr	s11, [r1, #40]	; 0x28
    86d0:	ed926a02 	vldr	s12, [r2, #8]
    86d4:	eee67a87 	vfma.f32	s15, s13, s14
    86d8:	edd16a0b 	vldr	s13, [r1, #44]	; 0x2c
    86dc:	ed927a03 	vldr	s14, [r2, #12]
    86e0:	eee57a86 	vfma.f32	s15, s11, s12
    86e4:	eee67a87 	vfma.f32	s15, s13, s14
    86e8:	edc07a02 	vstr	s15, [r0, #8]
    86ec:	ed927a01 	vldr	s14, [r2, #4]
    86f0:	edd17a0d 	vldr	s15, [r1, #52]	; 0x34
    86f4:	edd16a0c 	vldr	s13, [r1, #48]	; 0x30
    86f8:	ee677a87 	vmul.f32	s15, s15, s14
    86fc:	ed927a00 	vldr	s14, [r2]
    8700:	edd15a0e 	vldr	s11, [r1, #56]	; 0x38
    8704:	ed926a02 	vldr	s12, [r2, #8]
    8708:	eee67a87 	vfma.f32	s15, s13, s14
    870c:	edd16a0f 	vldr	s13, [r1, #60]	; 0x3c
    8710:	ed927a03 	vldr	s14, [r2, #12]
    8714:	eee57a86 	vfma.f32	s15, s11, s12
    8718:	eee67a87 	vfma.f32	s15, s13, s14
    871c:	edc07a03 	vstr	s15, [r0, #12]
    8720:	e12fff1e 	bx	lr

00008724 <MMM_Mul>:
    8724:	ed917a01 	vldr	s14, [r1, #4]
    8728:	edd27a04 	vldr	s15, [r2, #16]
    872c:	edd26a00 	vldr	s13, [r2]
    8730:	ee677a87 	vmul.f32	s15, s15, s14
    8734:	ed917a00 	vldr	s14, [r1]
    8738:	edd25a08 	vldr	s11, [r2, #32]
    873c:	ed916a02 	vldr	s12, [r1, #8]
    8740:	eee67a87 	vfma.f32	s15, s13, s14
    8744:	edd26a0c 	vldr	s13, [r2, #48]	; 0x30
    8748:	ed917a03 	vldr	s14, [r1, #12]
    874c:	eee57a86 	vfma.f32	s15, s11, s12
    8750:	eee67a87 	vfma.f32	s15, s13, s14
    8754:	edc07a00 	vstr	s15, [r0]
    8758:	ed917a01 	vldr	s14, [r1, #4]
    875c:	edd27a05 	vldr	s15, [r2, #20]
    8760:	edd26a01 	vldr	s13, [r2, #4]
    8764:	ee677a87 	vmul.f32	s15, s15, s14
    8768:	ed917a00 	vldr	s14, [r1]
    876c:	edd25a09 	vldr	s11, [r2, #36]	; 0x24
    8770:	ed916a02 	vldr	s12, [r1, #8]
    8774:	eee67a87 	vfma.f32	s15, s13, s14
    8778:	edd26a0d 	vldr	s13, [r2, #52]	; 0x34
    877c:	ed917a03 	vldr	s14, [r1, #12]
    8780:	eee57a86 	vfma.f32	s15, s11, s12
    8784:	eee67a87 	vfma.f32	s15, s13, s14
    8788:	edc07a01 	vstr	s15, [r0, #4]
    878c:	ed917a01 	vldr	s14, [r1, #4]
    8790:	edd27a06 	vldr	s15, [r2, #24]
    8794:	edd26a02 	vldr	s13, [r2, #8]
    8798:	ee677a87 	vmul.f32	s15, s15, s14
    879c:	ed917a00 	vldr	s14, [r1]
    87a0:	edd25a0a 	vldr	s11, [r2, #40]	; 0x28
    87a4:	ed916a02 	vldr	s12, [r1, #8]
    87a8:	eee67a87 	vfma.f32	s15, s13, s14
    87ac:	edd26a0e 	vldr	s13, [r2, #56]	; 0x38
    87b0:	ed917a03 	vldr	s14, [r1, #12]
    87b4:	eee57a86 	vfma.f32	s15, s11, s12
    87b8:	eee67a87 	vfma.f32	s15, s13, s14
    87bc:	edc07a02 	vstr	s15, [r0, #8]
    87c0:	ed917a01 	vldr	s14, [r1, #4]
    87c4:	edd27a07 	vldr	s15, [r2, #28]
    87c8:	edd26a03 	vldr	s13, [r2, #12]
    87cc:	ee677a87 	vmul.f32	s15, s15, s14
    87d0:	ed917a00 	vldr	s14, [r1]
    87d4:	edd15a02 	vldr	s11, [r1, #8]
    87d8:	ed926a0b 	vldr	s12, [r2, #44]	; 0x2c
    87dc:	eee67a87 	vfma.f32	s15, s13, s14
    87e0:	edd16a03 	vldr	s13, [r1, #12]
    87e4:	ed927a0f 	vldr	s14, [r2, #60]	; 0x3c
    87e8:	eee57a86 	vfma.f32	s15, s11, s12
    87ec:	eee67a87 	vfma.f32	s15, s13, s14
    87f0:	edc07a03 	vstr	s15, [r0, #12]
    87f4:	ed927a04 	vldr	s14, [r2, #16]
    87f8:	edd17a05 	vldr	s15, [r1, #20]
    87fc:	edd16a04 	vldr	s13, [r1, #16]
    8800:	ee677a87 	vmul.f32	s15, s15, s14
    8804:	ed927a00 	vldr	s14, [r2]
    8808:	edd15a06 	vldr	s11, [r1, #24]
    880c:	ed926a08 	vldr	s12, [r2, #32]
    8810:	eee67a87 	vfma.f32	s15, s13, s14
    8814:	edd16a07 	vldr	s13, [r1, #28]
    8818:	ed927a0c 	vldr	s14, [r2, #48]	; 0x30
    881c:	eee57a86 	vfma.f32	s15, s11, s12
    8820:	eee67a87 	vfma.f32	s15, s13, s14
    8824:	edc07a04 	vstr	s15, [r0, #16]
    8828:	ed917a05 	vldr	s14, [r1, #20]
    882c:	edd27a05 	vldr	s15, [r2, #20]
    8830:	edd16a04 	vldr	s13, [r1, #16]
    8834:	ee677a87 	vmul.f32	s15, s15, s14
    8838:	ed927a01 	vldr	s14, [r2, #4]
    883c:	edd25a09 	vldr	s11, [r2, #36]	; 0x24
    8840:	ed916a06 	vldr	s12, [r1, #24]
    8844:	eee67a87 	vfma.f32	s15, s13, s14
    8848:	edd26a0d 	vldr	s13, [r2, #52]	; 0x34
    884c:	ed917a07 	vldr	s14, [r1, #28]
    8850:	eee57a86 	vfma.f32	s15, s11, s12
    8854:	eee67a87 	vfma.f32	s15, s13, s14
    8858:	edc07a05 	vstr	s15, [r0, #20]
    885c:	ed917a05 	vldr	s14, [r1, #20]
    8860:	edd27a06 	vldr	s15, [r2, #24]
    8864:	edd26a02 	vldr	s13, [r2, #8]
    8868:	ee677a87 	vmul.f32	s15, s15, s14
    886c:	ed917a04 	vldr	s14, [r1, #16]
    8870:	edd25a0a 	vldr	s11, [r2, #40]	; 0x28
    8874:	ed916a06 	vldr	s12, [r1, #24]
    8878:	eee67a87 	vfma.f32	s15, s13, s14
    887c:	edd26a0e 	vldr	s13, [r2, #56]	; 0x38
    8880:	ed917a07 	vldr	s14, [r1, #28]
    8884:	eee57a86 	vfma.f32	s15, s11, s12
    8888:	eee67a87 	vfma.f32	s15, s13, s14
    888c:	edc07a06 	vstr	s15, [r0, #24]
    8890:	edd27a07 	vldr	s15, [r2, #28]
    8894:	ed917a05 	vldr	s14, [r1, #20]
    8898:	edd26a03 	vldr	s13, [r2, #12]
    889c:	ee677a87 	vmul.f32	s15, s15, s14
    88a0:	ed917a04 	vldr	s14, [r1, #16]
    88a4:	edd25a0b 	vldr	s11, [r2, #44]	; 0x2c
    88a8:	ed916a06 	vldr	s12, [r1, #24]
    88ac:	eee67a87 	vfma.f32	s15, s13, s14
    88b0:	edd26a0f 	vldr	s13, [r2, #60]	; 0x3c
    88b4:	ed917a07 	vldr	s14, [r1, #28]
    88b8:	eee57a86 	vfma.f32	s15, s11, s12
    88bc:	eee67a87 	vfma.f32	s15, s13, s14
    88c0:	edc07a07 	vstr	s15, [r0, #28]
    88c4:	ed927a04 	vldr	s14, [r2, #16]
    88c8:	edd17a09 	vldr	s15, [r1, #36]	; 0x24
    88cc:	edd16a08 	vldr	s13, [r1, #32]
    88d0:	ee677a87 	vmul.f32	s15, s15, s14
    88d4:	ed927a00 	vldr	s14, [r2]
    88d8:	edd15a0a 	vldr	s11, [r1, #40]	; 0x28
    88dc:	ed926a08 	vldr	s12, [r2, #32]
    88e0:	eee67a87 	vfma.f32	s15, s13, s14
    88e4:	edd16a0b 	vldr	s13, [r1, #44]	; 0x2c
    88e8:	ed927a0c 	vldr	s14, [r2, #48]	; 0x30
    88ec:	eee57a86 	vfma.f32	s15, s11, s12
    88f0:	eee67a87 	vfma.f32	s15, s13, s14
    88f4:	edc07a08 	vstr	s15, [r0, #32]
    88f8:	ed927a05 	vldr	s14, [r2, #20]
    88fc:	edd17a09 	vldr	s15, [r1, #36]	; 0x24
    8900:	edd16a08 	vldr	s13, [r1, #32]
    8904:	ee677a87 	vmul.f32	s15, s15, s14
    8908:	ed927a01 	vldr	s14, [r2, #4]
    890c:	edd15a0a 	vldr	s11, [r1, #40]	; 0x28
    8910:	ed926a09 	vldr	s12, [r2, #36]	; 0x24
    8914:	eee67a87 	vfma.f32	s15, s13, s14
    8918:	edd16a0b 	vldr	s13, [r1, #44]	; 0x2c
    891c:	ed927a0d 	vldr	s14, [r2, #52]	; 0x34
    8920:	eee57a86 	vfma.f32	s15, s11, s12
    8924:	eee67a87 	vfma.f32	s15, s13, s14
    8928:	edc07a09 	vstr	s15, [r0, #36]	; 0x24
    892c:	ed927a06 	vldr	s14, [r2, #24]
    8930:	edd17a09 	vldr	s15, [r1, #36]	; 0x24
    8934:	edd16a08 	vldr	s13, [r1, #32]
    8938:	ee677a87 	vmul.f32	s15, s15, s14
    893c:	ed927a02 	vldr	s14, [r2, #8]
    8940:	edd15a0a 	vldr	s11, [r1, #40]	; 0x28
    8944:	ed926a0a 	vldr	s12, [r2, #40]	; 0x28
    8948:	eee67a87 	vfma.f32	s15, s13, s14
    894c:	edd16a0b 	vldr	s13, [r1, #44]	; 0x2c
    8950:	ed927a0e 	vldr	s14, [r2, #56]	; 0x38
    8954:	eee57a86 	vfma.f32	s15, s11, s12
    8958:	eee67a87 	vfma.f32	s15, s13, s14
    895c:	edc07a0a 	vstr	s15, [r0, #40]	; 0x28
    8960:	ed927a07 	vldr	s14, [r2, #28]
    8964:	edd17a09 	vldr	s15, [r1, #36]	; 0x24
    8968:	edd16a08 	vldr	s13, [r1, #32]
    896c:	ee677a87 	vmul.f32	s15, s15, s14
    8970:	ed927a03 	vldr	s14, [r2, #12]
    8974:	edd15a0a 	vldr	s11, [r1, #40]	; 0x28
    8978:	ed926a0b 	vldr	s12, [r2, #44]	; 0x2c
    897c:	eee67a87 	vfma.f32	s15, s13, s14
    8980:	edd16a0b 	vldr	s13, [r1, #44]	; 0x2c
    8984:	ed927a0f 	vldr	s14, [r2, #60]	; 0x3c
    8988:	eee57a86 	vfma.f32	s15, s11, s12
    898c:	eee67a87 	vfma.f32	s15, s13, s14
    8990:	edc07a0b 	vstr	s15, [r0, #44]	; 0x2c
    8994:	ed927a04 	vldr	s14, [r2, #16]
    8998:	edd17a0d 	vldr	s15, [r1, #52]	; 0x34
    899c:	edd16a0c 	vldr	s13, [r1, #48]	; 0x30
    89a0:	ee677a87 	vmul.f32	s15, s15, s14
    89a4:	ed927a00 	vldr	s14, [r2]
    89a8:	edd15a0e 	vldr	s11, [r1, #56]	; 0x38
    89ac:	ed926a08 	vldr	s12, [r2, #32]
    89b0:	eee67a87 	vfma.f32	s15, s13, s14
    89b4:	edd16a0f 	vldr	s13, [r1, #60]	; 0x3c
    89b8:	ed927a0c 	vldr	s14, [r2, #48]	; 0x30
    89bc:	eee57a86 	vfma.f32	s15, s11, s12
    89c0:	eee67a87 	vfma.f32	s15, s13, s14
    89c4:	edc07a0c 	vstr	s15, [r0, #48]	; 0x30
    89c8:	ed927a05 	vldr	s14, [r2, #20]
    89cc:	edd17a0d 	vldr	s15, [r1, #52]	; 0x34
    89d0:	edd16a0c 	vldr	s13, [r1, #48]	; 0x30
    89d4:	ee677a87 	vmul.f32	s15, s15, s14
    89d8:	ed927a01 	vldr	s14, [r2, #4]
    89dc:	edd15a0e 	vldr	s11, [r1, #56]	; 0x38
    89e0:	ed926a09 	vldr	s12, [r2, #36]	; 0x24
    89e4:	eee67a87 	vfma.f32	s15, s13, s14
    89e8:	ed927a0d 	vldr	s14, [r2, #52]	; 0x34
    89ec:	edd16a0f 	vldr	s13, [r1, #60]	; 0x3c
    89f0:	eee57a86 	vfma.f32	s15, s11, s12
    89f4:	eee67a87 	vfma.f32	s15, s13, s14
    89f8:	edc07a0d 	vstr	s15, [r0, #52]	; 0x34
    89fc:	ed927a06 	vldr	s14, [r2, #24]
    8a00:	edd17a0d 	vldr	s15, [r1, #52]	; 0x34
    8a04:	edd16a0c 	vldr	s13, [r1, #48]	; 0x30
    8a08:	ee677a87 	vmul.f32	s15, s15, s14
    8a0c:	ed927a02 	vldr	s14, [r2, #8]
    8a10:	edd15a0e 	vldr	s11, [r1, #56]	; 0x38
    8a14:	ed926a0a 	vldr	s12, [r2, #40]	; 0x28
    8a18:	eee67a87 	vfma.f32	s15, s13, s14
    8a1c:	edd16a0f 	vldr	s13, [r1, #60]	; 0x3c
    8a20:	ed927a0e 	vldr	s14, [r2, #56]	; 0x38
    8a24:	eee57a86 	vfma.f32	s15, s11, s12
    8a28:	eee67a87 	vfma.f32	s15, s13, s14
    8a2c:	edc07a0e 	vstr	s15, [r0, #56]	; 0x38
    8a30:	ed927a07 	vldr	s14, [r2, #28]
    8a34:	edd17a0d 	vldr	s15, [r1, #52]	; 0x34
    8a38:	edd16a0c 	vldr	s13, [r1, #48]	; 0x30
    8a3c:	ee677a87 	vmul.f32	s15, s15, s14
    8a40:	ed927a03 	vldr	s14, [r2, #12]
    8a44:	edd15a0e 	vldr	s11, [r1, #56]	; 0x38
    8a48:	ed926a0b 	vldr	s12, [r2, #44]	; 0x2c
    8a4c:	eee67a87 	vfma.f32	s15, s13, s14
    8a50:	edd16a0f 	vldr	s13, [r1, #60]	; 0x3c
    8a54:	ed927a0f 	vldr	s14, [r2, #60]	; 0x3c
    8a58:	eee57a86 	vfma.f32	s15, s11, s12
    8a5c:	eee67a87 	vfma.f32	s15, s13, s14
    8a60:	edc07a0f 	vstr	s15, [r0, #60]	; 0x3c
    8a64:	e12fff1e 	bx	lr

00008a68 <MMM_Mul_2>:
    8a68:	ed927a04 	vldr	s14, [r2, #16]
    8a6c:	edd17a01 	vldr	s15, [r1, #4]
    8a70:	edd16a00 	vldr	s13, [r1]
    8a74:	ee677a87 	vmul.f32	s15, s15, s14
    8a78:	ed927a00 	vldr	s14, [r2]
    8a7c:	edd15a02 	vldr	s11, [r1, #8]
    8a80:	ed926a08 	vldr	s12, [r2, #32]
    8a84:	eee67a87 	vfma.f32	s15, s13, s14
    8a88:	edd16a03 	vldr	s13, [r1, #12]
    8a8c:	ed927a0c 	vldr	s14, [r2, #48]	; 0x30
    8a90:	eee57a86 	vfma.f32	s15, s11, s12
    8a94:	eee67a87 	vfma.f32	s15, s13, s14
    8a98:	edc07a00 	vstr	s15, [r0]
    8a9c:	ed927a05 	vldr	s14, [r2, #20]
    8aa0:	edd17a01 	vldr	s15, [r1, #4]
    8aa4:	edd16a00 	vldr	s13, [r1]
    8aa8:	ee677a87 	vmul.f32	s15, s15, s14
    8aac:	ed927a01 	vldr	s14, [r2, #4]
    8ab0:	edd15a02 	vldr	s11, [r1, #8]
    8ab4:	ed926a09 	vldr	s12, [r2, #36]	; 0x24
    8ab8:	eee67a87 	vfma.f32	s15, s13, s14
    8abc:	edd16a03 	vldr	s13, [r1, #12]
    8ac0:	ed927a0d 	vldr	s14, [r2, #52]	; 0x34
    8ac4:	eee57a86 	vfma.f32	s15, s11, s12
    8ac8:	eee67a87 	vfma.f32	s15, s13, s14
    8acc:	edc07a01 	vstr	s15, [r0, #4]
    8ad0:	ed927a06 	vldr	s14, [r2, #24]
    8ad4:	edd17a01 	vldr	s15, [r1, #4]
    8ad8:	edd16a00 	vldr	s13, [r1]
    8adc:	ee677a87 	vmul.f32	s15, s15, s14
    8ae0:	ed927a02 	vldr	s14, [r2, #8]
    8ae4:	edd15a02 	vldr	s11, [r1, #8]
    8ae8:	ed926a0a 	vldr	s12, [r2, #40]	; 0x28
    8aec:	eee67a87 	vfma.f32	s15, s13, s14
    8af0:	edd16a03 	vldr	s13, [r1, #12]
    8af4:	ed927a0e 	vldr	s14, [r2, #56]	; 0x38
    8af8:	eee57a86 	vfma.f32	s15, s11, s12
    8afc:	eee67a87 	vfma.f32	s15, s13, s14
    8b00:	edc07a02 	vstr	s15, [r0, #8]
    8b04:	ed927a07 	vldr	s14, [r2, #28]
    8b08:	edd17a01 	vldr	s15, [r1, #4]
    8b0c:	edd16a00 	vldr	s13, [r1]
    8b10:	ee677a87 	vmul.f32	s15, s15, s14
    8b14:	ed927a03 	vldr	s14, [r2, #12]
    8b18:	edd15a02 	vldr	s11, [r1, #8]
    8b1c:	ed926a0b 	vldr	s12, [r2, #44]	; 0x2c
    8b20:	eee67a87 	vfma.f32	s15, s13, s14
    8b24:	edd16a03 	vldr	s13, [r1, #12]
    8b28:	ed927a0f 	vldr	s14, [r2, #60]	; 0x3c
    8b2c:	eee57a86 	vfma.f32	s15, s11, s12
    8b30:	eee67a87 	vfma.f32	s15, s13, s14
    8b34:	edc07a03 	vstr	s15, [r0, #12]
    8b38:	ed927a04 	vldr	s14, [r2, #16]
    8b3c:	edd17a05 	vldr	s15, [r1, #20]
    8b40:	edd16a04 	vldr	s13, [r1, #16]
    8b44:	ee677a87 	vmul.f32	s15, s15, s14
    8b48:	ed927a00 	vldr	s14, [r2]
    8b4c:	edd15a06 	vldr	s11, [r1, #24]
    8b50:	ed926a08 	vldr	s12, [r2, #32]
    8b54:	eee67a87 	vfma.f32	s15, s13, s14
    8b58:	edd16a07 	vldr	s13, [r1, #28]
    8b5c:	ed927a0c 	vldr	s14, [r2, #48]	; 0x30
    8b60:	eee57a86 	vfma.f32	s15, s11, s12
    8b64:	eee67a87 	vfma.f32	s15, s13, s14
    8b68:	edc07a04 	vstr	s15, [r0, #16]
    8b6c:	ed927a05 	vldr	s14, [r2, #20]
    8b70:	edd17a05 	vldr	s15, [r1, #20]
    8b74:	edd16a04 	vldr	s13, [r1, #16]
    8b78:	ee677a87 	vmul.f32	s15, s15, s14
    8b7c:	ed927a01 	vldr	s14, [r2, #4]
    8b80:	edd15a06 	vldr	s11, [r1, #24]
    8b84:	ed926a09 	vldr	s12, [r2, #36]	; 0x24
    8b88:	eee67a87 	vfma.f32	s15, s13, s14
    8b8c:	edd16a07 	vldr	s13, [r1, #28]
    8b90:	ed927a0d 	vldr	s14, [r2, #52]	; 0x34
    8b94:	eee57a86 	vfma.f32	s15, s11, s12
    8b98:	eee67a87 	vfma.f32	s15, s13, s14
    8b9c:	edc07a05 	vstr	s15, [r0, #20]
    8ba0:	ed927a06 	vldr	s14, [r2, #24]
    8ba4:	edd17a05 	vldr	s15, [r1, #20]
    8ba8:	edd16a04 	vldr	s13, [r1, #16]
    8bac:	ee677a87 	vmul.f32	s15, s15, s14
    8bb0:	ed927a02 	vldr	s14, [r2, #8]
    8bb4:	edd15a06 	vldr	s11, [r1, #24]
    8bb8:	ed926a0a 	vldr	s12, [r2, #40]	; 0x28
    8bbc:	eee67a87 	vfma.f32	s15, s13, s14
    8bc0:	edd16a07 	vldr	s13, [r1, #28]
    8bc4:	ed927a0e 	vldr	s14, [r2, #56]	; 0x38
    8bc8:	eee57a86 	vfma.f32	s15, s11, s12
    8bcc:	eee67a87 	vfma.f32	s15, s13, s14
    8bd0:	edc07a06 	vstr	s15, [r0, #24]
    8bd4:	edd17a05 	vldr	s15, [r1, #20]
    8bd8:	ed927a07 	vldr	s14, [r2, #28]
    8bdc:	edd16a04 	vldr	s13, [r1, #16]
    8be0:	ee677a87 	vmul.f32	s15, s15, s14
    8be4:	ed927a03 	vldr	s14, [r2, #12]
    8be8:	edd15a06 	vldr	s11, [r1, #24]
    8bec:	ed926a0b 	vldr	s12, [r2, #44]	; 0x2c
    8bf0:	eee67a87 	vfma.f32	s15, s13, s14
    8bf4:	edd16a07 	vldr	s13, [r1, #28]
    8bf8:	ed927a0f 	vldr	s14, [r2, #60]	; 0x3c
    8bfc:	eee57a86 	vfma.f32	s15, s11, s12
    8c00:	eee67a87 	vfma.f32	s15, s13, s14
    8c04:	edc07a07 	vstr	s15, [r0, #28]
    8c08:	ed927a04 	vldr	s14, [r2, #16]
    8c0c:	edd17a09 	vldr	s15, [r1, #36]	; 0x24
    8c10:	edd16a08 	vldr	s13, [r1, #32]
    8c14:	ee677a87 	vmul.f32	s15, s15, s14
    8c18:	ed927a00 	vldr	s14, [r2]
    8c1c:	edd15a0a 	vldr	s11, [r1, #40]	; 0x28
    8c20:	ed926a08 	vldr	s12, [r2, #32]
    8c24:	eee67a87 	vfma.f32	s15, s13, s14
    8c28:	edd16a0b 	vldr	s13, [r1, #44]	; 0x2c
    8c2c:	ed927a0c 	vldr	s14, [r2, #48]	; 0x30
    8c30:	eee57a86 	vfma.f32	s15, s11, s12
    8c34:	eee67a87 	vfma.f32	s15, s13, s14
    8c38:	edc07a08 	vstr	s15, [r0, #32]
    8c3c:	ed927a05 	vldr	s14, [r2, #20]
    8c40:	edd17a09 	vldr	s15, [r1, #36]	; 0x24
    8c44:	edd16a08 	vldr	s13, [r1, #32]
    8c48:	ee677a87 	vmul.f32	s15, s15, s14
    8c4c:	ed927a01 	vldr	s14, [r2, #4]
    8c50:	edd15a0a 	vldr	s11, [r1, #40]	; 0x28
    8c54:	ed926a09 	vldr	s12, [r2, #36]	; 0x24
    8c58:	eee67a87 	vfma.f32	s15, s13, s14
    8c5c:	edd16a0b 	vldr	s13, [r1, #44]	; 0x2c
    8c60:	ed927a0d 	vldr	s14, [r2, #52]	; 0x34
    8c64:	eee57a86 	vfma.f32	s15, s11, s12
    8c68:	eee67a87 	vfma.f32	s15, s13, s14
    8c6c:	edc07a09 	vstr	s15, [r0, #36]	; 0x24
    8c70:	ed927a06 	vldr	s14, [r2, #24]
    8c74:	edd17a09 	vldr	s15, [r1, #36]	; 0x24
    8c78:	edd16a08 	vldr	s13, [r1, #32]
    8c7c:	ee677a87 	vmul.f32	s15, s15, s14
    8c80:	ed927a02 	vldr	s14, [r2, #8]
    8c84:	edd15a0a 	vldr	s11, [r1, #40]	; 0x28
    8c88:	ed926a0a 	vldr	s12, [r2, #40]	; 0x28
    8c8c:	eee67a87 	vfma.f32	s15, s13, s14
    8c90:	edd16a0b 	vldr	s13, [r1, #44]	; 0x2c
    8c94:	ed927a0e 	vldr	s14, [r2, #56]	; 0x38
    8c98:	eee57a86 	vfma.f32	s15, s11, s12
    8c9c:	eee67a87 	vfma.f32	s15, s13, s14
    8ca0:	edc07a0a 	vstr	s15, [r0, #40]	; 0x28
    8ca4:	ed927a07 	vldr	s14, [r2, #28]
    8ca8:	edd17a09 	vldr	s15, [r1, #36]	; 0x24
    8cac:	edd16a08 	vldr	s13, [r1, #32]
    8cb0:	ee677a87 	vmul.f32	s15, s15, s14
    8cb4:	ed927a03 	vldr	s14, [r2, #12]
    8cb8:	edd15a0a 	vldr	s11, [r1, #40]	; 0x28
    8cbc:	ed926a0b 	vldr	s12, [r2, #44]	; 0x2c
    8cc0:	eee67a87 	vfma.f32	s15, s13, s14
    8cc4:	edd16a0b 	vldr	s13, [r1, #44]	; 0x2c
    8cc8:	ed927a0f 	vldr	s14, [r2, #60]	; 0x3c
    8ccc:	eee57a86 	vfma.f32	s15, s11, s12
    8cd0:	eee67a87 	vfma.f32	s15, s13, s14
    8cd4:	edc07a0b 	vstr	s15, [r0, #44]	; 0x2c
    8cd8:	ed927a04 	vldr	s14, [r2, #16]
    8cdc:	edd17a0d 	vldr	s15, [r1, #52]	; 0x34
    8ce0:	edd16a0c 	vldr	s13, [r1, #48]	; 0x30
    8ce4:	ee677a87 	vmul.f32	s15, s15, s14
    8ce8:	ed927a00 	vldr	s14, [r2]
    8cec:	edd15a0e 	vldr	s11, [r1, #56]	; 0x38
    8cf0:	ed926a08 	vldr	s12, [r2, #32]
    8cf4:	eee67a87 	vfma.f32	s15, s13, s14
    8cf8:	edd16a0f 	vldr	s13, [r1, #60]	; 0x3c
    8cfc:	ed927a0c 	vldr	s14, [r2, #48]	; 0x30
    8d00:	eee57a86 	vfma.f32	s15, s11, s12
    8d04:	eee67a87 	vfma.f32	s15, s13, s14
    8d08:	edc07a0c 	vstr	s15, [r0, #48]	; 0x30
    8d0c:	ed927a05 	vldr	s14, [r2, #20]
    8d10:	edd17a0d 	vldr	s15, [r1, #52]	; 0x34
    8d14:	edd16a0c 	vldr	s13, [r1, #48]	; 0x30
    8d18:	ee677a87 	vmul.f32	s15, s15, s14
    8d1c:	ed927a01 	vldr	s14, [r2, #4]
    8d20:	edd15a0e 	vldr	s11, [r1, #56]	; 0x38
    8d24:	ed926a09 	vldr	s12, [r2, #36]	; 0x24
    8d28:	eee67a87 	vfma.f32	s15, s13, s14
    8d2c:	ed927a0d 	vldr	s14, [r2, #52]	; 0x34
    8d30:	edd16a0f 	vldr	s13, [r1, #60]	; 0x3c
    8d34:	eee57a86 	vfma.f32	s15, s11, s12
    8d38:	eee67a87 	vfma.f32	s15, s13, s14
    8d3c:	edc07a0d 	vstr	s15, [r0, #52]	; 0x34
    8d40:	ed927a06 	vldr	s14, [r2, #24]
    8d44:	edd17a0d 	vldr	s15, [r1, #52]	; 0x34
    8d48:	edd16a0c 	vldr	s13, [r1, #48]	; 0x30
    8d4c:	ee677a87 	vmul.f32	s15, s15, s14
    8d50:	ed927a02 	vldr	s14, [r2, #8]
    8d54:	edd15a0e 	vldr	s11, [r1, #56]	; 0x38
    8d58:	ed926a0a 	vldr	s12, [r2, #40]	; 0x28
    8d5c:	eee67a87 	vfma.f32	s15, s13, s14
    8d60:	edd16a0f 	vldr	s13, [r1, #60]	; 0x3c
    8d64:	ed927a0e 	vldr	s14, [r2, #56]	; 0x38
    8d68:	eee57a86 	vfma.f32	s15, s11, s12
    8d6c:	eee67a87 	vfma.f32	s15, s13, s14
    8d70:	edc07a0e 	vstr	s15, [r0, #56]	; 0x38
    8d74:	ed927a07 	vldr	s14, [r2, #28]
    8d78:	edd17a0d 	vldr	s15, [r1, #52]	; 0x34
    8d7c:	edd16a0c 	vldr	s13, [r1, #48]	; 0x30
    8d80:	ee677a87 	vmul.f32	s15, s15, s14
    8d84:	ed927a03 	vldr	s14, [r2, #12]
    8d88:	edd15a0e 	vldr	s11, [r1, #56]	; 0x38
    8d8c:	ed926a0b 	vldr	s12, [r2, #44]	; 0x2c
    8d90:	eee67a87 	vfma.f32	s15, s13, s14
    8d94:	edd16a0f 	vldr	s13, [r1, #60]	; 0x3c
    8d98:	ed927a0f 	vldr	s14, [r2, #60]	; 0x3c
    8d9c:	eee57a86 	vfma.f32	s15, s11, s12
    8da0:	eee67a87 	vfma.f32	s15, s13, s14
    8da4:	edc07a0f 	vstr	s15, [r0, #60]	; 0x3c
    8da8:	e12fff1e 	bx	lr

00008dac <MMM_Mul_NEON>:
    8dac:	ed2d8b10 	vpush	{d8-d15}
    8db0:	ec910b10 	vldmia	r1, {d0-d7}
    8db4:	ec928b10 	vldmia	r2, {d8-d15}
    8db8:	f3e00948 	vmul.f32	q8, q0, d8[0]
    8dbc:	f3e20168 	vmla.f32	q8, q1, d8[1]
    8dc0:	f3e40149 	vmla.f32	q8, q2, d9[0]
    8dc4:	f3e60169 	vmla.f32	q8, q3, d9[1]
    8dc8:	ece00b04 	vstmia	r0!, {d16-d17}
    8dcc:	f3e0094a 	vmul.f32	q8, q0, d10[0]
    8dd0:	f3e2016a 	vmla.f32	q8, q1, d10[1]
    8dd4:	f3e4014b 	vmla.f32	q8, q2, d11[0]
    8dd8:	f3e6016b 	vmla.f32	q8, q3, d11[1]
    8ddc:	ece00b04 	vstmia	r0!, {d16-d17}
    8de0:	f3e0094c 	vmul.f32	q8, q0, d12[0]
    8de4:	f3e2016c 	vmla.f32	q8, q1, d12[1]
    8de8:	f3e4014d 	vmla.f32	q8, q2, d13[0]
    8dec:	f3e6016d 	vmla.f32	q8, q3, d13[1]
    8df0:	ece00b04 	vstmia	r0!, {d16-d17}
    8df4:	f3e0094e 	vmul.f32	q8, q0, d14[0]
    8df8:	f3e2016e 	vmla.f32	q8, q1, d14[1]
    8dfc:	f3e4014f 	vmla.f32	q8, q2, d15[0]
    8e00:	f3e6016f 	vmla.f32	q8, q3, d15[1]
    8e04:	ece00b04 	vstmia	r0!, {d16-d17}
    8e08:	ecbd8b10 	vpop	{d8-d15}
    8e0c:	e12fff1e 	bx	lr

00008e10 <Msss_Trans>:
    8e10:	ed800a0c 	vstr	s0, [r0, #48]	; 0x30
    8e14:	edc00a0d 	vstr	s1, [r0, #52]	; 0x34
    8e18:	ed801a0e 	vstr	s2, [r0, #56]	; 0x38
    8e1c:	e12fff1e 	bx	lr

00008e20 <Msss_Scale>:
    8e20:	ed800a00 	vstr	s0, [r0]
    8e24:	edc00a05 	vstr	s1, [r0, #20]
    8e28:	ed801a0a 	vstr	s2, [r0, #40]	; 0x28
    8e2c:	e12fff1e 	bx	lr

00008e30 <MIsss_Proj>:
    8e30:	ee717a01 	vadd.f32	s15, s2, s2
    8e34:	e2813b02 	add	r3, r1, #2048	; 0x800
    8e38:	e1a0cfc1 	asr	ip, r1, #31
    8e3c:	e30d2028 	movw	r2, #53288	; 0xd028
    8e40:	e52de004 	push	{lr}		; (str lr, [sp, #-4]!)
    8e44:	e3402001 	movt	r2, #1
    8e48:	e1a0efc3 	asr	lr, r3, #31
    8e4c:	e1a0c9ac 	lsr	ip, ip, #19
    8e50:	e1a0e9ae 	lsr	lr, lr, #19
    8e54:	e083300e 	add	r3, r3, lr
    8e58:	e081100c 	add	r1, r1, ip
    8e5c:	e7ec3053 	ubfx	r3, r3, #0, #13
    8e60:	e7ec1051 	ubfx	r1, r1, #0, #13
    8e64:	e06e3003 	rsb	r3, lr, r3
    8e68:	eeb75a00 	vmov.f32	s10, #112	; 0x3f800000  1.0
    8e6c:	e06c1001 	rsb	r1, ip, r1
    8e70:	e0823103 	add	r3, r2, r3, lsl #2
    8e74:	e0821101 	add	r1, r2, r1, lsl #2
    8e78:	e3a02000 	mov	r2, #0
    8e7c:	ed937a00 	vldr	s14, [r3]
    8e80:	e34b2f80 	movt	r2, #49024	; 0xbf80
    8e84:	edd16a00 	vldr	s13, [r1]
    8e88:	e3a03000 	mov	r3, #0
    8e8c:	ee677aa0 	vmul.f32	s15, s15, s1
    8e90:	eec65a87 	vdiv.f32	s11, s13, s14
    8e94:	ee706ac1 	vsub.f32	s13, s1, s2
    8e98:	ee311a20 	vadd.f32	s2, s2, s1
    8e9c:	e5803004 	str	r3, [r0, #4]
    8ea0:	e580202c 	str	r2, [r0, #44]	; 0x2c
    8ea4:	e5803008 	str	r3, [r0, #8]
    8ea8:	e580300c 	str	r3, [r0, #12]
    8eac:	e5803010 	str	r3, [r0, #16]
    8eb0:	e5803018 	str	r3, [r0, #24]
    8eb4:	e580301c 	str	r3, [r0, #28]
    8eb8:	e5803020 	str	r3, [r0, #32]
    8ebc:	e5803024 	str	r3, [r0, #36]	; 0x24
    8ec0:	e5803030 	str	r3, [r0, #48]	; 0x30
    8ec4:	e5803034 	str	r3, [r0, #52]	; 0x34
    8ec8:	ee816a26 	vdiv.f32	s12, s2, s13
    8ecc:	e580303c 	str	r3, [r0, #60]	; 0x3c
    8ed0:	ee857a25 	vdiv.f32	s14, s10, s11
    8ed4:	ed806a0a 	vstr	s12, [r0, #40]	; 0x28
    8ed8:	ee876aa6 	vdiv.f32	s12, s15, s13
    8edc:	ed807a05 	vstr	s14, [r0, #20]
    8ee0:	ee870a00 	vdiv.f32	s0, s14, s0
    8ee4:	ed806a0e 	vstr	s12, [r0, #56]	; 0x38
    8ee8:	ed800a00 	vstr	s0, [r0]
    8eec:	e49df004 	pop	{pc}		; (ldr pc, [sp], #4)

00008ef0 <MVVV_LookAt>:
    8ef0:	ed917a01 	vldr	s14, [r1, #4]
    8ef4:	edd17a02 	vldr	s15, [r1, #8]
    8ef8:	e92d40f0 	push	{r4, r5, r6, r7, lr}
    8efc:	e3064f00 	movw	r4, #28416	; 0x6f00
    8f00:	edd16a00 	vldr	s13, [r1]
    8f04:	e3404006 	movt	r4, #6
    8f08:	e3a06000 	mov	r6, #0
    8f0c:	e1a05000 	mov	r5, r0
    8f10:	edc47a02 	vstr	s15, [r4, #8]
    8f14:	e584600c 	str	r6, [r4, #12]
    8f18:	ed847a01 	vstr	s14, [r4, #4]
    8f1c:	ed925a01 	vldr	s10, [r2, #4]
    8f20:	edc46a00 	vstr	s13, [r4]
    8f24:	ee357a47 	vsub.f32	s14, s10, s14
    8f28:	edd24a00 	vldr	s9, [r2]
    8f2c:	edd25a02 	vldr	s11, [r2, #8]
    8f30:	ee746ae6 	vsub.f32	s13, s9, s13
    8f34:	ee276a07 	vmul.f32	s12, s14, s14
    8f38:	edc44a04 	vstr	s9, [r4, #16]
    8f3c:	ed845a05 	vstr	s10, [r4, #20]
    8f40:	edc45a06 	vstr	s11, [r4, #24]
    8f44:	eea66aa6 	vfma.f32	s12, s13, s13
    8f48:	ee757ae7 	vsub.f32	s15, s11, s15
    8f4c:	e584601c 	str	r6, [r4, #28]
    8f50:	e5931000 	ldr	r1, [r3]
    8f54:	e5932004 	ldr	r2, [r3, #4]
    8f58:	e5933008 	ldr	r3, [r3, #8]
    8f5c:	edc46a14 	vstr	s13, [r4, #80]	; 0x50
    8f60:	ed2d8b02 	vpush	{d8}
    8f64:	eef06a46 	vmov.f32	s13, s12
    8f68:	e24dd00c 	sub	sp, sp, #12
    8f6c:	eeb78a00 	vmov.f32	s16, #112	; 0x3f800000  1.0
    8f70:	e28d7008 	add	r7, sp, #8
    8f74:	e5843028 	str	r3, [r4, #40]	; 0x28
    8f78:	e5841020 	str	r1, [r4, #32]
    8f7c:	eee76aa7 	vfma.f32	s13, s15, s15
    8f80:	e5842024 	str	r2, [r4, #36]	; 0x24
    8f84:	ed847a15 	vstr	s14, [r4, #84]	; 0x54
    8f88:	edc47a16 	vstr	s15, [r4, #88]	; 0x58
    8f8c:	e584602c 	str	r6, [r4, #44]	; 0x2c
    8f90:	ed676a01 	vstmdb	r7!, {s13}
    8f94:	e1a00007 	mov	r0, r7
    8f98:	eb000422 	bl	a028 <_fsqrt>
    8f9c:	ee880a00 	vdiv.f32	s0, s16, s0
    8fa0:	e1a00007 	mov	r0, r7
    8fa4:	edd45a16 	vldr	s11, [r4, #88]	; 0x58
    8fa8:	ed945a08 	vldr	s10, [r4, #32]
    8fac:	ed947a14 	vldr	s14, [r4, #80]	; 0x50
    8fb0:	edd47a15 	vldr	s15, [r4, #84]	; 0x54
    8fb4:	ed944a0a 	vldr	s8, [r4, #40]	; 0x28
    8fb8:	edd44a09 	vldr	s9, [r4, #36]	; 0x24
    8fbc:	ee605a25 	vmul.f32	s11, s0, s11
    8fc0:	ee607a27 	vmul.f32	s15, s0, s15
    8fc4:	ee200a07 	vmul.f32	s0, s0, s14
    8fc8:	ee256ac5 	vnmul.f32	s12, s11, s10
    8fcc:	ee676ac4 	vnmul.f32	s13, s15, s8
    8fd0:	ee207a64 	vnmul.f32	s14, s0, s9
    8fd4:	edc47a15 	vstr	s15, [r4, #84]	; 0x54
    8fd8:	eea46a00 	vfma.f32	s12, s8, s0
    8fdc:	eee46aa5 	vfma.f32	s13, s9, s11
    8fe0:	eea57a27 	vfma.f32	s14, s10, s15
    8fe4:	edc45a16 	vstr	s11, [r4, #88]	; 0x58
    8fe8:	ed840a14 	vstr	s0, [r4, #80]	; 0x50
    8fec:	ee667a06 	vmul.f32	s15, s12, s12
    8ff0:	edc46a0c 	vstr	s13, [r4, #48]	; 0x30
    8ff4:	ed846a0d 	vstr	s12, [r4, #52]	; 0x34
    8ff8:	ed847a0e 	vstr	s14, [r4, #56]	; 0x38
    8ffc:	eee67aa6 	vfma.f32	s15, s13, s13
    9000:	eee77a07 	vfma.f32	s15, s14, s14
    9004:	edcd7a01 	vstr	s15, [sp, #4]
    9008:	eb000406 	bl	a028 <_fsqrt>
    900c:	ee880a00 	vdiv.f32	s0, s16, s0
    9010:	edd46a0c 	vldr	s13, [r4, #48]	; 0x30
    9014:	ed947a0d 	vldr	s14, [r4, #52]	; 0x34
    9018:	edd47a0e 	vldr	s15, [r4, #56]	; 0x38
    901c:	ed945a14 	vldr	s10, [r4, #80]	; 0x50
    9020:	edd44a16 	vldr	s9, [r4, #88]	; 0x58
    9024:	ed944a15 	vldr	s8, [r4, #84]	; 0x54
    9028:	ee207a07 	vmul.f32	s14, s0, s14
    902c:	ee607a27 	vmul.f32	s15, s0, s15
    9030:	ee200a26 	vmul.f32	s0, s0, s13
    9034:	ee675a64 	vnmul.f32	s11, s14, s9
    9038:	ee276ac5 	vnmul.f32	s12, s15, s10
    903c:	ee606a44 	vnmul.f32	s13, s0, s8
    9040:	ed847a0d 	vstr	s14, [r4, #52]	; 0x34
    9044:	eee45a27 	vfma.f32	s11, s8, s15
    9048:	eea46a80 	vfma.f32	s12, s9, s0
    904c:	eee56a07 	vfma.f32	s13, s10, s14
    9050:	edc47a0e 	vstr	s15, [r4, #56]	; 0x38
    9054:	ed840a0c 	vstr	s0, [r4, #48]	; 0x30
    9058:	edc45a10 	vstr	s11, [r4, #64]	; 0x40
    905c:	ed846a11 	vstr	s12, [r4, #68]	; 0x44
    9060:	edc46a12 	vstr	s13, [r4, #72]	; 0x48
    9064:	ed850a00 	vstr	s0, [r5]
    9068:	e5943034 	ldr	r3, [r4, #52]	; 0x34
    906c:	e5853004 	str	r3, [r5, #4]
    9070:	e5943038 	ldr	r3, [r4, #56]	; 0x38
    9074:	e585600c 	str	r6, [r5, #12]
    9078:	e5853008 	str	r3, [r5, #8]
    907c:	e5943040 	ldr	r3, [r4, #64]	; 0x40
    9080:	e5853010 	str	r3, [r5, #16]
    9084:	e5943044 	ldr	r3, [r4, #68]	; 0x44
    9088:	e5853014 	str	r3, [r5, #20]
    908c:	e5943048 	ldr	r3, [r4, #72]	; 0x48
    9090:	e585601c 	str	r6, [r5, #28]
    9094:	e5853018 	str	r3, [r5, #24]
    9098:	e5943050 	ldr	r3, [r4, #80]	; 0x50
    909c:	e5853020 	str	r3, [r5, #32]
    90a0:	e5943054 	ldr	r3, [r4, #84]	; 0x54
    90a4:	e5853024 	str	r3, [r5, #36]	; 0x24
    90a8:	e5943058 	ldr	r3, [r4, #88]	; 0x58
    90ac:	e585602c 	str	r6, [r5, #44]	; 0x2c
    90b0:	e5853028 	str	r3, [r5, #40]	; 0x28
    90b4:	ed946a00 	vldr	s12, [r4]
    90b8:	edd47a01 	vldr	s15, [r4, #4]
    90bc:	ed947a0d 	vldr	s14, [r4, #52]	; 0x34
    90c0:	ed945a0c 	vldr	s10, [r4, #48]	; 0x30
    90c4:	ee277a87 	vmul.f32	s14, s15, s14
    90c8:	edd45a0e 	vldr	s11, [r4, #56]	; 0x38
    90cc:	edd46a02 	vldr	s13, [r4, #8]
    90d0:	eea57a06 	vfma.f32	s14, s10, s12
    90d4:	eea57aa6 	vfma.f32	s14, s11, s13
    90d8:	eeb17a47 	vneg.f32	s14, s14
    90dc:	ed857a0c 	vstr	s14, [r5, #48]	; 0x30
    90e0:	ed947a11 	vldr	s14, [r4, #68]	; 0x44
    90e4:	ed945a10 	vldr	s10, [r4, #64]	; 0x40
    90e8:	ee277a87 	vmul.f32	s14, s15, s14
    90ec:	edd45a12 	vldr	s11, [r4, #72]	; 0x48
    90f0:	eea57a06 	vfma.f32	s14, s10, s12
    90f4:	eea57aa6 	vfma.f32	s14, s11, s13
    90f8:	eeb17a47 	vneg.f32	s14, s14
    90fc:	ed857a0d 	vstr	s14, [r5, #52]	; 0x34
    9100:	ed947a15 	vldr	s14, [r4, #84]	; 0x54
    9104:	edd45a14 	vldr	s11, [r4, #80]	; 0x50
    9108:	ee677a87 	vmul.f32	s15, s15, s14
    910c:	ed947a16 	vldr	s14, [r4, #88]	; 0x58
    9110:	ed858a0f 	vstr	s16, [r5, #60]	; 0x3c
    9114:	eee57a86 	vfma.f32	s15, s11, s12
    9118:	eee77a26 	vfma.f32	s15, s14, s13
    911c:	eef17a67 	vneg.f32	s15, s15
    9120:	edc57a0e 	vstr	s15, [r5, #56]	; 0x38
    9124:	e28dd00c 	add	sp, sp, #12
    9128:	ecbd8b02 	vpop	{d8}
    912c:	e8bd80f0 	pop	{r4, r5, r6, r7, pc}

00009130 <MTest>:
    9130:	e7a03150 	sbfx	r3, r0, #2, #1
    9134:	e2133003 	ands	r3, r3, #3
    9138:	e92d4010 	push	{r4, lr}
    913c:	0a00003f 	beq	9240 <MTest+0x110>
    9140:	e3530001 	cmp	r3, #1
    9144:	e3a02000 	mov	r2, #0
    9148:	e5802000 	str	r2, [r0]
    914c:	0a000044 	beq	9264 <MTest+0x134>
    9150:	e3530003 	cmp	r3, #3
    9154:	e3a025fe 	mov	r2, #1065353216	; 0x3f800000
    9158:	e5802004 	str	r2, [r0, #4]
    915c:	1a00003d 	bne	9258 <MTest+0x128>
    9160:	e3a0100d 	mov	r1, #13
    9164:	e1a0c003 	mov	ip, r3
    9168:	e3a02101 	mov	r2, #1073741824	; 0x40000000
    916c:	e5802008 	str	r2, [r0, #8]
    9170:	e263e010 	rsb	lr, r3, #16
    9174:	e3a0200c 	mov	r2, #12
    9178:	e3a04003 	mov	r4, #3
    917c:	eea0cb90 	vdup.32	q8, ip
    9180:	eddf6b3a 	vldr	d22, [pc, #232]	; 9270 <MTest+0x140>
    9184:	eddf7b3b 	vldr	d23, [pc, #236]	; 9278 <MTest+0x148>
    9188:	eddf4b3c 	vldr	d20, [pc, #240]	; 9280 <MTest+0x150>
    918c:	eddf5b3d 	vldr	d21, [pc, #244]	; 9288 <MTest+0x158>
    9190:	eddf2b3e 	vldr	d18, [pc, #248]	; 9290 <MTest+0x160>
    9194:	eddf3b3f 	vldr	d19, [pc, #252]	; 9298 <MTest+0x168>
    9198:	f26068e6 	vadd.i32	q11, q8, q11
    919c:	f26048e4 	vadd.i32	q10, q8, q10
    91a0:	f26028e2 	vadd.i32	q9, q8, q9
    91a4:	f3fb6666 	vcvt.f32.s32	q11, q11
    91a8:	f3fb4664 	vcvt.f32.s32	q10, q10
    91ac:	f3fb2662 	vcvt.f32.s32	q9, q9
    91b0:	eddf8b3a 	vldr	d24, [pc, #232]	; 92a0 <MTest+0x170>
    91b4:	eddf9b3b 	vldr	d25, [pc, #236]	; 92a8 <MTest+0x178>
    91b8:	e0803103 	add	r3, r0, r3, lsl #2
    91bc:	e3540004 	cmp	r4, #4
    91c0:	f4436adf 	vst1.64	{d22-d23}, [r3 :64]
    91c4:	edc34b04 	vstr	d20, [r3, #16]
    91c8:	edc35b06 	vstr	d21, [r3, #24]
    91cc:	edc32b08 	vstr	d18, [r3, #32]
    91d0:	edc33b0a 	vstr	d19, [r3, #40]	; 0x28
    91d4:	f26008e8 	vadd.i32	q8, q8, q12
    91d8:	1a000002 	bne	91e8 <MTest+0xb8>
    91dc:	f3fb0660 	vcvt.f32.s32	q8, q8
    91e0:	edc30b0c 	vstr	d16, [r3, #48]	; 0x30
    91e4:	edc31b0e 	vstr	d17, [r3, #56]	; 0x38
    91e8:	e152000e 	cmp	r2, lr
    91ec:	e0621001 	rsb	r1, r2, r1
    91f0:	e082200c 	add	r2, r2, ip
    91f4:	08bd8010 	popeq	{r4, pc}
    91f8:	ee072a10 	vmov	s14, r2
    91fc:	e0800102 	add	r0, r0, r2, lsl #2
    9200:	e2823001 	add	r3, r2, #1
    9204:	e3510001 	cmp	r1, #1
    9208:	ee073a90 	vmov	s15, r3
    920c:	eeb87ac7 	vcvt.f32.s32	s14, s14
    9210:	ed807a00 	vstr	s14, [r0]
    9214:	08bd8010 	popeq	{r4, pc}
    9218:	eef87ae7 	vcvt.f32.s32	s15, s15
    921c:	e3510002 	cmp	r1, #2
    9220:	e2822002 	add	r2, r2, #2
    9224:	edc07a01 	vstr	s15, [r0, #4]
    9228:	0a000003 	beq	923c <MTest+0x10c>
    922c:	ee072a90 	vmov	s15, r2
    9230:	eef87ae7 	vcvt.f32.s32	s15, s15
    9234:	edc07a02 	vstr	s15, [r0, #8]
    9238:	e8bd8010 	pop	{r4, pc}
    923c:	e8bd8010 	pop	{r4, pc}
    9240:	e3a02010 	mov	r2, #16
    9244:	e3a04004 	mov	r4, #4
    9248:	e1a0e002 	mov	lr, r2
    924c:	e1a01002 	mov	r1, r2
    9250:	e1a0c003 	mov	ip, r3
    9254:	eaffffc8 	b	917c <MTest+0x4c>
    9258:	e3a0100e 	mov	r1, #14
    925c:	e3a0c002 	mov	ip, #2
    9260:	eaffffc2 	b	9170 <MTest+0x40>
    9264:	e3a0100f 	mov	r1, #15
    9268:	e1a0c003 	mov	ip, r3
    926c:	eaffffbf 	b	9170 <MTest+0x40>
    9270:	00000000 	andeq	r0, r0, r0
    9274:	00000001 	andeq	r0, r0, r1
    9278:	00000002 	andeq	r0, r0, r2
    927c:	00000003 	andeq	r0, r0, r3
    9280:	00000004 	andeq	r0, r0, r4
    9284:	00000005 	andeq	r0, r0, r5
    9288:	00000006 	andeq	r0, r0, r6
    928c:	00000007 	andeq	r0, r0, r7
    9290:	00000008 	andeq	r0, r0, r8
    9294:	00000009 	andeq	r0, r0, r9
    9298:	0000000a 	andeq	r0, r0, sl
    929c:	0000000b 	andeq	r0, r0, fp
    92a0:	0000000c 	andeq	r0, r0, ip
    92a4:	0000000d 	andeq	r0, r0, sp
    92a8:	0000000e 	andeq	r0, r0, lr
    92ac:	0000000f 	andeq	r0, r0, pc

000092b0 <MPrint>:
    92b0:	e92d4070 	push	{r4, r5, r6, lr}
    92b4:	e1a04000 	mov	r4, r0
    92b8:	e2805040 	add	r5, r0, #64	; 0x40
    92bc:	ecf47a01 	vldmia	r4!, {s15}
    92c0:	e30c0000 	movw	r0, #49152	; 0xc000
    92c4:	e3400001 	movt	r0, #1
    92c8:	eefc7ae7 	vcvt.u32.f32	s15, s15
    92cc:	ee171a90 	vmov	r1, s15
    92d0:	eb0003f8 	bl	a2b8 <uart_debug_puts>
    92d4:	e1550004 	cmp	r5, r4
    92d8:	1afffff7 	bne	92bc <MPrint+0xc>
    92dc:	e8bd8070 	pop	{r4, r5, r6, pc}

000092e0 <MInit>:
    92e0:	e92d41f0 	push	{r4, r5, r6, r7, r8, lr}
    92e4:	e3064f40 	movw	r4, #28480	; 0x6f40
    92e8:	eddf6b78 	vldr	d22, [pc, #480]	; 94d0 <MInit+0x1f0>
    92ec:	eddf7b79 	vldr	d23, [pc, #484]	; 94d8 <MInit+0x1f8>
    92f0:	eddf4b7a 	vldr	d20, [pc, #488]	; 94e0 <MInit+0x200>
    92f4:	eddf5b7b 	vldr	d21, [pc, #492]	; 94e8 <MInit+0x208>
    92f8:	eddf2b7c 	vldr	d18, [pc, #496]	; 94f0 <MInit+0x210>
    92fc:	eddf3b7d 	vldr	d19, [pc, #500]	; 94f8 <MInit+0x218>
    9300:	eddf0b7e 	vldr	d16, [pc, #504]	; 9500 <MInit+0x220>
    9304:	eddf1b7f 	vldr	d17, [pc, #508]	; 9508 <MInit+0x228>
    9308:	e3404004 	movt	r4, #4
    930c:	ed2d8b10 	vpush	{d8-d15}
    9310:	e2842801 	add	r2, r4, #65536	; 0x10000
    9314:	e24dd008 	sub	sp, sp, #8
    9318:	e1a03004 	mov	r3, r4
    931c:	ed436b10 	vstr	d22, [r3, #-64]	; 0xffffffc0
    9320:	ed437b0e 	vstr	d23, [r3, #-56]	; 0xffffffc8
    9324:	ed434b0c 	vstr	d20, [r3, #-48]	; 0xffffffd0
    9328:	ed435b0a 	vstr	d21, [r3, #-40]	; 0xffffffd8
    932c:	ed432b08 	vstr	d18, [r3, #-32]	; 0xffffffe0
    9330:	ed433b06 	vstr	d19, [r3, #-24]	; 0xffffffe8
    9334:	ed430b04 	vstr	d16, [r3, #-16]
    9338:	ed431b02 	vstr	d17, [r3, #-8]
    933c:	e2833040 	add	r3, r3, #64	; 0x40
    9340:	e1530002 	cmp	r3, r2
    9344:	1afffff4 	bne	931c <MInit+0x3c>
    9348:	e3067e00 	movw	r7, #28160	; 0x6e00
    934c:	e3068600 	movw	r8, #26112	; 0x6600
    9350:	e3066f00 	movw	r6, #28416	; 0x6f00
    9354:	e3407003 	movt	r7, #3
    9358:	e3408002 	movt	r8, #2
    935c:	e3406004 	movt	r6, #4
    9360:	e1a00007 	mov	r0, r7
    9364:	e2875801 	add	r5, r7, #65536	; 0x10000
    9368:	e1a0e008 	mov	lr, r8
    936c:	e1a0c006 	mov	ip, r6
    9370:	e1a03000 	mov	r3, r0
    9374:	e1a0200e 	mov	r2, lr
    9378:	e1a0100c 	mov	r1, ip
    937c:	ec930b10 	vldmia	r3, {d0-d7}
    9380:	ec928b10 	vldmia	r2, {d8-d15}
    9384:	f3e00948 	vmul.f32	q8, q0, d8[0]
    9388:	f3e20168 	vmla.f32	q8, q1, d8[1]
    938c:	f3e40149 	vmla.f32	q8, q2, d9[0]
    9390:	f3e60169 	vmla.f32	q8, q3, d9[1]
    9394:	ece10b04 	vstmia	r1!, {d16-d17}
    9398:	f3e0094a 	vmul.f32	q8, q0, d10[0]
    939c:	f3e2016a 	vmla.f32	q8, q1, d10[1]
    93a0:	f3e4014b 	vmla.f32	q8, q2, d11[0]
    93a4:	f3e6016b 	vmla.f32	q8, q3, d11[1]
    93a8:	ece10b04 	vstmia	r1!, {d16-d17}
    93ac:	f3e0094c 	vmul.f32	q8, q0, d12[0]
    93b0:	f3e2016c 	vmla.f32	q8, q1, d12[1]
    93b4:	f3e4014d 	vmla.f32	q8, q2, d13[0]
    93b8:	f3e6016d 	vmla.f32	q8, q3, d13[1]
    93bc:	ece10b04 	vstmia	r1!, {d16-d17}
    93c0:	f3e0094e 	vmul.f32	q8, q0, d14[0]
    93c4:	f3e2016e 	vmla.f32	q8, q1, d14[1]
    93c8:	f3e4014f 	vmla.f32	q8, q2, d15[0]
    93cc:	f3e6016f 	vmla.f32	q8, q3, d15[1]
    93d0:	ece10b04 	vstmia	r1!, {d16-d17}
    93d4:	e2800040 	add	r0, r0, #64	; 0x40
    93d8:	e28ee040 	add	lr, lr, #64	; 0x40
    93dc:	e1550000 	cmp	r5, r0
    93e0:	e28cc040 	add	ip, ip, #64	; 0x40
    93e4:	1affffe1 	bne	9370 <MInit+0x90>
    93e8:	eddf6b48 	vldr	d22, [pc, #288]	; 9510 <MInit+0x230>
    93ec:	eddf7b49 	vldr	d23, [pc, #292]	; 9518 <MInit+0x238>
    93f0:	eddf4b4a 	vldr	d20, [pc, #296]	; 9520 <MInit+0x240>
    93f4:	eddf5b4b 	vldr	d21, [pc, #300]	; 9528 <MInit+0x248>
    93f8:	eddf2b4c 	vldr	d18, [pc, #304]	; 9530 <MInit+0x250>
    93fc:	eddf3b4d 	vldr	d19, [pc, #308]	; 9538 <MInit+0x258>
    9400:	eddf0b4e 	vldr	d16, [pc, #312]	; 9540 <MInit+0x260>
    9404:	eddf1b4f 	vldr	d17, [pc, #316]	; 9548 <MInit+0x268>
    9408:	e3062600 	movw	r2, #26112	; 0x6600
    940c:	e3061e00 	movw	r1, #28160	; 0x6e00
    9410:	e3060f00 	movw	r0, #28416	; 0x6f00
    9414:	e3402002 	movt	r2, #2
    9418:	e3401003 	movt	r1, #3
    941c:	e3400004 	movt	r0, #4
    9420:	f4476aef 	vst1.64	{d22-d23}, [r7 :128]
    9424:	f4486aef 	vst1.64	{d22-d23}, [r8 :128]
    9428:	edc74b04 	vstr	d20, [r7, #16]
    942c:	edc75b06 	vstr	d21, [r7, #24]
    9430:	edc84b04 	vstr	d20, [r8, #16]
    9434:	edc85b06 	vstr	d21, [r8, #24]
    9438:	edc72b08 	vstr	d18, [r7, #32]
    943c:	edc73b0a 	vstr	d19, [r7, #40]	; 0x28
    9440:	edc82b08 	vstr	d18, [r8, #32]
    9444:	edc83b0a 	vstr	d19, [r8, #40]	; 0x28
    9448:	edc70b0c 	vstr	d16, [r7, #48]	; 0x30
    944c:	edc71b0e 	vstr	d17, [r7, #56]	; 0x38
    9450:	edc80b0c 	vstr	d16, [r8, #48]	; 0x30
    9454:	edc81b0e 	vstr	d17, [r8, #56]	; 0x38
    9458:	ebfffcb1 	bl	8724 <MMM_Mul>
    945c:	ecf67a01 	vldmia	r6!, {s15}
    9460:	e30c0000 	movw	r0, #49152	; 0xc000
    9464:	e3400001 	movt	r0, #1
    9468:	eefc7ae7 	vcvt.u32.f32	s15, s15
    946c:	ee171a90 	vmov	r1, s15
    9470:	eb000390 	bl	a2b8 <uart_debug_puts>
    9474:	e1540006 	cmp	r4, r6
    9478:	1afffff7 	bne	945c <MInit+0x17c>
    947c:	e28d0008 	add	r0, sp, #8
    9480:	e3a03000 	mov	r3, #0
    9484:	eddf2b31 	vldr	d18, [pc, #196]	; 9550 <MInit+0x270>
    9488:	eddf3b32 	vldr	d19, [pc, #200]	; 9558 <MInit+0x278>
    948c:	eddf0b33 	vldr	d16, [pc, #204]	; 9560 <MInit+0x280>
    9490:	eddf1b34 	vldr	d17, [pc, #208]	; 9568 <MInit+0x288>
    9494:	e3443248 	movt	r3, #16968	; 0x4248
    9498:	e5203004 	str	r3, [r0, #-4]!
    949c:	e3063f00 	movw	r3, #28416	; 0x6f00
    94a0:	e3403006 	movt	r3, #6
    94a4:	f4432aef 	vst1.64	{d18-d19}, [r3 :128]
    94a8:	edc30b04 	vstr	d16, [r3, #16]
    94ac:	edc31b06 	vstr	d17, [r3, #24]
    94b0:	eb0002dc 	bl	a028 <_fsqrt>
    94b4:	ee101a10 	vmov	r1, s0
    94b8:	e30c0004 	movw	r0, #49156	; 0xc004
    94bc:	e3400001 	movt	r0, #1
    94c0:	eb00037c 	bl	a2b8 <uart_debug_puts>
    94c4:	e28dd008 	add	sp, sp, #8
    94c8:	ecbd8b10 	vpop	{d8-d15}
    94cc:	e8bd81f0 	pop	{r4, r5, r6, r7, r8, pc}
    94d0:	3f800000 	svccc	0x00800000
	...
    94e4:	3f800000 	svccc	0x00800000
	...
    94f8:	3f800000 	svccc	0x00800000
	...
    950c:	3f800000 	svccc	0x00800000
    9510:	00000000 	andeq	r0, r0, r0
    9514:	3f800000 	svccc	0x00800000
    9518:	40000000 	andmi	r0, r0, r0
    951c:	40400000 	submi	r0, r0, r0
    9520:	40800000 	addmi	r0, r0, r0
    9524:	40a00000 	adcmi	r0, r0, r0
    9528:	40c00000 	sbcmi	r0, r0, r0
    952c:	40e00000 	rscmi	r0, r0, r0
    9530:	41000000 	mrsmi	r0, (UNDEF: 0)
    9534:	41100000 	tstmi	r0, r0
    9538:	41200000 			; <UNDEFINED> instruction: 0x41200000
    953c:	41300000 	teqmi	r0, r0
    9540:	41400000 	mrsmi	r0, (UNDEF: 64)
    9544:	41500000 	cmpmi	r0, r0
    9548:	41600000 	cmnmi	r0, r0
    954c:	41700000 	cmnmi	r0, r0
    9550:	3f800000 	svccc	0x00800000
    9554:	40000000 	andmi	r0, r0, r0
    9558:	40400000 	submi	r0, r0, r0
    955c:	00000000 	andeq	r0, r0, r0
    9560:	40400000 	submi	r0, r0, r0
    9564:	40800000 	addmi	r0, r0, r0
    9568:	40a00000 	adcmi	r0, r0, r0
    956c:	00000000 	andeq	r0, r0, r0

00009570 <_hald_led>:
    9570:	e3a04000 	mov	r4, #0
    9574:	e3a03602 	mov	r3, #2097152	; 0x200000
    9578:	e3434f20 	movt	r4, #16160	; 0x3f20
    957c:	e3a06902 	mov	r6, #32768	; 0x8000
    9580:	e92d4080 	push	{r7, lr}
    9584:	e1a05000 	mov	r5, r0
    9588:	e5843010 	str	r3, [r4, #16]
    958c:	e3a00ffa 	mov	r0, #1000	; 0x3e8
    9590:	e1a07006 	mov	r7, r6
    9594:	eb00064e 	bl	aed4 <usleep>
    9598:	e5847020 	str	r7, [r4, #32]
    959c:	e1a00005 	mov	r0, r5
    95a0:	eb00064b 	bl	aed4 <usleep>
    95a4:	e584602c 	str	r6, [r4, #44]	; 0x2c
    95a8:	e1a00005 	mov	r0, r5
    95ac:	eb000648 	bl	aed4 <usleep>
    95b0:	eafffff8 	b	9598 <_hald_led+0x28>

000095b4 <output_enable_status_led>:
    95b4:	e3a03000 	mov	r3, #0
    95b8:	e3a02602 	mov	r2, #2097152	; 0x200000
    95bc:	e3433f20 	movt	r3, #16160	; 0x3f20
    95c0:	e3a00ffa 	mov	r0, #1000	; 0x3e8
    95c4:	e5832010 	str	r2, [r3, #16]
    95c8:	ea000641 	b	aed4 <usleep>

000095cc <halt_led0>:
    95cc:	e92d4010 	push	{r4, lr}
    95d0:	e30c0350 	movw	r0, #50000	; 0xc350
    95d4:	ebffffe5 	bl	9570 <_hald_led>

000095d8 <halt_led1>:
    95d8:	e30a0e60 	movw	r0, #44640	; 0xae60
    95dc:	e92d4010 	push	{r4, lr}
    95e0:	e340000a 	movt	r0, #10
    95e4:	ebffffe1 	bl	9570 <_hald_led>

000095e8 <on_status_led>:
    95e8:	e92d4010 	push	{r4, lr}
    95ec:	e3a04000 	mov	r4, #0
    95f0:	e3434f20 	movt	r4, #16160	; 0x3f20
    95f4:	e3a03602 	mov	r3, #2097152	; 0x200000
    95f8:	e3a00ffa 	mov	r0, #1000	; 0x3e8
    95fc:	e5843010 	str	r3, [r4, #16]
    9600:	eb000633 	bl	aed4 <usleep>
    9604:	e3a03902 	mov	r3, #32768	; 0x8000
    9608:	e584302c 	str	r3, [r4, #44]	; 0x2c
    960c:	e8bd8010 	pop	{r4, pc}

00009610 <off_status_led>:
    9610:	e92d4010 	push	{r4, lr}
    9614:	e3a04000 	mov	r4, #0
    9618:	e3434f20 	movt	r4, #16160	; 0x3f20
    961c:	e3a03602 	mov	r3, #2097152	; 0x200000
    9620:	e3a00ffa 	mov	r0, #1000	; 0x3e8
    9624:	e5843010 	str	r3, [r4, #16]
    9628:	eb000629 	bl	aed4 <usleep>
    962c:	e3a03902 	mov	r3, #32768	; 0x8000
    9630:	e5843020 	str	r3, [r4, #32]
    9634:	e8bd8010 	pop	{r4, pc}

00009638 <mark_status_led>:
    9638:	e92d4070 	push	{r4, r5, r6, lr}
    963c:	e3a05000 	mov	r5, #0
    9640:	e3435f20 	movt	r5, #16160	; 0x3f20
    9644:	e3a03602 	mov	r3, #2097152	; 0x200000
    9648:	e3a00ffa 	mov	r0, #1000	; 0x3e8
    964c:	e3a0400a 	mov	r4, #10
    9650:	e5853010 	str	r3, [r5, #16]
    9654:	e3a06902 	mov	r6, #32768	; 0x8000
    9658:	eb00061d 	bl	aed4 <usleep>
    965c:	e5856020 	str	r6, [r5, #32]
    9660:	e30806a0 	movw	r0, #34464	; 0x86a0
    9664:	e3400001 	movt	r0, #1
    9668:	eb000619 	bl	aed4 <usleep>
    966c:	e585602c 	str	r6, [r5, #44]	; 0x2c
    9670:	e30806a0 	movw	r0, #34464	; 0x86a0
    9674:	e3400001 	movt	r0, #1
    9678:	eb000615 	bl	aed4 <usleep>
    967c:	e2544001 	subs	r4, r4, #1
    9680:	1afffff5 	bne	965c <mark_status_led+0x24>
    9684:	e8bd8070 	pop	{r4, r5, r6, pc}

00009688 <ArmToVc>:
    9688:	e2800103 	add	r0, r0, #-1073741824	; 0xc0000000
    968c:	e12fff1e 	bx	lr

00009690 <VcToArm>:
    9690:	e3c00103 	bic	r0, r0, #-1073741824	; 0xc0000000
    9694:	e12fff1e 	bx	lr

00009698 <mailbox_fb_getaddr>:
    9698:	e3060000 	movw	r0, #24576	; 0x6000
    969c:	e3400002 	movt	r0, #2
    96a0:	e12fff1e 	bx	lr

000096a4 <mailbox_read>:
    96a4:	e92d40f0 	push	{r4, r5, r6, r7, lr}
    96a8:	e3a04a0b 	mov	r4, #45056	; 0xb000
    96ac:	e24dd00c 	sub	sp, sp, #12
    96b0:	e3a03000 	mov	r3, #0
    96b4:	e3434f00 	movt	r4, #16128	; 0x3f00
    96b8:	e1a06000 	mov	r6, r0
    96bc:	e58d3004 	str	r3, [sp, #4]
    96c0:	e1a07004 	mov	r7, r4
    96c4:	ebffffc7 	bl	95e8 <on_status_led>
    96c8:	ebfffa76 	bl	80a8 <MemoryBarrier>
    96cc:	e5943898 	ldr	r3, [r4, #2200]	; 0x898
    96d0:	e3a00801 	mov	r0, #65536	; 0x10000
    96d4:	e3130101 	tst	r3, #1073741824	; 0x40000000
    96d8:	0a00000a 	beq	9708 <mailbox_read+0x64>
    96dc:	eb0005fc 	bl	aed4 <usleep>
    96e0:	e59d3004 	ldr	r3, [sp, #4]
    96e4:	e2833001 	add	r3, r3, #1
    96e8:	e58d3004 	str	r3, [sp, #4]
    96ec:	e59d3004 	ldr	r3, [sp, #4]
    96f0:	e3530a05 	cmp	r3, #20480	; 0x5000
    96f4:	dafffff4 	ble	96cc <mailbox_read+0x28>
    96f8:	ebffffc4 	bl	9610 <off_status_led>
    96fc:	e3a00000 	mov	r0, #0
    9700:	e28dd00c 	add	sp, sp, #12
    9704:	e8bd80f0 	pop	{r4, r5, r6, r7, pc}
    9708:	ebfffa66 	bl	80a8 <MemoryBarrier>
    970c:	e5975880 	ldr	r5, [r7, #2176]	; 0x880
    9710:	e205300f 	and	r3, r5, #15
    9714:	e1530006 	cmp	r3, r6
    9718:	1affffea 	bne	96c8 <mailbox_read+0x24>
    971c:	ebffffbb 	bl	9610 <off_status_led>
    9720:	e3c5000f 	bic	r0, r5, #15
    9724:	eafffff5 	b	9700 <mailbox_read+0x5c>

00009728 <mailbox_write>:
    9728:	e92d4070 	push	{r4, r5, r6, lr}
    972c:	e1a04000 	mov	r4, r0
    9730:	e1a05001 	mov	r5, r1
    9734:	ebfffa5b 	bl	80a8 <MemoryBarrier>
    9738:	ebffffaa 	bl	95e8 <on_status_led>
    973c:	e3a03a0b 	mov	r3, #45056	; 0xb000
    9740:	e3433f00 	movt	r3, #16128	; 0x3f00
    9744:	e5932898 	ldr	r2, [r3, #2200]	; 0x898
    9748:	e3520000 	cmp	r2, #0
    974c:	ba000008 	blt	9774 <mailbox_write+0x4c>
    9750:	ebffffae 	bl	9610 <off_status_led>
    9754:	ebfffa53 	bl	80a8 <MemoryBarrier>
    9758:	e3c5000f 	bic	r0, r5, #15
    975c:	e3a03a0b 	mov	r3, #45056	; 0xb000
    9760:	e1800004 	orr	r0, r0, r4
    9764:	e3433f00 	movt	r3, #16128	; 0x3f00
    9768:	e58308a0 	str	r0, [r3, #2208]	; 0x8a0
    976c:	e3a00000 	mov	r0, #0
    9770:	e8bd8070 	pop	{r4, r5, r6, pc}
    9774:	e1a06003 	mov	r6, r3
    9778:	e3a00801 	mov	r0, #65536	; 0x10000
    977c:	eb0005d4 	bl	aed4 <usleep>
    9780:	e5963898 	ldr	r3, [r6, #2200]	; 0x898
    9784:	e3530000 	cmp	r3, #0
    9788:	aafffff0 	bge	9750 <mailbox_write+0x28>
    978c:	eafffff9 	b	9778 <mailbox_write+0x50>

00009790 <mailbox_qpu_enable>:
    9790:	e92d41f0 	push	{r4, r5, r6, r7, r8, lr}
    9794:	e3066000 	movw	r6, #24576	; 0x6000
    9798:	e3406002 	movt	r6, #2
    979c:	e3065000 	movw	r5, #24576	; 0x6000
    97a0:	e3405002 	movt	r5, #2
    97a4:	e2866103 	add	r6, r6, #-1073741824	; 0xc0000000
    97a8:	e3082002 	movw	r2, #32770	; 0x8002
    97ac:	e3a03000 	mov	r3, #0
    97b0:	e5853100 	str	r3, [r5, #256]	; 0x100
    97b4:	e3402003 	movt	r2, #3
    97b8:	e5853104 	str	r3, [r5, #260]	; 0x104
    97bc:	e2866c01 	add	r6, r6, #256	; 0x100
    97c0:	e5852108 	str	r2, [r5, #264]	; 0x108
    97c4:	e3a04a0b 	mov	r4, #45056	; 0xb000
    97c8:	e3c6600f 	bic	r6, r6, #15
    97cc:	e3a02008 	mov	r2, #8
    97d0:	e585210c 	str	r2, [r5, #268]	; 0x10c
    97d4:	e3434f00 	movt	r4, #16128	; 0x3f00
    97d8:	e5852110 	str	r2, [r5, #272]	; 0x110
    97dc:	e30b0280 	movw	r0, #45696	; 0xb280
    97e0:	e3a01012 	mov	r1, #18
    97e4:	e3400ee6 	movt	r0, #3814	; 0xee6
    97e8:	e3401003 	movt	r1, #3
    97ec:	e3a02005 	mov	r2, #5
    97f0:	e5852114 	str	r2, [r5, #276]	; 0x114
    97f4:	e24dd008 	sub	sp, sp, #8
    97f8:	e5850118 	str	r0, [r5, #280]	; 0x118
    97fc:	e3866008 	orr	r6, r6, #8
    9800:	e585111c 	str	r1, [r5, #284]	; 0x11c
    9804:	e1a07004 	mov	r7, r4
    9808:	e3a02004 	mov	r2, #4
    980c:	e3a00001 	mov	r0, #1
    9810:	e5852120 	str	r2, [r5, #288]	; 0x120
    9814:	e3a01030 	mov	r1, #48	; 0x30
    9818:	e5852124 	str	r2, [r5, #292]	; 0x124
    981c:	e5850128 	str	r0, [r5, #296]	; 0x128
    9820:	e585312c 	str	r3, [r5, #300]	; 0x12c
    9824:	e5851100 	str	r1, [r5, #256]	; 0x100
    9828:	ebfffa1e 	bl	80a8 <MemoryBarrier>
    982c:	ebffff6d 	bl	95e8 <on_status_led>
    9830:	e5943898 	ldr	r3, [r4, #2200]	; 0x898
    9834:	e3530000 	cmp	r3, #0
    9838:	ba00001c 	blt	98b0 <mailbox_qpu_enable+0x120>
    983c:	ebffff73 	bl	9610 <off_status_led>
    9840:	ebfffa18 	bl	80a8 <MemoryBarrier>
    9844:	e58468a0 	str	r6, [r4, #2208]	; 0x8a0
    9848:	e3a03000 	mov	r3, #0
    984c:	e58d3004 	str	r3, [sp, #4]
    9850:	ebffff64 	bl	95e8 <on_status_led>
    9854:	ebfffa13 	bl	80a8 <MemoryBarrier>
    9858:	e5943898 	ldr	r3, [r4, #2200]	; 0x898
    985c:	e3a00801 	mov	r0, #65536	; 0x10000
    9860:	e3130101 	tst	r3, #1073741824	; 0x40000000
    9864:	0a000017 	beq	98c8 <mailbox_qpu_enable+0x138>
    9868:	eb000599 	bl	aed4 <usleep>
    986c:	e59d3004 	ldr	r3, [sp, #4]
    9870:	e2833001 	add	r3, r3, #1
    9874:	e58d3004 	str	r3, [sp, #4]
    9878:	e59d3004 	ldr	r3, [sp, #4]
    987c:	e3530a05 	cmp	r3, #20480	; 0x5000
    9880:	dafffff4 	ble	9858 <mailbox_qpu_enable+0xc8>
    9884:	e3068000 	movw	r8, #24576	; 0x6000
    9888:	ebffff60 	bl	9610 <off_status_led>
    988c:	e5953104 	ldr	r3, [r5, #260]	; 0x104
    9890:	e3408002 	movt	r8, #2
    9894:	e3530102 	cmp	r3, #-2147483648	; 0x80000000
    9898:	0a000010 	beq	98e0 <mailbox_qpu_enable+0x150>
    989c:	e5981104 	ldr	r1, [r8, #260]	; 0x104
    98a0:	e30c0090 	movw	r0, #49296	; 0xc090
    98a4:	e3400001 	movt	r0, #1
    98a8:	eb000282 	bl	a2b8 <uart_debug_puts>
    98ac:	eaffffdd 	b	9828 <mailbox_qpu_enable+0x98>
    98b0:	e3a00801 	mov	r0, #65536	; 0x10000
    98b4:	eb000586 	bl	aed4 <usleep>
    98b8:	e5943898 	ldr	r3, [r4, #2200]	; 0x898
    98bc:	e3530000 	cmp	r3, #0
    98c0:	aaffffdd 	bge	983c <mailbox_qpu_enable+0xac>
    98c4:	eafffff9 	b	98b0 <mailbox_qpu_enable+0x120>
    98c8:	ebfff9f6 	bl	80a8 <MemoryBarrier>
    98cc:	e5973880 	ldr	r3, [r7, #2176]	; 0x880
    98d0:	e203300f 	and	r3, r3, #15
    98d4:	e3530008 	cmp	r3, #8
    98d8:	1affffdd 	bne	9854 <mailbox_qpu_enable+0xc4>
    98dc:	eaffffe8 	b	9884 <mailbox_qpu_enable+0xf4>
    98e0:	e5981104 	ldr	r1, [r8, #260]	; 0x104
    98e4:	e30c00b4 	movw	r0, #49332	; 0xc0b4
    98e8:	e3400001 	movt	r0, #1
    98ec:	eb000271 	bl	a2b8 <uart_debug_puts>
    98f0:	e5980104 	ldr	r0, [r8, #260]	; 0x104
    98f4:	e28dd008 	add	sp, sp, #8
    98f8:	e8bd81f0 	pop	{r4, r5, r6, r7, r8, pc}

000098fc <mailbox_allocate_memory>:
    98fc:	e92d41f0 	push	{r4, r5, r6, r7, r8, lr}
    9900:	e3066000 	movw	r6, #24576	; 0x6000
    9904:	e3406002 	movt	r6, #2
    9908:	e3065000 	movw	r5, #24576	; 0x6000
    990c:	e2866103 	add	r6, r6, #-1073741824	; 0xc0000000
    9910:	e3405002 	movt	r5, #2
    9914:	e2866c01 	add	r6, r6, #256	; 0x100
    9918:	e3a04a0b 	mov	r4, #45056	; 0xb000
    991c:	e3c6600f 	bic	r6, r6, #15
    9920:	e3a0c00c 	mov	ip, #12
    9924:	e3a03000 	mov	r3, #0
    9928:	e340c003 	movt	ip, #3
    992c:	e5853100 	str	r3, [r5, #256]	; 0x100
    9930:	e3434f00 	movt	r4, #16128	; 0x3f00
    9934:	e5853104 	str	r3, [r5, #260]	; 0x104
    9938:	e24dd008 	sub	sp, sp, #8
    993c:	e585c108 	str	ip, [r5, #264]	; 0x108
    9940:	e3866008 	orr	r6, r6, #8
    9944:	e3a0c00c 	mov	ip, #12
    9948:	e1a07004 	mov	r7, r4
    994c:	e585c10c 	str	ip, [r5, #268]	; 0x10c
    9950:	e585c110 	str	ip, [r5, #272]	; 0x110
    9954:	e3a0c024 	mov	ip, #36	; 0x24
    9958:	e5850114 	str	r0, [r5, #276]	; 0x114
    995c:	e5851118 	str	r1, [r5, #280]	; 0x118
    9960:	e585211c 	str	r2, [r5, #284]	; 0x11c
    9964:	e5853120 	str	r3, [r5, #288]	; 0x120
    9968:	e585c100 	str	ip, [r5, #256]	; 0x100
    996c:	ebfff9cd 	bl	80a8 <MemoryBarrier>
    9970:	ebffff1c 	bl	95e8 <on_status_led>
    9974:	e5943898 	ldr	r3, [r4, #2200]	; 0x898
    9978:	e3530000 	cmp	r3, #0
    997c:	ba00001c 	blt	99f4 <mailbox_allocate_memory+0xf8>
    9980:	ebffff22 	bl	9610 <off_status_led>
    9984:	ebfff9c7 	bl	80a8 <MemoryBarrier>
    9988:	e58468a0 	str	r6, [r4, #2208]	; 0x8a0
    998c:	e3a03000 	mov	r3, #0
    9990:	e58d3004 	str	r3, [sp, #4]
    9994:	ebffff13 	bl	95e8 <on_status_led>
    9998:	ebfff9c2 	bl	80a8 <MemoryBarrier>
    999c:	e5943898 	ldr	r3, [r4, #2200]	; 0x898
    99a0:	e3a00801 	mov	r0, #65536	; 0x10000
    99a4:	e3130101 	tst	r3, #1073741824	; 0x40000000
    99a8:	0a000017 	beq	9a0c <mailbox_allocate_memory+0x110>
    99ac:	eb000548 	bl	aed4 <usleep>
    99b0:	e59d3004 	ldr	r3, [sp, #4]
    99b4:	e2833001 	add	r3, r3, #1
    99b8:	e58d3004 	str	r3, [sp, #4]
    99bc:	e59d3004 	ldr	r3, [sp, #4]
    99c0:	e3530a05 	cmp	r3, #20480	; 0x5000
    99c4:	dafffff4 	ble	999c <mailbox_allocate_memory+0xa0>
    99c8:	e3068000 	movw	r8, #24576	; 0x6000
    99cc:	ebffff0f 	bl	9610 <off_status_led>
    99d0:	e5953104 	ldr	r3, [r5, #260]	; 0x104
    99d4:	e3408002 	movt	r8, #2
    99d8:	e3530102 	cmp	r3, #-2147483648	; 0x80000000
    99dc:	0a000010 	beq	9a24 <mailbox_allocate_memory+0x128>
    99e0:	e5981104 	ldr	r1, [r8, #260]	; 0x104
    99e4:	e30c00cc 	movw	r0, #49356	; 0xc0cc
    99e8:	e3400001 	movt	r0, #1
    99ec:	eb000231 	bl	a2b8 <uart_debug_puts>
    99f0:	eaffffdd 	b	996c <mailbox_allocate_memory+0x70>
    99f4:	e3a00801 	mov	r0, #65536	; 0x10000
    99f8:	eb000535 	bl	aed4 <usleep>
    99fc:	e5943898 	ldr	r3, [r4, #2200]	; 0x898
    9a00:	e3530000 	cmp	r3, #0
    9a04:	aaffffdd 	bge	9980 <mailbox_allocate_memory+0x84>
    9a08:	eafffff9 	b	99f4 <mailbox_allocate_memory+0xf8>
    9a0c:	ebfff9a5 	bl	80a8 <MemoryBarrier>
    9a10:	e5973880 	ldr	r3, [r7, #2176]	; 0x880
    9a14:	e203300f 	and	r3, r3, #15
    9a18:	e3530008 	cmp	r3, #8
    9a1c:	1affffdd 	bne	9998 <mailbox_allocate_memory+0x9c>
    9a20:	eaffffe8 	b	99c8 <mailbox_allocate_memory+0xcc>
    9a24:	e5981114 	ldr	r1, [r8, #276]	; 0x114
    9a28:	e30c00f0 	movw	r0, #49392	; 0xc0f0
    9a2c:	e3400001 	movt	r0, #1
    9a30:	eb000220 	bl	a2b8 <uart_debug_puts>
    9a34:	e5980114 	ldr	r0, [r8, #276]	; 0x114
    9a38:	e28dd008 	add	sp, sp, #8
    9a3c:	e8bd81f0 	pop	{r4, r5, r6, r7, r8, pc}

00009a40 <mailbox_free_memory>:
    9a40:	e92d40f0 	push	{r4, r5, r6, r7, lr}
    9a44:	e3066000 	movw	r6, #24576	; 0x6000
    9a48:	e3406002 	movt	r6, #2
    9a4c:	e3a04a0b 	mov	r4, #45056	; 0xb000
    9a50:	e2866103 	add	r6, r6, #-1073741824	; 0xc0000000
    9a54:	e3065000 	movw	r5, #24576	; 0x6000
    9a58:	e2866c01 	add	r6, r6, #256	; 0x100
    9a5c:	e3434f00 	movt	r4, #16128	; 0x3f00
    9a60:	e3c6600f 	bic	r6, r6, #15
    9a64:	e3405002 	movt	r5, #2
    9a68:	e3a0100f 	mov	r1, #15
    9a6c:	e24dd00c 	sub	sp, sp, #12
    9a70:	e3866008 	orr	r6, r6, #8
    9a74:	e1a07004 	mov	r7, r4
    9a78:	e3a03000 	mov	r3, #0
    9a7c:	e3a02004 	mov	r2, #4
    9a80:	e5853100 	str	r3, [r5, #256]	; 0x100
    9a84:	e3401003 	movt	r1, #3
    9a88:	e5853104 	str	r3, [r5, #260]	; 0x104
    9a8c:	e3a0c01c 	mov	ip, #28
    9a90:	e5851108 	str	r1, [r5, #264]	; 0x108
    9a94:	e585210c 	str	r2, [r5, #268]	; 0x10c
    9a98:	e5852110 	str	r2, [r5, #272]	; 0x110
    9a9c:	e5850114 	str	r0, [r5, #276]	; 0x114
    9aa0:	e5853118 	str	r3, [r5, #280]	; 0x118
    9aa4:	e585c100 	str	ip, [r5, #256]	; 0x100
    9aa8:	ebfff97e 	bl	80a8 <MemoryBarrier>
    9aac:	ebfffecd 	bl	95e8 <on_status_led>
    9ab0:	e5943898 	ldr	r3, [r4, #2200]	; 0x898
    9ab4:	e3530000 	cmp	r3, #0
    9ab8:	ba00001c 	blt	9b30 <mailbox_free_memory+0xf0>
    9abc:	ebfffed3 	bl	9610 <off_status_led>
    9ac0:	ebfff978 	bl	80a8 <MemoryBarrier>
    9ac4:	e58468a0 	str	r6, [r4, #2208]	; 0x8a0
    9ac8:	e3a03000 	mov	r3, #0
    9acc:	e58d3004 	str	r3, [sp, #4]
    9ad0:	ebfffec4 	bl	95e8 <on_status_led>
    9ad4:	ebfff973 	bl	80a8 <MemoryBarrier>
    9ad8:	e5943898 	ldr	r3, [r4, #2200]	; 0x898
    9adc:	e3a00801 	mov	r0, #65536	; 0x10000
    9ae0:	e3130101 	tst	r3, #1073741824	; 0x40000000
    9ae4:	0a000017 	beq	9b48 <mailbox_free_memory+0x108>
    9ae8:	eb0004f9 	bl	aed4 <usleep>
    9aec:	e59d3004 	ldr	r3, [sp, #4]
    9af0:	e2833001 	add	r3, r3, #1
    9af4:	e58d3004 	str	r3, [sp, #4]
    9af8:	e59d3004 	ldr	r3, [sp, #4]
    9afc:	e3530a05 	cmp	r3, #20480	; 0x5000
    9b00:	dafffff4 	ble	9ad8 <mailbox_free_memory+0x98>
    9b04:	ebfffec1 	bl	9610 <off_status_led>
    9b08:	e5952104 	ldr	r2, [r5, #260]	; 0x104
    9b0c:	e3063000 	movw	r3, #24576	; 0x6000
    9b10:	e3403002 	movt	r3, #2
    9b14:	e3520102 	cmp	r2, #-2147483648	; 0x80000000
    9b18:	0a000010 	beq	9b60 <mailbox_free_memory+0x120>
    9b1c:	e5931104 	ldr	r1, [r3, #260]	; 0x104
    9b20:	e30c00cc 	movw	r0, #49356	; 0xc0cc
    9b24:	e3400001 	movt	r0, #1
    9b28:	eb0001e2 	bl	a2b8 <uart_debug_puts>
    9b2c:	eaffffdd 	b	9aa8 <mailbox_free_memory+0x68>
    9b30:	e3a00801 	mov	r0, #65536	; 0x10000
    9b34:	eb0004e6 	bl	aed4 <usleep>
    9b38:	e5943898 	ldr	r3, [r4, #2200]	; 0x898
    9b3c:	e3530000 	cmp	r3, #0
    9b40:	aaffffdd 	bge	9abc <mailbox_free_memory+0x7c>
    9b44:	eafffff9 	b	9b30 <mailbox_free_memory+0xf0>
    9b48:	ebfff956 	bl	80a8 <MemoryBarrier>
    9b4c:	e5973880 	ldr	r3, [r7, #2176]	; 0x880
    9b50:	e203300f 	and	r3, r3, #15
    9b54:	e3530008 	cmp	r3, #8
    9b58:	1affffdd 	bne	9ad4 <mailbox_free_memory+0x94>
    9b5c:	eaffffe8 	b	9b04 <mailbox_free_memory+0xc4>
    9b60:	e5930114 	ldr	r0, [r3, #276]	; 0x114
    9b64:	e28dd00c 	add	sp, sp, #12
    9b68:	e8bd80f0 	pop	{r4, r5, r6, r7, pc}

00009b6c <mailbox_lock_memory>:
    9b6c:	e92d40f0 	push	{r4, r5, r6, r7, lr}
    9b70:	e3066000 	movw	r6, #24576	; 0x6000
    9b74:	e3406002 	movt	r6, #2
    9b78:	e3a04a0b 	mov	r4, #45056	; 0xb000
    9b7c:	e2866103 	add	r6, r6, #-1073741824	; 0xc0000000
    9b80:	e3065000 	movw	r5, #24576	; 0x6000
    9b84:	e2866c01 	add	r6, r6, #256	; 0x100
    9b88:	e3434f00 	movt	r4, #16128	; 0x3f00
    9b8c:	e3c6600f 	bic	r6, r6, #15
    9b90:	e3405002 	movt	r5, #2
    9b94:	e3a0100d 	mov	r1, #13
    9b98:	e24dd00c 	sub	sp, sp, #12
    9b9c:	e3866008 	orr	r6, r6, #8
    9ba0:	e1a07004 	mov	r7, r4
    9ba4:	e3a03000 	mov	r3, #0
    9ba8:	e3a02004 	mov	r2, #4
    9bac:	e5853100 	str	r3, [r5, #256]	; 0x100
    9bb0:	e3401003 	movt	r1, #3
    9bb4:	e5853104 	str	r3, [r5, #260]	; 0x104
    9bb8:	e3a0c01c 	mov	ip, #28
    9bbc:	e5851108 	str	r1, [r5, #264]	; 0x108
    9bc0:	e585210c 	str	r2, [r5, #268]	; 0x10c
    9bc4:	e5852110 	str	r2, [r5, #272]	; 0x110
    9bc8:	e5850114 	str	r0, [r5, #276]	; 0x114
    9bcc:	e5853118 	str	r3, [r5, #280]	; 0x118
    9bd0:	e585c100 	str	ip, [r5, #256]	; 0x100
    9bd4:	ebfff933 	bl	80a8 <MemoryBarrier>
    9bd8:	ebfffe82 	bl	95e8 <on_status_led>
    9bdc:	e5943898 	ldr	r3, [r4, #2200]	; 0x898
    9be0:	e3530000 	cmp	r3, #0
    9be4:	ba00001c 	blt	9c5c <mailbox_lock_memory+0xf0>
    9be8:	ebfffe88 	bl	9610 <off_status_led>
    9bec:	ebfff92d 	bl	80a8 <MemoryBarrier>
    9bf0:	e58468a0 	str	r6, [r4, #2208]	; 0x8a0
    9bf4:	e3a03000 	mov	r3, #0
    9bf8:	e58d3004 	str	r3, [sp, #4]
    9bfc:	ebfffe79 	bl	95e8 <on_status_led>
    9c00:	ebfff928 	bl	80a8 <MemoryBarrier>
    9c04:	e5943898 	ldr	r3, [r4, #2200]	; 0x898
    9c08:	e3a00801 	mov	r0, #65536	; 0x10000
    9c0c:	e3130101 	tst	r3, #1073741824	; 0x40000000
    9c10:	0a000017 	beq	9c74 <mailbox_lock_memory+0x108>
    9c14:	eb0004ae 	bl	aed4 <usleep>
    9c18:	e59d3004 	ldr	r3, [sp, #4]
    9c1c:	e2833001 	add	r3, r3, #1
    9c20:	e58d3004 	str	r3, [sp, #4]
    9c24:	e59d3004 	ldr	r3, [sp, #4]
    9c28:	e3530a05 	cmp	r3, #20480	; 0x5000
    9c2c:	dafffff4 	ble	9c04 <mailbox_lock_memory+0x98>
    9c30:	ebfffe76 	bl	9610 <off_status_led>
    9c34:	e5952104 	ldr	r2, [r5, #260]	; 0x104
    9c38:	e3063000 	movw	r3, #24576	; 0x6000
    9c3c:	e3403002 	movt	r3, #2
    9c40:	e3520102 	cmp	r2, #-2147483648	; 0x80000000
    9c44:	0a000010 	beq	9c8c <mailbox_lock_memory+0x120>
    9c48:	e5931104 	ldr	r1, [r3, #260]	; 0x104
    9c4c:	e30c0114 	movw	r0, #49428	; 0xc114
    9c50:	e3400001 	movt	r0, #1
    9c54:	eb000197 	bl	a2b8 <uart_debug_puts>
    9c58:	eaffffdd 	b	9bd4 <mailbox_lock_memory+0x68>
    9c5c:	e3a00801 	mov	r0, #65536	; 0x10000
    9c60:	eb00049b 	bl	aed4 <usleep>
    9c64:	e5943898 	ldr	r3, [r4, #2200]	; 0x898
    9c68:	e3530000 	cmp	r3, #0
    9c6c:	aaffffdd 	bge	9be8 <mailbox_lock_memory+0x7c>
    9c70:	eafffff9 	b	9c5c <mailbox_lock_memory+0xf0>
    9c74:	ebfff90b 	bl	80a8 <MemoryBarrier>
    9c78:	e5973880 	ldr	r3, [r7, #2176]	; 0x880
    9c7c:	e203300f 	and	r3, r3, #15
    9c80:	e3530008 	cmp	r3, #8
    9c84:	1affffdd 	bne	9c00 <mailbox_lock_memory+0x94>
    9c88:	eaffffe8 	b	9c30 <mailbox_lock_memory+0xc4>
    9c8c:	e5930114 	ldr	r0, [r3, #276]	; 0x114
    9c90:	e28dd00c 	add	sp, sp, #12
    9c94:	e8bd80f0 	pop	{r4, r5, r6, r7, pc}

00009c98 <mailbox_unlock_memory>:
    9c98:	e92d40f0 	push	{r4, r5, r6, r7, lr}
    9c9c:	e3066000 	movw	r6, #24576	; 0x6000
    9ca0:	e3406002 	movt	r6, #2
    9ca4:	e3a04a0b 	mov	r4, #45056	; 0xb000
    9ca8:	e2866103 	add	r6, r6, #-1073741824	; 0xc0000000
    9cac:	e3065000 	movw	r5, #24576	; 0x6000
    9cb0:	e2866c01 	add	r6, r6, #256	; 0x100
    9cb4:	e3434f00 	movt	r4, #16128	; 0x3f00
    9cb8:	e3c6600f 	bic	r6, r6, #15
    9cbc:	e3405002 	movt	r5, #2
    9cc0:	e3a0100e 	mov	r1, #14
    9cc4:	e24dd00c 	sub	sp, sp, #12
    9cc8:	e3866008 	orr	r6, r6, #8
    9ccc:	e1a07004 	mov	r7, r4
    9cd0:	e3a03000 	mov	r3, #0
    9cd4:	e3a02004 	mov	r2, #4
    9cd8:	e5853100 	str	r3, [r5, #256]	; 0x100
    9cdc:	e3401003 	movt	r1, #3
    9ce0:	e5853104 	str	r3, [r5, #260]	; 0x104
    9ce4:	e3a0c01c 	mov	ip, #28
    9ce8:	e5851108 	str	r1, [r5, #264]	; 0x108
    9cec:	e585210c 	str	r2, [r5, #268]	; 0x10c
    9cf0:	e5852110 	str	r2, [r5, #272]	; 0x110
    9cf4:	e5850114 	str	r0, [r5, #276]	; 0x114
    9cf8:	e5853118 	str	r3, [r5, #280]	; 0x118
    9cfc:	e585c100 	str	ip, [r5, #256]	; 0x100
    9d00:	ebfff8e8 	bl	80a8 <MemoryBarrier>
    9d04:	ebfffe37 	bl	95e8 <on_status_led>
    9d08:	e5943898 	ldr	r3, [r4, #2200]	; 0x898
    9d0c:	e3530000 	cmp	r3, #0
    9d10:	ba00001c 	blt	9d88 <mailbox_unlock_memory+0xf0>
    9d14:	ebfffe3d 	bl	9610 <off_status_led>
    9d18:	ebfff8e2 	bl	80a8 <MemoryBarrier>
    9d1c:	e58468a0 	str	r6, [r4, #2208]	; 0x8a0
    9d20:	e3a03000 	mov	r3, #0
    9d24:	e58d3004 	str	r3, [sp, #4]
    9d28:	ebfffe2e 	bl	95e8 <on_status_led>
    9d2c:	ebfff8dd 	bl	80a8 <MemoryBarrier>
    9d30:	e5943898 	ldr	r3, [r4, #2200]	; 0x898
    9d34:	e3a00801 	mov	r0, #65536	; 0x10000
    9d38:	e3130101 	tst	r3, #1073741824	; 0x40000000
    9d3c:	0a000017 	beq	9da0 <mailbox_unlock_memory+0x108>
    9d40:	eb000463 	bl	aed4 <usleep>
    9d44:	e59d3004 	ldr	r3, [sp, #4]
    9d48:	e2833001 	add	r3, r3, #1
    9d4c:	e58d3004 	str	r3, [sp, #4]
    9d50:	e59d3004 	ldr	r3, [sp, #4]
    9d54:	e3530a05 	cmp	r3, #20480	; 0x5000
    9d58:	dafffff4 	ble	9d30 <mailbox_unlock_memory+0x98>
    9d5c:	ebfffe2b 	bl	9610 <off_status_led>
    9d60:	e5952104 	ldr	r2, [r5, #260]	; 0x104
    9d64:	e3063000 	movw	r3, #24576	; 0x6000
    9d68:	e3403002 	movt	r3, #2
    9d6c:	e3520102 	cmp	r2, #-2147483648	; 0x80000000
    9d70:	0a000010 	beq	9db8 <mailbox_unlock_memory+0x120>
    9d74:	e5931104 	ldr	r1, [r3, #260]	; 0x104
    9d78:	e30c00cc 	movw	r0, #49356	; 0xc0cc
    9d7c:	e3400001 	movt	r0, #1
    9d80:	eb00014c 	bl	a2b8 <uart_debug_puts>
    9d84:	eaffffdd 	b	9d00 <mailbox_unlock_memory+0x68>
    9d88:	e3a00801 	mov	r0, #65536	; 0x10000
    9d8c:	eb000450 	bl	aed4 <usleep>
    9d90:	e5943898 	ldr	r3, [r4, #2200]	; 0x898
    9d94:	e3530000 	cmp	r3, #0
    9d98:	aaffffdd 	bge	9d14 <mailbox_unlock_memory+0x7c>
    9d9c:	eafffff9 	b	9d88 <mailbox_unlock_memory+0xf0>
    9da0:	ebfff8c0 	bl	80a8 <MemoryBarrier>
    9da4:	e5973880 	ldr	r3, [r7, #2176]	; 0x880
    9da8:	e203300f 	and	r3, r3, #15
    9dac:	e3530008 	cmp	r3, #8
    9db0:	1affffdd 	bne	9d2c <mailbox_unlock_memory+0x94>
    9db4:	eaffffe8 	b	9d5c <mailbox_unlock_memory+0xc4>
    9db8:	e5930114 	ldr	r0, [r3, #276]	; 0x114
    9dbc:	e28dd00c 	add	sp, sp, #12
    9dc0:	e8bd80f0 	pop	{r4, r5, r6, r7, pc}

00009dc4 <mailbox_fb_init>:
    9dc4:	e92d41f0 	push	{r4, r5, r6, r7, r8, lr}
    9dc8:	e3066000 	movw	r6, #24576	; 0x6000
    9dcc:	e3406002 	movt	r6, #2
    9dd0:	e3a04a0b 	mov	r4, #45056	; 0xb000
    9dd4:	e2867103 	add	r7, r6, #-1073741824	; 0xc0000000
    9dd8:	e3a03000 	mov	r3, #0
    9ddc:	e5860000 	str	r0, [r6]
    9de0:	e3434f00 	movt	r4, #16128	; 0x3f00
    9de4:	e5861004 	str	r1, [r6, #4]
    9de8:	e24dd008 	sub	sp, sp, #8
    9dec:	e5962000 	ldr	r2, [r6]
    9df0:	e1a05003 	mov	r5, r3
    9df4:	e3c7700f 	bic	r7, r7, #15
    9df8:	e1a08004 	mov	r8, r4
    9dfc:	e5862008 	str	r2, [r6, #8]
    9e00:	e3877001 	orr	r7, r7, #1
    9e04:	e5962004 	ldr	r2, [r6, #4]
    9e08:	e586200c 	str	r2, [r6, #12]
    9e0c:	e3a02020 	mov	r2, #32
    9e10:	e5863010 	str	r3, [r6, #16]
    9e14:	e5862014 	str	r2, [r6, #20]
    9e18:	e5863018 	str	r3, [r6, #24]
    9e1c:	e586301c 	str	r3, [r6, #28]
    9e20:	e5863020 	str	r3, [r6, #32]
    9e24:	e5863024 	str	r3, [r6, #36]	; 0x24
    9e28:	e5863028 	str	r3, [r6, #40]	; 0x28
    9e2c:	ebfff89d 	bl	80a8 <MemoryBarrier>
    9e30:	ebfffdec 	bl	95e8 <on_status_led>
    9e34:	e5943898 	ldr	r3, [r4, #2200]	; 0x898
    9e38:	e3530000 	cmp	r3, #0
    9e3c:	ba000022 	blt	9ecc <mailbox_fb_init+0x108>
    9e40:	ebfffdf2 	bl	9610 <off_status_led>
    9e44:	ebfff897 	bl	80a8 <MemoryBarrier>
    9e48:	e58478a0 	str	r7, [r4, #2208]	; 0x8a0
    9e4c:	e3a03000 	mov	r3, #0
    9e50:	e58d3004 	str	r3, [sp, #4]
    9e54:	ebfffde3 	bl	95e8 <on_status_led>
    9e58:	ebfff892 	bl	80a8 <MemoryBarrier>
    9e5c:	e5943898 	ldr	r3, [r4, #2200]	; 0x898
    9e60:	e3a00801 	mov	r0, #65536	; 0x10000
    9e64:	e3130101 	tst	r3, #1073741824	; 0x40000000
    9e68:	0a00001f 	beq	9eec <mailbox_fb_init+0x128>
    9e6c:	eb000418 	bl	aed4 <usleep>
    9e70:	e59d3004 	ldr	r3, [sp, #4]
    9e74:	e2833001 	add	r3, r3, #1
    9e78:	e58d3004 	str	r3, [sp, #4]
    9e7c:	e59d3004 	ldr	r3, [sp, #4]
    9e80:	e3530a05 	cmp	r3, #20480	; 0x5000
    9e84:	dafffff4 	ble	9e5c <mailbox_fb_init+0x98>
    9e88:	ebfffde0 	bl	9610 <off_status_led>
    9e8c:	e5962020 	ldr	r2, [r6, #32]
    9e90:	e3063000 	movw	r3, #24576	; 0x6000
    9e94:	e3403002 	movt	r3, #2
    9e98:	e3520000 	cmp	r2, #0
    9e9c:	1a000018 	bne	9f04 <mailbox_fb_init+0x140>
    9ea0:	e3150001 	tst	r5, #1
    9ea4:	0a00000e 	beq	9ee4 <mailbox_fb_init+0x120>
    9ea8:	ebfffdce 	bl	95e8 <on_status_led>
    9eac:	e3a00a01 	mov	r0, #4096	; 0x1000
    9eb0:	e2855001 	add	r5, r5, #1
    9eb4:	eb000406 	bl	aed4 <usleep>
    9eb8:	e30c0138 	movw	r0, #49464	; 0xc138
    9ebc:	e1a01005 	mov	r1, r5
    9ec0:	e3400001 	movt	r0, #1
    9ec4:	eb0000fb 	bl	a2b8 <uart_debug_puts>
    9ec8:	eaffffd7 	b	9e2c <mailbox_fb_init+0x68>
    9ecc:	e3a00801 	mov	r0, #65536	; 0x10000
    9ed0:	eb0003ff 	bl	aed4 <usleep>
    9ed4:	e5943898 	ldr	r3, [r4, #2200]	; 0x898
    9ed8:	e3530000 	cmp	r3, #0
    9edc:	aaffffd7 	bge	9e40 <mailbox_fb_init+0x7c>
    9ee0:	eafffff9 	b	9ecc <mailbox_fb_init+0x108>
    9ee4:	ebfffdc9 	bl	9610 <off_status_led>
    9ee8:	eaffffef 	b	9eac <mailbox_fb_init+0xe8>
    9eec:	ebfff86d 	bl	80a8 <MemoryBarrier>
    9ef0:	e5983880 	ldr	r3, [r8, #2176]	; 0x880
    9ef4:	e203300f 	and	r3, r3, #15
    9ef8:	e3530001 	cmp	r3, #1
    9efc:	1affffd5 	bne	9e58 <mailbox_fb_init+0x94>
    9f00:	eaffffe0 	b	9e88 <mailbox_fb_init+0xc4>
    9f04:	e5931020 	ldr	r1, [r3, #32]
    9f08:	e3a0c001 	mov	ip, #1
    9f0c:	e5932020 	ldr	r2, [r3, #32]
    9f10:	e3a00000 	mov	r0, #0
    9f14:	e583c500 	str	ip, [r3, #1280]	; 0x500
    9f18:	e3c22103 	bic	r2, r2, #-1073741824	; 0xc0000000
    9f1c:	e5832020 	str	r2, [r3, #32]
    9f20:	e5831028 	str	r1, [r3, #40]	; 0x28
    9f24:	e28dd008 	add	sp, sp, #8
    9f28:	e8bd81f0 	pop	{r4, r5, r6, r7, r8, pc}

00009f2c <mailbox_fb_test>:
    9f2c:	e92d4070 	push	{r4, r5, r6, lr}
    9f30:	e3a01e2d 	mov	r1, #720	; 0x2d0
    9f34:	e1a04000 	mov	r4, r0
    9f38:	e3a00c05 	mov	r0, #1280	; 0x500
    9f3c:	ebffffa0 	bl	9dc4 <mailbox_fb_init>
    9f40:	e3063000 	movw	r3, #24576	; 0x6000
    9f44:	e3403002 	movt	r3, #2
    9f48:	e5932500 	ldr	r2, [r3, #1280]	; 0x500
    9f4c:	e3520000 	cmp	r2, #0
    9f50:	0a00001b 	beq	9fc4 <mailbox_fb_test+0x98>
    9f54:	e593e504 	ldr	lr, [r3, #1284]	; 0x504
    9f58:	e3a00501 	mov	r0, #4194304	; 0x400000
    9f5c:	e5906020 	ldr	r6, [r0, #32]
    9f60:	e28ee001 	add	lr, lr, #1
    9f64:	e583e504 	str	lr, [r3, #1284]	; 0x504
    9f68:	e5903004 	ldr	r3, [r0, #4]
    9f6c:	e3530000 	cmp	r3, #0
    9f70:	13a0c000 	movne	ip, #0
    9f74:	0a000012 	beq	9fc4 <mailbox_fb_test+0x98>
    9f78:	e5903000 	ldr	r3, [r0]
    9f7c:	e3530000 	cmp	r3, #0
    9f80:	0a00000b 	beq	9fb4 <mailbox_fb_test+0x88>
    9f84:	e08c500e 	add	r5, ip, lr
    9f88:	e3a02000 	mov	r2, #0
    9f8c:	e5901000 	ldr	r1, [r0]
    9f90:	e082300e 	add	r3, r2, lr
    9f94:	e0233005 	eor	r3, r3, r5
    9f98:	e021219c 	mla	r1, ip, r1, r2
    9f9c:	e1a03413 	lsl	r3, r3, r4
    9fa0:	e2822001 	add	r2, r2, #1
    9fa4:	e7863101 	str	r3, [r6, r1, lsl #2]
    9fa8:	e5903000 	ldr	r3, [r0]
    9fac:	e1530002 	cmp	r3, r2
    9fb0:	8afffff5 	bhi	9f8c <mailbox_fb_test+0x60>
    9fb4:	e5903004 	ldr	r3, [r0, #4]
    9fb8:	e28cc001 	add	ip, ip, #1
    9fbc:	e153000c 	cmp	r3, ip
    9fc0:	8affffec 	bhi	9f78 <mailbox_fb_test+0x4c>
    9fc4:	e3a00000 	mov	r0, #0
    9fc8:	e8bd8070 	pop	{r4, r5, r6, pc}

00009fcc <mailbox_fb_ptr>:
    9fcc:	e3063000 	movw	r3, #24576	; 0x6000
    9fd0:	e3403002 	movt	r3, #2
    9fd4:	e5930500 	ldr	r0, [r3, #1280]	; 0x500
    9fd8:	e3500000 	cmp	r0, #0
    9fdc:	15930020 	ldrne	r0, [r3, #32]
    9fe0:	e12fff1e 	bx	lr

00009fe4 <mailbox_fb_set_pixel>:
    9fe4:	e3063000 	movw	r3, #24576	; 0x6000
    9fe8:	e3403002 	movt	r3, #2
    9fec:	e593c500 	ldr	ip, [r3, #1280]	; 0x500
    9ff0:	e35c0000 	cmp	ip, #0
    9ff4:	012fff1e 	bxeq	lr
    9ff8:	e191c002 	orrs	ip, r1, r2
    9ffc:	412fff1e 	bxmi	lr
    a000:	e593c000 	ldr	ip, [r3]
    a004:	e15c0001 	cmp	ip, r1
    a008:	912fff1e 	bxls	lr
    a00c:	e593c004 	ldr	ip, [r3, #4]
    a010:	e15c0002 	cmp	ip, r2
    a014:	8593c000 	ldrhi	ip, [r3]
    a018:	85933020 	ldrhi	r3, [r3, #32]
    a01c:	8022129c 	mlahi	r2, ip, r2, r1
    a020:	87830102 	strhi	r0, [r3, r2, lsl #2]
    a024:	e12fff1e 	bx	lr

0000a028 <_fsqrt>:
    a028:	ed900a00 	vldr	s0, [r0]
    a02c:	eeb10ac0 	vsqrt.f32	s0, s0
    a030:	ee100a10 	vmov	r0, s0
    a034:	e1a0f00e 	mov	pc, lr

0000a038 <uart_init>:
    a038:	e3a03a01 	mov	r3, #4096	; 0x1000
    a03c:	e3a02000 	mov	r2, #0
    a040:	e3433f20 	movt	r3, #16160	; 0x3f20
    a044:	e3432f20 	movt	r2, #16160	; 0x3f20
    a048:	e3a01000 	mov	r1, #0
    a04c:	e3a00903 	mov	r0, #49152	; 0xc000
    a050:	e92d4010 	push	{r4, lr}
    a054:	e3a0c028 	mov	ip, #40	; 0x28
    a058:	e5831030 	str	r1, [r3, #48]	; 0x30
    a05c:	e30047ff 	movw	r4, #2047	; 0x7ff
    a060:	e5821094 	str	r1, [r2, #148]	; 0x94
    a064:	e3a0e001 	mov	lr, #1
    a068:	e5820098 	str	r0, [r2, #152]	; 0x98
    a06c:	e3a00070 	mov	r0, #112	; 0x70
    a070:	e5821098 	str	r1, [r2, #152]	; 0x98
    a074:	e30017f2 	movw	r1, #2034	; 0x7f2
    a078:	e5834044 	str	r4, [r3, #68]	; 0x44
    a07c:	e3002301 	movw	r2, #769	; 0x301
    a080:	e583e024 	str	lr, [r3, #36]	; 0x24
    a084:	e583c028 	str	ip, [r3, #40]	; 0x28
    a088:	e583002c 	str	r0, [r3, #44]	; 0x2c
    a08c:	e5831038 	str	r1, [r3, #56]	; 0x38
    a090:	e5832030 	str	r2, [r3, #48]	; 0x30
    a094:	e8bd8010 	pop	{r4, pc}

0000a098 <uart_putc>:
    a098:	e3a01a01 	mov	r1, #4096	; 0x1000
    a09c:	e3431f20 	movt	r1, #16160	; 0x3f20
    a0a0:	e5912018 	ldr	r2, [r1, #24]
    a0a4:	e3a03a01 	mov	r3, #4096	; 0x1000
    a0a8:	e3433f20 	movt	r3, #16160	; 0x3f20
    a0ac:	e3120020 	tst	r2, #32
    a0b0:	1afffffa 	bne	a0a0 <uart_putc+0x8>
    a0b4:	e5830000 	str	r0, [r3]
    a0b8:	e12fff1e 	bx	lr

0000a0bc <uart_getc>:
    a0bc:	e3a03a01 	mov	r3, #4096	; 0x1000
    a0c0:	e3433f20 	movt	r3, #16160	; 0x3f20
    a0c4:	e5930018 	ldr	r0, [r3, #24]
    a0c8:	e2100010 	ands	r0, r0, #16
    a0cc:	15930000 	ldrne	r0, [r3]
    a0d0:	16ef0070 	uxtbne	r0, r0
    a0d4:	e12fff1e 	bx	lr

0000a0d8 <uart_puts>:
    a0d8:	e5d01000 	ldrb	r1, [r0]
    a0dc:	e3510000 	cmp	r1, #0
    a0e0:	012fff1e 	bxeq	lr
    a0e4:	e3a02a01 	mov	r2, #4096	; 0x1000
    a0e8:	e3432f20 	movt	r2, #16160	; 0x3f20
    a0ec:	e52de004 	push	{lr}		; (str lr, [sp, #-4]!)
    a0f0:	e1a0c002 	mov	ip, r2
    a0f4:	e3a0e00d 	mov	lr, #13
    a0f8:	e5923018 	ldr	r3, [r2, #24]
    a0fc:	e3130020 	tst	r3, #32
    a100:	1afffffc 	bne	a0f8 <uart_puts+0x20>
    a104:	e58c1000 	str	r1, [ip]
    a108:	e5d03000 	ldrb	r3, [r0]
    a10c:	e353000a 	cmp	r3, #10
    a110:	0a000003 	beq	a124 <uart_puts+0x4c>
    a114:	e5f01001 	ldrb	r1, [r0, #1]!
    a118:	e3510000 	cmp	r1, #0
    a11c:	1afffff5 	bne	a0f8 <uart_puts+0x20>
    a120:	e49df004 	pop	{pc}		; (ldr pc, [sp], #4)
    a124:	e5923018 	ldr	r3, [r2, #24]
    a128:	e3130020 	tst	r3, #32
    a12c:	1afffffc 	bne	a124 <uart_puts+0x4c>
    a130:	e58ce000 	str	lr, [ip]
    a134:	eafffff6 	b	a114 <uart_puts+0x3c>

0000a138 <uart_char_putc>:
    a138:	e30dc008 	movw	ip, #53256	; 0xd008
    a13c:	e3a01a01 	mov	r1, #4096	; 0x1000
    a140:	e340c001 	movt	ip, #1
    a144:	e3431f20 	movt	r1, #16160	; 0x3f20
    a148:	e52de004 	push	{lr}		; (str lr, [sp, #-4]!)
    a14c:	e7dce220 	ldrb	lr, [ip, r0, lsr #4]
    a150:	e5912018 	ldr	r2, [r1, #24]
    a154:	e3a03a01 	mov	r3, #4096	; 0x1000
    a158:	e3433f20 	movt	r3, #16160	; 0x3f20
    a15c:	e3120020 	tst	r2, #32
    a160:	1afffffa 	bne	a150 <uart_char_putc+0x18>
    a164:	e583e000 	str	lr, [r3]
    a168:	e200000f 	and	r0, r0, #15
    a16c:	e7dc0000 	ldrb	r0, [ip, r0]
    a170:	e5931018 	ldr	r1, [r3, #24]
    a174:	e3a02a01 	mov	r2, #4096	; 0x1000
    a178:	e3432f20 	movt	r2, #16160	; 0x3f20
    a17c:	e3110020 	tst	r1, #32
    a180:	1afffffa 	bne	a170 <uart_char_putc+0x38>
    a184:	e5820000 	str	r0, [r2]
    a188:	e49df004 	pop	{pc}		; (ldr pc, [sp], #4)

0000a18c <uart_put_dword>:
    a18c:	e30d1008 	movw	r1, #53256	; 0xd008
    a190:	e3a0ca01 	mov	ip, #4096	; 0x1000
    a194:	e3401001 	movt	r1, #1
    a198:	e343cf20 	movt	ip, #16160	; 0x3f20
    a19c:	e52de004 	push	{lr}		; (str lr, [sp, #-4]!)
    a1a0:	e7d1ee20 	ldrb	lr, [r1, r0, lsr #28]
    a1a4:	e59c2018 	ldr	r2, [ip, #24]
    a1a8:	e3a03a01 	mov	r3, #4096	; 0x1000
    a1ac:	e3433f20 	movt	r3, #16160	; 0x3f20
    a1b0:	e3120020 	tst	r2, #32
    a1b4:	1afffffa 	bne	a1a4 <uart_put_dword+0x18>
    a1b8:	e7e32c50 	ubfx	r2, r0, #24, #4
    a1bc:	e1a0c003 	mov	ip, r3
    a1c0:	e583e000 	str	lr, [r3]
    a1c4:	e7d1e002 	ldrb	lr, [r1, r2]
    a1c8:	e59c2018 	ldr	r2, [ip, #24]
    a1cc:	e3a03a01 	mov	r3, #4096	; 0x1000
    a1d0:	e3433f20 	movt	r3, #16160	; 0x3f20
    a1d4:	e3120020 	tst	r2, #32
    a1d8:	1afffffa 	bne	a1c8 <uart_put_dword+0x3c>
    a1dc:	e7e32a50 	ubfx	r2, r0, #20, #4
    a1e0:	e1a0c003 	mov	ip, r3
    a1e4:	e583e000 	str	lr, [r3]
    a1e8:	e7d1e002 	ldrb	lr, [r1, r2]
    a1ec:	e59c2018 	ldr	r2, [ip, #24]
    a1f0:	e3a03a01 	mov	r3, #4096	; 0x1000
    a1f4:	e3433f20 	movt	r3, #16160	; 0x3f20
    a1f8:	e3120020 	tst	r2, #32
    a1fc:	1afffffa 	bne	a1ec <uart_put_dword+0x60>
    a200:	e7e32850 	ubfx	r2, r0, #16, #4
    a204:	e1a0c003 	mov	ip, r3
    a208:	e583e000 	str	lr, [r3]
    a20c:	e7d1e002 	ldrb	lr, [r1, r2]
    a210:	e59c2018 	ldr	r2, [ip, #24]
    a214:	e3a03a01 	mov	r3, #4096	; 0x1000
    a218:	e3433f20 	movt	r3, #16160	; 0x3f20
    a21c:	e3120020 	tst	r2, #32
    a220:	1afffffa 	bne	a210 <uart_put_dword+0x84>
    a224:	e7e32650 	ubfx	r2, r0, #12, #4
    a228:	e1a0c003 	mov	ip, r3
    a22c:	e583e000 	str	lr, [r3]
    a230:	e7d1e002 	ldrb	lr, [r1, r2]
    a234:	e59c2018 	ldr	r2, [ip, #24]
    a238:	e3a03a01 	mov	r3, #4096	; 0x1000
    a23c:	e3433f20 	movt	r3, #16160	; 0x3f20
    a240:	e3120020 	tst	r2, #32
    a244:	1afffffa 	bne	a234 <uart_put_dword+0xa8>
    a248:	e7e32450 	ubfx	r2, r0, #8, #4
    a24c:	e1a0c003 	mov	ip, r3
    a250:	e583e000 	str	lr, [r3]
    a254:	e7d1e002 	ldrb	lr, [r1, r2]
    a258:	e59c2018 	ldr	r2, [ip, #24]
    a25c:	e3a03a01 	mov	r3, #4096	; 0x1000
    a260:	e3433f20 	movt	r3, #16160	; 0x3f20
    a264:	e3120020 	tst	r2, #32
    a268:	1afffffa 	bne	a258 <uart_put_dword+0xcc>
    a26c:	e7e32250 	ubfx	r2, r0, #4, #4
    a270:	e1a0c003 	mov	ip, r3
    a274:	e583e000 	str	lr, [r3]
    a278:	e7d1e002 	ldrb	lr, [r1, r2]
    a27c:	e59c2018 	ldr	r2, [ip, #24]
    a280:	e3a03a01 	mov	r3, #4096	; 0x1000
    a284:	e3433f20 	movt	r3, #16160	; 0x3f20
    a288:	e3120020 	tst	r2, #32
    a28c:	1afffffa 	bne	a27c <uart_put_dword+0xf0>
    a290:	e583e000 	str	lr, [r3]
    a294:	e200000f 	and	r0, r0, #15
    a298:	e7d10000 	ldrb	r0, [r1, r0]
    a29c:	e5931018 	ldr	r1, [r3, #24]
    a2a0:	e3a02a01 	mov	r2, #4096	; 0x1000
    a2a4:	e3432f20 	movt	r2, #16160	; 0x3f20
    a2a8:	e3110020 	tst	r1, #32
    a2ac:	1afffffa 	bne	a29c <uart_put_dword+0x110>
    a2b0:	e5820000 	str	r0, [r2]
    a2b4:	e49df004 	pop	{pc}		; (ldr pc, [sp], #4)

0000a2b8 <uart_debug_puts>:
    a2b8:	e5d03000 	ldrb	r3, [r0]
    a2bc:	e3530000 	cmp	r3, #0
    a2c0:	012fff1e 	bxeq	lr
    a2c4:	e92d41f0 	push	{r4, r5, r6, r7, r8, lr}
    a2c8:	e3a04a01 	mov	r4, #4096	; 0x1000
    a2cc:	e3434f20 	movt	r4, #16160	; 0x3f20
    a2d0:	e1a07000 	mov	r7, r0
    a2d4:	e1a06001 	mov	r6, r1
    a2d8:	e3a05020 	mov	r5, #32
    a2dc:	e1a08004 	mov	r8, r4
    a2e0:	e353000a 	cmp	r3, #10
    a2e4:	11a02003 	movne	r2, r3
    a2e8:	0a000007 	beq	a30c <uart_debug_puts+0x54>
    a2ec:	e5943018 	ldr	r3, [r4, #24]
    a2f0:	e3130020 	tst	r3, #32
    a2f4:	1afffffc 	bne	a2ec <uart_debug_puts+0x34>
    a2f8:	e5882000 	str	r2, [r8]
    a2fc:	e5f73001 	ldrb	r3, [r7, #1]!
    a300:	e3530000 	cmp	r3, #0
    a304:	1afffff5 	bne	a2e0 <uart_debug_puts+0x28>
    a308:	e8bd81f0 	pop	{r4, r5, r6, r7, r8, pc}
    a30c:	e5943018 	ldr	r3, [r4, #24]
    a310:	e3130020 	tst	r3, #32
    a314:	1afffffc 	bne	a30c <uart_debug_puts+0x54>
    a318:	e5885000 	str	r5, [r8]
    a31c:	e1a00006 	mov	r0, r6
    a320:	ebffff99 	bl	a18c <uart_put_dword>
    a324:	e5943018 	ldr	r3, [r4, #24]
    a328:	e3130020 	tst	r3, #32
    a32c:	1afffffc 	bne	a324 <uart_debug_puts+0x6c>
    a330:	e3a0300d 	mov	r3, #13
    a334:	e5883000 	str	r3, [r8]
    a338:	e5d72000 	ldrb	r2, [r7]
    a33c:	eaffffea 	b	a2ec <uart_debug_puts+0x34>

0000a340 <uart_dump>:
    a340:	e92d47f0 	push	{r4, r5, r6, r7, r8, r9, sl, lr}
    a344:	e2106003 	ands	r6, r0, #3
    a348:	18bd87f0 	popne	{r4, r5, r6, r7, r8, r9, sl, pc}
    a34c:	e1b07121 	lsrs	r7, r1, #2
    a350:	0a00000f 	beq	a394 <uart_dump+0x54>
    a354:	e3a04a01 	mov	r4, #4096	; 0x1000
    a358:	e1a05000 	mov	r5, r0
    a35c:	e3434f20 	movt	r4, #16160	; 0x3f20
    a360:	e1a08004 	mov	r8, r4
    a364:	e3160003 	tst	r6, #3
    a368:	0a00002b 	beq	a41c <uart_dump+0xdc>
    a36c:	e4950004 	ldr	r0, [r5], #4
    a370:	ebffff85 	bl	a18c <uart_put_dword>
    a374:	e5943018 	ldr	r3, [r4, #24]
    a378:	e3130020 	tst	r3, #32
    a37c:	1afffffc 	bne	a374 <uart_dump+0x34>
    a380:	e2866001 	add	r6, r6, #1
    a384:	e3a03020 	mov	r3, #32
    a388:	e1570006 	cmp	r7, r6
    a38c:	e5883000 	str	r3, [r8]
    a390:	1afffff3 	bne	a364 <uart_dump+0x24>
    a394:	e3a01a01 	mov	r1, #4096	; 0x1000
    a398:	e3431f20 	movt	r1, #16160	; 0x3f20
    a39c:	e5912018 	ldr	r2, [r1, #24]
    a3a0:	e3a03a01 	mov	r3, #4096	; 0x1000
    a3a4:	e3433f20 	movt	r3, #16160	; 0x3f20
    a3a8:	e3120020 	tst	r2, #32
    a3ac:	1afffffa 	bne	a39c <uart_dump+0x5c>
    a3b0:	e1a01003 	mov	r1, r3
    a3b4:	e3a0200a 	mov	r2, #10
    a3b8:	e5832000 	str	r2, [r3]
    a3bc:	e5912018 	ldr	r2, [r1, #24]
    a3c0:	e3a03a01 	mov	r3, #4096	; 0x1000
    a3c4:	e3433f20 	movt	r3, #16160	; 0x3f20
    a3c8:	e3120020 	tst	r2, #32
    a3cc:	1afffffa 	bne	a3bc <uart_dump+0x7c>
    a3d0:	e1a01003 	mov	r1, r3
    a3d4:	e3a0200d 	mov	r2, #13
    a3d8:	e5832000 	str	r2, [r3]
    a3dc:	e5912018 	ldr	r2, [r1, #24]
    a3e0:	e3a03a01 	mov	r3, #4096	; 0x1000
    a3e4:	e3433f20 	movt	r3, #16160	; 0x3f20
    a3e8:	e3120020 	tst	r2, #32
    a3ec:	1afffffa 	bne	a3dc <uart_dump+0x9c>
    a3f0:	e1a01003 	mov	r1, r3
    a3f4:	e3a0200a 	mov	r2, #10
    a3f8:	e5832000 	str	r2, [r3]
    a3fc:	e5912018 	ldr	r2, [r1, #24]
    a400:	e3a03a01 	mov	r3, #4096	; 0x1000
    a404:	e3433f20 	movt	r3, #16160	; 0x3f20
    a408:	e3120020 	tst	r2, #32
    a40c:	1afffffa 	bne	a3fc <uart_dump+0xbc>
    a410:	e3a0200d 	mov	r2, #13
    a414:	e5832000 	str	r2, [r3]
    a418:	e8bd87f0 	pop	{r4, r5, r6, r7, r8, r9, sl, pc}
    a41c:	e5943018 	ldr	r3, [r4, #24]
    a420:	e3130020 	tst	r3, #32
    a424:	1afffffc 	bne	a41c <uart_dump+0xdc>
    a428:	e3a0300a 	mov	r3, #10
    a42c:	e5883000 	str	r3, [r8]
    a430:	e5943018 	ldr	r3, [r4, #24]
    a434:	e3130020 	tst	r3, #32
    a438:	1afffffc 	bne	a430 <uart_dump+0xf0>
    a43c:	e3a0900d 	mov	r9, #13
    a440:	e1a00005 	mov	r0, r5
    a444:	e5889000 	str	r9, [r8]
    a448:	ebffff4f 	bl	a18c <uart_put_dword>
    a44c:	e30c2154 	movw	r2, #49492	; 0xc154
    a450:	e3a01020 	mov	r1, #32
    a454:	e3402001 	movt	r2, #1
    a458:	e5943018 	ldr	r3, [r4, #24]
    a45c:	e3130020 	tst	r3, #32
    a460:	1afffffc 	bne	a458 <uart_dump+0x118>
    a464:	e5881000 	str	r1, [r8]
    a468:	e5d23000 	ldrb	r3, [r2]
    a46c:	e353000a 	cmp	r3, #10
    a470:	0a000003 	beq	a484 <uart_dump+0x144>
    a474:	e5f21001 	ldrb	r1, [r2, #1]!
    a478:	e3510000 	cmp	r1, #0
    a47c:	1afffff5 	bne	a458 <uart_dump+0x118>
    a480:	eaffffb9 	b	a36c <uart_dump+0x2c>
    a484:	e5943018 	ldr	r3, [r4, #24]
    a488:	e3130020 	tst	r3, #32
    a48c:	1afffffc 	bne	a484 <uart_dump+0x144>
    a490:	e5889000 	str	r9, [r8]
    a494:	eafffff6 	b	a474 <uart_dump+0x134>

0000a498 <uart_bytedump>:
    a498:	e3510000 	cmp	r1, #0
    a49c:	e92d47f0 	push	{r4, r5, r6, r7, r8, r9, sl, lr}
    a4a0:	0a00001d 	beq	a51c <uart_bytedump+0x84>
    a4a4:	e3a04a01 	mov	r4, #4096	; 0x1000
    a4a8:	e30d7008 	movw	r7, #53256	; 0xd008
    a4ac:	e3434f20 	movt	r4, #16160	; 0x3f20
    a4b0:	e1a08001 	mov	r8, r1
    a4b4:	e1a05000 	mov	r5, r0
    a4b8:	e1a09004 	mov	r9, r4
    a4bc:	e3407001 	movt	r7, #1
    a4c0:	e3a06000 	mov	r6, #0
    a4c4:	e316000f 	tst	r6, #15
    a4c8:	0a000035 	beq	a5a4 <uart_bytedump+0x10c>
    a4cc:	e4d52001 	ldrb	r2, [r5], #1
    a4d0:	e7d71222 	ldrb	r1, [r7, r2, lsr #4]
    a4d4:	e5943018 	ldr	r3, [r4, #24]
    a4d8:	e3130020 	tst	r3, #32
    a4dc:	1afffffc 	bne	a4d4 <uart_bytedump+0x3c>
    a4e0:	e5891000 	str	r1, [r9]
    a4e4:	e202200f 	and	r2, r2, #15
    a4e8:	e7d72002 	ldrb	r2, [r7, r2]
    a4ec:	e5943018 	ldr	r3, [r4, #24]
    a4f0:	e3130020 	tst	r3, #32
    a4f4:	1afffffc 	bne	a4ec <uart_bytedump+0x54>
    a4f8:	e5892000 	str	r2, [r9]
    a4fc:	e5943018 	ldr	r3, [r4, #24]
    a500:	e3130020 	tst	r3, #32
    a504:	1afffffc 	bne	a4fc <uart_bytedump+0x64>
    a508:	e2866001 	add	r6, r6, #1
    a50c:	e3a03020 	mov	r3, #32
    a510:	e1560008 	cmp	r6, r8
    a514:	e5893000 	str	r3, [r9]
    a518:	1affffe9 	bne	a4c4 <uart_bytedump+0x2c>
    a51c:	e3a01a01 	mov	r1, #4096	; 0x1000
    a520:	e3431f20 	movt	r1, #16160	; 0x3f20
    a524:	e5912018 	ldr	r2, [r1, #24]
    a528:	e3a03a01 	mov	r3, #4096	; 0x1000
    a52c:	e3433f20 	movt	r3, #16160	; 0x3f20
    a530:	e3120020 	tst	r2, #32
    a534:	1afffffa 	bne	a524 <uart_bytedump+0x8c>
    a538:	e1a01003 	mov	r1, r3
    a53c:	e3a0200a 	mov	r2, #10
    a540:	e5832000 	str	r2, [r3]
    a544:	e5912018 	ldr	r2, [r1, #24]
    a548:	e3a03a01 	mov	r3, #4096	; 0x1000
    a54c:	e3433f20 	movt	r3, #16160	; 0x3f20
    a550:	e3120020 	tst	r2, #32
    a554:	1afffffa 	bne	a544 <uart_bytedump+0xac>
    a558:	e1a01003 	mov	r1, r3
    a55c:	e3a0200d 	mov	r2, #13
    a560:	e5832000 	str	r2, [r3]
    a564:	e5912018 	ldr	r2, [r1, #24]
    a568:	e3a03a01 	mov	r3, #4096	; 0x1000
    a56c:	e3433f20 	movt	r3, #16160	; 0x3f20
    a570:	e3120020 	tst	r2, #32
    a574:	1afffffa 	bne	a564 <uart_bytedump+0xcc>
    a578:	e1a01003 	mov	r1, r3
    a57c:	e3a0200a 	mov	r2, #10
    a580:	e5832000 	str	r2, [r3]
    a584:	e5912018 	ldr	r2, [r1, #24]
    a588:	e3a03a01 	mov	r3, #4096	; 0x1000
    a58c:	e3433f20 	movt	r3, #16160	; 0x3f20
    a590:	e3120020 	tst	r2, #32
    a594:	1afffffa 	bne	a584 <uart_bytedump+0xec>
    a598:	e3a0200d 	mov	r2, #13
    a59c:	e5832000 	str	r2, [r3]
    a5a0:	e8bd87f0 	pop	{r4, r5, r6, r7, r8, r9, sl, pc}
    a5a4:	e5943018 	ldr	r3, [r4, #24]
    a5a8:	e3130020 	tst	r3, #32
    a5ac:	1afffffc 	bne	a5a4 <uart_bytedump+0x10c>
    a5b0:	e3a0300a 	mov	r3, #10
    a5b4:	e5893000 	str	r3, [r9]
    a5b8:	e5943018 	ldr	r3, [r4, #24]
    a5bc:	e3130020 	tst	r3, #32
    a5c0:	1afffffc 	bne	a5b8 <uart_bytedump+0x120>
    a5c4:	e3a0a00d 	mov	sl, #13
    a5c8:	e1a00005 	mov	r0, r5
    a5cc:	e589a000 	str	sl, [r9]
    a5d0:	ebfffeed 	bl	a18c <uart_put_dword>
    a5d4:	e30c2154 	movw	r2, #49492	; 0xc154
    a5d8:	e3a01020 	mov	r1, #32
    a5dc:	e3402001 	movt	r2, #1
    a5e0:	e5943018 	ldr	r3, [r4, #24]
    a5e4:	e3130020 	tst	r3, #32
    a5e8:	1afffffc 	bne	a5e0 <uart_bytedump+0x148>
    a5ec:	e5891000 	str	r1, [r9]
    a5f0:	e5d23000 	ldrb	r3, [r2]
    a5f4:	e353000a 	cmp	r3, #10
    a5f8:	0a000003 	beq	a60c <uart_bytedump+0x174>
    a5fc:	e5f21001 	ldrb	r1, [r2, #1]!
    a600:	e3510000 	cmp	r1, #0
    a604:	1afffff5 	bne	a5e0 <uart_bytedump+0x148>
    a608:	eaffffaf 	b	a4cc <uart_bytedump+0x34>
    a60c:	e5943018 	ldr	r3, [r4, #24]
    a610:	e3130020 	tst	r3, #32
    a614:	1afffffc 	bne	a60c <uart_bytedump+0x174>
    a618:	e589a000 	str	sl, [r9]
    a61c:	eafffff6 	b	a5fc <uart_bytedump+0x164>

0000a620 <set_char_color>:
    a620:	e30d3000 	movw	r3, #53248	; 0xd000
    a624:	e3403001 	movt	r3, #1
    a628:	e5830000 	str	r0, [r3]
    a62c:	e12fff1e 	bx	lr

0000a630 <reset_char_color>:
    a630:	e30d3000 	movw	r3, #53248	; 0xd000
    a634:	e3e02000 	mvn	r2, #0
    a638:	e3403001 	movt	r3, #1
    a63c:	e5832000 	str	r2, [r3]
    a640:	e12fff1e 	bx	lr

0000a644 <draw_char>:
    a644:	e3500c01 	cmp	r0, #256	; 0x100
    a648:	812fff1e 	bxhi	lr
    a64c:	e92d4ff8 	push	{r3, r4, r5, r6, r7, r8, r9, sl, fp, lr}
    a650:	e1a05001 	mov	r5, r1
    a654:	e1a04002 	mov	r4, r2
    a658:	e1a06000 	mov	r6, r0
    a65c:	e1a09fc5 	asr	r9, r5, #31
    a660:	ebfff6af 	bl	8124 <get_fontdata16x16>
    a664:	e1a0cfc4 	asr	ip, r4, #31
    a668:	e206100f 	and	r1, r6, #15
    a66c:	e1a09d29 	lsr	r9, r9, #26
    a670:	e30d7000 	movw	r7, #53248	; 0xd000
    a674:	e1a0cd2c 	lsr	ip, ip, #26
    a678:	e3407001 	movt	r7, #1
    a67c:	e0853009 	add	r3, r5, r9
    a680:	e1a06246 	asr	r6, r6, #4
    a684:	e203303f 	and	r3, r3, #63	; 0x3f
    a688:	e084200c 	add	r2, r4, ip
    a68c:	e0699003 	rsb	r9, r9, r3
    a690:	e0816406 	add	r6, r1, r6, lsl #8
    a694:	e202203f 	and	r2, r2, #63	; 0x3f
    a698:	e1a09209 	lsl	r9, r9, #4
    a69c:	e06c5002 	rsb	r5, ip, r2
    a6a0:	e0800206 	add	r0, r0, r6, lsl #4
    a6a4:	e2896010 	add	r6, r9, #16
    a6a8:	e1a05205 	lsl	r5, r5, #4
    a6ac:	e2408001 	sub	r8, r0, #1
    a6b0:	e285a010 	add	sl, r5, #16
    a6b4:	e1a0b008 	mov	fp, r8
    a6b8:	e1a04009 	mov	r4, r9
    a6bc:	e5fb0001 	ldrb	r0, [fp, #1]!
    a6c0:	e1a01004 	mov	r1, r4
    a6c4:	e1a02005 	mov	r2, r5
    a6c8:	e2844001 	add	r4, r4, #1
    a6cc:	e3500000 	cmp	r0, #0
    a6d0:	15970000 	ldrne	r0, [r7]
    a6d4:	ebfffe42 	bl	9fe4 <mailbox_fb_set_pixel>
    a6d8:	e1560004 	cmp	r6, r4
    a6dc:	1afffff6 	bne	a6bc <draw_char+0x78>
    a6e0:	e2855001 	add	r5, r5, #1
    a6e4:	e2888c01 	add	r8, r8, #256	; 0x100
    a6e8:	e155000a 	cmp	r5, sl
    a6ec:	1afffff0 	bne	a6b4 <draw_char+0x70>
    a6f0:	e8bd8ff8 	pop	{r3, r4, r5, r6, r7, r8, r9, sl, fp, pc}

0000a6f4 <draw_text>:
    a6f4:	e92d4ff0 	push	{r4, r5, r6, r7, r8, r9, sl, fp, lr}
    a6f8:	e24dd014 	sub	sp, sp, #20
    a6fc:	e5d04000 	ldrb	r4, [r0]
    a700:	e3540000 	cmp	r4, #0
    a704:	0a000032 	beq	a7d4 <draw_text+0xe0>
    a708:	e58d0004 	str	r0, [sp, #4]
    a70c:	e1a03002 	mov	r3, r2
    a710:	e1a02fc2 	asr	r2, r2, #31
    a714:	e30d7000 	movw	r7, #53248	; 0xd000
    a718:	e3407001 	movt	r7, #1
    a71c:	e0601001 	rsb	r1, r0, r1
    a720:	e1a02d22 	lsr	r2, r2, #26
    a724:	e0833002 	add	r3, r3, r2
    a728:	e58d100c 	str	r1, [sp, #12]
    a72c:	e203303f 	and	r3, r3, #63	; 0x3f
    a730:	e0623003 	rsb	r3, r2, r3
    a734:	e1a03203 	lsl	r3, r3, #4
    a738:	e58d3008 	str	r3, [sp, #8]
    a73c:	e283a010 	add	sl, r3, #16
    a740:	ebfff677 	bl	8124 <get_fontdata16x16>
    a744:	e59d200c 	ldr	r2, [sp, #12]
    a748:	e59d3004 	ldr	r3, [sp, #4]
    a74c:	e59d5008 	ldr	r5, [sp, #8]
    a750:	e0833002 	add	r3, r3, r2
    a754:	e204200f 	and	r2, r4, #15
    a758:	e1a04244 	asr	r4, r4, #4
    a75c:	e1a09fc3 	asr	r9, r3, #31
    a760:	e0824404 	add	r4, r2, r4, lsl #8
    a764:	e1a09d29 	lsr	r9, r9, #26
    a768:	e0833009 	add	r3, r3, r9
    a76c:	e0800204 	add	r0, r0, r4, lsl #4
    a770:	e203303f 	and	r3, r3, #63	; 0x3f
    a774:	e0699003 	rsb	r9, r9, r3
    a778:	e2408001 	sub	r8, r0, #1
    a77c:	e1a09209 	lsl	r9, r9, #4
    a780:	e2896010 	add	r6, r9, #16
    a784:	e1a0b008 	mov	fp, r8
    a788:	e1a04009 	mov	r4, r9
    a78c:	e5fb0001 	ldrb	r0, [fp, #1]!
    a790:	e1a01004 	mov	r1, r4
    a794:	e1a02005 	mov	r2, r5
    a798:	e2844001 	add	r4, r4, #1
    a79c:	e3500000 	cmp	r0, #0
    a7a0:	15970000 	ldrne	r0, [r7]
    a7a4:	ebfffe0e 	bl	9fe4 <mailbox_fb_set_pixel>
    a7a8:	e1540006 	cmp	r4, r6
    a7ac:	1afffff6 	bne	a78c <draw_text+0x98>
    a7b0:	e2855001 	add	r5, r5, #1
    a7b4:	e2888c01 	add	r8, r8, #256	; 0x100
    a7b8:	e155000a 	cmp	r5, sl
    a7bc:	1afffff0 	bne	a784 <draw_text+0x90>
    a7c0:	e59d3004 	ldr	r3, [sp, #4]
    a7c4:	e5f34001 	ldrb	r4, [r3, #1]!
    a7c8:	e58d3004 	str	r3, [sp, #4]
    a7cc:	e3540000 	cmp	r4, #0
    a7d0:	1affffda 	bne	a740 <draw_text+0x4c>
    a7d4:	e28dd014 	add	sp, sp, #20
    a7d8:	e8bd8ff0 	pop	{r4, r5, r6, r7, r8, r9, sl, fp, pc}

0000a7dc <draw_dword>:
    a7dc:	e92d4ff0 	push	{r4, r5, r6, r7, r8, r9, sl, fp, lr}
    a7e0:	e30d4000 	movw	r4, #53248	; 0xd000
    a7e4:	e24dd014 	sub	sp, sp, #20
    a7e8:	e2813001 	add	r3, r1, #1
    a7ec:	e3404001 	movt	r4, #1
    a7f0:	e1a06001 	mov	r6, r1
    a7f4:	e58d3008 	str	r3, [sp, #8]
    a7f8:	e1a05002 	mov	r5, r2
    a7fc:	e0843e20 	add	r3, r4, r0, lsr #28
    a800:	e58d1004 	str	r1, [sp, #4]
    a804:	e5d37008 	ldrb	r7, [r3, #8]
    a808:	e1a0bfc6 	asr	fp, r6, #31
    a80c:	e58d0000 	str	r0, [sp]
    a810:	ebfff643 	bl	8124 <get_fontdata16x16>
    a814:	e1a02006 	mov	r2, r6
    a818:	e207100f 	and	r1, r7, #15
    a81c:	e1a06fc5 	asr	r6, r5, #31
    a820:	e1a0bd2b 	lsr	fp, fp, #26
    a824:	e1a06d26 	lsr	r6, r6, #26
    a828:	e1a0c247 	asr	ip, r7, #4
    a82c:	e0853006 	add	r3, r5, r6
    a830:	e082200b 	add	r2, r2, fp
    a834:	e203303f 	and	r3, r3, #63	; 0x3f
    a838:	e202203f 	and	r2, r2, #63	; 0x3f
    a83c:	e0666003 	rsb	r6, r6, r3
    a840:	e081340c 	add	r3, r1, ip, lsl #8
    a844:	e06bb002 	rsb	fp, fp, r2
    a848:	e1a06206 	lsl	r6, r6, #4
    a84c:	e0800203 	add	r0, r0, r3, lsl #4
    a850:	e2869010 	add	r9, r6, #16
    a854:	e1a0320b 	lsl	r3, fp, #4
    a858:	e240a001 	sub	sl, r0, #1
    a85c:	e58d600c 	str	r6, [sp, #12]
    a860:	e2838010 	add	r8, r3, #16
    a864:	e1a07006 	mov	r7, r6
    a868:	e1a0b003 	mov	fp, r3
    a86c:	e1a0600a 	mov	r6, sl
    a870:	e1a0500b 	mov	r5, fp
    a874:	e5f60001 	ldrb	r0, [r6, #1]!
    a878:	e1a01005 	mov	r1, r5
    a87c:	e1a02007 	mov	r2, r7
    a880:	e2855001 	add	r5, r5, #1
    a884:	e3500000 	cmp	r0, #0
    a888:	15940000 	ldrne	r0, [r4]
    a88c:	ebfffdd4 	bl	9fe4 <mailbox_fb_set_pixel>
    a890:	e1550008 	cmp	r5, r8
    a894:	1afffff6 	bne	a874 <draw_dword+0x98>
    a898:	e2877001 	add	r7, r7, #1
    a89c:	e28aac01 	add	sl, sl, #256	; 0x100
    a8a0:	e1570009 	cmp	r7, r9
    a8a4:	1afffff0 	bne	a86c <draw_dword+0x90>
    a8a8:	e59d3000 	ldr	r3, [sp]
    a8ac:	e59d2004 	ldr	r2, [sp, #4]
    a8b0:	e7e33c53 	ubfx	r3, r3, #24, #4
    a8b4:	e0843003 	add	r3, r4, r3
    a8b8:	e2822002 	add	r2, r2, #2
    a8bc:	e59d600c 	ldr	r6, [sp, #12]
    a8c0:	e5d35008 	ldrb	r5, [r3, #8]
    a8c4:	e58d200c 	str	r2, [sp, #12]
    a8c8:	ebfff615 	bl	8124 <get_fontdata16x16>
    a8cc:	e59d3008 	ldr	r3, [sp, #8]
    a8d0:	e1a07006 	mov	r7, r6
    a8d4:	e1a02245 	asr	r2, r5, #4
    a8d8:	e205500f 	and	r5, r5, #15
    a8dc:	e1a0bfc3 	asr	fp, r3, #31
    a8e0:	e0852402 	add	r2, r5, r2, lsl #8
    a8e4:	e1a0bd2b 	lsr	fp, fp, #26
    a8e8:	e083300b 	add	r3, r3, fp
    a8ec:	e58d6008 	str	r6, [sp, #8]
    a8f0:	e203303f 	and	r3, r3, #63	; 0x3f
    a8f4:	e0800202 	add	r0, r0, r2, lsl #4
    a8f8:	e06bb003 	rsb	fp, fp, r3
    a8fc:	e240a001 	sub	sl, r0, #1
    a900:	e1a0320b 	lsl	r3, fp, #4
    a904:	e2838010 	add	r8, r3, #16
    a908:	e1a0b003 	mov	fp, r3
    a90c:	e1a0600a 	mov	r6, sl
    a910:	e1a0500b 	mov	r5, fp
    a914:	e5f60001 	ldrb	r0, [r6, #1]!
    a918:	e1a01005 	mov	r1, r5
    a91c:	e1a02007 	mov	r2, r7
    a920:	e2855001 	add	r5, r5, #1
    a924:	e3500000 	cmp	r0, #0
    a928:	15940000 	ldrne	r0, [r4]
    a92c:	ebfffdac 	bl	9fe4 <mailbox_fb_set_pixel>
    a930:	e1550008 	cmp	r5, r8
    a934:	1afffff6 	bne	a914 <draw_dword+0x138>
    a938:	e2877001 	add	r7, r7, #1
    a93c:	e28aac01 	add	sl, sl, #256	; 0x100
    a940:	e1570009 	cmp	r7, r9
    a944:	1afffff0 	bne	a90c <draw_dword+0x130>
    a948:	e59d3000 	ldr	r3, [sp]
    a94c:	e59d2004 	ldr	r2, [sp, #4]
    a950:	e7e33a53 	ubfx	r3, r3, #20, #4
    a954:	e0843003 	add	r3, r4, r3
    a958:	e2822003 	add	r2, r2, #3
    a95c:	e59d6008 	ldr	r6, [sp, #8]
    a960:	e5d35008 	ldrb	r5, [r3, #8]
    a964:	e58d2008 	str	r2, [sp, #8]
    a968:	ebfff5ed 	bl	8124 <get_fontdata16x16>
    a96c:	e59d300c 	ldr	r3, [sp, #12]
    a970:	e1a07006 	mov	r7, r6
    a974:	e1a02245 	asr	r2, r5, #4
    a978:	e205500f 	and	r5, r5, #15
    a97c:	e1a0bfc3 	asr	fp, r3, #31
    a980:	e0852402 	add	r2, r5, r2, lsl #8
    a984:	e1a0bd2b 	lsr	fp, fp, #26
    a988:	e083300b 	add	r3, r3, fp
    a98c:	e58d600c 	str	r6, [sp, #12]
    a990:	e203303f 	and	r3, r3, #63	; 0x3f
    a994:	e0800202 	add	r0, r0, r2, lsl #4
    a998:	e06bb003 	rsb	fp, fp, r3
    a99c:	e240a001 	sub	sl, r0, #1
    a9a0:	e1a0320b 	lsl	r3, fp, #4
    a9a4:	e2838010 	add	r8, r3, #16
    a9a8:	e1a0b003 	mov	fp, r3
    a9ac:	e1a0600a 	mov	r6, sl
    a9b0:	e1a0500b 	mov	r5, fp
    a9b4:	e5f60001 	ldrb	r0, [r6, #1]!
    a9b8:	e1a01005 	mov	r1, r5
    a9bc:	e1a02007 	mov	r2, r7
    a9c0:	e2855001 	add	r5, r5, #1
    a9c4:	e3500000 	cmp	r0, #0
    a9c8:	15940000 	ldrne	r0, [r4]
    a9cc:	ebfffd84 	bl	9fe4 <mailbox_fb_set_pixel>
    a9d0:	e1550008 	cmp	r5, r8
    a9d4:	1afffff6 	bne	a9b4 <draw_dword+0x1d8>
    a9d8:	e2877001 	add	r7, r7, #1
    a9dc:	e28aac01 	add	sl, sl, #256	; 0x100
    a9e0:	e1570009 	cmp	r7, r9
    a9e4:	1afffff0 	bne	a9ac <draw_dword+0x1d0>
    a9e8:	e59d3000 	ldr	r3, [sp]
    a9ec:	e59d2004 	ldr	r2, [sp, #4]
    a9f0:	e7e33853 	ubfx	r3, r3, #16, #4
    a9f4:	e0843003 	add	r3, r4, r3
    a9f8:	e2822004 	add	r2, r2, #4
    a9fc:	e59d600c 	ldr	r6, [sp, #12]
    aa00:	e5d35008 	ldrb	r5, [r3, #8]
    aa04:	e58d200c 	str	r2, [sp, #12]
    aa08:	ebfff5c5 	bl	8124 <get_fontdata16x16>
    aa0c:	e59d3008 	ldr	r3, [sp, #8]
    aa10:	e1a07006 	mov	r7, r6
    aa14:	e1a02245 	asr	r2, r5, #4
    aa18:	e205500f 	and	r5, r5, #15
    aa1c:	e1a0bfc3 	asr	fp, r3, #31
    aa20:	e0852402 	add	r2, r5, r2, lsl #8
    aa24:	e1a0bd2b 	lsr	fp, fp, #26
    aa28:	e083300b 	add	r3, r3, fp
    aa2c:	e58d6008 	str	r6, [sp, #8]
    aa30:	e203303f 	and	r3, r3, #63	; 0x3f
    aa34:	e0800202 	add	r0, r0, r2, lsl #4
    aa38:	e06bb003 	rsb	fp, fp, r3
    aa3c:	e240a001 	sub	sl, r0, #1
    aa40:	e1a0320b 	lsl	r3, fp, #4
    aa44:	e2838010 	add	r8, r3, #16
    aa48:	e1a0b003 	mov	fp, r3
    aa4c:	e1a0600a 	mov	r6, sl
    aa50:	e1a0500b 	mov	r5, fp
    aa54:	e5f60001 	ldrb	r0, [r6, #1]!
    aa58:	e1a01005 	mov	r1, r5
    aa5c:	e1a02007 	mov	r2, r7
    aa60:	e2855001 	add	r5, r5, #1
    aa64:	e3500000 	cmp	r0, #0
    aa68:	15940000 	ldrne	r0, [r4]
    aa6c:	ebfffd5c 	bl	9fe4 <mailbox_fb_set_pixel>
    aa70:	e1550008 	cmp	r5, r8
    aa74:	1afffff6 	bne	aa54 <draw_dword+0x278>
    aa78:	e2877001 	add	r7, r7, #1
    aa7c:	e28aac01 	add	sl, sl, #256	; 0x100
    aa80:	e1570009 	cmp	r7, r9
    aa84:	1afffff0 	bne	aa4c <draw_dword+0x270>
    aa88:	e59d3000 	ldr	r3, [sp]
    aa8c:	e59d2004 	ldr	r2, [sp, #4]
    aa90:	e7e33653 	ubfx	r3, r3, #12, #4
    aa94:	e0843003 	add	r3, r4, r3
    aa98:	e2822005 	add	r2, r2, #5
    aa9c:	e59d6008 	ldr	r6, [sp, #8]
    aaa0:	e5d35008 	ldrb	r5, [r3, #8]
    aaa4:	e58d2008 	str	r2, [sp, #8]
    aaa8:	ebfff59d 	bl	8124 <get_fontdata16x16>
    aaac:	e59d300c 	ldr	r3, [sp, #12]
    aab0:	e1a07006 	mov	r7, r6
    aab4:	e1a02245 	asr	r2, r5, #4
    aab8:	e205500f 	and	r5, r5, #15
    aabc:	e1a0bfc3 	asr	fp, r3, #31
    aac0:	e0852402 	add	r2, r5, r2, lsl #8
    aac4:	e1a0bd2b 	lsr	fp, fp, #26
    aac8:	e083300b 	add	r3, r3, fp
    aacc:	e58d600c 	str	r6, [sp, #12]
    aad0:	e203303f 	and	r3, r3, #63	; 0x3f
    aad4:	e0800202 	add	r0, r0, r2, lsl #4
    aad8:	e06bb003 	rsb	fp, fp, r3
    aadc:	e240a001 	sub	sl, r0, #1
    aae0:	e1a0320b 	lsl	r3, fp, #4
    aae4:	e2838010 	add	r8, r3, #16
    aae8:	e1a0b003 	mov	fp, r3
    aaec:	e1a0600a 	mov	r6, sl
    aaf0:	e1a0500b 	mov	r5, fp
    aaf4:	e5f60001 	ldrb	r0, [r6, #1]!
    aaf8:	e1a01005 	mov	r1, r5
    aafc:	e1a02007 	mov	r2, r7
    ab00:	e2855001 	add	r5, r5, #1
    ab04:	e3500000 	cmp	r0, #0
    ab08:	15940000 	ldrne	r0, [r4]
    ab0c:	ebfffd34 	bl	9fe4 <mailbox_fb_set_pixel>
    ab10:	e1550008 	cmp	r5, r8
    ab14:	1afffff6 	bne	aaf4 <draw_dword+0x318>
    ab18:	e2877001 	add	r7, r7, #1
    ab1c:	e28aac01 	add	sl, sl, #256	; 0x100
    ab20:	e1590007 	cmp	r9, r7
    ab24:	1afffff0 	bne	aaec <draw_dword+0x310>
    ab28:	e59d3000 	ldr	r3, [sp]
    ab2c:	e59d2004 	ldr	r2, [sp, #4]
    ab30:	e7e33453 	ubfx	r3, r3, #8, #4
    ab34:	e0843003 	add	r3, r4, r3
    ab38:	e2822006 	add	r2, r2, #6
    ab3c:	e59d600c 	ldr	r6, [sp, #12]
    ab40:	e5d35008 	ldrb	r5, [r3, #8]
    ab44:	e58d200c 	str	r2, [sp, #12]
    ab48:	ebfff575 	bl	8124 <get_fontdata16x16>
    ab4c:	e59d3008 	ldr	r3, [sp, #8]
    ab50:	e1a07006 	mov	r7, r6
    ab54:	e1a02245 	asr	r2, r5, #4
    ab58:	e205500f 	and	r5, r5, #15
    ab5c:	e1a0bfc3 	asr	fp, r3, #31
    ab60:	e0852402 	add	r2, r5, r2, lsl #8
    ab64:	e1a0bd2b 	lsr	fp, fp, #26
    ab68:	e083300b 	add	r3, r3, fp
    ab6c:	e58d6008 	str	r6, [sp, #8]
    ab70:	e203303f 	and	r3, r3, #63	; 0x3f
    ab74:	e0800202 	add	r0, r0, r2, lsl #4
    ab78:	e06bb003 	rsb	fp, fp, r3
    ab7c:	e240a001 	sub	sl, r0, #1
    ab80:	e1a0320b 	lsl	r3, fp, #4
    ab84:	e2838010 	add	r8, r3, #16
    ab88:	e1a0b003 	mov	fp, r3
    ab8c:	e1a0600a 	mov	r6, sl
    ab90:	e1a0500b 	mov	r5, fp
    ab94:	e5f60001 	ldrb	r0, [r6, #1]!
    ab98:	e1a01005 	mov	r1, r5
    ab9c:	e1a02007 	mov	r2, r7
    aba0:	e2855001 	add	r5, r5, #1
    aba4:	e3500000 	cmp	r0, #0
    aba8:	15940000 	ldrne	r0, [r4]
    abac:	ebfffd0c 	bl	9fe4 <mailbox_fb_set_pixel>
    abb0:	e1550008 	cmp	r5, r8
    abb4:	1afffff6 	bne	ab94 <draw_dword+0x3b8>
    abb8:	e2877001 	add	r7, r7, #1
    abbc:	e28aac01 	add	sl, sl, #256	; 0x100
    abc0:	e1590007 	cmp	r9, r7
    abc4:	1afffff0 	bne	ab8c <draw_dword+0x3b0>
    abc8:	e59d3000 	ldr	r3, [sp]
    abcc:	e59d2004 	ldr	r2, [sp, #4]
    abd0:	e7e33253 	ubfx	r3, r3, #4, #4
    abd4:	e0843003 	add	r3, r4, r3
    abd8:	e2822007 	add	r2, r2, #7
    abdc:	e59d6008 	ldr	r6, [sp, #8]
    abe0:	e5d35008 	ldrb	r5, [r3, #8]
    abe4:	e58d2004 	str	r2, [sp, #4]
    abe8:	ebfff54d 	bl	8124 <get_fontdata16x16>
    abec:	e59d200c 	ldr	r2, [sp, #12]
    abf0:	e1a07006 	mov	r7, r6
    abf4:	e1a03245 	asr	r3, r5, #4
    abf8:	e205500f 	and	r5, r5, #15
    abfc:	e1a0bfc2 	asr	fp, r2, #31
    ac00:	e0853403 	add	r3, r5, r3, lsl #8
    ac04:	e1a0bd2b 	lsr	fp, fp, #26
    ac08:	e082200b 	add	r2, r2, fp
    ac0c:	e58d6008 	str	r6, [sp, #8]
    ac10:	e202203f 	and	r2, r2, #63	; 0x3f
    ac14:	e0800203 	add	r0, r0, r3, lsl #4
    ac18:	e06bb002 	rsb	fp, fp, r2
    ac1c:	e240a001 	sub	sl, r0, #1
    ac20:	e1a0320b 	lsl	r3, fp, #4
    ac24:	e2838010 	add	r8, r3, #16
    ac28:	e1a0b003 	mov	fp, r3
    ac2c:	e1a0600a 	mov	r6, sl
    ac30:	e1a0500b 	mov	r5, fp
    ac34:	e5f60001 	ldrb	r0, [r6, #1]!
    ac38:	e1a01005 	mov	r1, r5
    ac3c:	e1a02007 	mov	r2, r7
    ac40:	e2855001 	add	r5, r5, #1
    ac44:	e3500000 	cmp	r0, #0
    ac48:	15940000 	ldrne	r0, [r4]
    ac4c:	ebfffce4 	bl	9fe4 <mailbox_fb_set_pixel>
    ac50:	e1550008 	cmp	r5, r8
    ac54:	1afffff6 	bne	ac34 <draw_dword+0x458>
    ac58:	e2877001 	add	r7, r7, #1
    ac5c:	e28aac01 	add	sl, sl, #256	; 0x100
    ac60:	e1590007 	cmp	r9, r7
    ac64:	1afffff0 	bne	ac2c <draw_dword+0x450>
    ac68:	e59d3000 	ldr	r3, [sp]
    ac6c:	e59d6008 	ldr	r6, [sp, #8]
    ac70:	e203300f 	and	r3, r3, #15
    ac74:	e0843003 	add	r3, r4, r3
    ac78:	e5d35008 	ldrb	r5, [r3, #8]
    ac7c:	ebfff528 	bl	8124 <get_fontdata16x16>
    ac80:	e59d2004 	ldr	r2, [sp, #4]
    ac84:	e1a03245 	asr	r3, r5, #4
    ac88:	e205500f 	and	r5, r5, #15
    ac8c:	e1a0afc2 	asr	sl, r2, #31
    ac90:	e0853403 	add	r3, r5, r3, lsl #8
    ac94:	e1a0ad2a 	lsr	sl, sl, #26
    ac98:	e082200a 	add	r2, r2, sl
    ac9c:	e0800203 	add	r0, r0, r3, lsl #4
    aca0:	e202203f 	and	r2, r2, #63	; 0x3f
    aca4:	e06aa002 	rsb	sl, sl, r2
    aca8:	e2408001 	sub	r8, r0, #1
    acac:	e1a0a20a 	lsl	sl, sl, #4
    acb0:	e28a7010 	add	r7, sl, #16
    acb4:	e1a0b008 	mov	fp, r8
    acb8:	e1a0500a 	mov	r5, sl
    acbc:	e5fb0001 	ldrb	r0, [fp, #1]!
    acc0:	e1a01005 	mov	r1, r5
    acc4:	e1a02006 	mov	r2, r6
    acc8:	e2855001 	add	r5, r5, #1
    accc:	e3500000 	cmp	r0, #0
    acd0:	15940000 	ldrne	r0, [r4]
    acd4:	ebfffcc2 	bl	9fe4 <mailbox_fb_set_pixel>
    acd8:	e1570005 	cmp	r7, r5
    acdc:	1afffff6 	bne	acbc <draw_dword+0x4e0>
    ace0:	e2866001 	add	r6, r6, #1
    ace4:	e2888c01 	add	r8, r8, #256	; 0x100
    ace8:	e1590006 	cmp	r9, r6
    acec:	1afffff0 	bne	acb4 <draw_dword+0x4d8>
    acf0:	e28dd014 	add	sp, sp, #20
    acf4:	e8bd8ff0 	pop	{r4, r5, r6, r7, r8, r9, sl, fp, pc}

0000acf8 <draw_dump_data>:
    acf8:	e92d4ff0 	push	{r4, r5, r6, r7, r8, r9, sl, fp, lr}
    acfc:	e30da000 	movw	sl, #53248	; 0xd000
    ad00:	e24dd01c 	sub	sp, sp, #28
    ad04:	e340a001 	movt	sl, #1
    ad08:	e3a09010 	mov	r9, #16
    ad0c:	e58d0014 	str	r0, [sp, #20]
    ad10:	e59d1014 	ldr	r1, [sp, #20]
    ad14:	e2493010 	sub	r3, r9, #16
    ad18:	e58d300c 	str	r3, [sp, #12]
    ad1c:	e3a02000 	mov	r2, #0
    ad20:	e0813003 	add	r3, r1, r3
    ad24:	e98d000c 	stmib	sp, {r2, r3}
    ad28:	e58d2000 	str	r2, [sp]
    ad2c:	e1a03002 	mov	r3, r2
    ad30:	e59d2008 	ldr	r2, [sp, #8]
    ad34:	e3130003 	tst	r3, #3
    ad38:	e59d500c 	ldr	r5, [sp, #12]
    ad3c:	059d3000 	ldreq	r3, [sp]
    ad40:	e58d2010 	str	r2, [sp, #16]
    ad44:	02833001 	addeq	r3, r3, #1
    ad48:	058d3000 	streq	r3, [sp]
    ad4c:	e5d23000 	ldrb	r3, [r2]
    ad50:	e08a3223 	add	r3, sl, r3, lsr #4
    ad54:	e5d34008 	ldrb	r4, [r3, #8]
    ad58:	ebfff4f1 	bl	8124 <get_fontdata16x16>
    ad5c:	e59d3000 	ldr	r3, [sp]
    ad60:	e203b03f 	and	fp, r3, #63	; 0x3f
    ad64:	e1a03244 	asr	r3, r4, #4
    ad68:	e204400f 	and	r4, r4, #15
    ad6c:	e1a0b20b 	lsl	fp, fp, #4
    ad70:	e0843403 	add	r3, r4, r3, lsl #8
    ad74:	e28b6010 	add	r6, fp, #16
    ad78:	e0800203 	add	r0, r0, r3, lsl #4
    ad7c:	e2407001 	sub	r7, r0, #1
    ad80:	e1a08007 	mov	r8, r7
    ad84:	e1a0400b 	mov	r4, fp
    ad88:	e5f80001 	ldrb	r0, [r8, #1]!
    ad8c:	e1a01004 	mov	r1, r4
    ad90:	e1a02005 	mov	r2, r5
    ad94:	e2844001 	add	r4, r4, #1
    ad98:	e3500000 	cmp	r0, #0
    ad9c:	159a0000 	ldrne	r0, [sl]
    ada0:	ebfffc8f 	bl	9fe4 <mailbox_fb_set_pixel>
    ada4:	e1540006 	cmp	r4, r6
    ada8:	1afffff6 	bne	ad88 <draw_dump_data+0x90>
    adac:	e2855001 	add	r5, r5, #1
    adb0:	e2877c01 	add	r7, r7, #256	; 0x100
    adb4:	e1550009 	cmp	r5, r9
    adb8:	1afffff0 	bne	ad80 <draw_dump_data+0x88>
    adbc:	e59d3010 	ldr	r3, [sp, #16]
    adc0:	e59d2008 	ldr	r2, [sp, #8]
    adc4:	e5d33000 	ldrb	r3, [r3]
    adc8:	e59d500c 	ldr	r5, [sp, #12]
    adcc:	e2822001 	add	r2, r2, #1
    add0:	e58d2008 	str	r2, [sp, #8]
    add4:	e203300f 	and	r3, r3, #15
    add8:	e08a3003 	add	r3, sl, r3
    addc:	e5d34008 	ldrb	r4, [r3, #8]
    ade0:	ebfff4cf 	bl	8124 <get_fontdata16x16>
    ade4:	e59d3000 	ldr	r3, [sp]
    ade8:	e283b001 	add	fp, r3, #1
    adec:	e1a03244 	asr	r3, r4, #4
    adf0:	e204400f 	and	r4, r4, #15
    adf4:	e20bb03f 	and	fp, fp, #63	; 0x3f
    adf8:	e0843403 	add	r3, r4, r3, lsl #8
    adfc:	e1a0b20b 	lsl	fp, fp, #4
    ae00:	e0800203 	add	r0, r0, r3, lsl #4
    ae04:	e28b6010 	add	r6, fp, #16
    ae08:	e2407001 	sub	r7, r0, #1
    ae0c:	e1a08007 	mov	r8, r7
    ae10:	e1a0400b 	mov	r4, fp
    ae14:	e5f80001 	ldrb	r0, [r8, #1]!
    ae18:	e1a01004 	mov	r1, r4
    ae1c:	e1a02005 	mov	r2, r5
    ae20:	e2844001 	add	r4, r4, #1
    ae24:	e3500000 	cmp	r0, #0
    ae28:	159a0000 	ldrne	r0, [sl]
    ae2c:	ebfffc6c 	bl	9fe4 <mailbox_fb_set_pixel>
    ae30:	e1540006 	cmp	r4, r6
    ae34:	1afffff6 	bne	ae14 <draw_dump_data+0x11c>
    ae38:	e2855001 	add	r5, r5, #1
    ae3c:	e2877c01 	add	r7, r7, #256	; 0x100
    ae40:	e1550009 	cmp	r5, r9
    ae44:	1afffff0 	bne	ae0c <draw_dump_data+0x114>
    ae48:	e59d3004 	ldr	r3, [sp, #4]
    ae4c:	e59d2000 	ldr	r2, [sp]
    ae50:	e2833001 	add	r3, r3, #1
    ae54:	e58d3004 	str	r3, [sp, #4]
    ae58:	e3530010 	cmp	r3, #16
    ae5c:	e2822002 	add	r2, r2, #2
    ae60:	e58d2000 	str	r2, [sp]
    ae64:	1affffb1 	bne	ad30 <draw_dump_data+0x38>
    ae68:	e2859010 	add	r9, r5, #16
    ae6c:	e3590e1d 	cmp	r9, #464	; 0x1d0
    ae70:	1affffa6 	bne	ad10 <draw_dump_data+0x18>
    ae74:	e28dd01c 	add	sp, sp, #28
    ae78:	e8bd8ff0 	pop	{r4, r5, r6, r7, r8, r9, sl, fp, pc}

0000ae7c <init_random>:
    ae7c:	e30d3000 	movw	r3, #53248	; 0xd000
    ae80:	e3a01001 	mov	r1, #1
    ae84:	e3403001 	movt	r3, #1
    ae88:	e30624cb 	movw	r2, #25803	; 0x64cb
    ae8c:	e3402078 	movt	r2, #120	; 0x78
    ae90:	e5831018 	str	r1, [r3, #24]
    ae94:	e3051ba0 	movw	r1, #23456	; 0x5ba0
    ae98:	e583101c 	str	r1, [r3, #28]
    ae9c:	e5832020 	str	r2, [r3, #32]
    aea0:	e12fff1e 	bx	lr

0000aea4 <random>:
    aea4:	e30d3000 	movw	r3, #53248	; 0xd000
    aea8:	e3403001 	movt	r3, #1
    aeac:	e2830018 	add	r0, r3, #24
    aeb0:	e8900007 	ldm	r0, {r0, r1, r2}
    aeb4:	e0810000 	add	r0, r1, r0
    aeb8:	e0811002 	add	r1, r1, r2
    aebc:	e0802002 	add	r2, r0, r2
    aec0:	e5830018 	str	r0, [r3, #24]
    aec4:	e583101c 	str	r1, [r3, #28]
    aec8:	e5832020 	str	r2, [r3, #32]
    aecc:	e1a00820 	lsr	r0, r0, #16
    aed0:	e12fff1e 	bx	lr

0000aed4 <usleep>:
    aed4:	e24dd008 	sub	sp, sp, #8
    aed8:	e58d0004 	str	r0, [sp, #4]
    aedc:	e59d3004 	ldr	r3, [sp, #4]
    aee0:	e3530000 	cmp	r3, #0
    aee4:	da000005 	ble	af00 <usleep+0x2c>
    aee8:	e59d3004 	ldr	r3, [sp, #4]
    aeec:	e2433001 	sub	r3, r3, #1
    aef0:	e58d3004 	str	r3, [sp, #4]
    aef4:	e59d3004 	ldr	r3, [sp, #4]
    aef8:	e3530000 	cmp	r3, #0
    aefc:	cafffff9 	bgt	aee8 <usleep+0x14>
    af00:	e28dd008 	add	sp, sp, #8
    af04:	e12fff1e 	bx	lr

0000af08 <memset_t>:
    af08:	e3120003 	tst	r2, #3
    af0c:	0a000004 	beq	af24 <memset_t+0x1c>
    af10:	e0802002 	add	r2, r0, r2
    af14:	e4c01001 	strb	r1, [r0], #1
    af18:	e1520000 	cmp	r2, r0
    af1c:	1afffffc 	bne	af14 <memset_t+0xc>
    af20:	e12fff1e 	bx	lr
    af24:	e1a03801 	lsl	r3, r1, #16
    af28:	e1833401 	orr	r3, r3, r1, lsl #8
    af2c:	e1b02122 	lsrs	r2, r2, #2
    af30:	e1833001 	orr	r3, r3, r1
    af34:	e1831c01 	orr	r1, r3, r1, lsl #24
    af38:	012fff1e 	bxeq	lr
    af3c:	e0802102 	add	r2, r0, r2, lsl #2
    af40:	e4801004 	str	r1, [r0], #4
    af44:	e1520000 	cmp	r2, r0
    af48:	1afffffc 	bne	af40 <memset_t+0x38>
    af4c:	e12fff1e 	bx	lr

0000af50 <get_systime>:
    af50:	e3a03a03 	mov	r3, #12288	; 0x3000
    af54:	e3433f00 	movt	r3, #16128	; 0x3f00
    af58:	e92d0030 	push	{r4, r5}
    af5c:	e24dd008 	sub	sp, sp, #8
    af60:	e5932008 	ldr	r2, [r3, #8]
    af64:	e58d2000 	str	r2, [sp]
    af68:	e5932004 	ldr	r2, [r3, #4]
    af6c:	e58d2004 	str	r2, [sp, #4]
    af70:	e5931008 	ldr	r1, [r3, #8]
    af74:	e59d2000 	ldr	r2, [sp]
    af78:	e1510002 	cmp	r1, r2
    af7c:	15932008 	ldrne	r2, [r3, #8]
    af80:	158d2000 	strne	r2, [sp]
    af84:	e3a02000 	mov	r2, #0
    af88:	15933004 	ldrne	r3, [r3, #4]
    af8c:	158d3004 	strne	r3, [sp, #4]
    af90:	e59d1000 	ldr	r1, [sp]
    af94:	e59d0004 	ldr	r0, [sp, #4]
    af98:	e0924000 	adds	r4, r2, r0
    af9c:	e2a15000 	adc	r5, r1, #0
    afa0:	e1a00004 	mov	r0, r4
    afa4:	e1a01005 	mov	r1, r5
    afa8:	e28dd008 	add	sp, sp, #8
    afac:	e8bd0030 	pop	{r4, r5}
    afb0:	e12fff1e 	bx	lr

0000afb4 <get_systime_ms>:
    afb4:	eddf6a16 	vldr	s13, [pc, #88]	; b014 <get_systime_ms+0x60>
    afb8:	e3a03a03 	mov	r3, #12288	; 0x3000
    afbc:	e3433f00 	movt	r3, #16128	; 0x3f00
    afc0:	e24dd008 	sub	sp, sp, #8
    afc4:	e5932008 	ldr	r2, [r3, #8]
    afc8:	e58d2000 	str	r2, [sp]
    afcc:	e5932004 	ldr	r2, [r3, #4]
    afd0:	e58d2004 	str	r2, [sp, #4]
    afd4:	e5931008 	ldr	r1, [r3, #8]
    afd8:	e59d2000 	ldr	r2, [sp]
    afdc:	e1510002 	cmp	r1, r2
    afe0:	15932008 	ldrne	r2, [r3, #8]
    afe4:	158d2000 	strne	r2, [sp]
    afe8:	15933004 	ldrne	r3, [r3, #4]
    afec:	158d3004 	strne	r3, [sp, #4]
    aff0:	e59d3000 	ldr	r3, [sp]
    aff4:	e59d3004 	ldr	r3, [sp, #4]
    aff8:	eddd7a01 	vldr	s15, [sp, #4]
    affc:	eef87a67 	vcvt.f32.u32	s15, s15
    b000:	ee877aa6 	vdiv.f32	s14, s15, s13
    b004:	eefc7ac7 	vcvt.u32.f32	s15, s14
    b008:	ee170a90 	vmov	r0, s15
    b00c:	e28dd008 	add	sp, sp, #8
    b010:	e12fff1e 	bx	lr
    b014:	447a0000 	ldrbtmi	r0, [sl], #-0

0000b018 <get_systime32>:
    b018:	e3a03a03 	mov	r3, #12288	; 0x3000
    b01c:	e3433f00 	movt	r3, #16128	; 0x3f00
    b020:	e5930004 	ldr	r0, [r3, #4]
    b024:	e12fff1e 	bx	lr

0000b028 <msleep>:
    b028:	e3a03a03 	mov	r3, #12288	; 0x3000
    b02c:	e3433f00 	movt	r3, #16128	; 0x3f00
    b030:	e92d00f0 	push	{r4, r5, r6, r7}
    b034:	e24dd010 	sub	sp, sp, #16
    b038:	e5932008 	ldr	r2, [r3, #8]
    b03c:	e3a06000 	mov	r6, #0
    b040:	e58d2000 	str	r2, [sp]
    b044:	e5932004 	ldr	r2, [r3, #4]
    b048:	e58d2004 	str	r2, [sp, #4]
    b04c:	e5931008 	ldr	r1, [r3, #8]
    b050:	e59d2000 	ldr	r2, [sp]
    b054:	e1510002 	cmp	r1, r2
    b058:	15932008 	ldrne	r2, [r3, #8]
    b05c:	158d2000 	strne	r2, [sp]
    b060:	e3a02ffa 	mov	r2, #1000	; 0x3e8
    b064:	15933004 	ldrne	r3, [r3, #4]
    b068:	e0000092 	mul	r0, r2, r0
    b06c:	158d3004 	strne	r3, [sp, #4]
    b070:	e3a03a03 	mov	r3, #12288	; 0x3000
    b074:	e59dc000 	ldr	ip, [sp]
    b078:	e3433f00 	movt	r3, #16128	; 0x3f00
    b07c:	e59d1004 	ldr	r1, [sp, #4]
    b080:	e0966001 	adds	r6, r6, r1
    b084:	e2ac7000 	adc	r7, ip, #0
    b088:	e0966000 	adds	r6, r6, r0
    b08c:	e2a77000 	adc	r7, r7, #0
    b090:	e5932008 	ldr	r2, [r3, #8]
    b094:	e3a04000 	mov	r4, #0
    b098:	e58d2008 	str	r2, [sp, #8]
    b09c:	e5932004 	ldr	r2, [r3, #4]
    b0a0:	e58d200c 	str	r2, [sp, #12]
    b0a4:	e5931008 	ldr	r1, [r3, #8]
    b0a8:	e59d2008 	ldr	r2, [sp, #8]
    b0ac:	e1510002 	cmp	r1, r2
    b0b0:	15932008 	ldrne	r2, [r3, #8]
    b0b4:	158d2008 	strne	r2, [sp, #8]
    b0b8:	15932004 	ldrne	r2, [r3, #4]
    b0bc:	158d200c 	strne	r2, [sp, #12]
    b0c0:	e59d1008 	ldr	r1, [sp, #8]
    b0c4:	e59d200c 	ldr	r2, [sp, #12]
    b0c8:	e0940002 	adds	r0, r4, r2
    b0cc:	e2a11000 	adc	r1, r1, #0
    b0d0:	e1570001 	cmp	r7, r1
    b0d4:	01560000 	cmpeq	r6, r0
    b0d8:	8affffec 	bhi	b090 <msleep+0x68>
    b0dc:	e28dd010 	add	sp, sp, #16
    b0e0:	e8bd00f0 	pop	{r4, r5, r6, r7}
    b0e4:	e12fff1e 	bx	lr

0000b0e8 <msleep32>:
    b0e8:	e3a02a03 	mov	r2, #12288	; 0x3000
    b0ec:	e3a03ffa 	mov	r3, #1000	; 0x3e8
    b0f0:	e3432f00 	movt	r2, #16128	; 0x3f00
    b0f4:	e5921004 	ldr	r1, [r2, #4]
    b0f8:	e0201093 	mla	r0, r3, r0, r1
    b0fc:	e5923004 	ldr	r3, [r2, #4]
    b100:	e1530000 	cmp	r3, r0
    b104:	3afffffc 	bcc	b0fc <msleep32+0x14>
    b108:	e12fff1e 	bx	lr

Disassembly of section .text.startup:

0000b10c <main>:
    b10c:	e92d4010 	push	{r4, lr}
    b110:	ebfffbc8 	bl	a038 <uart_init>
    b114:	e30c0010 	movw	r0, #49168	; 0xc010
    b118:	e3400001 	movt	r0, #1
    b11c:	ebfffbed 	bl	a0d8 <uart_puts>
    b120:	e30c0044 	movw	r0, #49220	; 0xc044
    b124:	e3400001 	movt	r0, #1
    b128:	ebfffbea 	bl	a0d8 <uart_puts>
    b12c:	e30c0010 	movw	r0, #49168	; 0xc010
    b130:	e3400001 	movt	r0, #1
    b134:	ebfffbe7 	bl	a0d8 <uart_puts>
    b138:	e30c0054 	movw	r0, #49236	; 0xc054
    b13c:	e3400001 	movt	r0, #1
    b140:	ebfffbe4 	bl	a0d8 <uart_puts>
    b144:	e30c0010 	movw	r0, #49168	; 0xc010
    b148:	e3400001 	movt	r0, #1
    b14c:	ebfffbe1 	bl	a0d8 <uart_puts>
    b150:	ebffff97 	bl	afb4 <get_systime_ms>
    b154:	e1a04000 	mov	r4, r0
    b158:	ebfff860 	bl	92e0 <MInit>
    b15c:	ebffff94 	bl	afb4 <get_systime_ms>
    b160:	e0641000 	rsb	r1, r4, r0
    b164:	e30c0060 	movw	r0, #49248	; 0xc060
    b168:	e3400001 	movt	r0, #1
    b16c:	ebfffc51 	bl	a2b8 <uart_debug_puts>
    b170:	e3061e00 	movw	r1, #28160	; 0x6e00
    b174:	e30c006c 	movw	r0, #49260	; 0xc06c
    b178:	e3401003 	movt	r1, #3
    b17c:	e3400001 	movt	r0, #1
    b180:	ebfffc4c 	bl	a2b8 <uart_debug_puts>
    b184:	e3061e40 	movw	r1, #28224	; 0x6e40
    b188:	e30c0078 	movw	r0, #49272	; 0xc078
    b18c:	e3400001 	movt	r0, #1
    b190:	e3401003 	movt	r1, #3
    b194:	ebfffc47 	bl	a2b8 <uart_debug_puts>
    b198:	e30c0084 	movw	r0, #49284	; 0xc084
    b19c:	e3400001 	movt	r0, #1
    b1a0:	ebfffbcc 	bl	a0d8 <uart_puts>
    b1a4:	eafffffe 	b	b1a4 <main+0x98>

Disassembly of section .rodata:

0000c000 <__rodata_start>:
	...
    e020:	ff000000 			; <UNDEFINED> instruction: 0xff000000
    e024:	ff0000ff 			; <UNDEFINED> instruction: 0xff0000ff
    e028:	000000ff 	strdeq	r0, [r0], -pc	; <UNPREDICTABLE>
	...
    e074:	ffffff00 			; <UNDEFINED> instruction: 0xffffff00
    e078:	000000ff 	strdeq	r0, [r0], -pc	; <UNPREDICTABLE>
	...
    e084:	ffffff00 			; <UNDEFINED> instruction: 0xffffff00
    e088:	000000ff 	strdeq	r0, [r0], -pc	; <UNPREDICTABLE>
	...
    e094:	ffffff00 			; <UNDEFINED> instruction: 0xffffff00
    e098:	000000ff 	strdeq	r0, [r0], -pc	; <UNPREDICTABLE>
	...
    e0fc:	00ffff00 	rscseq	pc, pc, r0, lsl #30
	...
    e120:	ff000000 			; <UNDEFINED> instruction: 0xff000000
    e124:	ff0000ff 			; <UNDEFINED> instruction: 0xff0000ff
    e128:	000000ff 	strdeq	r0, [r0], -pc	; <UNPREDICTABLE>
	...
    e174:	ffffff00 			; <UNDEFINED> instruction: 0xffffff00
    e178:	000000ff 	strdeq	r0, [r0], -pc	; <UNPREDICTABLE>
	...
    e184:	ffffff00 			; <UNDEFINED> instruction: 0xffffff00
    e188:	000000ff 	strdeq	r0, [r0], -pc	; <UNPREDICTABLE>
	...
    e194:	ffffff00 			; <UNDEFINED> instruction: 0xffffff00
    e198:	000000ff 	strdeq	r0, [r0], -pc	; <UNPREDICTABLE>
	...
    e1fc:	00ffff00 	rscseq	pc, pc, r0, lsl #30
	...
    e214:	ffffff00 			; <UNDEFINED> instruction: 0xffffff00
    e218:	000000ff 	strdeq	r0, [r0], -pc	; <UNPREDICTABLE>
    e21c:	00000000 	andeq	r0, r0, r0
    e220:	ff000000 			; <UNDEFINED> instruction: 0xff000000
    e224:	ff0000ff 			; <UNDEFINED> instruction: 0xff0000ff
    e228:	000000ff 	strdeq	r0, [r0], -pc	; <UNPREDICTABLE>
    e22c:	00000000 	andeq	r0, r0, r0
    e230:	ff000000 			; <UNDEFINED> instruction: 0xff000000
    e234:	ff0000ff 			; <UNDEFINED> instruction: 0xff0000ff
    e238:	00ffffff 	ldrshteq	pc, [pc], #255	; <UNPREDICTABLE>
	...
    e244:	ffffff00 			; <UNDEFINED> instruction: 0xffffff00
    e248:	000000ff 	strdeq	r0, [r0], -pc	; <UNPREDICTABLE>
    e24c:	00000000 	andeq	r0, r0, r0
    e250:	00ffff00 	rscseq	pc, pc, r0, lsl #30
    e254:	00000000 	andeq	r0, r0, r0
    e258:	ff000000 			; <UNDEFINED> instruction: 0xff000000
    e25c:	000000ff 	strdeq	r0, [r0], -pc	; <UNPREDICTABLE>
    e260:	ffffff00 			; <UNDEFINED> instruction: 0xffffff00
    e264:	00ffffff 	ldrshteq	pc, [pc], #255	; <UNPREDICTABLE>
	...
    e274:	ffffff00 			; <UNDEFINED> instruction: 0xffffff00
    e278:	000000ff 	strdeq	r0, [r0], -pc	; <UNPREDICTABLE>
    e27c:	00000000 	andeq	r0, r0, r0
    e280:	ff000000 			; <UNDEFINED> instruction: 0xff000000
    e284:	000000ff 	strdeq	r0, [r0], -pc	; <UNPREDICTABLE>
	...
    e298:	00ffff00 	rscseq	pc, pc, r0, lsl #30
    e29c:	00000000 	andeq	r0, r0, r0
    e2a0:	00ffff00 	rscseq	pc, pc, r0, lsl #30
    e2a4:	00000000 	andeq	r0, r0, r0
    e2a8:	ff000000 			; <UNDEFINED> instruction: 0xff000000
    e2ac:	000000ff 	strdeq	r0, [r0], -pc	; <UNPREDICTABLE>
    e2b0:	00000000 	andeq	r0, r0, r0
    e2b4:	ffffff00 			; <UNDEFINED> instruction: 0xffffff00
    e2b8:	000000ff 	strdeq	r0, [r0], -pc	; <UNPREDICTABLE>
	...
    e2f8:	ff000000 			; <UNDEFINED> instruction: 0xff000000
    e2fc:	000000ff 	strdeq	r0, [r0], -pc	; <UNPREDICTABLE>
	...
    e314:	ffffff00 			; <UNDEFINED> instruction: 0xffffff00
    e318:	000000ff 	strdeq	r0, [r0], -pc	; <UNPREDICTABLE>
    e31c:	00000000 	andeq	r0, r0, r0
    e320:	ff000000 			; <UNDEFINED> instruction: 0xff000000
    e324:	ff0000ff 			; <UNDEFINED> instruction: 0xff0000ff
    e328:	000000ff 	strdeq	r0, [r0], -pc	; <UNPREDICTABLE>
    e32c:	00000000 	andeq	r0, r0, r0
    e330:	ff000000 			; <UNDEFINED> instruction: 0xff000000
    e334:	ff0000ff 			; <UNDEFINED> instruction: 0xff0000ff
    e338:	00ffffff 	ldrshteq	pc, [pc], #255	; <UNPREDICTABLE>
	...
    e344:	ffffff00 			; <UNDEFINED> instruction: 0xffffff00
    e348:	000000ff 	strdeq	r0, [r0], -pc	; <UNPREDICTABLE>
    e34c:	00000000 	andeq	r0, r0, r0
    e350:	00ffff00 	rscseq	pc, pc, r0, lsl #30
    e354:	00000000 	andeq	r0, r0, r0
    e358:	ff000000 			; <UNDEFINED> instruction: 0xff000000
    e35c:	000000ff 	strdeq	r0, [r0], -pc	; <UNPREDICTABLE>
    e360:	ffffff00 			; <UNDEFINED> instruction: 0xffffff00
    e364:	00ffffff 	ldrshteq	pc, [pc], #255	; <UNPREDICTABLE>
	...
    e374:	ffffff00 			; <UNDEFINED> instruction: 0xffffff00
    e378:	000000ff 	strdeq	r0, [r0], -pc	; <UNPREDICTABLE>
    e37c:	00000000 	andeq	r0, r0, r0
    e380:	ff000000 			; <UNDEFINED> instruction: 0xff000000
    e384:	000000ff 	strdeq	r0, [r0], -pc	; <UNPREDICTABLE>
	...
    e398:	00ffff00 	rscseq	pc, pc, r0, lsl #30
    e39c:	00000000 	andeq	r0, r0, r0
    e3a0:	00ffff00 	rscseq	pc, pc, r0, lsl #30
    e3a4:	00000000 	andeq	r0, r0, r0
    e3a8:	ff000000 			; <UNDEFINED> instruction: 0xff000000
    e3ac:	000000ff 	strdeq	r0, [r0], -pc	; <UNPREDICTABLE>
    e3b0:	00000000 	andeq	r0, r0, r0
    e3b4:	ffffff00 			; <UNDEFINED> instruction: 0xffffff00
    e3b8:	000000ff 	strdeq	r0, [r0], -pc	; <UNPREDICTABLE>
	...
    e3f8:	ff000000 			; <UNDEFINED> instruction: 0xff000000
    e3fc:	000000ff 	strdeq	r0, [r0], -pc	; <UNPREDICTABLE>
	...
    e414:	ffffff00 			; <UNDEFINED> instruction: 0xffffff00
    e418:	000000ff 	strdeq	r0, [r0], -pc	; <UNPREDICTABLE>
	...
    e42c:	ff000000 			; <UNDEFINED> instruction: 0xff000000
    e430:	ffffffff 			; <UNDEFINED> instruction: 0xffffffff
    e434:	ffffffff 			; <UNDEFINED> instruction: 0xffffffff
    e438:	ffffffff 			; <UNDEFINED> instruction: 0xffffffff
    e43c:	00ffffff 	ldrshteq	pc, [pc], #255	; <UNPREDICTABLE>
    e440:	ffffff00 			; <UNDEFINED> instruction: 0xffffff00
    e444:	ffffffff 			; <UNDEFINED> instruction: 0xffffffff
    e448:	ffffffff 			; <UNDEFINED> instruction: 0xffffffff
    e44c:	ff0000ff 			; <UNDEFINED> instruction: 0xff0000ff
    e450:	ff0000ff 			; <UNDEFINED> instruction: 0xff0000ff
    e454:	000000ff 	strdeq	r0, [r0], -pc	; <UNPREDICTABLE>
    e458:	00ffff00 	rscseq	pc, pc, r0, lsl #30
    e45c:	00000000 	andeq	r0, r0, r0
    e460:	00ffff00 	rscseq	pc, pc, r0, lsl #30
    e464:	ff000000 			; <UNDEFINED> instruction: 0xff000000
    e468:	000000ff 	strdeq	r0, [r0], -pc	; <UNPREDICTABLE>
	...
    e474:	ff000000 			; <UNDEFINED> instruction: 0xff000000
    e478:	000000ff 	strdeq	r0, [r0], -pc	; <UNPREDICTABLE>
    e47c:	00000000 	andeq	r0, r0, r0
    e480:	00ffff00 	rscseq	pc, pc, r0, lsl #30
	...
    e498:	ff000000 			; <UNDEFINED> instruction: 0xff000000
    e49c:	000000ff 	strdeq	r0, [r0], -pc	; <UNPREDICTABLE>
    e4a0:	ff000000 			; <UNDEFINED> instruction: 0xff000000
    e4a4:	000000ff 	strdeq	r0, [r0], -pc	; <UNPREDICTABLE>
    e4a8:	00ffff00 	rscseq	pc, pc, r0, lsl #30
	...
    e4b4:	ffffff00 			; <UNDEFINED> instruction: 0xffffff00
    e4b8:	000000ff 	strdeq	r0, [r0], -pc	; <UNPREDICTABLE>
	...
    e4f8:	00ffff00 	rscseq	pc, pc, r0, lsl #30
	...
    e514:	ffffff00 			; <UNDEFINED> instruction: 0xffffff00
    e518:	000000ff 	strdeq	r0, [r0], -pc	; <UNPREDICTABLE>
	...
    e52c:	ff000000 			; <UNDEFINED> instruction: 0xff000000
    e530:	ffffffff 			; <UNDEFINED> instruction: 0xffffffff
    e534:	ffffffff 			; <UNDEFINED> instruction: 0xffffffff
    e538:	ffffffff 			; <UNDEFINED> instruction: 0xffffffff
    e53c:	00ffffff 	ldrshteq	pc, [pc], #255	; <UNPREDICTABLE>
    e540:	ffffff00 			; <UNDEFINED> instruction: 0xffffff00
    e544:	ffffffff 			; <UNDEFINED> instruction: 0xffffffff
    e548:	ffffffff 			; <UNDEFINED> instruction: 0xffffffff
    e54c:	ff0000ff 			; <UNDEFINED> instruction: 0xff0000ff
    e550:	ff0000ff 			; <UNDEFINED> instruction: 0xff0000ff
    e554:	000000ff 	strdeq	r0, [r0], -pc	; <UNPREDICTABLE>
    e558:	00ffff00 	rscseq	pc, pc, r0, lsl #30
    e55c:	00000000 	andeq	r0, r0, r0
    e560:	00ffff00 	rscseq	pc, pc, r0, lsl #30
    e564:	ff000000 			; <UNDEFINED> instruction: 0xff000000
    e568:	000000ff 	strdeq	r0, [r0], -pc	; <UNPREDICTABLE>
	...
    e574:	ff000000 			; <UNDEFINED> instruction: 0xff000000
    e578:	000000ff 	strdeq	r0, [r0], -pc	; <UNPREDICTABLE>
    e57c:	00000000 	andeq	r0, r0, r0
    e580:	00ffff00 	rscseq	pc, pc, r0, lsl #30
	...
    e598:	ff000000 			; <UNDEFINED> instruction: 0xff000000
    e59c:	000000ff 	strdeq	r0, [r0], -pc	; <UNPREDICTABLE>
    e5a0:	ff000000 			; <UNDEFINED> instruction: 0xff000000
    e5a4:	000000ff 	strdeq	r0, [r0], -pc	; <UNPREDICTABLE>
    e5a8:	00ffff00 	rscseq	pc, pc, r0, lsl #30
	...
    e5b4:	ffffff00 			; <UNDEFINED> instruction: 0xffffff00
    e5b8:	000000ff 	strdeq	r0, [r0], -pc	; <UNPREDICTABLE>
	...
    e5f8:	00ffff00 	rscseq	pc, pc, r0, lsl #30
	...
    e614:	ffffff00 			; <UNDEFINED> instruction: 0xffffff00
    e618:	000000ff 	strdeq	r0, [r0], -pc	; <UNPREDICTABLE>
	...
    e630:	ff000000 			; <UNDEFINED> instruction: 0xff000000
    e634:	ff0000ff 			; <UNDEFINED> instruction: 0xff0000ff
    e638:	00ffffff 	ldrshteq	pc, [pc], #255	; <UNPREDICTABLE>
    e63c:	00000000 	andeq	r0, r0, r0
    e640:	00ffff00 	rscseq	pc, pc, r0, lsl #30
    e644:	ffffff00 			; <UNDEFINED> instruction: 0xffffff00
    e648:	000000ff 	strdeq	r0, [r0], -pc	; <UNPREDICTABLE>
    e64c:	00000000 	andeq	r0, r0, r0
    e650:	00ffff00 	rscseq	pc, pc, r0, lsl #30
    e654:	ff000000 			; <UNDEFINED> instruction: 0xff000000
    e658:	000000ff 	strdeq	r0, [r0], -pc	; <UNPREDICTABLE>
    e65c:	00000000 	andeq	r0, r0, r0
    e660:	ffffff00 			; <UNDEFINED> instruction: 0xffffff00
    e664:	ffffffff 			; <UNDEFINED> instruction: 0xffffffff
    e668:	000000ff 	strdeq	r0, [r0], -pc	; <UNPREDICTABLE>
	...
    e680:	00ffff00 	rscseq	pc, pc, r0, lsl #30
	...
    e698:	ff000000 			; <UNDEFINED> instruction: 0xff000000
    e69c:	000000ff 	strdeq	r0, [r0], -pc	; <UNPREDICTABLE>
    e6a0:	ffffff00 			; <UNDEFINED> instruction: 0xffffff00
    e6a4:	ffffffff 			; <UNDEFINED> instruction: 0xffffffff
    e6a8:	ffffffff 			; <UNDEFINED> instruction: 0xffffffff
    e6ac:	000000ff 	strdeq	r0, [r0], -pc	; <UNPREDICTABLE>
    e6b0:	ffffff00 			; <UNDEFINED> instruction: 0xffffff00
    e6b4:	ffffffff 			; <UNDEFINED> instruction: 0xffffffff
    e6b8:	ffffffff 			; <UNDEFINED> instruction: 0xffffffff
    e6bc:	000000ff 	strdeq	r0, [r0], -pc	; <UNPREDICTABLE>
	...
    e6f4:	ff000000 			; <UNDEFINED> instruction: 0xff000000
    e6f8:	000000ff 	strdeq	r0, [r0], -pc	; <UNPREDICTABLE>
	...
    e714:	ffffff00 			; <UNDEFINED> instruction: 0xffffff00
    e718:	000000ff 	strdeq	r0, [r0], -pc	; <UNPREDICTABLE>
	...
    e730:	ff000000 			; <UNDEFINED> instruction: 0xff000000
    e734:	ff0000ff 			; <UNDEFINED> instruction: 0xff0000ff
    e738:	00ffffff 	ldrshteq	pc, [pc], #255	; <UNPREDICTABLE>
    e73c:	00000000 	andeq	r0, r0, r0
    e740:	00ffff00 	rscseq	pc, pc, r0, lsl #30
    e744:	ffffff00 			; <UNDEFINED> instruction: 0xffffff00
    e748:	000000ff 	strdeq	r0, [r0], -pc	; <UNPREDICTABLE>
    e74c:	00000000 	andeq	r0, r0, r0
    e750:	00ffff00 	rscseq	pc, pc, r0, lsl #30
    e754:	ff000000 			; <UNDEFINED> instruction: 0xff000000
    e758:	000000ff 	strdeq	r0, [r0], -pc	; <UNPREDICTABLE>
    e75c:	00000000 	andeq	r0, r0, r0
    e760:	ffffff00 			; <UNDEFINED> instruction: 0xffffff00
    e764:	ffffffff 			; <UNDEFINED> instruction: 0xffffffff
    e768:	000000ff 	strdeq	r0, [r0], -pc	; <UNPREDICTABLE>
	...
    e780:	00ffff00 	rscseq	pc, pc, r0, lsl #30
	...
    e798:	ff000000 			; <UNDEFINED> instruction: 0xff000000
    e79c:	000000ff 	strdeq	r0, [r0], -pc	; <UNPREDICTABLE>
    e7a0:	ffffff00 			; <UNDEFINED> instruction: 0xffffff00
    e7a4:	ffffffff 			; <UNDEFINED> instruction: 0xffffffff
    e7a8:	ffffffff 			; <UNDEFINED> instruction: 0xffffffff
    e7ac:	000000ff 	strdeq	r0, [r0], -pc	; <UNPREDICTABLE>
    e7b0:	ffffff00 			; <UNDEFINED> instruction: 0xffffff00
    e7b4:	ffffffff 			; <UNDEFINED> instruction: 0xffffffff
    e7b8:	ffffffff 			; <UNDEFINED> instruction: 0xffffffff
    e7bc:	000000ff 	strdeq	r0, [r0], -pc	; <UNPREDICTABLE>
	...
    e7f4:	ff000000 			; <UNDEFINED> instruction: 0xff000000
    e7f8:	000000ff 	strdeq	r0, [r0], -pc	; <UNPREDICTABLE>
	...
    e814:	ffffff00 			; <UNDEFINED> instruction: 0xffffff00
    e818:	000000ff 	strdeq	r0, [r0], -pc	; <UNPREDICTABLE>
	...
    e830:	ff000000 			; <UNDEFINED> instruction: 0xff000000
    e834:	ff0000ff 			; <UNDEFINED> instruction: 0xff0000ff
    e838:	00ffffff 	ldrshteq	pc, [pc], #255	; <UNPREDICTABLE>
    e83c:	00000000 	andeq	r0, r0, r0
    e840:	ffffff00 			; <UNDEFINED> instruction: 0xffffff00
    e844:	ffffffff 			; <UNDEFINED> instruction: 0xffffffff
    e848:	ffffffff 			; <UNDEFINED> instruction: 0xffffffff
    e84c:	000000ff 	strdeq	r0, [r0], -pc	; <UNPREDICTABLE>
    e850:	00000000 	andeq	r0, r0, r0
    e854:	00ffff00 	rscseq	pc, pc, r0, lsl #30
    e858:	ff000000 			; <UNDEFINED> instruction: 0xff000000
    e85c:	000000ff 	strdeq	r0, [r0], -pc	; <UNPREDICTABLE>
    e860:	00000000 	andeq	r0, r0, r0
    e864:	ff000000 			; <UNDEFINED> instruction: 0xff000000
    e868:	ff0000ff 			; <UNDEFINED> instruction: 0xff0000ff
    e86c:	000000ff 	strdeq	r0, [r0], -pc	; <UNPREDICTABLE>
	...
    e880:	00ffff00 	rscseq	pc, pc, r0, lsl #30
	...
    e898:	ff000000 			; <UNDEFINED> instruction: 0xff000000
    e89c:	000000ff 	strdeq	r0, [r0], -pc	; <UNPREDICTABLE>
    e8a0:	ffffff00 			; <UNDEFINED> instruction: 0xffffff00
    e8a4:	ffffffff 			; <UNDEFINED> instruction: 0xffffffff
    e8a8:	ffffffff 			; <UNDEFINED> instruction: 0xffffffff
    e8ac:	000000ff 	strdeq	r0, [r0], -pc	; <UNPREDICTABLE>
    e8b0:	ffffff00 			; <UNDEFINED> instruction: 0xffffff00
    e8b4:	ffffffff 			; <UNDEFINED> instruction: 0xffffffff
    e8b8:	ffffffff 			; <UNDEFINED> instruction: 0xffffffff
    e8bc:	000000ff 	strdeq	r0, [r0], -pc	; <UNPREDICTABLE>
	...
    e8d0:	ffffff00 			; <UNDEFINED> instruction: 0xffffff00
    e8d4:	ffffffff 			; <UNDEFINED> instruction: 0xffffffff
    e8d8:	ffffffff 			; <UNDEFINED> instruction: 0xffffffff
    e8dc:	000000ff 	strdeq	r0, [r0], -pc	; <UNPREDICTABLE>
	...
    e8f4:	00ffff00 	rscseq	pc, pc, r0, lsl #30
	...
    e914:	ffffff00 			; <UNDEFINED> instruction: 0xffffff00
    e918:	000000ff 	strdeq	r0, [r0], -pc	; <UNPREDICTABLE>
	...
    e930:	ff000000 			; <UNDEFINED> instruction: 0xff000000
    e934:	ff0000ff 			; <UNDEFINED> instruction: 0xff0000ff
    e938:	00ffffff 	ldrshteq	pc, [pc], #255	; <UNPREDICTABLE>
    e93c:	00000000 	andeq	r0, r0, r0
    e940:	ffffff00 			; <UNDEFINED> instruction: 0xffffff00
    e944:	ffffffff 			; <UNDEFINED> instruction: 0xffffffff
    e948:	ffffffff 			; <UNDEFINED> instruction: 0xffffffff
    e94c:	000000ff 	strdeq	r0, [r0], -pc	; <UNPREDICTABLE>
    e950:	00000000 	andeq	r0, r0, r0
    e954:	00ffff00 	rscseq	pc, pc, r0, lsl #30
    e958:	ff000000 			; <UNDEFINED> instruction: 0xff000000
    e95c:	000000ff 	strdeq	r0, [r0], -pc	; <UNPREDICTABLE>
    e960:	00000000 	andeq	r0, r0, r0
    e964:	ff000000 			; <UNDEFINED> instruction: 0xff000000
    e968:	ff0000ff 			; <UNDEFINED> instruction: 0xff0000ff
    e96c:	000000ff 	strdeq	r0, [r0], -pc	; <UNPREDICTABLE>
	...
    e980:	00ffff00 	rscseq	pc, pc, r0, lsl #30
	...
    e998:	ff000000 			; <UNDEFINED> instruction: 0xff000000
    e99c:	000000ff 	strdeq	r0, [r0], -pc	; <UNPREDICTABLE>
    e9a0:	ffffff00 			; <UNDEFINED> instruction: 0xffffff00
    e9a4:	ffffffff 			; <UNDEFINED> instruction: 0xffffffff
    e9a8:	ffffffff 			; <UNDEFINED> instruction: 0xffffffff
    e9ac:	000000ff 	strdeq	r0, [r0], -pc	; <UNPREDICTABLE>
    e9b0:	ffffff00 			; <UNDEFINED> instruction: 0xffffff00
    e9b4:	ffffffff 			; <UNDEFINED> instruction: 0xffffffff
    e9b8:	ffffffff 			; <UNDEFINED> instruction: 0xffffffff
    e9bc:	000000ff 	strdeq	r0, [r0], -pc	; <UNPREDICTABLE>
	...
    e9d0:	ffffff00 			; <UNDEFINED> instruction: 0xffffff00
    e9d4:	ffffffff 			; <UNDEFINED> instruction: 0xffffffff
    e9d8:	ffffffff 			; <UNDEFINED> instruction: 0xffffffff
    e9dc:	000000ff 	strdeq	r0, [r0], -pc	; <UNPREDICTABLE>
	...
    e9f4:	00ffff00 	rscseq	pc, pc, r0, lsl #30
	...
    ea2c:	ff000000 			; <UNDEFINED> instruction: 0xff000000
    ea30:	ffffffff 			; <UNDEFINED> instruction: 0xffffffff
    ea34:	ffffffff 			; <UNDEFINED> instruction: 0xffffffff
    ea38:	ffffffff 			; <UNDEFINED> instruction: 0xffffffff
    ea3c:	00ffffff 	ldrshteq	pc, [pc], #255	; <UNPREDICTABLE>
    ea40:	00000000 	andeq	r0, r0, r0
    ea44:	ffffff00 			; <UNDEFINED> instruction: 0xffffff00
    ea48:	ff0000ff 			; <UNDEFINED> instruction: 0xff0000ff
    ea4c:	000000ff 	strdeq	r0, [r0], -pc	; <UNPREDICTABLE>
    ea50:	ff000000 			; <UNDEFINED> instruction: 0xff000000
    ea54:	000000ff 	strdeq	r0, [r0], -pc	; <UNPREDICTABLE>
    ea58:	00ffff00 	rscseq	pc, pc, r0, lsl #30
    ea5c:	00ffff00 	rscseq	pc, pc, r0, lsl #30
    ea60:	ff000000 			; <UNDEFINED> instruction: 0xff000000
    ea64:	00ffffff 	ldrshteq	pc, [pc], #255	; <UNPREDICTABLE>
    ea68:	ffffff00 			; <UNDEFINED> instruction: 0xffffff00
    ea6c:	00ffffff 	ldrshteq	pc, [pc], #255	; <UNPREDICTABLE>
	...
    ea80:	00ffff00 	rscseq	pc, pc, r0, lsl #30
	...
    ea98:	ff000000 			; <UNDEFINED> instruction: 0xff000000
    ea9c:	000000ff 	strdeq	r0, [r0], -pc	; <UNPREDICTABLE>
    eaa0:	ff000000 			; <UNDEFINED> instruction: 0xff000000
    eaa4:	000000ff 	strdeq	r0, [r0], -pc	; <UNPREDICTABLE>
    eaa8:	00ffff00 	rscseq	pc, pc, r0, lsl #30
	...
    eab4:	ffffff00 			; <UNDEFINED> instruction: 0xffffff00
    eab8:	000000ff 	strdeq	r0, [r0], -pc	; <UNPREDICTABLE>
	...
    eac4:	ffffff00 			; <UNDEFINED> instruction: 0xffffff00
    eac8:	000000ff 	strdeq	r0, [r0], -pc	; <UNPREDICTABLE>
	...
    eaf0:	ff000000 			; <UNDEFINED> instruction: 0xff000000
    eaf4:	000000ff 	strdeq	r0, [r0], -pc	; <UNPREDICTABLE>
	...
    eb2c:	ff000000 			; <UNDEFINED> instruction: 0xff000000
    eb30:	ffffffff 			; <UNDEFINED> instruction: 0xffffffff
    eb34:	ffffffff 			; <UNDEFINED> instruction: 0xffffffff
    eb38:	ffffffff 			; <UNDEFINED> instruction: 0xffffffff
    eb3c:	00ffffff 	ldrshteq	pc, [pc], #255	; <UNPREDICTABLE>
    eb40:	00000000 	andeq	r0, r0, r0
    eb44:	ffffff00 			; <UNDEFINED> instruction: 0xffffff00
    eb48:	ff0000ff 			; <UNDEFINED> instruction: 0xff0000ff
    eb4c:	000000ff 	strdeq	r0, [r0], -pc	; <UNPREDICTABLE>
    eb50:	ff000000 			; <UNDEFINED> instruction: 0xff000000
    eb54:	000000ff 	strdeq	r0, [r0], -pc	; <UNPREDICTABLE>
    eb58:	00ffff00 	rscseq	pc, pc, r0, lsl #30
    eb5c:	00ffff00 	rscseq	pc, pc, r0, lsl #30
    eb60:	ff000000 			; <UNDEFINED> instruction: 0xff000000
    eb64:	00ffffff 	ldrshteq	pc, [pc], #255	; <UNPREDICTABLE>
    eb68:	ffffff00 			; <UNDEFINED> instruction: 0xffffff00
    eb6c:	00ffffff 	ldrshteq	pc, [pc], #255	; <UNPREDICTABLE>
	...
    eb80:	00ffff00 	rscseq	pc, pc, r0, lsl #30
	...
    eb98:	ff000000 			; <UNDEFINED> instruction: 0xff000000
    eb9c:	000000ff 	strdeq	r0, [r0], -pc	; <UNPREDICTABLE>
    eba0:	ff000000 			; <UNDEFINED> instruction: 0xff000000
    eba4:	000000ff 	strdeq	r0, [r0], -pc	; <UNPREDICTABLE>
    eba8:	00ffff00 	rscseq	pc, pc, r0, lsl #30
	...
    ebb4:	ffffff00 			; <UNDEFINED> instruction: 0xffffff00
    ebb8:	000000ff 	strdeq	r0, [r0], -pc	; <UNPREDICTABLE>
	...
    ebc4:	ffffff00 			; <UNDEFINED> instruction: 0xffffff00
    ebc8:	000000ff 	strdeq	r0, [r0], -pc	; <UNPREDICTABLE>
	...
    ebf0:	ff000000 			; <UNDEFINED> instruction: 0xff000000
    ebf4:	000000ff 	strdeq	r0, [r0], -pc	; <UNPREDICTABLE>
	...
    ec14:	ffffff00 			; <UNDEFINED> instruction: 0xffffff00
    ec18:	000000ff 	strdeq	r0, [r0], -pc	; <UNPREDICTABLE>
	...
    ec30:	ff000000 			; <UNDEFINED> instruction: 0xff000000
    ec34:	ff0000ff 			; <UNDEFINED> instruction: 0xff0000ff
    ec38:	00ffffff 	ldrshteq	pc, [pc], #255	; <UNPREDICTABLE>
    ec3c:	00000000 	andeq	r0, r0, r0
    ec40:	ffffff00 			; <UNDEFINED> instruction: 0xffffff00
    ec44:	ffffffff 			; <UNDEFINED> instruction: 0xffffffff
    ec48:	ffffffff 			; <UNDEFINED> instruction: 0xffffffff
    ec4c:	000000ff 	strdeq	r0, [r0], -pc	; <UNPREDICTABLE>
    ec50:	00ffff00 	rscseq	pc, pc, r0, lsl #30
    ec54:	00000000 	andeq	r0, r0, r0
    ec58:	ff000000 			; <UNDEFINED> instruction: 0xff000000
    ec5c:	000000ff 	strdeq	r0, [r0], -pc	; <UNPREDICTABLE>
    ec60:	00ffff00 	rscseq	pc, pc, r0, lsl #30
    ec64:	00000000 	andeq	r0, r0, r0
    ec68:	ff000000 			; <UNDEFINED> instruction: 0xff000000
    ec6c:	000000ff 	strdeq	r0, [r0], -pc	; <UNPREDICTABLE>
	...
    ec80:	ff000000 			; <UNDEFINED> instruction: 0xff000000
    ec84:	000000ff 	strdeq	r0, [r0], -pc	; <UNPREDICTABLE>
	...
    ec98:	00ffff00 	rscseq	pc, pc, r0, lsl #30
    ec9c:	00000000 	andeq	r0, r0, r0
    eca0:	00ffff00 	rscseq	pc, pc, r0, lsl #30
    eca4:	00000000 	andeq	r0, r0, r0
    eca8:	ff000000 			; <UNDEFINED> instruction: 0xff000000
    ecac:	000000ff 	strdeq	r0, [r0], -pc	; <UNPREDICTABLE>
    ecb0:	00000000 	andeq	r0, r0, r0
    ecb4:	ffffff00 			; <UNDEFINED> instruction: 0xffffff00
    ecb8:	000000ff 	strdeq	r0, [r0], -pc	; <UNPREDICTABLE>
	...
    ecc4:	ffffff00 			; <UNDEFINED> instruction: 0xffffff00
    ecc8:	000000ff 	strdeq	r0, [r0], -pc	; <UNPREDICTABLE>
	...
    ece4:	ffffff00 			; <UNDEFINED> instruction: 0xffffff00
    ece8:	000000ff 	strdeq	r0, [r0], -pc	; <UNPREDICTABLE>
    ecec:	00000000 	andeq	r0, r0, r0
    ecf0:	00ffff00 	rscseq	pc, pc, r0, lsl #30
	...
    ed14:	ffffff00 			; <UNDEFINED> instruction: 0xffffff00
    ed18:	000000ff 	strdeq	r0, [r0], -pc	; <UNPREDICTABLE>
	...
    ed30:	ff000000 			; <UNDEFINED> instruction: 0xff000000
    ed34:	ff0000ff 			; <UNDEFINED> instruction: 0xff0000ff
    ed38:	00ffffff 	ldrshteq	pc, [pc], #255	; <UNPREDICTABLE>
    ed3c:	00000000 	andeq	r0, r0, r0
    ed40:	ffffff00 			; <UNDEFINED> instruction: 0xffffff00
    ed44:	ffffffff 			; <UNDEFINED> instruction: 0xffffffff
    ed48:	ffffffff 			; <UNDEFINED> instruction: 0xffffffff
    ed4c:	000000ff 	strdeq	r0, [r0], -pc	; <UNPREDICTABLE>
    ed50:	00ffff00 	rscseq	pc, pc, r0, lsl #30
    ed54:	00000000 	andeq	r0, r0, r0
    ed58:	ff000000 			; <UNDEFINED> instruction: 0xff000000
    ed5c:	000000ff 	strdeq	r0, [r0], -pc	; <UNPREDICTABLE>
    ed60:	00ffff00 	rscseq	pc, pc, r0, lsl #30
    ed64:	00000000 	andeq	r0, r0, r0
    ed68:	ff000000 			; <UNDEFINED> instruction: 0xff000000
    ed6c:	000000ff 	strdeq	r0, [r0], -pc	; <UNPREDICTABLE>
	...
    ed80:	ff000000 			; <UNDEFINED> instruction: 0xff000000
    ed84:	000000ff 	strdeq	r0, [r0], -pc	; <UNPREDICTABLE>
	...
    ed98:	00ffff00 	rscseq	pc, pc, r0, lsl #30
    ed9c:	00000000 	andeq	r0, r0, r0
    eda0:	00ffff00 	rscseq	pc, pc, r0, lsl #30
    eda4:	00000000 	andeq	r0, r0, r0
    eda8:	ff000000 			; <UNDEFINED> instruction: 0xff000000
    edac:	000000ff 	strdeq	r0, [r0], -pc	; <UNPREDICTABLE>
    edb0:	00000000 	andeq	r0, r0, r0
    edb4:	ffffff00 			; <UNDEFINED> instruction: 0xffffff00
    edb8:	000000ff 	strdeq	r0, [r0], -pc	; <UNPREDICTABLE>
	...
    edc4:	ffffff00 			; <UNDEFINED> instruction: 0xffffff00
    edc8:	000000ff 	strdeq	r0, [r0], -pc	; <UNPREDICTABLE>
	...
    ede4:	ffffff00 			; <UNDEFINED> instruction: 0xffffff00
    ede8:	000000ff 	strdeq	r0, [r0], -pc	; <UNPREDICTABLE>
    edec:	00000000 	andeq	r0, r0, r0
    edf0:	00ffff00 	rscseq	pc, pc, r0, lsl #30
	...
    ee14:	ffffff00 			; <UNDEFINED> instruction: 0xffffff00
    ee18:	000000ff 	strdeq	r0, [r0], -pc	; <UNPREDICTABLE>
	...
    ee44:	ffffff00 			; <UNDEFINED> instruction: 0xffffff00
    ee48:	000000ff 	strdeq	r0, [r0], -pc	; <UNPREDICTABLE>
	...
    ee60:	ff000000 			; <UNDEFINED> instruction: 0xff000000
    ee64:	ffffffff 			; <UNDEFINED> instruction: 0xffffffff
    ee68:	00ffffff 	ldrshteq	pc, [pc], #255	; <UNPREDICTABLE>
	...
    ee84:	ffffff00 			; <UNDEFINED> instruction: 0xffffff00
    ee88:	000000ff 	strdeq	r0, [r0], -pc	; <UNPREDICTABLE>
	...
    ee94:	ffffff00 			; <UNDEFINED> instruction: 0xffffff00
    ee98:	000000ff 	strdeq	r0, [r0], -pc	; <UNPREDICTABLE>
	...
    eec4:	ff000000 			; <UNDEFINED> instruction: 0xff000000
    eec8:	000000ff 	strdeq	r0, [r0], -pc	; <UNPREDICTABLE>
	...
    eee4:	ffffff00 			; <UNDEFINED> instruction: 0xffffff00
    eee8:	000000ff 	strdeq	r0, [r0], -pc	; <UNPREDICTABLE>
    eeec:	ff000000 			; <UNDEFINED> instruction: 0xff000000
    eef0:	000000ff 	strdeq	r0, [r0], -pc	; <UNPREDICTABLE>
	...
    ef14:	ffffff00 			; <UNDEFINED> instruction: 0xffffff00
    ef18:	000000ff 	strdeq	r0, [r0], -pc	; <UNPREDICTABLE>
	...
    ef44:	ffffff00 			; <UNDEFINED> instruction: 0xffffff00
    ef48:	000000ff 	strdeq	r0, [r0], -pc	; <UNPREDICTABLE>
	...
    ef60:	ff000000 			; <UNDEFINED> instruction: 0xff000000
    ef64:	ffffffff 			; <UNDEFINED> instruction: 0xffffffff
    ef68:	00ffffff 	ldrshteq	pc, [pc], #255	; <UNPREDICTABLE>
	...
    ef84:	ffffff00 			; <UNDEFINED> instruction: 0xffffff00
    ef88:	000000ff 	strdeq	r0, [r0], -pc	; <UNPREDICTABLE>
	...
    ef94:	ffffff00 			; <UNDEFINED> instruction: 0xffffff00
    ef98:	000000ff 	strdeq	r0, [r0], -pc	; <UNPREDICTABLE>
	...
    efc4:	ff000000 			; <UNDEFINED> instruction: 0xff000000
    efc8:	000000ff 	strdeq	r0, [r0], -pc	; <UNPREDICTABLE>
	...
    efe4:	ffffff00 			; <UNDEFINED> instruction: 0xffffff00
    efe8:	000000ff 	strdeq	r0, [r0], -pc	; <UNPREDICTABLE>
    efec:	ff000000 			; <UNDEFINED> instruction: 0xff000000
    eff0:	000000ff 	strdeq	r0, [r0], -pc	; <UNPREDICTABLE>
	...
    f0c4:	ff000000 			; <UNDEFINED> instruction: 0xff000000
    f0c8:	000000ff 	strdeq	r0, [r0], -pc	; <UNPREDICTABLE>
	...
    f0e4:	00ffff00 	rscseq	pc, pc, r0, lsl #30
	...
    f1c4:	ff000000 			; <UNDEFINED> instruction: 0xff000000
    f1c8:	000000ff 	strdeq	r0, [r0], -pc	; <UNPREDICTABLE>
	...
    f1e4:	00ffff00 	rscseq	pc, pc, r0, lsl #30
	...
    f2c4:	00ffff00 	rscseq	pc, pc, r0, lsl #30
	...
    f2e4:	ff000000 			; <UNDEFINED> instruction: 0xff000000
    f2e8:	000000ff 	strdeq	r0, [r0], -pc	; <UNPREDICTABLE>
    f2ec:	00000000 	andeq	r0, r0, r0
    f2f0:	ff000000 			; <UNDEFINED> instruction: 0xff000000
    f2f4:	ffffffff 			; <UNDEFINED> instruction: 0xffffffff
    f2f8:	00ffffff 	ldrshteq	pc, [pc], #255	; <UNPREDICTABLE>
	...
    f3c4:	00ffff00 	rscseq	pc, pc, r0, lsl #30
	...
    f3e4:	ff000000 			; <UNDEFINED> instruction: 0xff000000
    f3e8:	000000ff 	strdeq	r0, [r0], -pc	; <UNPREDICTABLE>
    f3ec:	00000000 	andeq	r0, r0, r0
    f3f0:	ff000000 			; <UNDEFINED> instruction: 0xff000000
    f3f4:	ffffffff 			; <UNDEFINED> instruction: 0xffffffff
    f3f8:	00ffffff 	ldrshteq	pc, [pc], #255	; <UNPREDICTABLE>
	...
    f404:	ffffff00 			; <UNDEFINED> instruction: 0xffffff00
    f408:	00ffffff 	ldrshteq	pc, [pc], #255	; <UNPREDICTABLE>
	...
    f418:	ff000000 			; <UNDEFINED> instruction: 0xff000000
    f41c:	000000ff 	strdeq	r0, [r0], -pc	; <UNPREDICTABLE>
    f420:	ff000000 			; <UNDEFINED> instruction: 0xff000000
    f424:	ffffffff 			; <UNDEFINED> instruction: 0xffffffff
    f428:	ffffffff 			; <UNDEFINED> instruction: 0xffffffff
    f42c:	000000ff 	strdeq	r0, [r0], -pc	; <UNPREDICTABLE>
    f430:	00000000 	andeq	r0, r0, r0
    f434:	ffffff00 			; <UNDEFINED> instruction: 0xffffff00
    f438:	ffffffff 			; <UNDEFINED> instruction: 0xffffffff
    f43c:	000000ff 	strdeq	r0, [r0], -pc	; <UNPREDICTABLE>
    f440:	00000000 	andeq	r0, r0, r0
    f444:	00ffff00 	rscseq	pc, pc, r0, lsl #30
    f448:	ff000000 			; <UNDEFINED> instruction: 0xff000000
    f44c:	000000ff 	strdeq	r0, [r0], -pc	; <UNPREDICTABLE>
    f450:	00000000 	andeq	r0, r0, r0
    f454:	ffffff00 			; <UNDEFINED> instruction: 0xffffff00
    f458:	ffffffff 			; <UNDEFINED> instruction: 0xffffffff
    f45c:	000000ff 	strdeq	r0, [r0], -pc	; <UNPREDICTABLE>
    f460:	00000000 	andeq	r0, r0, r0
    f464:	ffffff00 			; <UNDEFINED> instruction: 0xffffff00
    f468:	ffffffff 			; <UNDEFINED> instruction: 0xffffffff
    f46c:	000000ff 	strdeq	r0, [r0], -pc	; <UNPREDICTABLE>
    f470:	00000000 	andeq	r0, r0, r0
    f474:	ffffff00 			; <UNDEFINED> instruction: 0xffffff00
    f478:	ffffffff 			; <UNDEFINED> instruction: 0xffffffff
    f47c:	000000ff 	strdeq	r0, [r0], -pc	; <UNPREDICTABLE>
    f480:	00000000 	andeq	r0, r0, r0
    f484:	ffffff00 			; <UNDEFINED> instruction: 0xffffff00
    f488:	ffffffff 			; <UNDEFINED> instruction: 0xffffffff
    f48c:	000000ff 	strdeq	r0, [r0], -pc	; <UNPREDICTABLE>
    f490:	00000000 	andeq	r0, r0, r0
    f494:	ffffff00 			; <UNDEFINED> instruction: 0xffffff00
    f498:	ffffffff 			; <UNDEFINED> instruction: 0xffffffff
    f49c:	000000ff 	strdeq	r0, [r0], -pc	; <UNPREDICTABLE>
    f4a0:	00000000 	andeq	r0, r0, r0
    f4a4:	ffffff00 			; <UNDEFINED> instruction: 0xffffff00
    f4a8:	000000ff 	strdeq	r0, [r0], -pc	; <UNPREDICTABLE>
	...
    f4b4:	ffffff00 			; <UNDEFINED> instruction: 0xffffff00
    f4b8:	000000ff 	strdeq	r0, [r0], -pc	; <UNPREDICTABLE>
    f4bc:	00000000 	andeq	r0, r0, r0
    f4c0:	ff000000 			; <UNDEFINED> instruction: 0xff000000
    f4c4:	000000ff 	strdeq	r0, [r0], -pc	; <UNPREDICTABLE>
	...
    f4d0:	ff000000 			; <UNDEFINED> instruction: 0xff000000
    f4d4:	ffffffff 			; <UNDEFINED> instruction: 0xffffffff
    f4d8:	00ffffff 	ldrshteq	pc, [pc], #255	; <UNPREDICTABLE>
	...
    f4e8:	00ffff00 	rscseq	pc, pc, r0, lsl #30
    f4ec:	00000000 	andeq	r0, r0, r0
    f4f0:	ff000000 			; <UNDEFINED> instruction: 0xff000000
    f4f4:	000000ff 	strdeq	r0, [r0], -pc	; <UNPREDICTABLE>
    f4f8:	00ffff00 	rscseq	pc, pc, r0, lsl #30
	...
    f504:	ffffff00 			; <UNDEFINED> instruction: 0xffffff00
    f508:	00ffffff 	ldrshteq	pc, [pc], #255	; <UNPREDICTABLE>
	...
    f518:	ff000000 			; <UNDEFINED> instruction: 0xff000000
    f51c:	000000ff 	strdeq	r0, [r0], -pc	; <UNPREDICTABLE>
    f520:	ff000000 			; <UNDEFINED> instruction: 0xff000000
    f524:	ffffffff 			; <UNDEFINED> instruction: 0xffffffff
    f528:	ffffffff 			; <UNDEFINED> instruction: 0xffffffff
    f52c:	000000ff 	strdeq	r0, [r0], -pc	; <UNPREDICTABLE>
    f530:	00000000 	andeq	r0, r0, r0
    f534:	ffffff00 			; <UNDEFINED> instruction: 0xffffff00
    f538:	ffffffff 			; <UNDEFINED> instruction: 0xffffffff
    f53c:	000000ff 	strdeq	r0, [r0], -pc	; <UNPREDICTABLE>
    f540:	00000000 	andeq	r0, r0, r0
    f544:	00ffff00 	rscseq	pc, pc, r0, lsl #30
    f548:	ff000000 			; <UNDEFINED> instruction: 0xff000000
    f54c:	000000ff 	strdeq	r0, [r0], -pc	; <UNPREDICTABLE>
    f550:	00000000 	andeq	r0, r0, r0
    f554:	ffffff00 			; <UNDEFINED> instruction: 0xffffff00
    f558:	ffffffff 			; <UNDEFINED> instruction: 0xffffffff
    f55c:	000000ff 	strdeq	r0, [r0], -pc	; <UNPREDICTABLE>
    f560:	00000000 	andeq	r0, r0, r0
    f564:	ffffff00 			; <UNDEFINED> instruction: 0xffffff00
    f568:	ffffffff 			; <UNDEFINED> instruction: 0xffffffff
    f56c:	000000ff 	strdeq	r0, [r0], -pc	; <UNPREDICTABLE>
    f570:	00000000 	andeq	r0, r0, r0
    f574:	ffffff00 			; <UNDEFINED> instruction: 0xffffff00
    f578:	ffffffff 			; <UNDEFINED> instruction: 0xffffffff
    f57c:	000000ff 	strdeq	r0, [r0], -pc	; <UNPREDICTABLE>
    f580:	00000000 	andeq	r0, r0, r0
    f584:	ffffff00 			; <UNDEFINED> instruction: 0xffffff00
    f588:	ffffffff 			; <UNDEFINED> instruction: 0xffffffff
    f58c:	000000ff 	strdeq	r0, [r0], -pc	; <UNPREDICTABLE>
    f590:	00000000 	andeq	r0, r0, r0
    f594:	ffffff00 			; <UNDEFINED> instruction: 0xffffff00
    f598:	ffffffff 			; <UNDEFINED> instruction: 0xffffffff
    f59c:	000000ff 	strdeq	r0, [r0], -pc	; <UNPREDICTABLE>
    f5a0:	00000000 	andeq	r0, r0, r0
    f5a4:	ffffff00 			; <UNDEFINED> instruction: 0xffffff00
    f5a8:	000000ff 	strdeq	r0, [r0], -pc	; <UNPREDICTABLE>
	...
    f5b4:	ffffff00 			; <UNDEFINED> instruction: 0xffffff00
    f5b8:	000000ff 	strdeq	r0, [r0], -pc	; <UNPREDICTABLE>
    f5bc:	00000000 	andeq	r0, r0, r0
    f5c0:	ff000000 			; <UNDEFINED> instruction: 0xff000000
    f5c4:	000000ff 	strdeq	r0, [r0], -pc	; <UNPREDICTABLE>
	...
    f5d0:	ff000000 			; <UNDEFINED> instruction: 0xff000000
    f5d4:	ffffffff 			; <UNDEFINED> instruction: 0xffffffff
    f5d8:	00ffffff 	ldrshteq	pc, [pc], #255	; <UNPREDICTABLE>
	...
    f5e8:	00ffff00 	rscseq	pc, pc, r0, lsl #30
    f5ec:	00000000 	andeq	r0, r0, r0
    f5f0:	ff000000 			; <UNDEFINED> instruction: 0xff000000
    f5f4:	000000ff 	strdeq	r0, [r0], -pc	; <UNPREDICTABLE>
    f5f8:	00ffff00 	rscseq	pc, pc, r0, lsl #30
    f5fc:	00000000 	andeq	r0, r0, r0
    f600:	ff000000 			; <UNDEFINED> instruction: 0xff000000
    f604:	000000ff 	strdeq	r0, [r0], -pc	; <UNPREDICTABLE>
    f608:	ff000000 			; <UNDEFINED> instruction: 0xff000000
    f60c:	000000ff 	strdeq	r0, [r0], -pc	; <UNPREDICTABLE>
	...
    f618:	ff000000 			; <UNDEFINED> instruction: 0xff000000
    f61c:	000000ff 	strdeq	r0, [r0], -pc	; <UNPREDICTABLE>
	...
    f628:	ff000000 			; <UNDEFINED> instruction: 0xff000000
    f62c:	000000ff 	strdeq	r0, [r0], -pc	; <UNPREDICTABLE>
	...
    f638:	ff000000 			; <UNDEFINED> instruction: 0xff000000
    f63c:	000000ff 	strdeq	r0, [r0], -pc	; <UNPREDICTABLE>
    f640:	00000000 	andeq	r0, r0, r0
    f644:	00ffff00 	rscseq	pc, pc, r0, lsl #30
    f648:	ff000000 			; <UNDEFINED> instruction: 0xff000000
    f64c:	000000ff 	strdeq	r0, [r0], -pc	; <UNPREDICTABLE>
    f650:	00000000 	andeq	r0, r0, r0
    f654:	00ffff00 	rscseq	pc, pc, r0, lsl #30
	...
    f664:	00ffff00 	rscseq	pc, pc, r0, lsl #30
	...
    f674:	00ffff00 	rscseq	pc, pc, r0, lsl #30
    f678:	ff000000 			; <UNDEFINED> instruction: 0xff000000
    f67c:	000000ff 	strdeq	r0, [r0], -pc	; <UNPREDICTABLE>
    f680:	00000000 	andeq	r0, r0, r0
    f684:	00ffff00 	rscseq	pc, pc, r0, lsl #30
    f688:	ff000000 			; <UNDEFINED> instruction: 0xff000000
    f68c:	000000ff 	strdeq	r0, [r0], -pc	; <UNPREDICTABLE>
    f690:	00000000 	andeq	r0, r0, r0
    f694:	00ffff00 	rscseq	pc, pc, r0, lsl #30
    f698:	ff000000 			; <UNDEFINED> instruction: 0xff000000
    f69c:	000000ff 	strdeq	r0, [r0], -pc	; <UNPREDICTABLE>
    f6a0:	00000000 	andeq	r0, r0, r0
    f6a4:	ffffff00 			; <UNDEFINED> instruction: 0xffffff00
    f6a8:	000000ff 	strdeq	r0, [r0], -pc	; <UNPREDICTABLE>
	...
    f6b4:	ffffff00 			; <UNDEFINED> instruction: 0xffffff00
    f6b8:	000000ff 	strdeq	r0, [r0], -pc	; <UNPREDICTABLE>
    f6bc:	00000000 	andeq	r0, r0, r0
    f6c0:	00ffff00 	rscseq	pc, pc, r0, lsl #30
	...
    f6e8:	ff000000 			; <UNDEFINED> instruction: 0xff000000
    f6ec:	000000ff 	strdeq	r0, [r0], -pc	; <UNPREDICTABLE>
	...
    f6f8:	00ffff00 	rscseq	pc, pc, r0, lsl #30
    f6fc:	00000000 	andeq	r0, r0, r0
    f700:	ff000000 			; <UNDEFINED> instruction: 0xff000000
    f704:	000000ff 	strdeq	r0, [r0], -pc	; <UNPREDICTABLE>
    f708:	ff000000 			; <UNDEFINED> instruction: 0xff000000
    f70c:	000000ff 	strdeq	r0, [r0], -pc	; <UNPREDICTABLE>
	...
    f718:	ff000000 			; <UNDEFINED> instruction: 0xff000000
    f71c:	000000ff 	strdeq	r0, [r0], -pc	; <UNPREDICTABLE>
	...
    f728:	ff000000 			; <UNDEFINED> instruction: 0xff000000
    f72c:	000000ff 	strdeq	r0, [r0], -pc	; <UNPREDICTABLE>
	...
    f738:	ff000000 			; <UNDEFINED> instruction: 0xff000000
    f73c:	000000ff 	strdeq	r0, [r0], -pc	; <UNPREDICTABLE>
    f740:	00000000 	andeq	r0, r0, r0
    f744:	00ffff00 	rscseq	pc, pc, r0, lsl #30
    f748:	ff000000 			; <UNDEFINED> instruction: 0xff000000
    f74c:	000000ff 	strdeq	r0, [r0], -pc	; <UNPREDICTABLE>
    f750:	00000000 	andeq	r0, r0, r0
    f754:	00ffff00 	rscseq	pc, pc, r0, lsl #30
	...
    f764:	00ffff00 	rscseq	pc, pc, r0, lsl #30
	...
    f774:	00ffff00 	rscseq	pc, pc, r0, lsl #30
    f778:	ff000000 			; <UNDEFINED> instruction: 0xff000000
    f77c:	000000ff 	strdeq	r0, [r0], -pc	; <UNPREDICTABLE>
    f780:	00000000 	andeq	r0, r0, r0
    f784:	00ffff00 	rscseq	pc, pc, r0, lsl #30
    f788:	ff000000 			; <UNDEFINED> instruction: 0xff000000
    f78c:	000000ff 	strdeq	r0, [r0], -pc	; <UNPREDICTABLE>
    f790:	00000000 	andeq	r0, r0, r0
    f794:	00ffff00 	rscseq	pc, pc, r0, lsl #30
    f798:	ff000000 			; <UNDEFINED> instruction: 0xff000000
    f79c:	000000ff 	strdeq	r0, [r0], -pc	; <UNPREDICTABLE>
    f7a0:	00000000 	andeq	r0, r0, r0
    f7a4:	ffffff00 			; <UNDEFINED> instruction: 0xffffff00
    f7a8:	000000ff 	strdeq	r0, [r0], -pc	; <UNPREDICTABLE>
	...
    f7b4:	ffffff00 			; <UNDEFINED> instruction: 0xffffff00
    f7b8:	000000ff 	strdeq	r0, [r0], -pc	; <UNPREDICTABLE>
    f7bc:	00000000 	andeq	r0, r0, r0
    f7c0:	00ffff00 	rscseq	pc, pc, r0, lsl #30
	...
    f7e8:	ff000000 			; <UNDEFINED> instruction: 0xff000000
    f7ec:	000000ff 	strdeq	r0, [r0], -pc	; <UNPREDICTABLE>
	...
    f7f8:	00ffff00 	rscseq	pc, pc, r0, lsl #30
    f7fc:	00000000 	andeq	r0, r0, r0
    f800:	ff000000 			; <UNDEFINED> instruction: 0xff000000
    f804:	000000ff 	strdeq	r0, [r0], -pc	; <UNPREDICTABLE>
    f808:	ff000000 			; <UNDEFINED> instruction: 0xff000000
    f80c:	000000ff 	strdeq	r0, [r0], -pc	; <UNPREDICTABLE>
	...
    f818:	ff000000 			; <UNDEFINED> instruction: 0xff000000
    f81c:	000000ff 	strdeq	r0, [r0], -pc	; <UNPREDICTABLE>
    f820:	ff000000 			; <UNDEFINED> instruction: 0xff000000
    f824:	ffffffff 			; <UNDEFINED> instruction: 0xffffffff
    f828:	ffffffff 			; <UNDEFINED> instruction: 0xffffffff
    f82c:	000000ff 	strdeq	r0, [r0], -pc	; <UNPREDICTABLE>
    f830:	00000000 	andeq	r0, r0, r0
    f834:	ffffff00 			; <UNDEFINED> instruction: 0xffffff00
    f838:	ffffffff 			; <UNDEFINED> instruction: 0xffffffff
    f83c:	000000ff 	strdeq	r0, [r0], -pc	; <UNPREDICTABLE>
    f840:	00000000 	andeq	r0, r0, r0
    f844:	ffffff00 			; <UNDEFINED> instruction: 0xffffff00
    f848:	ffffffff 			; <UNDEFINED> instruction: 0xffffffff
    f84c:	000000ff 	strdeq	r0, [r0], -pc	; <UNPREDICTABLE>
    f850:	00000000 	andeq	r0, r0, r0
    f854:	ffffff00 			; <UNDEFINED> instruction: 0xffffff00
    f858:	ffffffff 			; <UNDEFINED> instruction: 0xffffffff
    f85c:	000000ff 	strdeq	r0, [r0], -pc	; <UNPREDICTABLE>
    f860:	00000000 	andeq	r0, r0, r0
    f864:	ffffff00 			; <UNDEFINED> instruction: 0xffffff00
    f868:	ffffffff 			; <UNDEFINED> instruction: 0xffffffff
    f86c:	000000ff 	strdeq	r0, [r0], -pc	; <UNPREDICTABLE>
	...
    f878:	ff000000 			; <UNDEFINED> instruction: 0xff000000
    f87c:	000000ff 	strdeq	r0, [r0], -pc	; <UNPREDICTABLE>
    f880:	00000000 	andeq	r0, r0, r0
    f884:	ffffff00 			; <UNDEFINED> instruction: 0xffffff00
    f888:	ffffffff 			; <UNDEFINED> instruction: 0xffffffff
    f88c:	000000ff 	strdeq	r0, [r0], -pc	; <UNPREDICTABLE>
    f890:	00000000 	andeq	r0, r0, r0
    f894:	ffffff00 			; <UNDEFINED> instruction: 0xffffff00
    f898:	ffffffff 			; <UNDEFINED> instruction: 0xffffffff
    f89c:	000000ff 	strdeq	r0, [r0], -pc	; <UNPREDICTABLE>
	...
    f8c0:	00ffff00 	rscseq	pc, pc, r0, lsl #30
	...
    f8e8:	ff000000 			; <UNDEFINED> instruction: 0xff000000
    f8ec:	000000ff 	strdeq	r0, [r0], -pc	; <UNPREDICTABLE>
    f8f0:	00000000 	andeq	r0, r0, r0
    f8f4:	ffffff00 			; <UNDEFINED> instruction: 0xffffff00
    f8f8:	00ffffff 	ldrshteq	pc, [pc], #255	; <UNPREDICTABLE>
    f8fc:	00000000 	andeq	r0, r0, r0
    f900:	ff000000 			; <UNDEFINED> instruction: 0xff000000
    f904:	000000ff 	strdeq	r0, [r0], -pc	; <UNPREDICTABLE>
    f908:	ff000000 			; <UNDEFINED> instruction: 0xff000000
    f90c:	000000ff 	strdeq	r0, [r0], -pc	; <UNPREDICTABLE>
	...
    f918:	ff000000 			; <UNDEFINED> instruction: 0xff000000
    f91c:	000000ff 	strdeq	r0, [r0], -pc	; <UNPREDICTABLE>
    f920:	ff000000 			; <UNDEFINED> instruction: 0xff000000
    f924:	ffffffff 			; <UNDEFINED> instruction: 0xffffffff
    f928:	ffffffff 			; <UNDEFINED> instruction: 0xffffffff
    f92c:	000000ff 	strdeq	r0, [r0], -pc	; <UNPREDICTABLE>
    f930:	00000000 	andeq	r0, r0, r0
    f934:	ffffff00 			; <UNDEFINED> instruction: 0xffffff00
    f938:	ffffffff 			; <UNDEFINED> instruction: 0xffffffff
    f93c:	000000ff 	strdeq	r0, [r0], -pc	; <UNPREDICTABLE>
    f940:	00000000 	andeq	r0, r0, r0
    f944:	ffffff00 			; <UNDEFINED> instruction: 0xffffff00
    f948:	ffffffff 			; <UNDEFINED> instruction: 0xffffffff
    f94c:	000000ff 	strdeq	r0, [r0], -pc	; <UNPREDICTABLE>
    f950:	00000000 	andeq	r0, r0, r0
    f954:	ffffff00 			; <UNDEFINED> instruction: 0xffffff00
    f958:	ffffffff 			; <UNDEFINED> instruction: 0xffffffff
    f95c:	000000ff 	strdeq	r0, [r0], -pc	; <UNPREDICTABLE>
    f960:	00000000 	andeq	r0, r0, r0
    f964:	ffffff00 			; <UNDEFINED> instruction: 0xffffff00
    f968:	ffffffff 			; <UNDEFINED> instruction: 0xffffffff
    f96c:	000000ff 	strdeq	r0, [r0], -pc	; <UNPREDICTABLE>
	...
    f978:	ff000000 			; <UNDEFINED> instruction: 0xff000000
    f97c:	000000ff 	strdeq	r0, [r0], -pc	; <UNPREDICTABLE>
    f980:	00000000 	andeq	r0, r0, r0
    f984:	ffffff00 			; <UNDEFINED> instruction: 0xffffff00
    f988:	ffffffff 			; <UNDEFINED> instruction: 0xffffffff
    f98c:	000000ff 	strdeq	r0, [r0], -pc	; <UNPREDICTABLE>
    f990:	00000000 	andeq	r0, r0, r0
    f994:	ffffff00 			; <UNDEFINED> instruction: 0xffffff00
    f998:	ffffffff 			; <UNDEFINED> instruction: 0xffffffff
    f99c:	000000ff 	strdeq	r0, [r0], -pc	; <UNPREDICTABLE>
	...
    f9c0:	00ffff00 	rscseq	pc, pc, r0, lsl #30
	...
    f9e8:	ff000000 			; <UNDEFINED> instruction: 0xff000000
    f9ec:	000000ff 	strdeq	r0, [r0], -pc	; <UNPREDICTABLE>
    f9f0:	00000000 	andeq	r0, r0, r0
    f9f4:	ffffff00 			; <UNDEFINED> instruction: 0xffffff00
    f9f8:	00ffffff 	ldrshteq	pc, [pc], #255	; <UNPREDICTABLE>
    f9fc:	00000000 	andeq	r0, r0, r0
    fa00:	ff000000 			; <UNDEFINED> instruction: 0xff000000
    fa04:	000000ff 	strdeq	r0, [r0], -pc	; <UNPREDICTABLE>
    fa08:	ff000000 			; <UNDEFINED> instruction: 0xff000000
    fa0c:	000000ff 	strdeq	r0, [r0], -pc	; <UNPREDICTABLE>
	...
    fa18:	ff000000 			; <UNDEFINED> instruction: 0xff000000
    fa1c:	000000ff 	strdeq	r0, [r0], -pc	; <UNPREDICTABLE>
    fa20:	ff000000 			; <UNDEFINED> instruction: 0xff000000
    fa24:	000000ff 	strdeq	r0, [r0], -pc	; <UNPREDICTABLE>
	...
    fa38:	ff000000 			; <UNDEFINED> instruction: 0xff000000
    fa3c:	000000ff 	strdeq	r0, [r0], -pc	; <UNPREDICTABLE>
	...
    fa48:	ff000000 			; <UNDEFINED> instruction: 0xff000000
    fa4c:	000000ff 	strdeq	r0, [r0], -pc	; <UNPREDICTABLE>
	...
    fa58:	ff000000 			; <UNDEFINED> instruction: 0xff000000
    fa5c:	000000ff 	strdeq	r0, [r0], -pc	; <UNPREDICTABLE>
    fa60:	00000000 	andeq	r0, r0, r0
    fa64:	00ffff00 	rscseq	pc, pc, r0, lsl #30
    fa68:	ff000000 			; <UNDEFINED> instruction: 0xff000000
    fa6c:	000000ff 	strdeq	r0, [r0], -pc	; <UNPREDICTABLE>
	...
    fa78:	ff000000 			; <UNDEFINED> instruction: 0xff000000
    fa7c:	000000ff 	strdeq	r0, [r0], -pc	; <UNPREDICTABLE>
    fa80:	00000000 	andeq	r0, r0, r0
    fa84:	00ffff00 	rscseq	pc, pc, r0, lsl #30
    fa88:	ff000000 			; <UNDEFINED> instruction: 0xff000000
    fa8c:	000000ff 	strdeq	r0, [r0], -pc	; <UNPREDICTABLE>
	...
    fa98:	ff000000 			; <UNDEFINED> instruction: 0xff000000
    fa9c:	000000ff 	strdeq	r0, [r0], -pc	; <UNPREDICTABLE>
    faa0:	00000000 	andeq	r0, r0, r0
    faa4:	ffffff00 			; <UNDEFINED> instruction: 0xffffff00
    faa8:	000000ff 	strdeq	r0, [r0], -pc	; <UNPREDICTABLE>
	...
    fab4:	ffffff00 			; <UNDEFINED> instruction: 0xffffff00
    fab8:	000000ff 	strdeq	r0, [r0], -pc	; <UNPREDICTABLE>
    fabc:	00000000 	andeq	r0, r0, r0
    fac0:	ff000000 			; <UNDEFINED> instruction: 0xff000000
    fac4:	000000ff 	strdeq	r0, [r0], -pc	; <UNPREDICTABLE>
	...
    fad0:	ff000000 			; <UNDEFINED> instruction: 0xff000000
    fad4:	ffffffff 			; <UNDEFINED> instruction: 0xffffffff
    fad8:	00ffffff 	ldrshteq	pc, [pc], #255	; <UNPREDICTABLE>
	...
    fae8:	00ffff00 	rscseq	pc, pc, r0, lsl #30
	...
    faf4:	ffffff00 			; <UNDEFINED> instruction: 0xffffff00
    faf8:	000000ff 	strdeq	r0, [r0], -pc	; <UNPREDICTABLE>
    fafc:	00000000 	andeq	r0, r0, r0
    fb00:	ff000000 			; <UNDEFINED> instruction: 0xff000000
    fb04:	000000ff 	strdeq	r0, [r0], -pc	; <UNPREDICTABLE>
    fb08:	ff000000 			; <UNDEFINED> instruction: 0xff000000
    fb0c:	000000ff 	strdeq	r0, [r0], -pc	; <UNPREDICTABLE>
	...
    fb18:	ff000000 			; <UNDEFINED> instruction: 0xff000000
    fb1c:	000000ff 	strdeq	r0, [r0], -pc	; <UNPREDICTABLE>
    fb20:	ff000000 			; <UNDEFINED> instruction: 0xff000000
    fb24:	000000ff 	strdeq	r0, [r0], -pc	; <UNPREDICTABLE>
	...
    fb38:	ff000000 			; <UNDEFINED> instruction: 0xff000000
    fb3c:	000000ff 	strdeq	r0, [r0], -pc	; <UNPREDICTABLE>
	...
    fb48:	ff000000 			; <UNDEFINED> instruction: 0xff000000
    fb4c:	000000ff 	strdeq	r0, [r0], -pc	; <UNPREDICTABLE>
	...
    fb58:	ff000000 			; <UNDEFINED> instruction: 0xff000000
    fb5c:	000000ff 	strdeq	r0, [r0], -pc	; <UNPREDICTABLE>
    fb60:	00000000 	andeq	r0, r0, r0
    fb64:	00ffff00 	rscseq	pc, pc, r0, lsl #30
    fb68:	ff000000 			; <UNDEFINED> instruction: 0xff000000
    fb6c:	000000ff 	strdeq	r0, [r0], -pc	; <UNPREDICTABLE>
	...
    fb78:	ff000000 			; <UNDEFINED> instruction: 0xff000000
    fb7c:	000000ff 	strdeq	r0, [r0], -pc	; <UNPREDICTABLE>
    fb80:	00000000 	andeq	r0, r0, r0
    fb84:	00ffff00 	rscseq	pc, pc, r0, lsl #30
    fb88:	ff000000 			; <UNDEFINED> instruction: 0xff000000
    fb8c:	000000ff 	strdeq	r0, [r0], -pc	; <UNPREDICTABLE>
	...
    fb98:	ff000000 			; <UNDEFINED> instruction: 0xff000000
    fb9c:	000000ff 	strdeq	r0, [r0], -pc	; <UNPREDICTABLE>
    fba0:	00000000 	andeq	r0, r0, r0
    fba4:	ffffff00 			; <UNDEFINED> instruction: 0xffffff00
    fba8:	000000ff 	strdeq	r0, [r0], -pc	; <UNPREDICTABLE>
	...
    fbb4:	ffffff00 			; <UNDEFINED> instruction: 0xffffff00
    fbb8:	000000ff 	strdeq	r0, [r0], -pc	; <UNPREDICTABLE>
    fbbc:	00000000 	andeq	r0, r0, r0
    fbc0:	ff000000 			; <UNDEFINED> instruction: 0xff000000
    fbc4:	000000ff 	strdeq	r0, [r0], -pc	; <UNPREDICTABLE>
	...
    fbd0:	ff000000 			; <UNDEFINED> instruction: 0xff000000
    fbd4:	ffffffff 			; <UNDEFINED> instruction: 0xffffffff
    fbd8:	00ffffff 	ldrshteq	pc, [pc], #255	; <UNPREDICTABLE>
	...
    fbe8:	00ffff00 	rscseq	pc, pc, r0, lsl #30
	...
    fbf4:	ffffff00 			; <UNDEFINED> instruction: 0xffffff00
    fbf8:	000000ff 	strdeq	r0, [r0], -pc	; <UNPREDICTABLE>
	...
    fc04:	ffffff00 			; <UNDEFINED> instruction: 0xffffff00
    fc08:	00ffffff 	ldrshteq	pc, [pc], #255	; <UNPREDICTABLE>
	...
    fc18:	ff000000 			; <UNDEFINED> instruction: 0xff000000
    fc1c:	000000ff 	strdeq	r0, [r0], -pc	; <UNPREDICTABLE>
    fc20:	ff000000 			; <UNDEFINED> instruction: 0xff000000
    fc24:	ffffffff 			; <UNDEFINED> instruction: 0xffffffff
    fc28:	ffffffff 			; <UNDEFINED> instruction: 0xffffffff
    fc2c:	000000ff 	strdeq	r0, [r0], -pc	; <UNPREDICTABLE>
    fc30:	00000000 	andeq	r0, r0, r0
    fc34:	ffffff00 			; <UNDEFINED> instruction: 0xffffff00
    fc38:	ffffffff 			; <UNDEFINED> instruction: 0xffffffff
    fc3c:	000000ff 	strdeq	r0, [r0], -pc	; <UNPREDICTABLE>
	...
    fc48:	ff000000 			; <UNDEFINED> instruction: 0xff000000
    fc4c:	000000ff 	strdeq	r0, [r0], -pc	; <UNPREDICTABLE>
    fc50:	00000000 	andeq	r0, r0, r0
    fc54:	ffffff00 			; <UNDEFINED> instruction: 0xffffff00
    fc58:	ffffffff 			; <UNDEFINED> instruction: 0xffffffff
    fc5c:	000000ff 	strdeq	r0, [r0], -pc	; <UNPREDICTABLE>
    fc60:	00000000 	andeq	r0, r0, r0
    fc64:	ffffff00 			; <UNDEFINED> instruction: 0xffffff00
    fc68:	ffffffff 			; <UNDEFINED> instruction: 0xffffffff
    fc6c:	000000ff 	strdeq	r0, [r0], -pc	; <UNPREDICTABLE>
	...
    fc78:	ff000000 			; <UNDEFINED> instruction: 0xff000000
    fc7c:	000000ff 	strdeq	r0, [r0], -pc	; <UNPREDICTABLE>
    fc80:	00000000 	andeq	r0, r0, r0
    fc84:	ffffff00 			; <UNDEFINED> instruction: 0xffffff00
    fc88:	ffffffff 			; <UNDEFINED> instruction: 0xffffffff
    fc8c:	000000ff 	strdeq	r0, [r0], -pc	; <UNPREDICTABLE>
	...
    fc98:	ff000000 			; <UNDEFINED> instruction: 0xff000000
    fc9c:	000000ff 	strdeq	r0, [r0], -pc	; <UNPREDICTABLE>
    fca0:	00000000 	andeq	r0, r0, r0
    fca4:	ffffff00 			; <UNDEFINED> instruction: 0xffffff00
    fca8:	000000ff 	strdeq	r0, [r0], -pc	; <UNPREDICTABLE>
	...
    fcb4:	ffffff00 			; <UNDEFINED> instruction: 0xffffff00
    fcb8:	000000ff 	strdeq	r0, [r0], -pc	; <UNPREDICTABLE>
	...
    fcc4:	00ffff00 	rscseq	pc, pc, r0, lsl #30
	...
    fce4:	ff000000 			; <UNDEFINED> instruction: 0xff000000
    fce8:	000000ff 	strdeq	r0, [r0], -pc	; <UNPREDICTABLE>
	...
    fd04:	ffffff00 			; <UNDEFINED> instruction: 0xffffff00
    fd08:	00ffffff 	ldrshteq	pc, [pc], #255	; <UNPREDICTABLE>
	...
    fd18:	ff000000 			; <UNDEFINED> instruction: 0xff000000
    fd1c:	000000ff 	strdeq	r0, [r0], -pc	; <UNPREDICTABLE>
    fd20:	ff000000 			; <UNDEFINED> instruction: 0xff000000
    fd24:	ffffffff 			; <UNDEFINED> instruction: 0xffffffff
    fd28:	ffffffff 			; <UNDEFINED> instruction: 0xffffffff
    fd2c:	000000ff 	strdeq	r0, [r0], -pc	; <UNPREDICTABLE>
    fd30:	00000000 	andeq	r0, r0, r0
    fd34:	ffffff00 			; <UNDEFINED> instruction: 0xffffff00
    fd38:	ffffffff 			; <UNDEFINED> instruction: 0xffffffff
    fd3c:	000000ff 	strdeq	r0, [r0], -pc	; <UNPREDICTABLE>
	...
    fd48:	ff000000 			; <UNDEFINED> instruction: 0xff000000
    fd4c:	000000ff 	strdeq	r0, [r0], -pc	; <UNPREDICTABLE>
    fd50:	00000000 	andeq	r0, r0, r0
    fd54:	ffffff00 			; <UNDEFINED> instruction: 0xffffff00
    fd58:	ffffffff 			; <UNDEFINED> instruction: 0xffffffff
    fd5c:	000000ff 	strdeq	r0, [r0], -pc	; <UNPREDICTABLE>
    fd60:	00000000 	andeq	r0, r0, r0
    fd64:	ffffff00 			; <UNDEFINED> instruction: 0xffffff00
    fd68:	ffffffff 			; <UNDEFINED> instruction: 0xffffffff
    fd6c:	000000ff 	strdeq	r0, [r0], -pc	; <UNPREDICTABLE>
	...
    fd78:	ff000000 			; <UNDEFINED> instruction: 0xff000000
    fd7c:	000000ff 	strdeq	r0, [r0], -pc	; <UNPREDICTABLE>
    fd80:	00000000 	andeq	r0, r0, r0
    fd84:	ffffff00 			; <UNDEFINED> instruction: 0xffffff00
    fd88:	ffffffff 			; <UNDEFINED> instruction: 0xffffffff
    fd8c:	000000ff 	strdeq	r0, [r0], -pc	; <UNPREDICTABLE>
	...
    fd98:	ff000000 			; <UNDEFINED> instruction: 0xff000000
    fd9c:	000000ff 	strdeq	r0, [r0], -pc	; <UNPREDICTABLE>
    fda0:	00000000 	andeq	r0, r0, r0
    fda4:	ffffff00 			; <UNDEFINED> instruction: 0xffffff00
    fda8:	000000ff 	strdeq	r0, [r0], -pc	; <UNPREDICTABLE>
	...
    fdb4:	ffffff00 			; <UNDEFINED> instruction: 0xffffff00
    fdb8:	000000ff 	strdeq	r0, [r0], -pc	; <UNPREDICTABLE>
	...
    fdc4:	00ffff00 	rscseq	pc, pc, r0, lsl #30
	...
    fde4:	ff000000 			; <UNDEFINED> instruction: 0xff000000
    fde8:	000000ff 	strdeq	r0, [r0], -pc	; <UNPREDICTABLE>
	...
    feb4:	ff000000 			; <UNDEFINED> instruction: 0xff000000
    feb8:	000000ff 	strdeq	r0, [r0], -pc	; <UNPREDICTABLE>
	...
    fec4:	ff000000 			; <UNDEFINED> instruction: 0xff000000
    fec8:	000000ff 	strdeq	r0, [r0], -pc	; <UNPREDICTABLE>
	...
    fee4:	00ffff00 	rscseq	pc, pc, r0, lsl #30
	...
    fef4:	ffffff00 			; <UNDEFINED> instruction: 0xffffff00
    fef8:	000000ff 	strdeq	r0, [r0], -pc	; <UNPREDICTABLE>
	...
    ffb4:	ff000000 			; <UNDEFINED> instruction: 0xff000000
    ffb8:	000000ff 	strdeq	r0, [r0], -pc	; <UNPREDICTABLE>
	...
    ffc4:	ff000000 			; <UNDEFINED> instruction: 0xff000000
    ffc8:	000000ff 	strdeq	r0, [r0], -pc	; <UNPREDICTABLE>
	...
    ffe4:	00ffff00 	rscseq	pc, pc, r0, lsl #30
	...
    fff4:	ffffff00 			; <UNDEFINED> instruction: 0xffffff00
    fff8:	000000ff 	strdeq	r0, [r0], -pc	; <UNPREDICTABLE>
	...
   10210:	ff000000 			; <UNDEFINED> instruction: 0xff000000
   10214:	ffffffff 			; <UNDEFINED> instruction: 0xffffffff
   10218:	ffffffff 			; <UNDEFINED> instruction: 0xffffffff
   1021c:	000000ff 	strdeq	r0, [r0], -pc	; <UNPREDICTABLE>
   10220:	ff000000 			; <UNDEFINED> instruction: 0xff000000
   10224:	ffffffff 			; <UNDEFINED> instruction: 0xffffffff
   10228:	00ffffff 	ldrshteq	pc, [pc], #255	; <UNPREDICTABLE>
	...
   10234:	ffffff00 			; <UNDEFINED> instruction: 0xffffff00
   10238:	00ffffff 	ldrshteq	pc, [pc], #255	; <UNPREDICTABLE>
   1023c:	00000000 	andeq	r0, r0, r0
   10240:	ff000000 			; <UNDEFINED> instruction: 0xff000000
   10244:	ffffffff 			; <UNDEFINED> instruction: 0xffffffff
   10248:	00ffffff 	ldrshteq	pc, [pc], #255	; <UNPREDICTABLE>
   1024c:	00000000 	andeq	r0, r0, r0
   10250:	ff000000 			; <UNDEFINED> instruction: 0xff000000
   10254:	ffffffff 			; <UNDEFINED> instruction: 0xffffffff
   10258:	ffffffff 			; <UNDEFINED> instruction: 0xffffffff
   1025c:	000000ff 	strdeq	r0, [r0], -pc	; <UNPREDICTABLE>
   10260:	ff000000 			; <UNDEFINED> instruction: 0xff000000
   10264:	ffffffff 			; <UNDEFINED> instruction: 0xffffffff
   10268:	ffffffff 			; <UNDEFINED> instruction: 0xffffffff
   1026c:	000000ff 	strdeq	r0, [r0], -pc	; <UNPREDICTABLE>
   10270:	ff000000 			; <UNDEFINED> instruction: 0xff000000
   10274:	ffffffff 			; <UNDEFINED> instruction: 0xffffffff
   10278:	ffffffff 			; <UNDEFINED> instruction: 0xffffffff
   1027c:	000000ff 	strdeq	r0, [r0], -pc	; <UNPREDICTABLE>
   10280:	ff000000 			; <UNDEFINED> instruction: 0xff000000
   10284:	000000ff 	strdeq	r0, [r0], -pc	; <UNPREDICTABLE>
   10288:	ff000000 			; <UNDEFINED> instruction: 0xff000000
   1028c:	000000ff 	strdeq	r0, [r0], -pc	; <UNPREDICTABLE>
   10290:	ff000000 			; <UNDEFINED> instruction: 0xff000000
   10294:	ffffffff 			; <UNDEFINED> instruction: 0xffffffff
   10298:	00ffffff 	ldrshteq	pc, [pc], #255	; <UNPREDICTABLE>
   1029c:	00000000 	andeq	r0, r0, r0
   102a0:	ff000000 			; <UNDEFINED> instruction: 0xff000000
   102a4:	ffffffff 			; <UNDEFINED> instruction: 0xffffffff
   102a8:	ffffffff 			; <UNDEFINED> instruction: 0xffffffff
   102ac:	000000ff 	strdeq	r0, [r0], -pc	; <UNPREDICTABLE>
   102b0:	ff000000 			; <UNDEFINED> instruction: 0xff000000
   102b4:	000000ff 	strdeq	r0, [r0], -pc	; <UNPREDICTABLE>
   102b8:	ff000000 			; <UNDEFINED> instruction: 0xff000000
   102bc:	000000ff 	strdeq	r0, [r0], -pc	; <UNPREDICTABLE>
   102c0:	ff000000 			; <UNDEFINED> instruction: 0xff000000
   102c4:	000000ff 	strdeq	r0, [r0], -pc	; <UNPREDICTABLE>
	...
   102d0:	ff000000 			; <UNDEFINED> instruction: 0xff000000
   102d4:	000000ff 	strdeq	r0, [r0], -pc	; <UNPREDICTABLE>
   102d8:	ff000000 			; <UNDEFINED> instruction: 0xff000000
   102dc:	000000ff 	strdeq	r0, [r0], -pc	; <UNPREDICTABLE>
   102e0:	ff000000 			; <UNDEFINED> instruction: 0xff000000
   102e4:	000000ff 	strdeq	r0, [r0], -pc	; <UNPREDICTABLE>
   102e8:	ff000000 			; <UNDEFINED> instruction: 0xff000000
   102ec:	000000ff 	strdeq	r0, [r0], -pc	; <UNPREDICTABLE>
   102f0:	00000000 	andeq	r0, r0, r0
   102f4:	ffffff00 			; <UNDEFINED> instruction: 0xffffff00
   102f8:	00ffffff 	ldrshteq	pc, [pc], #255	; <UNPREDICTABLE>
	...
   10310:	ff000000 			; <UNDEFINED> instruction: 0xff000000
   10314:	ffffffff 			; <UNDEFINED> instruction: 0xffffffff
   10318:	ffffffff 			; <UNDEFINED> instruction: 0xffffffff
   1031c:	000000ff 	strdeq	r0, [r0], -pc	; <UNPREDICTABLE>
   10320:	ff000000 			; <UNDEFINED> instruction: 0xff000000
   10324:	ffffffff 			; <UNDEFINED> instruction: 0xffffffff
   10328:	00ffffff 	ldrshteq	pc, [pc], #255	; <UNPREDICTABLE>
	...
   10334:	ffffff00 			; <UNDEFINED> instruction: 0xffffff00
   10338:	00ffffff 	ldrshteq	pc, [pc], #255	; <UNPREDICTABLE>
   1033c:	00000000 	andeq	r0, r0, r0
   10340:	ff000000 			; <UNDEFINED> instruction: 0xff000000
   10344:	ffffffff 			; <UNDEFINED> instruction: 0xffffffff
   10348:	00ffffff 	ldrshteq	pc, [pc], #255	; <UNPREDICTABLE>
   1034c:	00000000 	andeq	r0, r0, r0
   10350:	ff000000 			; <UNDEFINED> instruction: 0xff000000
   10354:	ffffffff 			; <UNDEFINED> instruction: 0xffffffff
   10358:	ffffffff 			; <UNDEFINED> instruction: 0xffffffff
   1035c:	000000ff 	strdeq	r0, [r0], -pc	; <UNPREDICTABLE>
   10360:	ff000000 			; <UNDEFINED> instruction: 0xff000000
   10364:	ffffffff 			; <UNDEFINED> instruction: 0xffffffff
   10368:	ffffffff 			; <UNDEFINED> instruction: 0xffffffff
   1036c:	000000ff 	strdeq	r0, [r0], -pc	; <UNPREDICTABLE>
   10370:	ff000000 			; <UNDEFINED> instruction: 0xff000000
   10374:	ffffffff 			; <UNDEFINED> instruction: 0xffffffff
   10378:	ffffffff 			; <UNDEFINED> instruction: 0xffffffff
   1037c:	000000ff 	strdeq	r0, [r0], -pc	; <UNPREDICTABLE>
   10380:	ff000000 			; <UNDEFINED> instruction: 0xff000000
   10384:	000000ff 	strdeq	r0, [r0], -pc	; <UNPREDICTABLE>
   10388:	ff000000 			; <UNDEFINED> instruction: 0xff000000
   1038c:	000000ff 	strdeq	r0, [r0], -pc	; <UNPREDICTABLE>
   10390:	ff000000 			; <UNDEFINED> instruction: 0xff000000
   10394:	ffffffff 			; <UNDEFINED> instruction: 0xffffffff
   10398:	00ffffff 	ldrshteq	pc, [pc], #255	; <UNPREDICTABLE>
   1039c:	00000000 	andeq	r0, r0, r0
   103a0:	ff000000 			; <UNDEFINED> instruction: 0xff000000
   103a4:	ffffffff 			; <UNDEFINED> instruction: 0xffffffff
   103a8:	ffffffff 			; <UNDEFINED> instruction: 0xffffffff
   103ac:	000000ff 	strdeq	r0, [r0], -pc	; <UNPREDICTABLE>
   103b0:	ff000000 			; <UNDEFINED> instruction: 0xff000000
   103b4:	000000ff 	strdeq	r0, [r0], -pc	; <UNPREDICTABLE>
   103b8:	ff000000 			; <UNDEFINED> instruction: 0xff000000
   103bc:	000000ff 	strdeq	r0, [r0], -pc	; <UNPREDICTABLE>
   103c0:	ff000000 			; <UNDEFINED> instruction: 0xff000000
   103c4:	000000ff 	strdeq	r0, [r0], -pc	; <UNPREDICTABLE>
	...
   103d0:	ff000000 			; <UNDEFINED> instruction: 0xff000000
   103d4:	000000ff 	strdeq	r0, [r0], -pc	; <UNPREDICTABLE>
   103d8:	ff000000 			; <UNDEFINED> instruction: 0xff000000
   103dc:	000000ff 	strdeq	r0, [r0], -pc	; <UNPREDICTABLE>
   103e0:	ff000000 			; <UNDEFINED> instruction: 0xff000000
   103e4:	000000ff 	strdeq	r0, [r0], -pc	; <UNPREDICTABLE>
   103e8:	ff000000 			; <UNDEFINED> instruction: 0xff000000
   103ec:	000000ff 	strdeq	r0, [r0], -pc	; <UNPREDICTABLE>
   103f0:	00000000 	andeq	r0, r0, r0
   103f4:	ffffff00 			; <UNDEFINED> instruction: 0xffffff00
   103f8:	00ffffff 	ldrshteq	pc, [pc], #255	; <UNPREDICTABLE>
   103fc:	00000000 	andeq	r0, r0, r0
   10400:	ffffff00 			; <UNDEFINED> instruction: 0xffffff00
   10404:	ffffffff 			; <UNDEFINED> instruction: 0xffffffff
   10408:	ffffffff 			; <UNDEFINED> instruction: 0xffffffff
   1040c:	000000ff 	strdeq	r0, [r0], -pc	; <UNPREDICTABLE>
   10410:	ff000000 			; <UNDEFINED> instruction: 0xff000000
   10414:	000000ff 	strdeq	r0, [r0], -pc	; <UNPREDICTABLE>
   10418:	ff000000 			; <UNDEFINED> instruction: 0xff000000
   1041c:	000000ff 	strdeq	r0, [r0], -pc	; <UNPREDICTABLE>
   10420:	ff000000 			; <UNDEFINED> instruction: 0xff000000
   10424:	000000ff 	strdeq	r0, [r0], -pc	; <UNPREDICTABLE>
   10428:	ff000000 			; <UNDEFINED> instruction: 0xff000000
   1042c:	000000ff 	strdeq	r0, [r0], -pc	; <UNPREDICTABLE>
   10430:	ff000000 			; <UNDEFINED> instruction: 0xff000000
   10434:	000000ff 	strdeq	r0, [r0], -pc	; <UNPREDICTABLE>
   10438:	ff000000 			; <UNDEFINED> instruction: 0xff000000
   1043c:	000000ff 	strdeq	r0, [r0], -pc	; <UNPREDICTABLE>
   10440:	ff000000 			; <UNDEFINED> instruction: 0xff000000
   10444:	000000ff 	strdeq	r0, [r0], -pc	; <UNPREDICTABLE>
   10448:	ff000000 			; <UNDEFINED> instruction: 0xff000000
   1044c:	000000ff 	strdeq	r0, [r0], -pc	; <UNPREDICTABLE>
   10450:	ff000000 			; <UNDEFINED> instruction: 0xff000000
   10454:	000000ff 	strdeq	r0, [r0], -pc	; <UNPREDICTABLE>
	...
   10460:	ff000000 			; <UNDEFINED> instruction: 0xff000000
   10464:	000000ff 	strdeq	r0, [r0], -pc	; <UNPREDICTABLE>
	...
   10470:	ff000000 			; <UNDEFINED> instruction: 0xff000000
   10474:	000000ff 	strdeq	r0, [r0], -pc	; <UNPREDICTABLE>
	...
   10480:	ff000000 			; <UNDEFINED> instruction: 0xff000000
   10484:	000000ff 	strdeq	r0, [r0], -pc	; <UNPREDICTABLE>
   10488:	ff000000 			; <UNDEFINED> instruction: 0xff000000
   1048c:	000000ff 	strdeq	r0, [r0], -pc	; <UNPREDICTABLE>
   10490:	00000000 	andeq	r0, r0, r0
   10494:	ff000000 			; <UNDEFINED> instruction: 0xff000000
   10498:	000000ff 	strdeq	r0, [r0], -pc	; <UNPREDICTABLE>
	...
   104a8:	00ffff00 	rscseq	pc, pc, r0, lsl #30
   104ac:	00000000 	andeq	r0, r0, r0
   104b0:	ff000000 			; <UNDEFINED> instruction: 0xff000000
   104b4:	000000ff 	strdeq	r0, [r0], -pc	; <UNPREDICTABLE>
   104b8:	00ffff00 	rscseq	pc, pc, r0, lsl #30
   104bc:	00000000 	andeq	r0, r0, r0
   104c0:	ff000000 			; <UNDEFINED> instruction: 0xff000000
   104c4:	000000ff 	strdeq	r0, [r0], -pc	; <UNPREDICTABLE>
	...
   104d0:	ff000000 			; <UNDEFINED> instruction: 0xff000000
   104d4:	00ffffff 	ldrshteq	pc, [pc], #255	; <UNPREDICTABLE>
   104d8:	ffffff00 			; <UNDEFINED> instruction: 0xffffff00
   104dc:	000000ff 	strdeq	r0, [r0], -pc	; <UNPREDICTABLE>
   104e0:	ff000000 			; <UNDEFINED> instruction: 0xff000000
   104e4:	00ffffff 	ldrshteq	pc, [pc], #255	; <UNPREDICTABLE>
   104e8:	ff000000 			; <UNDEFINED> instruction: 0xff000000
   104ec:	000000ff 	strdeq	r0, [r0], -pc	; <UNPREDICTABLE>
   104f0:	ff000000 			; <UNDEFINED> instruction: 0xff000000
   104f4:	000000ff 	strdeq	r0, [r0], -pc	; <UNPREDICTABLE>
   104f8:	ff000000 			; <UNDEFINED> instruction: 0xff000000
   104fc:	000000ff 	strdeq	r0, [r0], -pc	; <UNPREDICTABLE>
   10500:	ffffff00 			; <UNDEFINED> instruction: 0xffffff00
   10504:	ffffffff 			; <UNDEFINED> instruction: 0xffffffff
   10508:	ffffffff 			; <UNDEFINED> instruction: 0xffffffff
   1050c:	000000ff 	strdeq	r0, [r0], -pc	; <UNPREDICTABLE>
   10510:	ff000000 			; <UNDEFINED> instruction: 0xff000000
   10514:	000000ff 	strdeq	r0, [r0], -pc	; <UNPREDICTABLE>
   10518:	ff000000 			; <UNDEFINED> instruction: 0xff000000
   1051c:	000000ff 	strdeq	r0, [r0], -pc	; <UNPREDICTABLE>
   10520:	ff000000 			; <UNDEFINED> instruction: 0xff000000
   10524:	000000ff 	strdeq	r0, [r0], -pc	; <UNPREDICTABLE>
   10528:	ff000000 			; <UNDEFINED> instruction: 0xff000000
   1052c:	000000ff 	strdeq	r0, [r0], -pc	; <UNPREDICTABLE>
   10530:	ff000000 			; <UNDEFINED> instruction: 0xff000000
   10534:	000000ff 	strdeq	r0, [r0], -pc	; <UNPREDICTABLE>
   10538:	ff000000 			; <UNDEFINED> instruction: 0xff000000
   1053c:	000000ff 	strdeq	r0, [r0], -pc	; <UNPREDICTABLE>
   10540:	ff000000 			; <UNDEFINED> instruction: 0xff000000
   10544:	000000ff 	strdeq	r0, [r0], -pc	; <UNPREDICTABLE>
   10548:	ff000000 			; <UNDEFINED> instruction: 0xff000000
   1054c:	000000ff 	strdeq	r0, [r0], -pc	; <UNPREDICTABLE>
   10550:	ff000000 			; <UNDEFINED> instruction: 0xff000000
   10554:	000000ff 	strdeq	r0, [r0], -pc	; <UNPREDICTABLE>
	...
   10560:	ff000000 			; <UNDEFINED> instruction: 0xff000000
   10564:	000000ff 	strdeq	r0, [r0], -pc	; <UNPREDICTABLE>
	...
   10570:	ff000000 			; <UNDEFINED> instruction: 0xff000000
   10574:	000000ff 	strdeq	r0, [r0], -pc	; <UNPREDICTABLE>
	...
   10580:	ff000000 			; <UNDEFINED> instruction: 0xff000000
   10584:	000000ff 	strdeq	r0, [r0], -pc	; <UNPREDICTABLE>
   10588:	ff000000 			; <UNDEFINED> instruction: 0xff000000
   1058c:	000000ff 	strdeq	r0, [r0], -pc	; <UNPREDICTABLE>
   10590:	00000000 	andeq	r0, r0, r0
   10594:	ff000000 			; <UNDEFINED> instruction: 0xff000000
   10598:	000000ff 	strdeq	r0, [r0], -pc	; <UNPREDICTABLE>
	...
   105a8:	00ffff00 	rscseq	pc, pc, r0, lsl #30
   105ac:	00000000 	andeq	r0, r0, r0
   105b0:	ff000000 			; <UNDEFINED> instruction: 0xff000000
   105b4:	000000ff 	strdeq	r0, [r0], -pc	; <UNPREDICTABLE>
   105b8:	00ffff00 	rscseq	pc, pc, r0, lsl #30
   105bc:	00000000 	andeq	r0, r0, r0
   105c0:	ff000000 			; <UNDEFINED> instruction: 0xff000000
   105c4:	000000ff 	strdeq	r0, [r0], -pc	; <UNPREDICTABLE>
	...
   105d0:	ff000000 			; <UNDEFINED> instruction: 0xff000000
   105d4:	00ffffff 	ldrshteq	pc, [pc], #255	; <UNPREDICTABLE>
   105d8:	ffffff00 			; <UNDEFINED> instruction: 0xffffff00
   105dc:	000000ff 	strdeq	r0, [r0], -pc	; <UNPREDICTABLE>
   105e0:	ff000000 			; <UNDEFINED> instruction: 0xff000000
   105e4:	00ffffff 	ldrshteq	pc, [pc], #255	; <UNPREDICTABLE>
   105e8:	ff000000 			; <UNDEFINED> instruction: 0xff000000
   105ec:	000000ff 	strdeq	r0, [r0], -pc	; <UNPREDICTABLE>
   105f0:	ff000000 			; <UNDEFINED> instruction: 0xff000000
   105f4:	000000ff 	strdeq	r0, [r0], -pc	; <UNPREDICTABLE>
   105f8:	ff000000 			; <UNDEFINED> instruction: 0xff000000
   105fc:	000000ff 	strdeq	r0, [r0], -pc	; <UNPREDICTABLE>
   10600:	00ffff00 	rscseq	pc, pc, r0, lsl #30
   10604:	00000000 	andeq	r0, r0, r0
   10608:	ff000000 			; <UNDEFINED> instruction: 0xff000000
   1060c:	000000ff 	strdeq	r0, [r0], -pc	; <UNPREDICTABLE>
   10610:	ff000000 			; <UNDEFINED> instruction: 0xff000000
   10614:	000000ff 	strdeq	r0, [r0], -pc	; <UNPREDICTABLE>
   10618:	ff000000 			; <UNDEFINED> instruction: 0xff000000
   1061c:	000000ff 	strdeq	r0, [r0], -pc	; <UNPREDICTABLE>
   10620:	ff000000 			; <UNDEFINED> instruction: 0xff000000
   10624:	000000ff 	strdeq	r0, [r0], -pc	; <UNPREDICTABLE>
   10628:	ff000000 			; <UNDEFINED> instruction: 0xff000000
   1062c:	000000ff 	strdeq	r0, [r0], -pc	; <UNPREDICTABLE>
   10630:	ff000000 			; <UNDEFINED> instruction: 0xff000000
   10634:	000000ff 	strdeq	r0, [r0], -pc	; <UNPREDICTABLE>
	...
   10640:	ff000000 			; <UNDEFINED> instruction: 0xff000000
   10644:	000000ff 	strdeq	r0, [r0], -pc	; <UNPREDICTABLE>
   10648:	ff000000 			; <UNDEFINED> instruction: 0xff000000
   1064c:	000000ff 	strdeq	r0, [r0], -pc	; <UNPREDICTABLE>
   10650:	ff000000 			; <UNDEFINED> instruction: 0xff000000
   10654:	000000ff 	strdeq	r0, [r0], -pc	; <UNPREDICTABLE>
	...
   10660:	ff000000 			; <UNDEFINED> instruction: 0xff000000
   10664:	000000ff 	strdeq	r0, [r0], -pc	; <UNPREDICTABLE>
	...
   10670:	ff000000 			; <UNDEFINED> instruction: 0xff000000
   10674:	000000ff 	strdeq	r0, [r0], -pc	; <UNPREDICTABLE>
	...
   10680:	ff000000 			; <UNDEFINED> instruction: 0xff000000
   10684:	000000ff 	strdeq	r0, [r0], -pc	; <UNPREDICTABLE>
   10688:	ff000000 			; <UNDEFINED> instruction: 0xff000000
   1068c:	000000ff 	strdeq	r0, [r0], -pc	; <UNPREDICTABLE>
   10690:	00000000 	andeq	r0, r0, r0
   10694:	ff000000 			; <UNDEFINED> instruction: 0xff000000
   10698:	000000ff 	strdeq	r0, [r0], -pc	; <UNPREDICTABLE>
	...
   106a8:	00ffff00 	rscseq	pc, pc, r0, lsl #30
   106ac:	00000000 	andeq	r0, r0, r0
   106b0:	ff000000 			; <UNDEFINED> instruction: 0xff000000
   106b4:	000000ff 	strdeq	r0, [r0], -pc	; <UNPREDICTABLE>
   106b8:	00ffff00 	rscseq	pc, pc, r0, lsl #30
   106bc:	00000000 	andeq	r0, r0, r0
   106c0:	ff000000 			; <UNDEFINED> instruction: 0xff000000
   106c4:	000000ff 	strdeq	r0, [r0], -pc	; <UNPREDICTABLE>
	...
   106d0:	ff000000 			; <UNDEFINED> instruction: 0xff000000
   106d4:	ff0000ff 			; <UNDEFINED> instruction: 0xff0000ff
   106d8:	ff0000ff 			; <UNDEFINED> instruction: 0xff0000ff
   106dc:	000000ff 	strdeq	r0, [r0], -pc	; <UNPREDICTABLE>
   106e0:	ff000000 			; <UNDEFINED> instruction: 0xff000000
   106e4:	00ffffff 	ldrshteq	pc, [pc], #255	; <UNPREDICTABLE>
   106e8:	ff000000 			; <UNDEFINED> instruction: 0xff000000
   106ec:	000000ff 	strdeq	r0, [r0], -pc	; <UNPREDICTABLE>
   106f0:	ff000000 			; <UNDEFINED> instruction: 0xff000000
   106f4:	000000ff 	strdeq	r0, [r0], -pc	; <UNPREDICTABLE>
   106f8:	ff000000 			; <UNDEFINED> instruction: 0xff000000
   106fc:	000000ff 	strdeq	r0, [r0], -pc	; <UNPREDICTABLE>
   10700:	00ffff00 	rscseq	pc, pc, r0, lsl #30
   10704:	00000000 	andeq	r0, r0, r0
   10708:	ff000000 			; <UNDEFINED> instruction: 0xff000000
   1070c:	000000ff 	strdeq	r0, [r0], -pc	; <UNPREDICTABLE>
   10710:	ff000000 			; <UNDEFINED> instruction: 0xff000000
   10714:	000000ff 	strdeq	r0, [r0], -pc	; <UNPREDICTABLE>
   10718:	ff000000 			; <UNDEFINED> instruction: 0xff000000
   1071c:	000000ff 	strdeq	r0, [r0], -pc	; <UNPREDICTABLE>
   10720:	ff000000 			; <UNDEFINED> instruction: 0xff000000
   10724:	000000ff 	strdeq	r0, [r0], -pc	; <UNPREDICTABLE>
   10728:	ff000000 			; <UNDEFINED> instruction: 0xff000000
   1072c:	000000ff 	strdeq	r0, [r0], -pc	; <UNPREDICTABLE>
   10730:	ff000000 			; <UNDEFINED> instruction: 0xff000000
   10734:	000000ff 	strdeq	r0, [r0], -pc	; <UNPREDICTABLE>
	...
   10740:	ff000000 			; <UNDEFINED> instruction: 0xff000000
   10744:	000000ff 	strdeq	r0, [r0], -pc	; <UNPREDICTABLE>
   10748:	ff000000 			; <UNDEFINED> instruction: 0xff000000
   1074c:	000000ff 	strdeq	r0, [r0], -pc	; <UNPREDICTABLE>
   10750:	ff000000 			; <UNDEFINED> instruction: 0xff000000
   10754:	000000ff 	strdeq	r0, [r0], -pc	; <UNPREDICTABLE>
	...
   10760:	ff000000 			; <UNDEFINED> instruction: 0xff000000
   10764:	000000ff 	strdeq	r0, [r0], -pc	; <UNPREDICTABLE>
	...
   10770:	ff000000 			; <UNDEFINED> instruction: 0xff000000
   10774:	000000ff 	strdeq	r0, [r0], -pc	; <UNPREDICTABLE>
	...
   10780:	ff000000 			; <UNDEFINED> instruction: 0xff000000
   10784:	000000ff 	strdeq	r0, [r0], -pc	; <UNPREDICTABLE>
   10788:	ff000000 			; <UNDEFINED> instruction: 0xff000000
   1078c:	000000ff 	strdeq	r0, [r0], -pc	; <UNPREDICTABLE>
   10790:	00000000 	andeq	r0, r0, r0
   10794:	ff000000 			; <UNDEFINED> instruction: 0xff000000
   10798:	000000ff 	strdeq	r0, [r0], -pc	; <UNPREDICTABLE>
	...
   107a8:	00ffff00 	rscseq	pc, pc, r0, lsl #30
   107ac:	00000000 	andeq	r0, r0, r0
   107b0:	ff000000 			; <UNDEFINED> instruction: 0xff000000
   107b4:	000000ff 	strdeq	r0, [r0], -pc	; <UNPREDICTABLE>
   107b8:	00ffff00 	rscseq	pc, pc, r0, lsl #30
   107bc:	00000000 	andeq	r0, r0, r0
   107c0:	ff000000 			; <UNDEFINED> instruction: 0xff000000
   107c4:	000000ff 	strdeq	r0, [r0], -pc	; <UNPREDICTABLE>
	...
   107d0:	ff000000 			; <UNDEFINED> instruction: 0xff000000
   107d4:	ff0000ff 			; <UNDEFINED> instruction: 0xff0000ff
   107d8:	ff0000ff 			; <UNDEFINED> instruction: 0xff0000ff
   107dc:	000000ff 	strdeq	r0, [r0], -pc	; <UNPREDICTABLE>
   107e0:	ff000000 			; <UNDEFINED> instruction: 0xff000000
   107e4:	00ffffff 	ldrshteq	pc, [pc], #255	; <UNPREDICTABLE>
   107e8:	ff000000 			; <UNDEFINED> instruction: 0xff000000
   107ec:	000000ff 	strdeq	r0, [r0], -pc	; <UNPREDICTABLE>
   107f0:	ff000000 			; <UNDEFINED> instruction: 0xff000000
   107f4:	000000ff 	strdeq	r0, [r0], -pc	; <UNPREDICTABLE>
   107f8:	ff000000 			; <UNDEFINED> instruction: 0xff000000
   107fc:	000000ff 	strdeq	r0, [r0], -pc	; <UNPREDICTABLE>
	...
   10808:	ff000000 			; <UNDEFINED> instruction: 0xff000000
   1080c:	000000ff 	strdeq	r0, [r0], -pc	; <UNPREDICTABLE>
   10810:	ff000000 			; <UNDEFINED> instruction: 0xff000000
   10814:	ffffffff 			; <UNDEFINED> instruction: 0xffffffff
   10818:	ffffffff 			; <UNDEFINED> instruction: 0xffffffff
   1081c:	000000ff 	strdeq	r0, [r0], -pc	; <UNPREDICTABLE>
   10820:	ff000000 			; <UNDEFINED> instruction: 0xff000000
   10824:	ffffffff 			; <UNDEFINED> instruction: 0xffffffff
   10828:	00ffffff 	ldrshteq	pc, [pc], #255	; <UNPREDICTABLE>
   1082c:	00000000 	andeq	r0, r0, r0
   10830:	ff000000 			; <UNDEFINED> instruction: 0xff000000
   10834:	000000ff 	strdeq	r0, [r0], -pc	; <UNPREDICTABLE>
	...
   10840:	ff000000 			; <UNDEFINED> instruction: 0xff000000
   10844:	000000ff 	strdeq	r0, [r0], -pc	; <UNPREDICTABLE>
   10848:	ff000000 			; <UNDEFINED> instruction: 0xff000000
   1084c:	000000ff 	strdeq	r0, [r0], -pc	; <UNPREDICTABLE>
   10850:	ff000000 			; <UNDEFINED> instruction: 0xff000000
   10854:	ffffffff 			; <UNDEFINED> instruction: 0xffffffff
   10858:	00ffffff 	ldrshteq	pc, [pc], #255	; <UNPREDICTABLE>
   1085c:	00000000 	andeq	r0, r0, r0
   10860:	ff000000 			; <UNDEFINED> instruction: 0xff000000
   10864:	ffffffff 			; <UNDEFINED> instruction: 0xffffffff
   10868:	00ffffff 	ldrshteq	pc, [pc], #255	; <UNPREDICTABLE>
   1086c:	00000000 	andeq	r0, r0, r0
   10870:	ff000000 			; <UNDEFINED> instruction: 0xff000000
   10874:	000000ff 	strdeq	r0, [r0], -pc	; <UNPREDICTABLE>
   10878:	ffffff00 			; <UNDEFINED> instruction: 0xffffff00
   1087c:	000000ff 	strdeq	r0, [r0], -pc	; <UNPREDICTABLE>
   10880:	ff000000 			; <UNDEFINED> instruction: 0xff000000
   10884:	ffffffff 			; <UNDEFINED> instruction: 0xffffffff
   10888:	ffffffff 			; <UNDEFINED> instruction: 0xffffffff
   1088c:	000000ff 	strdeq	r0, [r0], -pc	; <UNPREDICTABLE>
   10890:	00000000 	andeq	r0, r0, r0
   10894:	ff000000 			; <UNDEFINED> instruction: 0xff000000
   10898:	000000ff 	strdeq	r0, [r0], -pc	; <UNPREDICTABLE>
	...
   108a8:	00ffff00 	rscseq	pc, pc, r0, lsl #30
   108ac:	00000000 	andeq	r0, r0, r0
   108b0:	ff000000 			; <UNDEFINED> instruction: 0xff000000
   108b4:	ffffffff 			; <UNDEFINED> instruction: 0xffffffff
   108b8:	000000ff 	strdeq	r0, [r0], -pc	; <UNPREDICTABLE>
   108bc:	00000000 	andeq	r0, r0, r0
   108c0:	ff000000 			; <UNDEFINED> instruction: 0xff000000
   108c4:	000000ff 	strdeq	r0, [r0], -pc	; <UNPREDICTABLE>
	...
   108d0:	ff000000 			; <UNDEFINED> instruction: 0xff000000
   108d4:	ff0000ff 			; <UNDEFINED> instruction: 0xff0000ff
   108d8:	ff0000ff 			; <UNDEFINED> instruction: 0xff0000ff
   108dc:	000000ff 	strdeq	r0, [r0], -pc	; <UNPREDICTABLE>
   108e0:	ff000000 			; <UNDEFINED> instruction: 0xff000000
   108e4:	ff0000ff 			; <UNDEFINED> instruction: 0xff0000ff
   108e8:	ff0000ff 			; <UNDEFINED> instruction: 0xff0000ff
   108ec:	000000ff 	strdeq	r0, [r0], -pc	; <UNPREDICTABLE>
   108f0:	ff000000 			; <UNDEFINED> instruction: 0xff000000
   108f4:	000000ff 	strdeq	r0, [r0], -pc	; <UNPREDICTABLE>
   108f8:	ff000000 			; <UNDEFINED> instruction: 0xff000000
   108fc:	000000ff 	strdeq	r0, [r0], -pc	; <UNPREDICTABLE>
	...
   10908:	ff000000 			; <UNDEFINED> instruction: 0xff000000
   1090c:	000000ff 	strdeq	r0, [r0], -pc	; <UNPREDICTABLE>
   10910:	ff000000 			; <UNDEFINED> instruction: 0xff000000
   10914:	ffffffff 			; <UNDEFINED> instruction: 0xffffffff
   10918:	ffffffff 			; <UNDEFINED> instruction: 0xffffffff
   1091c:	000000ff 	strdeq	r0, [r0], -pc	; <UNPREDICTABLE>
   10920:	ff000000 			; <UNDEFINED> instruction: 0xff000000
   10924:	ffffffff 			; <UNDEFINED> instruction: 0xffffffff
   10928:	00ffffff 	ldrshteq	pc, [pc], #255	; <UNPREDICTABLE>
   1092c:	00000000 	andeq	r0, r0, r0
   10930:	ff000000 			; <UNDEFINED> instruction: 0xff000000
   10934:	000000ff 	strdeq	r0, [r0], -pc	; <UNPREDICTABLE>
	...
   10940:	ff000000 			; <UNDEFINED> instruction: 0xff000000
   10944:	000000ff 	strdeq	r0, [r0], -pc	; <UNPREDICTABLE>
   10948:	ff000000 			; <UNDEFINED> instruction: 0xff000000
   1094c:	000000ff 	strdeq	r0, [r0], -pc	; <UNPREDICTABLE>
   10950:	ff000000 			; <UNDEFINED> instruction: 0xff000000
   10954:	ffffffff 			; <UNDEFINED> instruction: 0xffffffff
   10958:	00ffffff 	ldrshteq	pc, [pc], #255	; <UNPREDICTABLE>
   1095c:	00000000 	andeq	r0, r0, r0
   10960:	ff000000 			; <UNDEFINED> instruction: 0xff000000
   10964:	ffffffff 			; <UNDEFINED> instruction: 0xffffffff
   10968:	00ffffff 	ldrshteq	pc, [pc], #255	; <UNPREDICTABLE>
   1096c:	00000000 	andeq	r0, r0, r0
   10970:	ff000000 			; <UNDEFINED> instruction: 0xff000000
   10974:	000000ff 	strdeq	r0, [r0], -pc	; <UNPREDICTABLE>
   10978:	ffffff00 			; <UNDEFINED> instruction: 0xffffff00
   1097c:	000000ff 	strdeq	r0, [r0], -pc	; <UNPREDICTABLE>
   10980:	ff000000 			; <UNDEFINED> instruction: 0xff000000
   10984:	ffffffff 			; <UNDEFINED> instruction: 0xffffffff
   10988:	ffffffff 			; <UNDEFINED> instruction: 0xffffffff
   1098c:	000000ff 	strdeq	r0, [r0], -pc	; <UNPREDICTABLE>
   10990:	00000000 	andeq	r0, r0, r0
   10994:	ff000000 			; <UNDEFINED> instruction: 0xff000000
   10998:	000000ff 	strdeq	r0, [r0], -pc	; <UNPREDICTABLE>
	...
   109a8:	00ffff00 	rscseq	pc, pc, r0, lsl #30
   109ac:	00000000 	andeq	r0, r0, r0
   109b0:	ff000000 			; <UNDEFINED> instruction: 0xff000000
   109b4:	ffffffff 			; <UNDEFINED> instruction: 0xffffffff
   109b8:	000000ff 	strdeq	r0, [r0], -pc	; <UNPREDICTABLE>
   109bc:	00000000 	andeq	r0, r0, r0
   109c0:	ff000000 			; <UNDEFINED> instruction: 0xff000000
   109c4:	000000ff 	strdeq	r0, [r0], -pc	; <UNPREDICTABLE>
	...
   109d0:	ff000000 			; <UNDEFINED> instruction: 0xff000000
   109d4:	ff0000ff 			; <UNDEFINED> instruction: 0xff0000ff
   109d8:	ff0000ff 			; <UNDEFINED> instruction: 0xff0000ff
   109dc:	000000ff 	strdeq	r0, [r0], -pc	; <UNPREDICTABLE>
   109e0:	ff000000 			; <UNDEFINED> instruction: 0xff000000
   109e4:	ff0000ff 			; <UNDEFINED> instruction: 0xff0000ff
   109e8:	ff0000ff 			; <UNDEFINED> instruction: 0xff0000ff
   109ec:	000000ff 	strdeq	r0, [r0], -pc	; <UNPREDICTABLE>
   109f0:	ff000000 			; <UNDEFINED> instruction: 0xff000000
   109f4:	000000ff 	strdeq	r0, [r0], -pc	; <UNPREDICTABLE>
   109f8:	ff000000 			; <UNDEFINED> instruction: 0xff000000
   109fc:	000000ff 	strdeq	r0, [r0], -pc	; <UNPREDICTABLE>
   10a00:	ff000000 			; <UNDEFINED> instruction: 0xff000000
   10a04:	ffffffff 			; <UNDEFINED> instruction: 0xffffffff
   10a08:	ff0000ff 			; <UNDEFINED> instruction: 0xff0000ff
   10a0c:	000000ff 	strdeq	r0, [r0], -pc	; <UNPREDICTABLE>
   10a10:	ff000000 			; <UNDEFINED> instruction: 0xff000000
   10a14:	000000ff 	strdeq	r0, [r0], -pc	; <UNPREDICTABLE>
   10a18:	ff000000 			; <UNDEFINED> instruction: 0xff000000
   10a1c:	000000ff 	strdeq	r0, [r0], -pc	; <UNPREDICTABLE>
   10a20:	ff000000 			; <UNDEFINED> instruction: 0xff000000
   10a24:	000000ff 	strdeq	r0, [r0], -pc	; <UNPREDICTABLE>
   10a28:	ff000000 			; <UNDEFINED> instruction: 0xff000000
   10a2c:	000000ff 	strdeq	r0, [r0], -pc	; <UNPREDICTABLE>
   10a30:	ff000000 			; <UNDEFINED> instruction: 0xff000000
   10a34:	000000ff 	strdeq	r0, [r0], -pc	; <UNPREDICTABLE>
	...
   10a40:	ff000000 			; <UNDEFINED> instruction: 0xff000000
   10a44:	000000ff 	strdeq	r0, [r0], -pc	; <UNPREDICTABLE>
   10a48:	ff000000 			; <UNDEFINED> instruction: 0xff000000
   10a4c:	000000ff 	strdeq	r0, [r0], -pc	; <UNPREDICTABLE>
   10a50:	ff000000 			; <UNDEFINED> instruction: 0xff000000
   10a54:	000000ff 	strdeq	r0, [r0], -pc	; <UNPREDICTABLE>
	...
   10a60:	ff000000 			; <UNDEFINED> instruction: 0xff000000
   10a64:	000000ff 	strdeq	r0, [r0], -pc	; <UNPREDICTABLE>
	...
   10a70:	ff000000 			; <UNDEFINED> instruction: 0xff000000
   10a74:	000000ff 	strdeq	r0, [r0], -pc	; <UNPREDICTABLE>
   10a78:	ff000000 			; <UNDEFINED> instruction: 0xff000000
   10a7c:	000000ff 	strdeq	r0, [r0], -pc	; <UNPREDICTABLE>
   10a80:	ff000000 			; <UNDEFINED> instruction: 0xff000000
   10a84:	000000ff 	strdeq	r0, [r0], -pc	; <UNPREDICTABLE>
   10a88:	ff000000 			; <UNDEFINED> instruction: 0xff000000
   10a8c:	000000ff 	strdeq	r0, [r0], -pc	; <UNPREDICTABLE>
   10a90:	00000000 	andeq	r0, r0, r0
   10a94:	ff000000 			; <UNDEFINED> instruction: 0xff000000
   10a98:	000000ff 	strdeq	r0, [r0], -pc	; <UNPREDICTABLE>
   10a9c:	00000000 	andeq	r0, r0, r0
   10aa0:	ff000000 			; <UNDEFINED> instruction: 0xff000000
   10aa4:	000000ff 	strdeq	r0, [r0], -pc	; <UNPREDICTABLE>
   10aa8:	00ffff00 	rscseq	pc, pc, r0, lsl #30
   10aac:	00000000 	andeq	r0, r0, r0
   10ab0:	ff000000 			; <UNDEFINED> instruction: 0xff000000
   10ab4:	000000ff 	strdeq	r0, [r0], -pc	; <UNPREDICTABLE>
   10ab8:	00ffff00 	rscseq	pc, pc, r0, lsl #30
   10abc:	00000000 	andeq	r0, r0, r0
   10ac0:	ff000000 			; <UNDEFINED> instruction: 0xff000000
   10ac4:	000000ff 	strdeq	r0, [r0], -pc	; <UNPREDICTABLE>
	...
   10ad0:	ff000000 			; <UNDEFINED> instruction: 0xff000000
   10ad4:	ff0000ff 			; <UNDEFINED> instruction: 0xff0000ff
   10ad8:	ff0000ff 			; <UNDEFINED> instruction: 0xff0000ff
   10adc:	000000ff 	strdeq	r0, [r0], -pc	; <UNPREDICTABLE>
   10ae0:	ff000000 			; <UNDEFINED> instruction: 0xff000000
   10ae4:	000000ff 	strdeq	r0, [r0], -pc	; <UNPREDICTABLE>
   10ae8:	ffffff00 			; <UNDEFINED> instruction: 0xffffff00
   10aec:	000000ff 	strdeq	r0, [r0], -pc	; <UNPREDICTABLE>
   10af0:	ff000000 			; <UNDEFINED> instruction: 0xff000000
   10af4:	000000ff 	strdeq	r0, [r0], -pc	; <UNPREDICTABLE>
   10af8:	ff000000 			; <UNDEFINED> instruction: 0xff000000
   10afc:	000000ff 	strdeq	r0, [r0], -pc	; <UNPREDICTABLE>
   10b00:	ff000000 			; <UNDEFINED> instruction: 0xff000000
   10b04:	ffffffff 			; <UNDEFINED> instruction: 0xffffffff
   10b08:	ff0000ff 			; <UNDEFINED> instruction: 0xff0000ff
   10b0c:	000000ff 	strdeq	r0, [r0], -pc	; <UNPREDICTABLE>
   10b10:	ff000000 			; <UNDEFINED> instruction: 0xff000000
   10b14:	000000ff 	strdeq	r0, [r0], -pc	; <UNPREDICTABLE>
   10b18:	ff000000 			; <UNDEFINED> instruction: 0xff000000
   10b1c:	000000ff 	strdeq	r0, [r0], -pc	; <UNPREDICTABLE>
   10b20:	ff000000 			; <UNDEFINED> instruction: 0xff000000
   10b24:	000000ff 	strdeq	r0, [r0], -pc	; <UNPREDICTABLE>
   10b28:	ff000000 			; <UNDEFINED> instruction: 0xff000000
   10b2c:	000000ff 	strdeq	r0, [r0], -pc	; <UNPREDICTABLE>
   10b30:	ff000000 			; <UNDEFINED> instruction: 0xff000000
   10b34:	000000ff 	strdeq	r0, [r0], -pc	; <UNPREDICTABLE>
	...
   10b40:	ff000000 			; <UNDEFINED> instruction: 0xff000000
   10b44:	000000ff 	strdeq	r0, [r0], -pc	; <UNPREDICTABLE>
   10b48:	ff000000 			; <UNDEFINED> instruction: 0xff000000
   10b4c:	000000ff 	strdeq	r0, [r0], -pc	; <UNPREDICTABLE>
   10b50:	ff000000 			; <UNDEFINED> instruction: 0xff000000
   10b54:	000000ff 	strdeq	r0, [r0], -pc	; <UNPREDICTABLE>
	...
   10b60:	ff000000 			; <UNDEFINED> instruction: 0xff000000
   10b64:	000000ff 	strdeq	r0, [r0], -pc	; <UNPREDICTABLE>
	...
   10b70:	ff000000 			; <UNDEFINED> instruction: 0xff000000
   10b74:	000000ff 	strdeq	r0, [r0], -pc	; <UNPREDICTABLE>
   10b78:	ff000000 			; <UNDEFINED> instruction: 0xff000000
   10b7c:	000000ff 	strdeq	r0, [r0], -pc	; <UNPREDICTABLE>
   10b80:	ff000000 			; <UNDEFINED> instruction: 0xff000000
   10b84:	000000ff 	strdeq	r0, [r0], -pc	; <UNPREDICTABLE>
   10b88:	ff000000 			; <UNDEFINED> instruction: 0xff000000
   10b8c:	000000ff 	strdeq	r0, [r0], -pc	; <UNPREDICTABLE>
   10b90:	00000000 	andeq	r0, r0, r0
   10b94:	ff000000 			; <UNDEFINED> instruction: 0xff000000
   10b98:	000000ff 	strdeq	r0, [r0], -pc	; <UNPREDICTABLE>
   10b9c:	00000000 	andeq	r0, r0, r0
   10ba0:	ff000000 			; <UNDEFINED> instruction: 0xff000000
   10ba4:	000000ff 	strdeq	r0, [r0], -pc	; <UNPREDICTABLE>
   10ba8:	00ffff00 	rscseq	pc, pc, r0, lsl #30
   10bac:	00000000 	andeq	r0, r0, r0
   10bb0:	ff000000 			; <UNDEFINED> instruction: 0xff000000
   10bb4:	000000ff 	strdeq	r0, [r0], -pc	; <UNPREDICTABLE>
   10bb8:	00ffff00 	rscseq	pc, pc, r0, lsl #30
   10bbc:	00000000 	andeq	r0, r0, r0
   10bc0:	ff000000 			; <UNDEFINED> instruction: 0xff000000
   10bc4:	000000ff 	strdeq	r0, [r0], -pc	; <UNPREDICTABLE>
	...
   10bd0:	ff000000 			; <UNDEFINED> instruction: 0xff000000
   10bd4:	ff0000ff 			; <UNDEFINED> instruction: 0xff0000ff
   10bd8:	ff0000ff 			; <UNDEFINED> instruction: 0xff0000ff
   10bdc:	000000ff 	strdeq	r0, [r0], -pc	; <UNPREDICTABLE>
   10be0:	ff000000 			; <UNDEFINED> instruction: 0xff000000
   10be4:	000000ff 	strdeq	r0, [r0], -pc	; <UNPREDICTABLE>
   10be8:	ffffff00 			; <UNDEFINED> instruction: 0xffffff00
   10bec:	000000ff 	strdeq	r0, [r0], -pc	; <UNPREDICTABLE>
   10bf0:	ff000000 			; <UNDEFINED> instruction: 0xff000000
   10bf4:	000000ff 	strdeq	r0, [r0], -pc	; <UNPREDICTABLE>
   10bf8:	ff000000 			; <UNDEFINED> instruction: 0xff000000
   10bfc:	000000ff 	strdeq	r0, [r0], -pc	; <UNPREDICTABLE>
   10c00:	ff000000 			; <UNDEFINED> instruction: 0xff000000
   10c04:	ff0000ff 			; <UNDEFINED> instruction: 0xff0000ff
   10c08:	ff0000ff 			; <UNDEFINED> instruction: 0xff0000ff
   10c0c:	000000ff 	strdeq	r0, [r0], -pc	; <UNPREDICTABLE>
   10c10:	ff000000 			; <UNDEFINED> instruction: 0xff000000
   10c14:	000000ff 	strdeq	r0, [r0], -pc	; <UNPREDICTABLE>
   10c18:	ff000000 			; <UNDEFINED> instruction: 0xff000000
   10c1c:	000000ff 	strdeq	r0, [r0], -pc	; <UNPREDICTABLE>
   10c20:	ff000000 			; <UNDEFINED> instruction: 0xff000000
   10c24:	000000ff 	strdeq	r0, [r0], -pc	; <UNPREDICTABLE>
   10c28:	ff000000 			; <UNDEFINED> instruction: 0xff000000
   10c2c:	000000ff 	strdeq	r0, [r0], -pc	; <UNPREDICTABLE>
   10c30:	ff000000 			; <UNDEFINED> instruction: 0xff000000
   10c34:	000000ff 	strdeq	r0, [r0], -pc	; <UNPREDICTABLE>
   10c38:	ff000000 			; <UNDEFINED> instruction: 0xff000000
   10c3c:	000000ff 	strdeq	r0, [r0], -pc	; <UNPREDICTABLE>
   10c40:	ff000000 			; <UNDEFINED> instruction: 0xff000000
   10c44:	000000ff 	strdeq	r0, [r0], -pc	; <UNPREDICTABLE>
   10c48:	ff000000 			; <UNDEFINED> instruction: 0xff000000
   10c4c:	000000ff 	strdeq	r0, [r0], -pc	; <UNPREDICTABLE>
   10c50:	ff000000 			; <UNDEFINED> instruction: 0xff000000
   10c54:	000000ff 	strdeq	r0, [r0], -pc	; <UNPREDICTABLE>
	...
   10c60:	ff000000 			; <UNDEFINED> instruction: 0xff000000
   10c64:	000000ff 	strdeq	r0, [r0], -pc	; <UNPREDICTABLE>
	...
   10c70:	ff000000 			; <UNDEFINED> instruction: 0xff000000
   10c74:	000000ff 	strdeq	r0, [r0], -pc	; <UNPREDICTABLE>
   10c78:	ff000000 			; <UNDEFINED> instruction: 0xff000000
   10c7c:	000000ff 	strdeq	r0, [r0], -pc	; <UNPREDICTABLE>
   10c80:	ff000000 			; <UNDEFINED> instruction: 0xff000000
   10c84:	000000ff 	strdeq	r0, [r0], -pc	; <UNPREDICTABLE>
   10c88:	ff000000 			; <UNDEFINED> instruction: 0xff000000
   10c8c:	000000ff 	strdeq	r0, [r0], -pc	; <UNPREDICTABLE>
   10c90:	00000000 	andeq	r0, r0, r0
   10c94:	ff000000 			; <UNDEFINED> instruction: 0xff000000
   10c98:	000000ff 	strdeq	r0, [r0], -pc	; <UNPREDICTABLE>
   10c9c:	00000000 	andeq	r0, r0, r0
   10ca0:	ff000000 			; <UNDEFINED> instruction: 0xff000000
   10ca4:	000000ff 	strdeq	r0, [r0], -pc	; <UNPREDICTABLE>
   10ca8:	00ffff00 	rscseq	pc, pc, r0, lsl #30
   10cac:	00000000 	andeq	r0, r0, r0
   10cb0:	ff000000 			; <UNDEFINED> instruction: 0xff000000
   10cb4:	000000ff 	strdeq	r0, [r0], -pc	; <UNPREDICTABLE>
   10cb8:	00ffff00 	rscseq	pc, pc, r0, lsl #30
   10cbc:	00000000 	andeq	r0, r0, r0
   10cc0:	ff000000 			; <UNDEFINED> instruction: 0xff000000
   10cc4:	000000ff 	strdeq	r0, [r0], -pc	; <UNPREDICTABLE>
	...
   10cd0:	ff000000 			; <UNDEFINED> instruction: 0xff000000
   10cd4:	ff0000ff 			; <UNDEFINED> instruction: 0xff0000ff
   10cd8:	ff0000ff 			; <UNDEFINED> instruction: 0xff0000ff
   10cdc:	000000ff 	strdeq	r0, [r0], -pc	; <UNPREDICTABLE>
   10ce0:	ff000000 			; <UNDEFINED> instruction: 0xff000000
   10ce4:	000000ff 	strdeq	r0, [r0], -pc	; <UNPREDICTABLE>
   10ce8:	ffffff00 			; <UNDEFINED> instruction: 0xffffff00
   10cec:	000000ff 	strdeq	r0, [r0], -pc	; <UNPREDICTABLE>
   10cf0:	ff000000 			; <UNDEFINED> instruction: 0xff000000
   10cf4:	000000ff 	strdeq	r0, [r0], -pc	; <UNPREDICTABLE>
   10cf8:	ff000000 			; <UNDEFINED> instruction: 0xff000000
   10cfc:	000000ff 	strdeq	r0, [r0], -pc	; <UNPREDICTABLE>
   10d00:	ff000000 			; <UNDEFINED> instruction: 0xff000000
   10d04:	ff0000ff 			; <UNDEFINED> instruction: 0xff0000ff
   10d08:	ff0000ff 			; <UNDEFINED> instruction: 0xff0000ff
   10d0c:	000000ff 	strdeq	r0, [r0], -pc	; <UNPREDICTABLE>
   10d10:	ff000000 			; <UNDEFINED> instruction: 0xff000000
   10d14:	000000ff 	strdeq	r0, [r0], -pc	; <UNPREDICTABLE>
   10d18:	ff000000 			; <UNDEFINED> instruction: 0xff000000
   10d1c:	000000ff 	strdeq	r0, [r0], -pc	; <UNPREDICTABLE>
   10d20:	ff000000 			; <UNDEFINED> instruction: 0xff000000
   10d24:	000000ff 	strdeq	r0, [r0], -pc	; <UNPREDICTABLE>
   10d28:	ff000000 			; <UNDEFINED> instruction: 0xff000000
   10d2c:	000000ff 	strdeq	r0, [r0], -pc	; <UNPREDICTABLE>
   10d30:	ff000000 			; <UNDEFINED> instruction: 0xff000000
   10d34:	000000ff 	strdeq	r0, [r0], -pc	; <UNPREDICTABLE>
   10d38:	ff000000 			; <UNDEFINED> instruction: 0xff000000
   10d3c:	000000ff 	strdeq	r0, [r0], -pc	; <UNPREDICTABLE>
   10d40:	ff000000 			; <UNDEFINED> instruction: 0xff000000
   10d44:	000000ff 	strdeq	r0, [r0], -pc	; <UNPREDICTABLE>
   10d48:	ff000000 			; <UNDEFINED> instruction: 0xff000000
   10d4c:	000000ff 	strdeq	r0, [r0], -pc	; <UNPREDICTABLE>
   10d50:	ff000000 			; <UNDEFINED> instruction: 0xff000000
   10d54:	000000ff 	strdeq	r0, [r0], -pc	; <UNPREDICTABLE>
	...
   10d60:	ff000000 			; <UNDEFINED> instruction: 0xff000000
   10d64:	000000ff 	strdeq	r0, [r0], -pc	; <UNPREDICTABLE>
	...
   10d70:	ff000000 			; <UNDEFINED> instruction: 0xff000000
   10d74:	000000ff 	strdeq	r0, [r0], -pc	; <UNPREDICTABLE>
   10d78:	ff000000 			; <UNDEFINED> instruction: 0xff000000
   10d7c:	000000ff 	strdeq	r0, [r0], -pc	; <UNPREDICTABLE>
   10d80:	ff000000 			; <UNDEFINED> instruction: 0xff000000
   10d84:	000000ff 	strdeq	r0, [r0], -pc	; <UNPREDICTABLE>
   10d88:	ff000000 			; <UNDEFINED> instruction: 0xff000000
   10d8c:	000000ff 	strdeq	r0, [r0], -pc	; <UNPREDICTABLE>
   10d90:	00000000 	andeq	r0, r0, r0
   10d94:	ff000000 			; <UNDEFINED> instruction: 0xff000000
   10d98:	000000ff 	strdeq	r0, [r0], -pc	; <UNPREDICTABLE>
   10d9c:	00000000 	andeq	r0, r0, r0
   10da0:	ff000000 			; <UNDEFINED> instruction: 0xff000000
   10da4:	000000ff 	strdeq	r0, [r0], -pc	; <UNPREDICTABLE>
   10da8:	00ffff00 	rscseq	pc, pc, r0, lsl #30
   10dac:	00000000 	andeq	r0, r0, r0
   10db0:	ff000000 			; <UNDEFINED> instruction: 0xff000000
   10db4:	000000ff 	strdeq	r0, [r0], -pc	; <UNPREDICTABLE>
   10db8:	00ffff00 	rscseq	pc, pc, r0, lsl #30
   10dbc:	00000000 	andeq	r0, r0, r0
   10dc0:	ff000000 			; <UNDEFINED> instruction: 0xff000000
   10dc4:	000000ff 	strdeq	r0, [r0], -pc	; <UNPREDICTABLE>
	...
   10dd0:	ff000000 			; <UNDEFINED> instruction: 0xff000000
   10dd4:	ff0000ff 			; <UNDEFINED> instruction: 0xff0000ff
   10dd8:	ff0000ff 			; <UNDEFINED> instruction: 0xff0000ff
   10ddc:	000000ff 	strdeq	r0, [r0], -pc	; <UNPREDICTABLE>
   10de0:	ff000000 			; <UNDEFINED> instruction: 0xff000000
   10de4:	000000ff 	strdeq	r0, [r0], -pc	; <UNPREDICTABLE>
   10de8:	ffffff00 			; <UNDEFINED> instruction: 0xffffff00
   10dec:	000000ff 	strdeq	r0, [r0], -pc	; <UNPREDICTABLE>
   10df0:	ff000000 			; <UNDEFINED> instruction: 0xff000000
   10df4:	000000ff 	strdeq	r0, [r0], -pc	; <UNPREDICTABLE>
   10df8:	ff000000 			; <UNDEFINED> instruction: 0xff000000
   10dfc:	000000ff 	strdeq	r0, [r0], -pc	; <UNPREDICTABLE>
   10e00:	ff000000 			; <UNDEFINED> instruction: 0xff000000
   10e04:	ffffffff 			; <UNDEFINED> instruction: 0xffffffff
   10e08:	ffffffff 			; <UNDEFINED> instruction: 0xffffffff
   10e0c:	000000ff 	strdeq	r0, [r0], -pc	; <UNPREDICTABLE>
   10e10:	ff000000 			; <UNDEFINED> instruction: 0xff000000
   10e14:	000000ff 	strdeq	r0, [r0], -pc	; <UNPREDICTABLE>
   10e18:	ff000000 			; <UNDEFINED> instruction: 0xff000000
   10e1c:	000000ff 	strdeq	r0, [r0], -pc	; <UNPREDICTABLE>
   10e20:	ff000000 			; <UNDEFINED> instruction: 0xff000000
   10e24:	ffffffff 			; <UNDEFINED> instruction: 0xffffffff
   10e28:	00ffffff 	ldrshteq	pc, [pc], #255	; <UNPREDICTABLE>
	...
   10e34:	ffffff00 			; <UNDEFINED> instruction: 0xffffff00
   10e38:	00ffffff 	ldrshteq	pc, [pc], #255	; <UNPREDICTABLE>
   10e3c:	00000000 	andeq	r0, r0, r0
   10e40:	ff000000 			; <UNDEFINED> instruction: 0xff000000
   10e44:	ffffffff 			; <UNDEFINED> instruction: 0xffffffff
   10e48:	00ffffff 	ldrshteq	pc, [pc], #255	; <UNPREDICTABLE>
   10e4c:	00000000 	andeq	r0, r0, r0
   10e50:	ff000000 			; <UNDEFINED> instruction: 0xff000000
   10e54:	ffffffff 			; <UNDEFINED> instruction: 0xffffffff
   10e58:	ffffffff 			; <UNDEFINED> instruction: 0xffffffff
   10e5c:	000000ff 	strdeq	r0, [r0], -pc	; <UNPREDICTABLE>
   10e60:	ff000000 			; <UNDEFINED> instruction: 0xff000000
   10e64:	000000ff 	strdeq	r0, [r0], -pc	; <UNPREDICTABLE>
	...
   10e70:	ff000000 			; <UNDEFINED> instruction: 0xff000000
   10e74:	ffffffff 			; <UNDEFINED> instruction: 0xffffffff
   10e78:	ffffffff 			; <UNDEFINED> instruction: 0xffffffff
   10e7c:	000000ff 	strdeq	r0, [r0], -pc	; <UNPREDICTABLE>
   10e80:	ff000000 			; <UNDEFINED> instruction: 0xff000000
   10e84:	000000ff 	strdeq	r0, [r0], -pc	; <UNPREDICTABLE>
   10e88:	ff000000 			; <UNDEFINED> instruction: 0xff000000
   10e8c:	000000ff 	strdeq	r0, [r0], -pc	; <UNPREDICTABLE>
   10e90:	ff000000 			; <UNDEFINED> instruction: 0xff000000
   10e94:	ffffffff 			; <UNDEFINED> instruction: 0xffffffff
   10e98:	00ffffff 	ldrshteq	pc, [pc], #255	; <UNPREDICTABLE>
   10e9c:	00000000 	andeq	r0, r0, r0
   10ea0:	ff000000 			; <UNDEFINED> instruction: 0xff000000
   10ea4:	ffffffff 			; <UNDEFINED> instruction: 0xffffffff
   10ea8:	00ffffff 	ldrshteq	pc, [pc], #255	; <UNPREDICTABLE>
   10eac:	00000000 	andeq	r0, r0, r0
   10eb0:	ff000000 			; <UNDEFINED> instruction: 0xff000000
   10eb4:	000000ff 	strdeq	r0, [r0], -pc	; <UNPREDICTABLE>
   10eb8:	ff000000 			; <UNDEFINED> instruction: 0xff000000
   10ebc:	000000ff 	strdeq	r0, [r0], -pc	; <UNPREDICTABLE>
   10ec0:	ff000000 			; <UNDEFINED> instruction: 0xff000000
   10ec4:	ffffffff 			; <UNDEFINED> instruction: 0xffffffff
   10ec8:	ffffffff 			; <UNDEFINED> instruction: 0xffffffff
   10ecc:	000000ff 	strdeq	r0, [r0], -pc	; <UNPREDICTABLE>
   10ed0:	ff000000 			; <UNDEFINED> instruction: 0xff000000
   10ed4:	ff0000ff 			; <UNDEFINED> instruction: 0xff0000ff
   10ed8:	ff0000ff 			; <UNDEFINED> instruction: 0xff0000ff
   10edc:	000000ff 	strdeq	r0, [r0], -pc	; <UNPREDICTABLE>
   10ee0:	ff000000 			; <UNDEFINED> instruction: 0xff000000
   10ee4:	000000ff 	strdeq	r0, [r0], -pc	; <UNPREDICTABLE>
   10ee8:	ff000000 			; <UNDEFINED> instruction: 0xff000000
   10eec:	000000ff 	strdeq	r0, [r0], -pc	; <UNPREDICTABLE>
   10ef0:	00000000 	andeq	r0, r0, r0
   10ef4:	ffffff00 			; <UNDEFINED> instruction: 0xffffff00
   10ef8:	00ffffff 	ldrshteq	pc, [pc], #255	; <UNPREDICTABLE>
   10efc:	00000000 	andeq	r0, r0, r0
   10f00:	ff000000 			; <UNDEFINED> instruction: 0xff000000
   10f04:	ffffffff 			; <UNDEFINED> instruction: 0xffffffff
   10f08:	ffffffff 			; <UNDEFINED> instruction: 0xffffffff
   10f0c:	000000ff 	strdeq	r0, [r0], -pc	; <UNPREDICTABLE>
   10f10:	ff000000 			; <UNDEFINED> instruction: 0xff000000
   10f14:	000000ff 	strdeq	r0, [r0], -pc	; <UNPREDICTABLE>
   10f18:	ff000000 			; <UNDEFINED> instruction: 0xff000000
   10f1c:	000000ff 	strdeq	r0, [r0], -pc	; <UNPREDICTABLE>
   10f20:	ff000000 			; <UNDEFINED> instruction: 0xff000000
   10f24:	ffffffff 			; <UNDEFINED> instruction: 0xffffffff
   10f28:	00ffffff 	ldrshteq	pc, [pc], #255	; <UNPREDICTABLE>
	...
   10f34:	ffffff00 			; <UNDEFINED> instruction: 0xffffff00
   10f38:	00ffffff 	ldrshteq	pc, [pc], #255	; <UNPREDICTABLE>
   10f3c:	00000000 	andeq	r0, r0, r0
   10f40:	ff000000 			; <UNDEFINED> instruction: 0xff000000
   10f44:	ffffffff 			; <UNDEFINED> instruction: 0xffffffff
   10f48:	00ffffff 	ldrshteq	pc, [pc], #255	; <UNPREDICTABLE>
   10f4c:	00000000 	andeq	r0, r0, r0
   10f50:	ff000000 			; <UNDEFINED> instruction: 0xff000000
   10f54:	ffffffff 			; <UNDEFINED> instruction: 0xffffffff
   10f58:	ffffffff 			; <UNDEFINED> instruction: 0xffffffff
   10f5c:	000000ff 	strdeq	r0, [r0], -pc	; <UNPREDICTABLE>
   10f60:	ff000000 			; <UNDEFINED> instruction: 0xff000000
   10f64:	000000ff 	strdeq	r0, [r0], -pc	; <UNPREDICTABLE>
	...
   10f70:	ff000000 			; <UNDEFINED> instruction: 0xff000000
   10f74:	ffffffff 			; <UNDEFINED> instruction: 0xffffffff
   10f78:	ffffffff 			; <UNDEFINED> instruction: 0xffffffff
   10f7c:	000000ff 	strdeq	r0, [r0], -pc	; <UNPREDICTABLE>
   10f80:	ff000000 			; <UNDEFINED> instruction: 0xff000000
   10f84:	000000ff 	strdeq	r0, [r0], -pc	; <UNPREDICTABLE>
   10f88:	ff000000 			; <UNDEFINED> instruction: 0xff000000
   10f8c:	000000ff 	strdeq	r0, [r0], -pc	; <UNPREDICTABLE>
   10f90:	ff000000 			; <UNDEFINED> instruction: 0xff000000
   10f94:	ffffffff 			; <UNDEFINED> instruction: 0xffffffff
   10f98:	00ffffff 	ldrshteq	pc, [pc], #255	; <UNPREDICTABLE>
   10f9c:	00000000 	andeq	r0, r0, r0
   10fa0:	ff000000 			; <UNDEFINED> instruction: 0xff000000
   10fa4:	ffffffff 			; <UNDEFINED> instruction: 0xffffffff
   10fa8:	00ffffff 	ldrshteq	pc, [pc], #255	; <UNPREDICTABLE>
   10fac:	00000000 	andeq	r0, r0, r0
   10fb0:	ff000000 			; <UNDEFINED> instruction: 0xff000000
   10fb4:	000000ff 	strdeq	r0, [r0], -pc	; <UNPREDICTABLE>
   10fb8:	ff000000 			; <UNDEFINED> instruction: 0xff000000
   10fbc:	000000ff 	strdeq	r0, [r0], -pc	; <UNPREDICTABLE>
   10fc0:	ff000000 			; <UNDEFINED> instruction: 0xff000000
   10fc4:	ffffffff 			; <UNDEFINED> instruction: 0xffffffff
   10fc8:	ffffffff 			; <UNDEFINED> instruction: 0xffffffff
   10fcc:	000000ff 	strdeq	r0, [r0], -pc	; <UNPREDICTABLE>
   10fd0:	ff000000 			; <UNDEFINED> instruction: 0xff000000
   10fd4:	ff0000ff 			; <UNDEFINED> instruction: 0xff0000ff
   10fd8:	ff0000ff 			; <UNDEFINED> instruction: 0xff0000ff
   10fdc:	000000ff 	strdeq	r0, [r0], -pc	; <UNPREDICTABLE>
   10fe0:	ff000000 			; <UNDEFINED> instruction: 0xff000000
   10fe4:	000000ff 	strdeq	r0, [r0], -pc	; <UNPREDICTABLE>
   10fe8:	ff000000 			; <UNDEFINED> instruction: 0xff000000
   10fec:	000000ff 	strdeq	r0, [r0], -pc	; <UNPREDICTABLE>
   10ff0:	00000000 	andeq	r0, r0, r0
   10ff4:	ffffff00 			; <UNDEFINED> instruction: 0xffffff00
   10ff8:	00ffffff 	ldrshteq	pc, [pc], #255	; <UNPREDICTABLE>
	...
   110b0:	ff000000 			; <UNDEFINED> instruction: 0xff000000
   110b4:	ffffffff 			; <UNDEFINED> instruction: 0xffffffff
   110b8:	00ffffff 	ldrshteq	pc, [pc], #255	; <UNPREDICTABLE>
   110bc:	00000000 	andeq	r0, r0, r0
   110c0:	ff000000 			; <UNDEFINED> instruction: 0xff000000
   110c4:	000000ff 	strdeq	r0, [r0], -pc	; <UNPREDICTABLE>
   110c8:	ff000000 			; <UNDEFINED> instruction: 0xff000000
   110cc:	000000ff 	strdeq	r0, [r0], -pc	; <UNPREDICTABLE>
   110d0:	00000000 	andeq	r0, r0, r0
   110d4:	ffffff00 			; <UNDEFINED> instruction: 0xffffff00
   110d8:	ffffffff 			; <UNDEFINED> instruction: 0xffffffff
   110dc:	000000ff 	strdeq	r0, [r0], -pc	; <UNPREDICTABLE>
   110e0:	00000000 	andeq	r0, r0, r0
   110e4:	ff000000 			; <UNDEFINED> instruction: 0xff000000
   110e8:	000000ff 	strdeq	r0, [r0], -pc	; <UNPREDICTABLE>
	...
   111b0:	ff000000 			; <UNDEFINED> instruction: 0xff000000
   111b4:	ffffffff 			; <UNDEFINED> instruction: 0xffffffff
   111b8:	00ffffff 	ldrshteq	pc, [pc], #255	; <UNPREDICTABLE>
   111bc:	00000000 	andeq	r0, r0, r0
   111c0:	ff000000 			; <UNDEFINED> instruction: 0xff000000
   111c4:	000000ff 	strdeq	r0, [r0], -pc	; <UNPREDICTABLE>
   111c8:	ff000000 			; <UNDEFINED> instruction: 0xff000000
   111cc:	000000ff 	strdeq	r0, [r0], -pc	; <UNPREDICTABLE>
   111d0:	00000000 	andeq	r0, r0, r0
   111d4:	ffffff00 			; <UNDEFINED> instruction: 0xffffff00
   111d8:	ffffffff 			; <UNDEFINED> instruction: 0xffffffff
   111dc:	000000ff 	strdeq	r0, [r0], -pc	; <UNPREDICTABLE>
   111e0:	00000000 	andeq	r0, r0, r0
   111e4:	ff000000 			; <UNDEFINED> instruction: 0xff000000
   111e8:	000000ff 	strdeq	r0, [r0], -pc	; <UNPREDICTABLE>
	...
   11200:	ff000000 			; <UNDEFINED> instruction: 0xff000000
   11204:	ffffffff 			; <UNDEFINED> instruction: 0xffffffff
   11208:	00ffffff 	ldrshteq	pc, [pc], #255	; <UNPREDICTABLE>
	...
   11214:	ffffff00 			; <UNDEFINED> instruction: 0xffffff00
   11218:	00ffffff 	ldrshteq	pc, [pc], #255	; <UNPREDICTABLE>
   1121c:	00000000 	andeq	r0, r0, r0
   11220:	ff000000 			; <UNDEFINED> instruction: 0xff000000
   11224:	ffffffff 			; <UNDEFINED> instruction: 0xffffffff
   11228:	00ffffff 	ldrshteq	pc, [pc], #255	; <UNPREDICTABLE>
	...
   11234:	ffffff00 			; <UNDEFINED> instruction: 0xffffff00
   11238:	ffffffff 			; <UNDEFINED> instruction: 0xffffffff
   1123c:	000000ff 	strdeq	r0, [r0], -pc	; <UNPREDICTABLE>
   11240:	ff000000 			; <UNDEFINED> instruction: 0xff000000
   11244:	ffffffff 			; <UNDEFINED> instruction: 0xffffffff
   11248:	ffffffff 			; <UNDEFINED> instruction: 0xffffffff
   1124c:	000000ff 	strdeq	r0, [r0], -pc	; <UNPREDICTABLE>
   11250:	ff000000 			; <UNDEFINED> instruction: 0xff000000
   11254:	000000ff 	strdeq	r0, [r0], -pc	; <UNPREDICTABLE>
   11258:	ff000000 			; <UNDEFINED> instruction: 0xff000000
   1125c:	000000ff 	strdeq	r0, [r0], -pc	; <UNPREDICTABLE>
   11260:	ff000000 			; <UNDEFINED> instruction: 0xff000000
   11264:	000000ff 	strdeq	r0, [r0], -pc	; <UNPREDICTABLE>
   11268:	ff000000 			; <UNDEFINED> instruction: 0xff000000
   1126c:	000000ff 	strdeq	r0, [r0], -pc	; <UNPREDICTABLE>
   11270:	ff000000 			; <UNDEFINED> instruction: 0xff000000
   11274:	000000ff 	strdeq	r0, [r0], -pc	; <UNPREDICTABLE>
   11278:	ff000000 			; <UNDEFINED> instruction: 0xff000000
   1127c:	000000ff 	strdeq	r0, [r0], -pc	; <UNPREDICTABLE>
   11280:	ff000000 			; <UNDEFINED> instruction: 0xff000000
   11284:	000000ff 	strdeq	r0, [r0], -pc	; <UNPREDICTABLE>
   11288:	ff000000 			; <UNDEFINED> instruction: 0xff000000
   1128c:	000000ff 	strdeq	r0, [r0], -pc	; <UNPREDICTABLE>
   11290:	ff000000 			; <UNDEFINED> instruction: 0xff000000
   11294:	000000ff 	strdeq	r0, [r0], -pc	; <UNPREDICTABLE>
   11298:	ff000000 			; <UNDEFINED> instruction: 0xff000000
   1129c:	000000ff 	strdeq	r0, [r0], -pc	; <UNPREDICTABLE>
   112a0:	ff000000 			; <UNDEFINED> instruction: 0xff000000
   112a4:	ffffffff 			; <UNDEFINED> instruction: 0xffffffff
   112a8:	ffffffff 			; <UNDEFINED> instruction: 0xffffffff
   112ac:	000000ff 	strdeq	r0, [r0], -pc	; <UNPREDICTABLE>
   112b0:	ff000000 			; <UNDEFINED> instruction: 0xff000000
   112b4:	000000ff 	strdeq	r0, [r0], -pc	; <UNPREDICTABLE>
	...
   112c4:	00ffff00 	rscseq	pc, pc, r0, lsl #30
   112c8:	00ffff00 	rscseq	pc, pc, r0, lsl #30
	...
   112d8:	ff000000 			; <UNDEFINED> instruction: 0xff000000
   112dc:	000000ff 	strdeq	r0, [r0], -pc	; <UNPREDICTABLE>
   112e0:	00000000 	andeq	r0, r0, r0
   112e4:	00ffff00 	rscseq	pc, pc, r0, lsl #30
   112e8:	00ffff00 	rscseq	pc, pc, r0, lsl #30
	...
   11300:	ff000000 			; <UNDEFINED> instruction: 0xff000000
   11304:	ffffffff 			; <UNDEFINED> instruction: 0xffffffff
   11308:	00ffffff 	ldrshteq	pc, [pc], #255	; <UNPREDICTABLE>
	...
   11314:	ffffff00 			; <UNDEFINED> instruction: 0xffffff00
   11318:	00ffffff 	ldrshteq	pc, [pc], #255	; <UNPREDICTABLE>
   1131c:	00000000 	andeq	r0, r0, r0
   11320:	ff000000 			; <UNDEFINED> instruction: 0xff000000
   11324:	ffffffff 			; <UNDEFINED> instruction: 0xffffffff
   11328:	00ffffff 	ldrshteq	pc, [pc], #255	; <UNPREDICTABLE>
	...
   11334:	ffffff00 			; <UNDEFINED> instruction: 0xffffff00
   11338:	ffffffff 			; <UNDEFINED> instruction: 0xffffffff
   1133c:	000000ff 	strdeq	r0, [r0], -pc	; <UNPREDICTABLE>
   11340:	ff000000 			; <UNDEFINED> instruction: 0xff000000
   11344:	ffffffff 			; <UNDEFINED> instruction: 0xffffffff
   11348:	ffffffff 			; <UNDEFINED> instruction: 0xffffffff
   1134c:	000000ff 	strdeq	r0, [r0], -pc	; <UNPREDICTABLE>
   11350:	ff000000 			; <UNDEFINED> instruction: 0xff000000
   11354:	000000ff 	strdeq	r0, [r0], -pc	; <UNPREDICTABLE>
   11358:	ff000000 			; <UNDEFINED> instruction: 0xff000000
   1135c:	000000ff 	strdeq	r0, [r0], -pc	; <UNPREDICTABLE>
   11360:	ff000000 			; <UNDEFINED> instruction: 0xff000000
   11364:	000000ff 	strdeq	r0, [r0], -pc	; <UNPREDICTABLE>
   11368:	ff000000 			; <UNDEFINED> instruction: 0xff000000
   1136c:	000000ff 	strdeq	r0, [r0], -pc	; <UNPREDICTABLE>
   11370:	ff000000 			; <UNDEFINED> instruction: 0xff000000
   11374:	000000ff 	strdeq	r0, [r0], -pc	; <UNPREDICTABLE>
   11378:	ff000000 			; <UNDEFINED> instruction: 0xff000000
   1137c:	000000ff 	strdeq	r0, [r0], -pc	; <UNPREDICTABLE>
   11380:	ff000000 			; <UNDEFINED> instruction: 0xff000000
   11384:	000000ff 	strdeq	r0, [r0], -pc	; <UNPREDICTABLE>
   11388:	ff000000 			; <UNDEFINED> instruction: 0xff000000
   1138c:	000000ff 	strdeq	r0, [r0], -pc	; <UNPREDICTABLE>
   11390:	ff000000 			; <UNDEFINED> instruction: 0xff000000
   11394:	000000ff 	strdeq	r0, [r0], -pc	; <UNPREDICTABLE>
   11398:	ff000000 			; <UNDEFINED> instruction: 0xff000000
   1139c:	000000ff 	strdeq	r0, [r0], -pc	; <UNPREDICTABLE>
   113a0:	ff000000 			; <UNDEFINED> instruction: 0xff000000
   113a4:	ffffffff 			; <UNDEFINED> instruction: 0xffffffff
   113a8:	ffffffff 			; <UNDEFINED> instruction: 0xffffffff
   113ac:	000000ff 	strdeq	r0, [r0], -pc	; <UNPREDICTABLE>
   113b0:	ff000000 			; <UNDEFINED> instruction: 0xff000000
   113b4:	000000ff 	strdeq	r0, [r0], -pc	; <UNPREDICTABLE>
	...
   113c4:	00ffff00 	rscseq	pc, pc, r0, lsl #30
   113c8:	00ffff00 	rscseq	pc, pc, r0, lsl #30
	...
   113d8:	ff000000 			; <UNDEFINED> instruction: 0xff000000
   113dc:	000000ff 	strdeq	r0, [r0], -pc	; <UNPREDICTABLE>
   113e0:	00000000 	andeq	r0, r0, r0
   113e4:	00ffff00 	rscseq	pc, pc, r0, lsl #30
   113e8:	00ffff00 	rscseq	pc, pc, r0, lsl #30
	...
   11400:	ff000000 			; <UNDEFINED> instruction: 0xff000000
   11404:	000000ff 	strdeq	r0, [r0], -pc	; <UNPREDICTABLE>
   11408:	ff000000 			; <UNDEFINED> instruction: 0xff000000
   1140c:	000000ff 	strdeq	r0, [r0], -pc	; <UNPREDICTABLE>
   11410:	ff000000 			; <UNDEFINED> instruction: 0xff000000
   11414:	000000ff 	strdeq	r0, [r0], -pc	; <UNPREDICTABLE>
   11418:	ff000000 			; <UNDEFINED> instruction: 0xff000000
   1141c:	000000ff 	strdeq	r0, [r0], -pc	; <UNPREDICTABLE>
   11420:	ff000000 			; <UNDEFINED> instruction: 0xff000000
   11424:	000000ff 	strdeq	r0, [r0], -pc	; <UNPREDICTABLE>
   11428:	ff000000 			; <UNDEFINED> instruction: 0xff000000
   1142c:	000000ff 	strdeq	r0, [r0], -pc	; <UNPREDICTABLE>
   11430:	ff000000 			; <UNDEFINED> instruction: 0xff000000
   11434:	000000ff 	strdeq	r0, [r0], -pc	; <UNPREDICTABLE>
	...
   11444:	ff000000 			; <UNDEFINED> instruction: 0xff000000
   11448:	000000ff 	strdeq	r0, [r0], -pc	; <UNPREDICTABLE>
   1144c:	00000000 	andeq	r0, r0, r0
   11450:	ff000000 			; <UNDEFINED> instruction: 0xff000000
   11454:	000000ff 	strdeq	r0, [r0], -pc	; <UNPREDICTABLE>
   11458:	ff000000 			; <UNDEFINED> instruction: 0xff000000
   1145c:	000000ff 	strdeq	r0, [r0], -pc	; <UNPREDICTABLE>
   11460:	ff000000 			; <UNDEFINED> instruction: 0xff000000
   11464:	000000ff 	strdeq	r0, [r0], -pc	; <UNPREDICTABLE>
   11468:	ff000000 			; <UNDEFINED> instruction: 0xff000000
   1146c:	000000ff 	strdeq	r0, [r0], -pc	; <UNPREDICTABLE>
   11470:	ff000000 			; <UNDEFINED> instruction: 0xff000000
   11474:	000000ff 	strdeq	r0, [r0], -pc	; <UNPREDICTABLE>
   11478:	ff000000 			; <UNDEFINED> instruction: 0xff000000
   1147c:	000000ff 	strdeq	r0, [r0], -pc	; <UNPREDICTABLE>
   11480:	ff000000 			; <UNDEFINED> instruction: 0xff000000
   11484:	000000ff 	strdeq	r0, [r0], -pc	; <UNPREDICTABLE>
   11488:	ff000000 			; <UNDEFINED> instruction: 0xff000000
   1148c:	000000ff 	strdeq	r0, [r0], -pc	; <UNPREDICTABLE>
   11490:	ff000000 			; <UNDEFINED> instruction: 0xff000000
   11494:	000000ff 	strdeq	r0, [r0], -pc	; <UNPREDICTABLE>
   11498:	ff000000 			; <UNDEFINED> instruction: 0xff000000
   1149c:	000000ff 	strdeq	r0, [r0], -pc	; <UNPREDICTABLE>
	...
   114a8:	ff000000 			; <UNDEFINED> instruction: 0xff000000
   114ac:	000000ff 	strdeq	r0, [r0], -pc	; <UNPREDICTABLE>
   114b0:	ff000000 			; <UNDEFINED> instruction: 0xff000000
   114b4:	000000ff 	strdeq	r0, [r0], -pc	; <UNPREDICTABLE>
	...
   114c0:	ff000000 			; <UNDEFINED> instruction: 0xff000000
   114c4:	ffffffff 			; <UNDEFINED> instruction: 0xffffffff
   114c8:	ffffffff 			; <UNDEFINED> instruction: 0xffffffff
   114cc:	000000ff 	strdeq	r0, [r0], -pc	; <UNPREDICTABLE>
	...
   114d8:	ff000000 			; <UNDEFINED> instruction: 0xff000000
   114dc:	000000ff 	strdeq	r0, [r0], -pc	; <UNPREDICTABLE>
   114e0:	ff000000 			; <UNDEFINED> instruction: 0xff000000
   114e4:	000000ff 	strdeq	r0, [r0], -pc	; <UNPREDICTABLE>
   114e8:	ff000000 			; <UNDEFINED> instruction: 0xff000000
   114ec:	000000ff 	strdeq	r0, [r0], -pc	; <UNPREDICTABLE>
	...
   11500:	ff000000 			; <UNDEFINED> instruction: 0xff000000
   11504:	000000ff 	strdeq	r0, [r0], -pc	; <UNPREDICTABLE>
   11508:	ff000000 			; <UNDEFINED> instruction: 0xff000000
   1150c:	000000ff 	strdeq	r0, [r0], -pc	; <UNPREDICTABLE>
   11510:	ff000000 			; <UNDEFINED> instruction: 0xff000000
   11514:	000000ff 	strdeq	r0, [r0], -pc	; <UNPREDICTABLE>
   11518:	ff000000 			; <UNDEFINED> instruction: 0xff000000
   1151c:	000000ff 	strdeq	r0, [r0], -pc	; <UNPREDICTABLE>
   11520:	ff000000 			; <UNDEFINED> instruction: 0xff000000
   11524:	000000ff 	strdeq	r0, [r0], -pc	; <UNPREDICTABLE>
   11528:	ff000000 			; <UNDEFINED> instruction: 0xff000000
   1152c:	000000ff 	strdeq	r0, [r0], -pc	; <UNPREDICTABLE>
   11530:	ff000000 			; <UNDEFINED> instruction: 0xff000000
   11534:	000000ff 	strdeq	r0, [r0], -pc	; <UNPREDICTABLE>
	...
   11544:	ff000000 			; <UNDEFINED> instruction: 0xff000000
   11548:	000000ff 	strdeq	r0, [r0], -pc	; <UNPREDICTABLE>
   1154c:	00000000 	andeq	r0, r0, r0
   11550:	ff000000 			; <UNDEFINED> instruction: 0xff000000
   11554:	000000ff 	strdeq	r0, [r0], -pc	; <UNPREDICTABLE>
   11558:	ff000000 			; <UNDEFINED> instruction: 0xff000000
   1155c:	000000ff 	strdeq	r0, [r0], -pc	; <UNPREDICTABLE>
   11560:	ff000000 			; <UNDEFINED> instruction: 0xff000000
   11564:	000000ff 	strdeq	r0, [r0], -pc	; <UNPREDICTABLE>
   11568:	ff000000 			; <UNDEFINED> instruction: 0xff000000
   1156c:	000000ff 	strdeq	r0, [r0], -pc	; <UNPREDICTABLE>
   11570:	ff000000 			; <UNDEFINED> instruction: 0xff000000
   11574:	000000ff 	strdeq	r0, [r0], -pc	; <UNPREDICTABLE>
   11578:	ff000000 			; <UNDEFINED> instruction: 0xff000000
   1157c:	000000ff 	strdeq	r0, [r0], -pc	; <UNPREDICTABLE>
   11580:	ff000000 			; <UNDEFINED> instruction: 0xff000000
   11584:	000000ff 	strdeq	r0, [r0], -pc	; <UNPREDICTABLE>
   11588:	ff000000 			; <UNDEFINED> instruction: 0xff000000
   1158c:	000000ff 	strdeq	r0, [r0], -pc	; <UNPREDICTABLE>
   11590:	ff000000 			; <UNDEFINED> instruction: 0xff000000
   11594:	000000ff 	strdeq	r0, [r0], -pc	; <UNPREDICTABLE>
   11598:	ff000000 			; <UNDEFINED> instruction: 0xff000000
   1159c:	000000ff 	strdeq	r0, [r0], -pc	; <UNPREDICTABLE>
	...
   115a8:	ff000000 			; <UNDEFINED> instruction: 0xff000000
   115ac:	000000ff 	strdeq	r0, [r0], -pc	; <UNPREDICTABLE>
   115b0:	ff000000 			; <UNDEFINED> instruction: 0xff000000
   115b4:	000000ff 	strdeq	r0, [r0], -pc	; <UNPREDICTABLE>
	...
   115c0:	ff000000 			; <UNDEFINED> instruction: 0xff000000
   115c4:	ffffffff 			; <UNDEFINED> instruction: 0xffffffff
   115c8:	ffffffff 			; <UNDEFINED> instruction: 0xffffffff
   115cc:	000000ff 	strdeq	r0, [r0], -pc	; <UNPREDICTABLE>
	...
   115d8:	ff000000 			; <UNDEFINED> instruction: 0xff000000
   115dc:	000000ff 	strdeq	r0, [r0], -pc	; <UNPREDICTABLE>
   115e0:	ff000000 			; <UNDEFINED> instruction: 0xff000000
   115e4:	000000ff 	strdeq	r0, [r0], -pc	; <UNPREDICTABLE>
   115e8:	ff000000 			; <UNDEFINED> instruction: 0xff000000
   115ec:	000000ff 	strdeq	r0, [r0], -pc	; <UNPREDICTABLE>
	...
   11600:	ff000000 			; <UNDEFINED> instruction: 0xff000000
   11604:	000000ff 	strdeq	r0, [r0], -pc	; <UNPREDICTABLE>
   11608:	ff000000 			; <UNDEFINED> instruction: 0xff000000
   1160c:	000000ff 	strdeq	r0, [r0], -pc	; <UNPREDICTABLE>
   11610:	ff000000 			; <UNDEFINED> instruction: 0xff000000
   11614:	000000ff 	strdeq	r0, [r0], -pc	; <UNPREDICTABLE>
   11618:	ff000000 			; <UNDEFINED> instruction: 0xff000000
   1161c:	000000ff 	strdeq	r0, [r0], -pc	; <UNPREDICTABLE>
   11620:	ff000000 			; <UNDEFINED> instruction: 0xff000000
   11624:	000000ff 	strdeq	r0, [r0], -pc	; <UNPREDICTABLE>
   11628:	ff000000 			; <UNDEFINED> instruction: 0xff000000
   1162c:	000000ff 	strdeq	r0, [r0], -pc	; <UNPREDICTABLE>
   11630:	ff000000 			; <UNDEFINED> instruction: 0xff000000
   11634:	000000ff 	strdeq	r0, [r0], -pc	; <UNPREDICTABLE>
	...
   11644:	ff000000 			; <UNDEFINED> instruction: 0xff000000
   11648:	000000ff 	strdeq	r0, [r0], -pc	; <UNPREDICTABLE>
   1164c:	00000000 	andeq	r0, r0, r0
   11650:	ff000000 			; <UNDEFINED> instruction: 0xff000000
   11654:	000000ff 	strdeq	r0, [r0], -pc	; <UNPREDICTABLE>
   11658:	ff000000 			; <UNDEFINED> instruction: 0xff000000
   1165c:	000000ff 	strdeq	r0, [r0], -pc	; <UNPREDICTABLE>
   11660:	ff000000 			; <UNDEFINED> instruction: 0xff000000
   11664:	000000ff 	strdeq	r0, [r0], -pc	; <UNPREDICTABLE>
   11668:	ff000000 			; <UNDEFINED> instruction: 0xff000000
   1166c:	000000ff 	strdeq	r0, [r0], -pc	; <UNPREDICTABLE>
   11670:	ff000000 			; <UNDEFINED> instruction: 0xff000000
   11674:	ff0000ff 			; <UNDEFINED> instruction: 0xff0000ff
   11678:	ff0000ff 			; <UNDEFINED> instruction: 0xff0000ff
   1167c:	000000ff 	strdeq	r0, [r0], -pc	; <UNPREDICTABLE>
   11680:	00000000 	andeq	r0, r0, r0
   11684:	00ffff00 	rscseq	pc, pc, r0, lsl #30
   11688:	00ffff00 	rscseq	pc, pc, r0, lsl #30
   1168c:	00000000 	andeq	r0, r0, r0
   11690:	ff000000 			; <UNDEFINED> instruction: 0xff000000
   11694:	000000ff 	strdeq	r0, [r0], -pc	; <UNPREDICTABLE>
   11698:	ff000000 			; <UNDEFINED> instruction: 0xff000000
   1169c:	000000ff 	strdeq	r0, [r0], -pc	; <UNPREDICTABLE>
	...
   116a8:	00ffff00 	rscseq	pc, pc, r0, lsl #30
   116ac:	00000000 	andeq	r0, r0, r0
   116b0:	ff000000 			; <UNDEFINED> instruction: 0xff000000
   116b4:	000000ff 	strdeq	r0, [r0], -pc	; <UNPREDICTABLE>
	...
   116c4:	ff000000 			; <UNDEFINED> instruction: 0xff000000
   116c8:	000000ff 	strdeq	r0, [r0], -pc	; <UNPREDICTABLE>
	...
   116d8:	ff000000 			; <UNDEFINED> instruction: 0xff000000
   116dc:	000000ff 	strdeq	r0, [r0], -pc	; <UNPREDICTABLE>
	...
   11700:	ff000000 			; <UNDEFINED> instruction: 0xff000000
   11704:	000000ff 	strdeq	r0, [r0], -pc	; <UNPREDICTABLE>
   11708:	ff000000 			; <UNDEFINED> instruction: 0xff000000
   1170c:	000000ff 	strdeq	r0, [r0], -pc	; <UNPREDICTABLE>
   11710:	ff000000 			; <UNDEFINED> instruction: 0xff000000
   11714:	000000ff 	strdeq	r0, [r0], -pc	; <UNPREDICTABLE>
   11718:	ff000000 			; <UNDEFINED> instruction: 0xff000000
   1171c:	000000ff 	strdeq	r0, [r0], -pc	; <UNPREDICTABLE>
   11720:	ff000000 			; <UNDEFINED> instruction: 0xff000000
   11724:	000000ff 	strdeq	r0, [r0], -pc	; <UNPREDICTABLE>
   11728:	ff000000 			; <UNDEFINED> instruction: 0xff000000
   1172c:	000000ff 	strdeq	r0, [r0], -pc	; <UNPREDICTABLE>
   11730:	ff000000 			; <UNDEFINED> instruction: 0xff000000
   11734:	000000ff 	strdeq	r0, [r0], -pc	; <UNPREDICTABLE>
	...
   11744:	ff000000 			; <UNDEFINED> instruction: 0xff000000
   11748:	000000ff 	strdeq	r0, [r0], -pc	; <UNPREDICTABLE>
   1174c:	00000000 	andeq	r0, r0, r0
   11750:	ff000000 			; <UNDEFINED> instruction: 0xff000000
   11754:	000000ff 	strdeq	r0, [r0], -pc	; <UNPREDICTABLE>
   11758:	ff000000 			; <UNDEFINED> instruction: 0xff000000
   1175c:	000000ff 	strdeq	r0, [r0], -pc	; <UNPREDICTABLE>
   11760:	ff000000 			; <UNDEFINED> instruction: 0xff000000
   11764:	000000ff 	strdeq	r0, [r0], -pc	; <UNPREDICTABLE>
   11768:	ff000000 			; <UNDEFINED> instruction: 0xff000000
   1176c:	000000ff 	strdeq	r0, [r0], -pc	; <UNPREDICTABLE>
   11770:	ff000000 			; <UNDEFINED> instruction: 0xff000000
   11774:	ff0000ff 			; <UNDEFINED> instruction: 0xff0000ff
   11778:	ff0000ff 			; <UNDEFINED> instruction: 0xff0000ff
   1177c:	000000ff 	strdeq	r0, [r0], -pc	; <UNPREDICTABLE>
   11780:	00000000 	andeq	r0, r0, r0
   11784:	00ffff00 	rscseq	pc, pc, r0, lsl #30
   11788:	00ffff00 	rscseq	pc, pc, r0, lsl #30
   1178c:	00000000 	andeq	r0, r0, r0
   11790:	ff000000 			; <UNDEFINED> instruction: 0xff000000
   11794:	000000ff 	strdeq	r0, [r0], -pc	; <UNPREDICTABLE>
   11798:	ff000000 			; <UNDEFINED> instruction: 0xff000000
   1179c:	000000ff 	strdeq	r0, [r0], -pc	; <UNPREDICTABLE>
	...
   117a8:	00ffff00 	rscseq	pc, pc, r0, lsl #30
   117ac:	00000000 	andeq	r0, r0, r0
   117b0:	ff000000 			; <UNDEFINED> instruction: 0xff000000
   117b4:	000000ff 	strdeq	r0, [r0], -pc	; <UNPREDICTABLE>
	...
   117c4:	ff000000 			; <UNDEFINED> instruction: 0xff000000
   117c8:	000000ff 	strdeq	r0, [r0], -pc	; <UNPREDICTABLE>
	...
   117d8:	ff000000 			; <UNDEFINED> instruction: 0xff000000
   117dc:	000000ff 	strdeq	r0, [r0], -pc	; <UNPREDICTABLE>
	...
   11800:	ff000000 			; <UNDEFINED> instruction: 0xff000000
   11804:	ffffffff 			; <UNDEFINED> instruction: 0xffffffff
   11808:	00ffffff 	ldrshteq	pc, [pc], #255	; <UNPREDICTABLE>
   1180c:	00000000 	andeq	r0, r0, r0
   11810:	ff000000 			; <UNDEFINED> instruction: 0xff000000
   11814:	000000ff 	strdeq	r0, [r0], -pc	; <UNPREDICTABLE>
   11818:	ff000000 			; <UNDEFINED> instruction: 0xff000000
   1181c:	000000ff 	strdeq	r0, [r0], -pc	; <UNPREDICTABLE>
   11820:	ff000000 			; <UNDEFINED> instruction: 0xff000000
   11824:	ffffffff 			; <UNDEFINED> instruction: 0xffffffff
   11828:	00ffffff 	ldrshteq	pc, [pc], #255	; <UNPREDICTABLE>
	...
   11834:	ffffff00 			; <UNDEFINED> instruction: 0xffffff00
   11838:	00ffffff 	ldrshteq	pc, [pc], #255	; <UNPREDICTABLE>
	...
   11844:	ff000000 			; <UNDEFINED> instruction: 0xff000000
   11848:	000000ff 	strdeq	r0, [r0], -pc	; <UNPREDICTABLE>
   1184c:	00000000 	andeq	r0, r0, r0
   11850:	ff000000 			; <UNDEFINED> instruction: 0xff000000
   11854:	000000ff 	strdeq	r0, [r0], -pc	; <UNPREDICTABLE>
   11858:	ff000000 			; <UNDEFINED> instruction: 0xff000000
   1185c:	000000ff 	strdeq	r0, [r0], -pc	; <UNPREDICTABLE>
   11860:	ff000000 			; <UNDEFINED> instruction: 0xff000000
   11864:	000000ff 	strdeq	r0, [r0], -pc	; <UNPREDICTABLE>
   11868:	ff000000 			; <UNDEFINED> instruction: 0xff000000
   1186c:	000000ff 	strdeq	r0, [r0], -pc	; <UNPREDICTABLE>
   11870:	ff000000 			; <UNDEFINED> instruction: 0xff000000
   11874:	ff0000ff 			; <UNDEFINED> instruction: 0xff0000ff
   11878:	ff0000ff 			; <UNDEFINED> instruction: 0xff0000ff
   1187c:	000000ff 	strdeq	r0, [r0], -pc	; <UNPREDICTABLE>
   11880:	00000000 	andeq	r0, r0, r0
   11884:	ff000000 			; <UNDEFINED> instruction: 0xff000000
   11888:	000000ff 	strdeq	r0, [r0], -pc	; <UNPREDICTABLE>
	...
   11894:	00ffff00 	rscseq	pc, pc, r0, lsl #30
   11898:	00ffff00 	rscseq	pc, pc, r0, lsl #30
	...
   118a4:	ff000000 			; <UNDEFINED> instruction: 0xff000000
   118a8:	000000ff 	strdeq	r0, [r0], -pc	; <UNPREDICTABLE>
   118ac:	00000000 	andeq	r0, r0, r0
   118b0:	ff000000 			; <UNDEFINED> instruction: 0xff000000
   118b4:	000000ff 	strdeq	r0, [r0], -pc	; <UNPREDICTABLE>
	...
   118c0:	ff000000 			; <UNDEFINED> instruction: 0xff000000
   118c4:	ffffffff 			; <UNDEFINED> instruction: 0xffffffff
   118c8:	ffffffff 			; <UNDEFINED> instruction: 0xffffffff
   118cc:	000000ff 	strdeq	r0, [r0], -pc	; <UNPREDICTABLE>
	...
   118d8:	ff000000 			; <UNDEFINED> instruction: 0xff000000
   118dc:	000000ff 	strdeq	r0, [r0], -pc	; <UNPREDICTABLE>
	...
   11900:	ff000000 			; <UNDEFINED> instruction: 0xff000000
   11904:	ffffffff 			; <UNDEFINED> instruction: 0xffffffff
   11908:	00ffffff 	ldrshteq	pc, [pc], #255	; <UNPREDICTABLE>
   1190c:	00000000 	andeq	r0, r0, r0
   11910:	ff000000 			; <UNDEFINED> instruction: 0xff000000
   11914:	000000ff 	strdeq	r0, [r0], -pc	; <UNPREDICTABLE>
   11918:	ff000000 			; <UNDEFINED> instruction: 0xff000000
   1191c:	000000ff 	strdeq	r0, [r0], -pc	; <UNPREDICTABLE>
   11920:	ff000000 			; <UNDEFINED> instruction: 0xff000000
   11924:	ffffffff 			; <UNDEFINED> instruction: 0xffffffff
   11928:	00ffffff 	ldrshteq	pc, [pc], #255	; <UNPREDICTABLE>
	...
   11934:	ffffff00 			; <UNDEFINED> instruction: 0xffffff00
   11938:	00ffffff 	ldrshteq	pc, [pc], #255	; <UNPREDICTABLE>
	...
   11944:	ff000000 			; <UNDEFINED> instruction: 0xff000000
   11948:	000000ff 	strdeq	r0, [r0], -pc	; <UNPREDICTABLE>
   1194c:	00000000 	andeq	r0, r0, r0
   11950:	ff000000 			; <UNDEFINED> instruction: 0xff000000
   11954:	000000ff 	strdeq	r0, [r0], -pc	; <UNPREDICTABLE>
   11958:	ff000000 			; <UNDEFINED> instruction: 0xff000000
   1195c:	000000ff 	strdeq	r0, [r0], -pc	; <UNPREDICTABLE>
   11960:	ff000000 			; <UNDEFINED> instruction: 0xff000000
   11964:	000000ff 	strdeq	r0, [r0], -pc	; <UNPREDICTABLE>
   11968:	ff000000 			; <UNDEFINED> instruction: 0xff000000
   1196c:	000000ff 	strdeq	r0, [r0], -pc	; <UNPREDICTABLE>
   11970:	ff000000 			; <UNDEFINED> instruction: 0xff000000
   11974:	ff0000ff 			; <UNDEFINED> instruction: 0xff0000ff
   11978:	ff0000ff 			; <UNDEFINED> instruction: 0xff0000ff
   1197c:	000000ff 	strdeq	r0, [r0], -pc	; <UNPREDICTABLE>
   11980:	00000000 	andeq	r0, r0, r0
   11984:	ff000000 			; <UNDEFINED> instruction: 0xff000000
   11988:	000000ff 	strdeq	r0, [r0], -pc	; <UNPREDICTABLE>
	...
   11994:	00ffff00 	rscseq	pc, pc, r0, lsl #30
   11998:	00ffff00 	rscseq	pc, pc, r0, lsl #30
	...
   119a4:	ff000000 			; <UNDEFINED> instruction: 0xff000000
   119a8:	000000ff 	strdeq	r0, [r0], -pc	; <UNPREDICTABLE>
   119ac:	00000000 	andeq	r0, r0, r0
   119b0:	ff000000 			; <UNDEFINED> instruction: 0xff000000
   119b4:	000000ff 	strdeq	r0, [r0], -pc	; <UNPREDICTABLE>
	...
   119c0:	ff000000 			; <UNDEFINED> instruction: 0xff000000
   119c4:	ffffffff 			; <UNDEFINED> instruction: 0xffffffff
   119c8:	ffffffff 			; <UNDEFINED> instruction: 0xffffffff
   119cc:	000000ff 	strdeq	r0, [r0], -pc	; <UNPREDICTABLE>
	...
   119d8:	ff000000 			; <UNDEFINED> instruction: 0xff000000
   119dc:	000000ff 	strdeq	r0, [r0], -pc	; <UNPREDICTABLE>
	...
   11a00:	ff000000 			; <UNDEFINED> instruction: 0xff000000
   11a04:	000000ff 	strdeq	r0, [r0], -pc	; <UNPREDICTABLE>
	...
   11a10:	ff000000 			; <UNDEFINED> instruction: 0xff000000
   11a14:	ff0000ff 			; <UNDEFINED> instruction: 0xff0000ff
   11a18:	ff0000ff 			; <UNDEFINED> instruction: 0xff0000ff
   11a1c:	000000ff 	strdeq	r0, [r0], -pc	; <UNPREDICTABLE>
   11a20:	ff000000 			; <UNDEFINED> instruction: 0xff000000
   11a24:	000000ff 	strdeq	r0, [r0], -pc	; <UNPREDICTABLE>
   11a28:	ff000000 			; <UNDEFINED> instruction: 0xff000000
   11a2c:	000000ff 	strdeq	r0, [r0], -pc	; <UNPREDICTABLE>
	...
   11a38:	ff000000 			; <UNDEFINED> instruction: 0xff000000
   11a3c:	000000ff 	strdeq	r0, [r0], -pc	; <UNPREDICTABLE>
   11a40:	00000000 	andeq	r0, r0, r0
   11a44:	ff000000 			; <UNDEFINED> instruction: 0xff000000
   11a48:	000000ff 	strdeq	r0, [r0], -pc	; <UNPREDICTABLE>
   11a4c:	00000000 	andeq	r0, r0, r0
   11a50:	ff000000 			; <UNDEFINED> instruction: 0xff000000
   11a54:	000000ff 	strdeq	r0, [r0], -pc	; <UNPREDICTABLE>
   11a58:	ff000000 			; <UNDEFINED> instruction: 0xff000000
   11a5c:	000000ff 	strdeq	r0, [r0], -pc	; <UNPREDICTABLE>
   11a60:	ff000000 			; <UNDEFINED> instruction: 0xff000000
   11a64:	00ffffff 	ldrshteq	pc, [pc], #255	; <UNPREDICTABLE>
   11a68:	ffffff00 			; <UNDEFINED> instruction: 0xffffff00
   11a6c:	000000ff 	strdeq	r0, [r0], -pc	; <UNPREDICTABLE>
   11a70:	ff000000 			; <UNDEFINED> instruction: 0xff000000
   11a74:	ff0000ff 			; <UNDEFINED> instruction: 0xff0000ff
   11a78:	ff0000ff 			; <UNDEFINED> instruction: 0xff0000ff
   11a7c:	000000ff 	strdeq	r0, [r0], -pc	; <UNPREDICTABLE>
   11a80:	00000000 	andeq	r0, r0, r0
   11a84:	00ffff00 	rscseq	pc, pc, r0, lsl #30
   11a88:	00ffff00 	rscseq	pc, pc, r0, lsl #30
	...
   11a94:	ff000000 			; <UNDEFINED> instruction: 0xff000000
   11a98:	000000ff 	strdeq	r0, [r0], -pc	; <UNPREDICTABLE>
	...
   11aa4:	00ffff00 	rscseq	pc, pc, r0, lsl #30
	...
   11ab0:	ff000000 			; <UNDEFINED> instruction: 0xff000000
   11ab4:	000000ff 	strdeq	r0, [r0], -pc	; <UNPREDICTABLE>
	...
   11ac4:	ff000000 			; <UNDEFINED> instruction: 0xff000000
   11ac8:	000000ff 	strdeq	r0, [r0], -pc	; <UNPREDICTABLE>
	...
   11ad8:	ff000000 			; <UNDEFINED> instruction: 0xff000000
   11adc:	000000ff 	strdeq	r0, [r0], -pc	; <UNPREDICTABLE>
	...
   11b00:	ff000000 			; <UNDEFINED> instruction: 0xff000000
   11b04:	000000ff 	strdeq	r0, [r0], -pc	; <UNPREDICTABLE>
	...
   11b10:	ff000000 			; <UNDEFINED> instruction: 0xff000000
   11b14:	ff0000ff 			; <UNDEFINED> instruction: 0xff0000ff
   11b18:	ff0000ff 			; <UNDEFINED> instruction: 0xff0000ff
   11b1c:	000000ff 	strdeq	r0, [r0], -pc	; <UNPREDICTABLE>
   11b20:	ff000000 			; <UNDEFINED> instruction: 0xff000000
   11b24:	000000ff 	strdeq	r0, [r0], -pc	; <UNPREDICTABLE>
   11b28:	ff000000 			; <UNDEFINED> instruction: 0xff000000
   11b2c:	000000ff 	strdeq	r0, [r0], -pc	; <UNPREDICTABLE>
	...
   11b38:	ff000000 			; <UNDEFINED> instruction: 0xff000000
   11b3c:	000000ff 	strdeq	r0, [r0], -pc	; <UNPREDICTABLE>
   11b40:	00000000 	andeq	r0, r0, r0
   11b44:	ff000000 			; <UNDEFINED> instruction: 0xff000000
   11b48:	000000ff 	strdeq	r0, [r0], -pc	; <UNPREDICTABLE>
   11b4c:	00000000 	andeq	r0, r0, r0
   11b50:	ff000000 			; <UNDEFINED> instruction: 0xff000000
   11b54:	000000ff 	strdeq	r0, [r0], -pc	; <UNPREDICTABLE>
   11b58:	ff000000 			; <UNDEFINED> instruction: 0xff000000
   11b5c:	000000ff 	strdeq	r0, [r0], -pc	; <UNPREDICTABLE>
   11b60:	ff000000 			; <UNDEFINED> instruction: 0xff000000
   11b64:	00ffffff 	ldrshteq	pc, [pc], #255	; <UNPREDICTABLE>
   11b68:	ffffff00 			; <UNDEFINED> instruction: 0xffffff00
   11b6c:	000000ff 	strdeq	r0, [r0], -pc	; <UNPREDICTABLE>
   11b70:	ff000000 			; <UNDEFINED> instruction: 0xff000000
   11b74:	ff0000ff 			; <UNDEFINED> instruction: 0xff0000ff
   11b78:	ff0000ff 			; <UNDEFINED> instruction: 0xff0000ff
   11b7c:	000000ff 	strdeq	r0, [r0], -pc	; <UNPREDICTABLE>
   11b80:	00000000 	andeq	r0, r0, r0
   11b84:	00ffff00 	rscseq	pc, pc, r0, lsl #30
   11b88:	00ffff00 	rscseq	pc, pc, r0, lsl #30
	...
   11b94:	ff000000 			; <UNDEFINED> instruction: 0xff000000
   11b98:	000000ff 	strdeq	r0, [r0], -pc	; <UNPREDICTABLE>
	...
   11ba4:	00ffff00 	rscseq	pc, pc, r0, lsl #30
	...
   11bb0:	ff000000 			; <UNDEFINED> instruction: 0xff000000
   11bb4:	000000ff 	strdeq	r0, [r0], -pc	; <UNPREDICTABLE>
	...
   11bc4:	ff000000 			; <UNDEFINED> instruction: 0xff000000
   11bc8:	000000ff 	strdeq	r0, [r0], -pc	; <UNPREDICTABLE>
	...
   11bd8:	ff000000 			; <UNDEFINED> instruction: 0xff000000
   11bdc:	000000ff 	strdeq	r0, [r0], -pc	; <UNPREDICTABLE>
	...
   11c00:	ff000000 			; <UNDEFINED> instruction: 0xff000000
   11c04:	000000ff 	strdeq	r0, [r0], -pc	; <UNPREDICTABLE>
	...
   11c10:	ff000000 			; <UNDEFINED> instruction: 0xff000000
   11c14:	000000ff 	strdeq	r0, [r0], -pc	; <UNPREDICTABLE>
   11c18:	ffffff00 			; <UNDEFINED> instruction: 0xffffff00
   11c1c:	000000ff 	strdeq	r0, [r0], -pc	; <UNPREDICTABLE>
   11c20:	ff000000 			; <UNDEFINED> instruction: 0xff000000
   11c24:	000000ff 	strdeq	r0, [r0], -pc	; <UNPREDICTABLE>
   11c28:	ff000000 			; <UNDEFINED> instruction: 0xff000000
   11c2c:	000000ff 	strdeq	r0, [r0], -pc	; <UNPREDICTABLE>
	...
   11c38:	ff000000 			; <UNDEFINED> instruction: 0xff000000
   11c3c:	000000ff 	strdeq	r0, [r0], -pc	; <UNPREDICTABLE>
   11c40:	00000000 	andeq	r0, r0, r0
   11c44:	ff000000 			; <UNDEFINED> instruction: 0xff000000
   11c48:	000000ff 	strdeq	r0, [r0], -pc	; <UNPREDICTABLE>
   11c4c:	00000000 	andeq	r0, r0, r0
   11c50:	ff000000 			; <UNDEFINED> instruction: 0xff000000
   11c54:	000000ff 	strdeq	r0, [r0], -pc	; <UNPREDICTABLE>
   11c58:	ff000000 			; <UNDEFINED> instruction: 0xff000000
   11c5c:	000000ff 	strdeq	r0, [r0], -pc	; <UNPREDICTABLE>
   11c60:	00000000 	andeq	r0, r0, r0
   11c64:	ffffff00 			; <UNDEFINED> instruction: 0xffffff00
   11c68:	00ffffff 	ldrshteq	pc, [pc], #255	; <UNPREDICTABLE>
   11c6c:	00000000 	andeq	r0, r0, r0
   11c70:	ff000000 			; <UNDEFINED> instruction: 0xff000000
   11c74:	ff0000ff 			; <UNDEFINED> instruction: 0xff0000ff
   11c78:	ff0000ff 			; <UNDEFINED> instruction: 0xff0000ff
   11c7c:	000000ff 	strdeq	r0, [r0], -pc	; <UNPREDICTABLE>
   11c80:	ff000000 			; <UNDEFINED> instruction: 0xff000000
   11c84:	000000ff 	strdeq	r0, [r0], -pc	; <UNPREDICTABLE>
   11c88:	ff000000 			; <UNDEFINED> instruction: 0xff000000
   11c8c:	000000ff 	strdeq	r0, [r0], -pc	; <UNPREDICTABLE>
   11c90:	00000000 	andeq	r0, r0, r0
   11c94:	ff000000 			; <UNDEFINED> instruction: 0xff000000
   11c98:	000000ff 	strdeq	r0, [r0], -pc	; <UNPREDICTABLE>
   11c9c:	00000000 	andeq	r0, r0, r0
   11ca0:	ff000000 			; <UNDEFINED> instruction: 0xff000000
   11ca4:	000000ff 	strdeq	r0, [r0], -pc	; <UNPREDICTABLE>
	...
   11cb0:	ff000000 			; <UNDEFINED> instruction: 0xff000000
   11cb4:	000000ff 	strdeq	r0, [r0], -pc	; <UNPREDICTABLE>
	...
   11cc4:	ff000000 			; <UNDEFINED> instruction: 0xff000000
   11cc8:	000000ff 	strdeq	r0, [r0], -pc	; <UNPREDICTABLE>
	...
   11cd8:	ff000000 			; <UNDEFINED> instruction: 0xff000000
   11cdc:	000000ff 	strdeq	r0, [r0], -pc	; <UNPREDICTABLE>
	...
   11d00:	ff000000 			; <UNDEFINED> instruction: 0xff000000
   11d04:	000000ff 	strdeq	r0, [r0], -pc	; <UNPREDICTABLE>
	...
   11d10:	ff000000 			; <UNDEFINED> instruction: 0xff000000
   11d14:	000000ff 	strdeq	r0, [r0], -pc	; <UNPREDICTABLE>
   11d18:	ffffff00 			; <UNDEFINED> instruction: 0xffffff00
   11d1c:	000000ff 	strdeq	r0, [r0], -pc	; <UNPREDICTABLE>
   11d20:	ff000000 			; <UNDEFINED> instruction: 0xff000000
   11d24:	000000ff 	strdeq	r0, [r0], -pc	; <UNPREDICTABLE>
   11d28:	ff000000 			; <UNDEFINED> instruction: 0xff000000
   11d2c:	000000ff 	strdeq	r0, [r0], -pc	; <UNPREDICTABLE>
	...
   11d38:	ff000000 			; <UNDEFINED> instruction: 0xff000000
   11d3c:	000000ff 	strdeq	r0, [r0], -pc	; <UNPREDICTABLE>
   11d40:	00000000 	andeq	r0, r0, r0
   11d44:	ff000000 			; <UNDEFINED> instruction: 0xff000000
   11d48:	000000ff 	strdeq	r0, [r0], -pc	; <UNPREDICTABLE>
   11d4c:	00000000 	andeq	r0, r0, r0
   11d50:	ff000000 			; <UNDEFINED> instruction: 0xff000000
   11d54:	000000ff 	strdeq	r0, [r0], -pc	; <UNPREDICTABLE>
   11d58:	ff000000 			; <UNDEFINED> instruction: 0xff000000
   11d5c:	000000ff 	strdeq	r0, [r0], -pc	; <UNPREDICTABLE>
   11d60:	00000000 	andeq	r0, r0, r0
   11d64:	ffffff00 			; <UNDEFINED> instruction: 0xffffff00
   11d68:	00ffffff 	ldrshteq	pc, [pc], #255	; <UNPREDICTABLE>
   11d6c:	00000000 	andeq	r0, r0, r0
   11d70:	ff000000 			; <UNDEFINED> instruction: 0xff000000
   11d74:	ff0000ff 			; <UNDEFINED> instruction: 0xff0000ff
   11d78:	ff0000ff 			; <UNDEFINED> instruction: 0xff0000ff
   11d7c:	000000ff 	strdeq	r0, [r0], -pc	; <UNPREDICTABLE>
   11d80:	ff000000 			; <UNDEFINED> instruction: 0xff000000
   11d84:	000000ff 	strdeq	r0, [r0], -pc	; <UNPREDICTABLE>
   11d88:	ff000000 			; <UNDEFINED> instruction: 0xff000000
   11d8c:	000000ff 	strdeq	r0, [r0], -pc	; <UNPREDICTABLE>
   11d90:	00000000 	andeq	r0, r0, r0
   11d94:	ff000000 			; <UNDEFINED> instruction: 0xff000000
   11d98:	000000ff 	strdeq	r0, [r0], -pc	; <UNPREDICTABLE>
   11d9c:	00000000 	andeq	r0, r0, r0
   11da0:	ff000000 			; <UNDEFINED> instruction: 0xff000000
   11da4:	000000ff 	strdeq	r0, [r0], -pc	; <UNPREDICTABLE>
	...
   11db0:	ff000000 			; <UNDEFINED> instruction: 0xff000000
   11db4:	000000ff 	strdeq	r0, [r0], -pc	; <UNPREDICTABLE>
	...
   11dc4:	ff000000 			; <UNDEFINED> instruction: 0xff000000
   11dc8:	000000ff 	strdeq	r0, [r0], -pc	; <UNPREDICTABLE>
	...
   11dd8:	ff000000 			; <UNDEFINED> instruction: 0xff000000
   11ddc:	000000ff 	strdeq	r0, [r0], -pc	; <UNPREDICTABLE>
	...
   11e00:	ff000000 			; <UNDEFINED> instruction: 0xff000000
   11e04:	000000ff 	strdeq	r0, [r0], -pc	; <UNPREDICTABLE>
	...
   11e14:	ffffff00 			; <UNDEFINED> instruction: 0xffffff00
   11e18:	00ffffff 	ldrshteq	pc, [pc], #255	; <UNPREDICTABLE>
   11e1c:	00000000 	andeq	r0, r0, r0
   11e20:	ff000000 			; <UNDEFINED> instruction: 0xff000000
   11e24:	000000ff 	strdeq	r0, [r0], -pc	; <UNPREDICTABLE>
   11e28:	ff000000 			; <UNDEFINED> instruction: 0xff000000
   11e2c:	000000ff 	strdeq	r0, [r0], -pc	; <UNPREDICTABLE>
   11e30:	ff000000 			; <UNDEFINED> instruction: 0xff000000
   11e34:	ffffffff 			; <UNDEFINED> instruction: 0xffffffff
   11e38:	00ffffff 	ldrshteq	pc, [pc], #255	; <UNPREDICTABLE>
	...
   11e44:	ff000000 			; <UNDEFINED> instruction: 0xff000000
   11e48:	000000ff 	strdeq	r0, [r0], -pc	; <UNPREDICTABLE>
	...
   11e54:	ffffff00 			; <UNDEFINED> instruction: 0xffffff00
   11e58:	00ffffff 	ldrshteq	pc, [pc], #255	; <UNPREDICTABLE>
	...
   11e64:	ff000000 			; <UNDEFINED> instruction: 0xff000000
   11e68:	000000ff 	strdeq	r0, [r0], -pc	; <UNPREDICTABLE>
	...
   11e74:	00ffff00 	rscseq	pc, pc, r0, lsl #30
   11e78:	00ffff00 	rscseq	pc, pc, r0, lsl #30
   11e7c:	00000000 	andeq	r0, r0, r0
   11e80:	ff000000 			; <UNDEFINED> instruction: 0xff000000
   11e84:	000000ff 	strdeq	r0, [r0], -pc	; <UNPREDICTABLE>
   11e88:	ff000000 			; <UNDEFINED> instruction: 0xff000000
   11e8c:	000000ff 	strdeq	r0, [r0], -pc	; <UNPREDICTABLE>
   11e90:	00000000 	andeq	r0, r0, r0
   11e94:	ff000000 			; <UNDEFINED> instruction: 0xff000000
   11e98:	000000ff 	strdeq	r0, [r0], -pc	; <UNPREDICTABLE>
   11e9c:	00000000 	andeq	r0, r0, r0
   11ea0:	ff000000 			; <UNDEFINED> instruction: 0xff000000
   11ea4:	ffffffff 			; <UNDEFINED> instruction: 0xffffffff
   11ea8:	ffffffff 			; <UNDEFINED> instruction: 0xffffffff
   11eac:	000000ff 	strdeq	r0, [r0], -pc	; <UNPREDICTABLE>
   11eb0:	ff000000 			; <UNDEFINED> instruction: 0xff000000
   11eb4:	ffffffff 			; <UNDEFINED> instruction: 0xffffffff
   11eb8:	00ffffff 	ldrshteq	pc, [pc], #255	; <UNPREDICTABLE>
	...
   11ec4:	ff000000 			; <UNDEFINED> instruction: 0xff000000
   11ec8:	000000ff 	strdeq	r0, [r0], -pc	; <UNPREDICTABLE>
	...
   11ed4:	ffffff00 			; <UNDEFINED> instruction: 0xffffff00
   11ed8:	ffffffff 			; <UNDEFINED> instruction: 0xffffffff
   11edc:	000000ff 	strdeq	r0, [r0], -pc	; <UNPREDICTABLE>
	...
   11ef0:	ff000000 			; <UNDEFINED> instruction: 0xff000000
   11ef4:	ffffffff 			; <UNDEFINED> instruction: 0xffffffff
   11ef8:	ffffffff 			; <UNDEFINED> instruction: 0xffffffff
   11efc:	000000ff 	strdeq	r0, [r0], -pc	; <UNPREDICTABLE>
   11f00:	ff000000 			; <UNDEFINED> instruction: 0xff000000
   11f04:	000000ff 	strdeq	r0, [r0], -pc	; <UNPREDICTABLE>
	...
   11f14:	ffffff00 			; <UNDEFINED> instruction: 0xffffff00
   11f18:	00ffffff 	ldrshteq	pc, [pc], #255	; <UNPREDICTABLE>
   11f1c:	00000000 	andeq	r0, r0, r0
   11f20:	ff000000 			; <UNDEFINED> instruction: 0xff000000
   11f24:	000000ff 	strdeq	r0, [r0], -pc	; <UNPREDICTABLE>
   11f28:	ff000000 			; <UNDEFINED> instruction: 0xff000000
   11f2c:	000000ff 	strdeq	r0, [r0], -pc	; <UNPREDICTABLE>
   11f30:	ff000000 			; <UNDEFINED> instruction: 0xff000000
   11f34:	ffffffff 			; <UNDEFINED> instruction: 0xffffffff
   11f38:	00ffffff 	ldrshteq	pc, [pc], #255	; <UNPREDICTABLE>
	...
   11f44:	ff000000 			; <UNDEFINED> instruction: 0xff000000
   11f48:	000000ff 	strdeq	r0, [r0], -pc	; <UNPREDICTABLE>
	...
   11f54:	ffffff00 			; <UNDEFINED> instruction: 0xffffff00
   11f58:	00ffffff 	ldrshteq	pc, [pc], #255	; <UNPREDICTABLE>
	...
   11f64:	ff000000 			; <UNDEFINED> instruction: 0xff000000
   11f68:	000000ff 	strdeq	r0, [r0], -pc	; <UNPREDICTABLE>
	...
   11f74:	00ffff00 	rscseq	pc, pc, r0, lsl #30
   11f78:	00ffff00 	rscseq	pc, pc, r0, lsl #30
   11f7c:	00000000 	andeq	r0, r0, r0
   11f80:	ff000000 			; <UNDEFINED> instruction: 0xff000000
   11f84:	000000ff 	strdeq	r0, [r0], -pc	; <UNPREDICTABLE>
   11f88:	ff000000 			; <UNDEFINED> instruction: 0xff000000
   11f8c:	000000ff 	strdeq	r0, [r0], -pc	; <UNPREDICTABLE>
   11f90:	00000000 	andeq	r0, r0, r0
   11f94:	ff000000 			; <UNDEFINED> instruction: 0xff000000
   11f98:	000000ff 	strdeq	r0, [r0], -pc	; <UNPREDICTABLE>
   11f9c:	00000000 	andeq	r0, r0, r0
   11fa0:	ff000000 			; <UNDEFINED> instruction: 0xff000000
   11fa4:	ffffffff 			; <UNDEFINED> instruction: 0xffffffff
   11fa8:	ffffffff 			; <UNDEFINED> instruction: 0xffffffff
   11fac:	000000ff 	strdeq	r0, [r0], -pc	; <UNPREDICTABLE>
   11fb0:	ff000000 			; <UNDEFINED> instruction: 0xff000000
   11fb4:	ffffffff 			; <UNDEFINED> instruction: 0xffffffff
   11fb8:	00ffffff 	ldrshteq	pc, [pc], #255	; <UNPREDICTABLE>
	...
   11fc4:	ff000000 			; <UNDEFINED> instruction: 0xff000000
   11fc8:	000000ff 	strdeq	r0, [r0], -pc	; <UNPREDICTABLE>
	...
   11fd4:	ffffff00 			; <UNDEFINED> instruction: 0xffffff00
   11fd8:	ffffffff 			; <UNDEFINED> instruction: 0xffffffff
   11fdc:	000000ff 	strdeq	r0, [r0], -pc	; <UNPREDICTABLE>
	...
   11ff0:	ff000000 			; <UNDEFINED> instruction: 0xff000000
   11ff4:	ffffffff 			; <UNDEFINED> instruction: 0xffffffff
   11ff8:	ffffffff 			; <UNDEFINED> instruction: 0xffffffff
   11ffc:	000000ff 	strdeq	r0, [r0], -pc	; <UNPREDICTABLE>
	...
   12410:	ff000000 			; <UNDEFINED> instruction: 0xff000000
   12414:	ffffffff 			; <UNDEFINED> instruction: 0xffffffff
   12418:	00ffffff 	ldrshteq	pc, [pc], #255	; <UNPREDICTABLE>
   1241c:	00000000 	andeq	r0, r0, r0
   12420:	ff000000 			; <UNDEFINED> instruction: 0xff000000
   12424:	000000ff 	strdeq	r0, [r0], -pc	; <UNPREDICTABLE>
	...
   12434:	ffffff00 			; <UNDEFINED> instruction: 0xffffff00
   12438:	00ffffff 	ldrshteq	pc, [pc], #255	; <UNPREDICTABLE>
	...
   12448:	ff000000 			; <UNDEFINED> instruction: 0xff000000
   1244c:	000000ff 	strdeq	r0, [r0], -pc	; <UNPREDICTABLE>
   12450:	00000000 	andeq	r0, r0, r0
   12454:	ffffff00 			; <UNDEFINED> instruction: 0xffffff00
   12458:	00ffffff 	ldrshteq	pc, [pc], #255	; <UNPREDICTABLE>
	...
   12464:	ff000000 			; <UNDEFINED> instruction: 0xff000000
   12468:	ffffffff 			; <UNDEFINED> instruction: 0xffffffff
   1246c:	000000ff 	strdeq	r0, [r0], -pc	; <UNPREDICTABLE>
   12470:	00000000 	andeq	r0, r0, r0
   12474:	ffffff00 			; <UNDEFINED> instruction: 0xffffff00
   12478:	ffffffff 			; <UNDEFINED> instruction: 0xffffffff
   1247c:	000000ff 	strdeq	r0, [r0], -pc	; <UNPREDICTABLE>
   12480:	ff000000 			; <UNDEFINED> instruction: 0xff000000
   12484:	000000ff 	strdeq	r0, [r0], -pc	; <UNPREDICTABLE>
	...
   12494:	ff000000 			; <UNDEFINED> instruction: 0xff000000
   12498:	000000ff 	strdeq	r0, [r0], -pc	; <UNPREDICTABLE>
	...
   124a4:	ff000000 			; <UNDEFINED> instruction: 0xff000000
   124a8:	000000ff 	strdeq	r0, [r0], -pc	; <UNPREDICTABLE>
   124ac:	00000000 	andeq	r0, r0, r0
   124b0:	ff000000 			; <UNDEFINED> instruction: 0xff000000
   124b4:	000000ff 	strdeq	r0, [r0], -pc	; <UNPREDICTABLE>
   124b8:	ff000000 			; <UNDEFINED> instruction: 0xff000000
   124bc:	000000ff 	strdeq	r0, [r0], -pc	; <UNPREDICTABLE>
   124c0:	00000000 	andeq	r0, r0, r0
   124c4:	ff000000 			; <UNDEFINED> instruction: 0xff000000
   124c8:	000000ff 	strdeq	r0, [r0], -pc	; <UNPREDICTABLE>
	...
   12510:	ff000000 			; <UNDEFINED> instruction: 0xff000000
   12514:	ffffffff 			; <UNDEFINED> instruction: 0xffffffff
   12518:	00ffffff 	ldrshteq	pc, [pc], #255	; <UNPREDICTABLE>
   1251c:	00000000 	andeq	r0, r0, r0
   12520:	ff000000 			; <UNDEFINED> instruction: 0xff000000
   12524:	000000ff 	strdeq	r0, [r0], -pc	; <UNPREDICTABLE>
	...
   12534:	ffffff00 			; <UNDEFINED> instruction: 0xffffff00
   12538:	00ffffff 	ldrshteq	pc, [pc], #255	; <UNPREDICTABLE>
	...
   12548:	ff000000 			; <UNDEFINED> instruction: 0xff000000
   1254c:	000000ff 	strdeq	r0, [r0], -pc	; <UNPREDICTABLE>
   12550:	00000000 	andeq	r0, r0, r0
   12554:	ffffff00 			; <UNDEFINED> instruction: 0xffffff00
   12558:	00ffffff 	ldrshteq	pc, [pc], #255	; <UNPREDICTABLE>
	...
   12564:	ff000000 			; <UNDEFINED> instruction: 0xff000000
   12568:	ffffffff 			; <UNDEFINED> instruction: 0xffffffff
   1256c:	000000ff 	strdeq	r0, [r0], -pc	; <UNPREDICTABLE>
   12570:	00000000 	andeq	r0, r0, r0
   12574:	ffffff00 			; <UNDEFINED> instruction: 0xffffff00
   12578:	ffffffff 			; <UNDEFINED> instruction: 0xffffffff
   1257c:	000000ff 	strdeq	r0, [r0], -pc	; <UNPREDICTABLE>
   12580:	ff000000 			; <UNDEFINED> instruction: 0xff000000
   12584:	000000ff 	strdeq	r0, [r0], -pc	; <UNPREDICTABLE>
	...
   12594:	ff000000 			; <UNDEFINED> instruction: 0xff000000
   12598:	000000ff 	strdeq	r0, [r0], -pc	; <UNPREDICTABLE>
	...
   125a4:	ff000000 			; <UNDEFINED> instruction: 0xff000000
   125a8:	000000ff 	strdeq	r0, [r0], -pc	; <UNPREDICTABLE>
   125ac:	00000000 	andeq	r0, r0, r0
   125b0:	ff000000 			; <UNDEFINED> instruction: 0xff000000
   125b4:	000000ff 	strdeq	r0, [r0], -pc	; <UNPREDICTABLE>
   125b8:	ff000000 			; <UNDEFINED> instruction: 0xff000000
   125bc:	000000ff 	strdeq	r0, [r0], -pc	; <UNPREDICTABLE>
   125c0:	00000000 	andeq	r0, r0, r0
   125c4:	ff000000 			; <UNDEFINED> instruction: 0xff000000
   125c8:	000000ff 	strdeq	r0, [r0], -pc	; <UNPREDICTABLE>
	...
   12618:	ff000000 			; <UNDEFINED> instruction: 0xff000000
   1261c:	000000ff 	strdeq	r0, [r0], -pc	; <UNPREDICTABLE>
   12620:	ff000000 			; <UNDEFINED> instruction: 0xff000000
   12624:	000000ff 	strdeq	r0, [r0], -pc	; <UNPREDICTABLE>
	...
   12630:	ff000000 			; <UNDEFINED> instruction: 0xff000000
   12634:	000000ff 	strdeq	r0, [r0], -pc	; <UNPREDICTABLE>
   12638:	ff000000 			; <UNDEFINED> instruction: 0xff000000
   1263c:	000000ff 	strdeq	r0, [r0], -pc	; <UNPREDICTABLE>
	...
   12648:	ff000000 			; <UNDEFINED> instruction: 0xff000000
   1264c:	000000ff 	strdeq	r0, [r0], -pc	; <UNPREDICTABLE>
   12650:	ff000000 			; <UNDEFINED> instruction: 0xff000000
   12654:	000000ff 	strdeq	r0, [r0], -pc	; <UNPREDICTABLE>
   12658:	ff000000 			; <UNDEFINED> instruction: 0xff000000
   1265c:	000000ff 	strdeq	r0, [r0], -pc	; <UNPREDICTABLE>
   12660:	00000000 	andeq	r0, r0, r0
   12664:	ff000000 			; <UNDEFINED> instruction: 0xff000000
   12668:	000000ff 	strdeq	r0, [r0], -pc	; <UNPREDICTABLE>
   1266c:	00000000 	andeq	r0, r0, r0
   12670:	ff000000 			; <UNDEFINED> instruction: 0xff000000
   12674:	000000ff 	strdeq	r0, [r0], -pc	; <UNPREDICTABLE>
   12678:	ff000000 			; <UNDEFINED> instruction: 0xff000000
   1267c:	000000ff 	strdeq	r0, [r0], -pc	; <UNPREDICTABLE>
   12680:	ff000000 			; <UNDEFINED> instruction: 0xff000000
   12684:	000000ff 	strdeq	r0, [r0], -pc	; <UNPREDICTABLE>
	...
   126b0:	ff000000 			; <UNDEFINED> instruction: 0xff000000
   126b4:	000000ff 	strdeq	r0, [r0], -pc	; <UNPREDICTABLE>
   126b8:	00ffff00 	rscseq	pc, pc, r0, lsl #30
	...
   126c4:	ff000000 			; <UNDEFINED> instruction: 0xff000000
   126c8:	000000ff 	strdeq	r0, [r0], -pc	; <UNPREDICTABLE>
   126cc:	00000000 	andeq	r0, r0, r0
   126d0:	ff000000 			; <UNDEFINED> instruction: 0xff000000
   126d4:	ffffffff 			; <UNDEFINED> instruction: 0xffffffff
   126d8:	ffffffff 			; <UNDEFINED> instruction: 0xffffffff
   126dc:	000000ff 	strdeq	r0, [r0], -pc	; <UNPREDICTABLE>
   126e0:	ff000000 			; <UNDEFINED> instruction: 0xff000000
   126e4:	ffffffff 			; <UNDEFINED> instruction: 0xffffffff
   126e8:	ffffffff 			; <UNDEFINED> instruction: 0xffffffff
   126ec:	000000ff 	strdeq	r0, [r0], -pc	; <UNPREDICTABLE>
   126f0:	00000000 	andeq	r0, r0, r0
   126f4:	ffffff00 			; <UNDEFINED> instruction: 0xffffff00
   126f8:	00ffffff 	ldrshteq	pc, [pc], #255	; <UNPREDICTABLE>
	...
   12718:	ff000000 			; <UNDEFINED> instruction: 0xff000000
   1271c:	000000ff 	strdeq	r0, [r0], -pc	; <UNPREDICTABLE>
   12720:	ff000000 			; <UNDEFINED> instruction: 0xff000000
   12724:	000000ff 	strdeq	r0, [r0], -pc	; <UNPREDICTABLE>
	...
   12730:	ff000000 			; <UNDEFINED> instruction: 0xff000000
   12734:	000000ff 	strdeq	r0, [r0], -pc	; <UNPREDICTABLE>
   12738:	ff000000 			; <UNDEFINED> instruction: 0xff000000
   1273c:	000000ff 	strdeq	r0, [r0], -pc	; <UNPREDICTABLE>
	...
   12748:	ff000000 			; <UNDEFINED> instruction: 0xff000000
   1274c:	000000ff 	strdeq	r0, [r0], -pc	; <UNPREDICTABLE>
   12750:	ff000000 			; <UNDEFINED> instruction: 0xff000000
   12754:	000000ff 	strdeq	r0, [r0], -pc	; <UNPREDICTABLE>
   12758:	ff000000 			; <UNDEFINED> instruction: 0xff000000
   1275c:	000000ff 	strdeq	r0, [r0], -pc	; <UNPREDICTABLE>
   12760:	00000000 	andeq	r0, r0, r0
   12764:	ff000000 			; <UNDEFINED> instruction: 0xff000000
   12768:	000000ff 	strdeq	r0, [r0], -pc	; <UNPREDICTABLE>
   1276c:	00000000 	andeq	r0, r0, r0
   12770:	ff000000 			; <UNDEFINED> instruction: 0xff000000
   12774:	000000ff 	strdeq	r0, [r0], -pc	; <UNPREDICTABLE>
   12778:	ff000000 			; <UNDEFINED> instruction: 0xff000000
   1277c:	000000ff 	strdeq	r0, [r0], -pc	; <UNPREDICTABLE>
   12780:	ff000000 			; <UNDEFINED> instruction: 0xff000000
   12784:	000000ff 	strdeq	r0, [r0], -pc	; <UNPREDICTABLE>
	...
   127b0:	ff000000 			; <UNDEFINED> instruction: 0xff000000
   127b4:	000000ff 	strdeq	r0, [r0], -pc	; <UNPREDICTABLE>
   127b8:	00ffff00 	rscseq	pc, pc, r0, lsl #30
	...
   127c4:	ff000000 			; <UNDEFINED> instruction: 0xff000000
   127c8:	000000ff 	strdeq	r0, [r0], -pc	; <UNPREDICTABLE>
   127cc:	00000000 	andeq	r0, r0, r0
   127d0:	ff000000 			; <UNDEFINED> instruction: 0xff000000
   127d4:	ffffffff 			; <UNDEFINED> instruction: 0xffffffff
   127d8:	ffffffff 			; <UNDEFINED> instruction: 0xffffffff
   127dc:	000000ff 	strdeq	r0, [r0], -pc	; <UNPREDICTABLE>
   127e0:	ff000000 			; <UNDEFINED> instruction: 0xff000000
   127e4:	ffffffff 			; <UNDEFINED> instruction: 0xffffffff
   127e8:	ffffffff 			; <UNDEFINED> instruction: 0xffffffff
   127ec:	000000ff 	strdeq	r0, [r0], -pc	; <UNPREDICTABLE>
   127f0:	00000000 	andeq	r0, r0, r0
   127f4:	ffffff00 			; <UNDEFINED> instruction: 0xffffff00
   127f8:	00ffffff 	ldrshteq	pc, [pc], #255	; <UNPREDICTABLE>
	...
   12810:	ff000000 			; <UNDEFINED> instruction: 0xff000000
   12814:	ffffffff 			; <UNDEFINED> instruction: 0xffffffff
   12818:	ffffffff 			; <UNDEFINED> instruction: 0xffffffff
   1281c:	000000ff 	strdeq	r0, [r0], -pc	; <UNPREDICTABLE>
   12820:	ff000000 			; <UNDEFINED> instruction: 0xff000000
   12824:	ffffffff 			; <UNDEFINED> instruction: 0xffffffff
   12828:	ffffffff 			; <UNDEFINED> instruction: 0xffffffff
   1282c:	000000ff 	strdeq	r0, [r0], -pc	; <UNPREDICTABLE>
   12830:	ff000000 			; <UNDEFINED> instruction: 0xff000000
   12834:	000000ff 	strdeq	r0, [r0], -pc	; <UNPREDICTABLE>
	...
   12840:	ff000000 			; <UNDEFINED> instruction: 0xff000000
   12844:	ffffffff 			; <UNDEFINED> instruction: 0xffffffff
   12848:	ffffffff 			; <UNDEFINED> instruction: 0xffffffff
   1284c:	000000ff 	strdeq	r0, [r0], -pc	; <UNPREDICTABLE>
   12850:	ff000000 			; <UNDEFINED> instruction: 0xff000000
   12854:	ffffffff 			; <UNDEFINED> instruction: 0xffffffff
   12858:	ffffffff 			; <UNDEFINED> instruction: 0xffffffff
   1285c:	000000ff 	strdeq	r0, [r0], -pc	; <UNPREDICTABLE>
   12860:	ff000000 			; <UNDEFINED> instruction: 0xff000000
   12864:	ffffffff 			; <UNDEFINED> instruction: 0xffffffff
   12868:	00ffffff 	ldrshteq	pc, [pc], #255	; <UNPREDICTABLE>
	...
   12874:	ffffff00 			; <UNDEFINED> instruction: 0xffffff00
   12878:	ffffffff 			; <UNDEFINED> instruction: 0xffffffff
   1287c:	000000ff 	strdeq	r0, [r0], -pc	; <UNPREDICTABLE>
   12880:	ff000000 			; <UNDEFINED> instruction: 0xff000000
   12884:	ffffffff 			; <UNDEFINED> instruction: 0xffffffff
   12888:	ffffffff 			; <UNDEFINED> instruction: 0xffffffff
   1288c:	000000ff 	strdeq	r0, [r0], -pc	; <UNPREDICTABLE>
   12890:	00000000 	andeq	r0, r0, r0
   12894:	ff000000 			; <UNDEFINED> instruction: 0xff000000
   12898:	000000ff 	strdeq	r0, [r0], -pc	; <UNPREDICTABLE>
	...
   128a4:	ff000000 			; <UNDEFINED> instruction: 0xff000000
   128a8:	000000ff 	strdeq	r0, [r0], -pc	; <UNPREDICTABLE>
   128ac:	00000000 	andeq	r0, r0, r0
   128b0:	ff000000 			; <UNDEFINED> instruction: 0xff000000
   128b4:	ffffffff 			; <UNDEFINED> instruction: 0xffffffff
   128b8:	000000ff 	strdeq	r0, [r0], -pc	; <UNPREDICTABLE>
	...
   128c4:	ff000000 			; <UNDEFINED> instruction: 0xff000000
   128c8:	000000ff 	strdeq	r0, [r0], -pc	; <UNPREDICTABLE>
   128cc:	00000000 	andeq	r0, r0, r0
   128d0:	ff000000 			; <UNDEFINED> instruction: 0xff000000
   128d4:	ff0000ff 			; <UNDEFINED> instruction: 0xff0000ff
   128d8:	ff0000ff 			; <UNDEFINED> instruction: 0xff0000ff
   128dc:	000000ff 	strdeq	r0, [r0], -pc	; <UNPREDICTABLE>
   128e0:	ff000000 			; <UNDEFINED> instruction: 0xff000000
   128e4:	000000ff 	strdeq	r0, [r0], -pc	; <UNPREDICTABLE>
   128e8:	ff000000 			; <UNDEFINED> instruction: 0xff000000
   128ec:	000000ff 	strdeq	r0, [r0], -pc	; <UNPREDICTABLE>
   128f0:	ff000000 			; <UNDEFINED> instruction: 0xff000000
   128f4:	000000ff 	strdeq	r0, [r0], -pc	; <UNPREDICTABLE>
   128f8:	ff000000 			; <UNDEFINED> instruction: 0xff000000
   128fc:	000000ff 	strdeq	r0, [r0], -pc	; <UNPREDICTABLE>
	...
   12910:	ff000000 			; <UNDEFINED> instruction: 0xff000000
   12914:	ffffffff 			; <UNDEFINED> instruction: 0xffffffff
   12918:	ffffffff 			; <UNDEFINED> instruction: 0xffffffff
   1291c:	000000ff 	strdeq	r0, [r0], -pc	; <UNPREDICTABLE>
   12920:	ff000000 			; <UNDEFINED> instruction: 0xff000000
   12924:	ffffffff 			; <UNDEFINED> instruction: 0xffffffff
   12928:	ffffffff 			; <UNDEFINED> instruction: 0xffffffff
   1292c:	000000ff 	strdeq	r0, [r0], -pc	; <UNPREDICTABLE>
   12930:	ff000000 			; <UNDEFINED> instruction: 0xff000000
   12934:	000000ff 	strdeq	r0, [r0], -pc	; <UNPREDICTABLE>
	...
   12940:	ff000000 			; <UNDEFINED> instruction: 0xff000000
   12944:	ffffffff 			; <UNDEFINED> instruction: 0xffffffff
   12948:	ffffffff 			; <UNDEFINED> instruction: 0xffffffff
   1294c:	000000ff 	strdeq	r0, [r0], -pc	; <UNPREDICTABLE>
   12950:	ff000000 			; <UNDEFINED> instruction: 0xff000000
   12954:	ffffffff 			; <UNDEFINED> instruction: 0xffffffff
   12958:	ffffffff 			; <UNDEFINED> instruction: 0xffffffff
   1295c:	000000ff 	strdeq	r0, [r0], -pc	; <UNPREDICTABLE>
   12960:	ff000000 			; <UNDEFINED> instruction: 0xff000000
   12964:	ffffffff 			; <UNDEFINED> instruction: 0xffffffff
   12968:	00ffffff 	ldrshteq	pc, [pc], #255	; <UNPREDICTABLE>
	...
   12974:	ffffff00 			; <UNDEFINED> instruction: 0xffffff00
   12978:	ffffffff 			; <UNDEFINED> instruction: 0xffffffff
   1297c:	000000ff 	strdeq	r0, [r0], -pc	; <UNPREDICTABLE>
   12980:	ff000000 			; <UNDEFINED> instruction: 0xff000000
   12984:	ffffffff 			; <UNDEFINED> instruction: 0xffffffff
   12988:	ffffffff 			; <UNDEFINED> instruction: 0xffffffff
   1298c:	000000ff 	strdeq	r0, [r0], -pc	; <UNPREDICTABLE>
   12990:	00000000 	andeq	r0, r0, r0
   12994:	ff000000 			; <UNDEFINED> instruction: 0xff000000
   12998:	000000ff 	strdeq	r0, [r0], -pc	; <UNPREDICTABLE>
	...
   129a4:	ff000000 			; <UNDEFINED> instruction: 0xff000000
   129a8:	000000ff 	strdeq	r0, [r0], -pc	; <UNPREDICTABLE>
   129ac:	00000000 	andeq	r0, r0, r0
   129b0:	ff000000 			; <UNDEFINED> instruction: 0xff000000
   129b4:	ffffffff 			; <UNDEFINED> instruction: 0xffffffff
   129b8:	000000ff 	strdeq	r0, [r0], -pc	; <UNPREDICTABLE>
	...
   129c4:	ff000000 			; <UNDEFINED> instruction: 0xff000000
   129c8:	000000ff 	strdeq	r0, [r0], -pc	; <UNPREDICTABLE>
   129cc:	00000000 	andeq	r0, r0, r0
   129d0:	ff000000 			; <UNDEFINED> instruction: 0xff000000
   129d4:	ff0000ff 			; <UNDEFINED> instruction: 0xff0000ff
   129d8:	ff0000ff 			; <UNDEFINED> instruction: 0xff0000ff
   129dc:	000000ff 	strdeq	r0, [r0], -pc	; <UNPREDICTABLE>
   129e0:	ff000000 			; <UNDEFINED> instruction: 0xff000000
   129e4:	000000ff 	strdeq	r0, [r0], -pc	; <UNPREDICTABLE>
   129e8:	ff000000 			; <UNDEFINED> instruction: 0xff000000
   129ec:	000000ff 	strdeq	r0, [r0], -pc	; <UNPREDICTABLE>
   129f0:	ff000000 			; <UNDEFINED> instruction: 0xff000000
   129f4:	000000ff 	strdeq	r0, [r0], -pc	; <UNPREDICTABLE>
   129f8:	ff000000 			; <UNDEFINED> instruction: 0xff000000
   129fc:	000000ff 	strdeq	r0, [r0], -pc	; <UNPREDICTABLE>
	...
   12a10:	ff000000 			; <UNDEFINED> instruction: 0xff000000
   12a14:	000000ff 	strdeq	r0, [r0], -pc	; <UNPREDICTABLE>
   12a18:	ff000000 			; <UNDEFINED> instruction: 0xff000000
   12a1c:	000000ff 	strdeq	r0, [r0], -pc	; <UNPREDICTABLE>
   12a20:	ff000000 			; <UNDEFINED> instruction: 0xff000000
   12a24:	000000ff 	strdeq	r0, [r0], -pc	; <UNPREDICTABLE>
   12a28:	ff000000 			; <UNDEFINED> instruction: 0xff000000
   12a2c:	000000ff 	strdeq	r0, [r0], -pc	; <UNPREDICTABLE>
   12a30:	ff000000 			; <UNDEFINED> instruction: 0xff000000
   12a34:	000000ff 	strdeq	r0, [r0], -pc	; <UNPREDICTABLE>
	...
   12a40:	ff000000 			; <UNDEFINED> instruction: 0xff000000
   12a44:	000000ff 	strdeq	r0, [r0], -pc	; <UNPREDICTABLE>
   12a48:	ff000000 			; <UNDEFINED> instruction: 0xff000000
   12a4c:	000000ff 	strdeq	r0, [r0], -pc	; <UNPREDICTABLE>
   12a50:	ff000000 			; <UNDEFINED> instruction: 0xff000000
   12a54:	000000ff 	strdeq	r0, [r0], -pc	; <UNPREDICTABLE>
	...
   12a64:	ff000000 			; <UNDEFINED> instruction: 0xff000000
   12a68:	000000ff 	strdeq	r0, [r0], -pc	; <UNPREDICTABLE>
	...
   12a78:	ff000000 			; <UNDEFINED> instruction: 0xff000000
   12a7c:	000000ff 	strdeq	r0, [r0], -pc	; <UNPREDICTABLE>
   12a80:	ff000000 			; <UNDEFINED> instruction: 0xff000000
   12a84:	000000ff 	strdeq	r0, [r0], -pc	; <UNPREDICTABLE>
   12a88:	ff000000 			; <UNDEFINED> instruction: 0xff000000
   12a8c:	000000ff 	strdeq	r0, [r0], -pc	; <UNPREDICTABLE>
   12a90:	00000000 	andeq	r0, r0, r0
   12a94:	ff000000 			; <UNDEFINED> instruction: 0xff000000
   12a98:	000000ff 	strdeq	r0, [r0], -pc	; <UNPREDICTABLE>
	...
   12aa4:	ff000000 			; <UNDEFINED> instruction: 0xff000000
   12aa8:	000000ff 	strdeq	r0, [r0], -pc	; <UNPREDICTABLE>
   12aac:	00000000 	andeq	r0, r0, r0
   12ab0:	ff000000 			; <UNDEFINED> instruction: 0xff000000
   12ab4:	ff0000ff 			; <UNDEFINED> instruction: 0xff0000ff
   12ab8:	00ffffff 	ldrshteq	pc, [pc], #255	; <UNPREDICTABLE>
	...
   12ac4:	ff000000 			; <UNDEFINED> instruction: 0xff000000
   12ac8:	000000ff 	strdeq	r0, [r0], -pc	; <UNPREDICTABLE>
   12acc:	00000000 	andeq	r0, r0, r0
   12ad0:	ff000000 			; <UNDEFINED> instruction: 0xff000000
   12ad4:	ff0000ff 			; <UNDEFINED> instruction: 0xff0000ff
   12ad8:	ff0000ff 			; <UNDEFINED> instruction: 0xff0000ff
   12adc:	000000ff 	strdeq	r0, [r0], -pc	; <UNPREDICTABLE>
   12ae0:	ff000000 			; <UNDEFINED> instruction: 0xff000000
   12ae4:	000000ff 	strdeq	r0, [r0], -pc	; <UNPREDICTABLE>
   12ae8:	ff000000 			; <UNDEFINED> instruction: 0xff000000
   12aec:	000000ff 	strdeq	r0, [r0], -pc	; <UNPREDICTABLE>
   12af0:	ff000000 			; <UNDEFINED> instruction: 0xff000000
   12af4:	000000ff 	strdeq	r0, [r0], -pc	; <UNPREDICTABLE>
   12af8:	ff000000 			; <UNDEFINED> instruction: 0xff000000
   12afc:	000000ff 	strdeq	r0, [r0], -pc	; <UNPREDICTABLE>
	...
   12b10:	ff000000 			; <UNDEFINED> instruction: 0xff000000
   12b14:	000000ff 	strdeq	r0, [r0], -pc	; <UNPREDICTABLE>
   12b18:	ff000000 			; <UNDEFINED> instruction: 0xff000000
   12b1c:	000000ff 	strdeq	r0, [r0], -pc	; <UNPREDICTABLE>
   12b20:	ff000000 			; <UNDEFINED> instruction: 0xff000000
   12b24:	000000ff 	strdeq	r0, [r0], -pc	; <UNPREDICTABLE>
   12b28:	ff000000 			; <UNDEFINED> instruction: 0xff000000
   12b2c:	000000ff 	strdeq	r0, [r0], -pc	; <UNPREDICTABLE>
   12b30:	ff000000 			; <UNDEFINED> instruction: 0xff000000
   12b34:	000000ff 	strdeq	r0, [r0], -pc	; <UNPREDICTABLE>
	...
   12b40:	ff000000 			; <UNDEFINED> instruction: 0xff000000
   12b44:	000000ff 	strdeq	r0, [r0], -pc	; <UNPREDICTABLE>
   12b48:	ff000000 			; <UNDEFINED> instruction: 0xff000000
   12b4c:	000000ff 	strdeq	r0, [r0], -pc	; <UNPREDICTABLE>
   12b50:	ff000000 			; <UNDEFINED> instruction: 0xff000000
   12b54:	000000ff 	strdeq	r0, [r0], -pc	; <UNPREDICTABLE>
	...
   12b64:	ff000000 			; <UNDEFINED> instruction: 0xff000000
   12b68:	000000ff 	strdeq	r0, [r0], -pc	; <UNPREDICTABLE>
	...
   12b78:	ff000000 			; <UNDEFINED> instruction: 0xff000000
   12b7c:	000000ff 	strdeq	r0, [r0], -pc	; <UNPREDICTABLE>
   12b80:	ff000000 			; <UNDEFINED> instruction: 0xff000000
   12b84:	000000ff 	strdeq	r0, [r0], -pc	; <UNPREDICTABLE>
   12b88:	ff000000 			; <UNDEFINED> instruction: 0xff000000
   12b8c:	000000ff 	strdeq	r0, [r0], -pc	; <UNPREDICTABLE>
   12b90:	00000000 	andeq	r0, r0, r0
   12b94:	ff000000 			; <UNDEFINED> instruction: 0xff000000
   12b98:	000000ff 	strdeq	r0, [r0], -pc	; <UNPREDICTABLE>
	...
   12ba4:	ff000000 			; <UNDEFINED> instruction: 0xff000000
   12ba8:	000000ff 	strdeq	r0, [r0], -pc	; <UNPREDICTABLE>
   12bac:	00000000 	andeq	r0, r0, r0
   12bb0:	ff000000 			; <UNDEFINED> instruction: 0xff000000
   12bb4:	ff0000ff 			; <UNDEFINED> instruction: 0xff0000ff
   12bb8:	00ffffff 	ldrshteq	pc, [pc], #255	; <UNPREDICTABLE>
	...
   12bc4:	ff000000 			; <UNDEFINED> instruction: 0xff000000
   12bc8:	000000ff 	strdeq	r0, [r0], -pc	; <UNPREDICTABLE>
   12bcc:	00000000 	andeq	r0, r0, r0
   12bd0:	ff000000 			; <UNDEFINED> instruction: 0xff000000
   12bd4:	ff0000ff 			; <UNDEFINED> instruction: 0xff0000ff
   12bd8:	ff0000ff 			; <UNDEFINED> instruction: 0xff0000ff
   12bdc:	000000ff 	strdeq	r0, [r0], -pc	; <UNPREDICTABLE>
   12be0:	ff000000 			; <UNDEFINED> instruction: 0xff000000
   12be4:	000000ff 	strdeq	r0, [r0], -pc	; <UNPREDICTABLE>
   12be8:	ff000000 			; <UNDEFINED> instruction: 0xff000000
   12bec:	000000ff 	strdeq	r0, [r0], -pc	; <UNPREDICTABLE>
   12bf0:	ff000000 			; <UNDEFINED> instruction: 0xff000000
   12bf4:	000000ff 	strdeq	r0, [r0], -pc	; <UNPREDICTABLE>
   12bf8:	ff000000 			; <UNDEFINED> instruction: 0xff000000
   12bfc:	000000ff 	strdeq	r0, [r0], -pc	; <UNPREDICTABLE>
	...
   12c10:	ff000000 			; <UNDEFINED> instruction: 0xff000000
   12c14:	000000ff 	strdeq	r0, [r0], -pc	; <UNPREDICTABLE>
   12c18:	ff000000 			; <UNDEFINED> instruction: 0xff000000
   12c1c:	000000ff 	strdeq	r0, [r0], -pc	; <UNPREDICTABLE>
   12c20:	ff000000 			; <UNDEFINED> instruction: 0xff000000
   12c24:	000000ff 	strdeq	r0, [r0], -pc	; <UNPREDICTABLE>
   12c28:	ff000000 			; <UNDEFINED> instruction: 0xff000000
   12c2c:	000000ff 	strdeq	r0, [r0], -pc	; <UNPREDICTABLE>
   12c30:	ff000000 			; <UNDEFINED> instruction: 0xff000000
   12c34:	000000ff 	strdeq	r0, [r0], -pc	; <UNPREDICTABLE>
   12c38:	ff000000 			; <UNDEFINED> instruction: 0xff000000
   12c3c:	000000ff 	strdeq	r0, [r0], -pc	; <UNPREDICTABLE>
   12c40:	ff000000 			; <UNDEFINED> instruction: 0xff000000
   12c44:	000000ff 	strdeq	r0, [r0], -pc	; <UNPREDICTABLE>
   12c48:	ff000000 			; <UNDEFINED> instruction: 0xff000000
   12c4c:	000000ff 	strdeq	r0, [r0], -pc	; <UNPREDICTABLE>
   12c50:	ff000000 			; <UNDEFINED> instruction: 0xff000000
   12c54:	000000ff 	strdeq	r0, [r0], -pc	; <UNPREDICTABLE>
   12c58:	ff000000 			; <UNDEFINED> instruction: 0xff000000
   12c5c:	000000ff 	strdeq	r0, [r0], -pc	; <UNPREDICTABLE>
   12c60:	00000000 	andeq	r0, r0, r0
   12c64:	ff000000 			; <UNDEFINED> instruction: 0xff000000
   12c68:	000000ff 	strdeq	r0, [r0], -pc	; <UNPREDICTABLE>
   12c6c:	00000000 	andeq	r0, r0, r0
   12c70:	ff000000 			; <UNDEFINED> instruction: 0xff000000
   12c74:	000000ff 	strdeq	r0, [r0], -pc	; <UNPREDICTABLE>
   12c78:	ff000000 			; <UNDEFINED> instruction: 0xff000000
   12c7c:	000000ff 	strdeq	r0, [r0], -pc	; <UNPREDICTABLE>
   12c80:	ff000000 			; <UNDEFINED> instruction: 0xff000000
   12c84:	000000ff 	strdeq	r0, [r0], -pc	; <UNPREDICTABLE>
   12c88:	ff000000 			; <UNDEFINED> instruction: 0xff000000
   12c8c:	000000ff 	strdeq	r0, [r0], -pc	; <UNPREDICTABLE>
   12c90:	00000000 	andeq	r0, r0, r0
   12c94:	ff000000 			; <UNDEFINED> instruction: 0xff000000
   12c98:	000000ff 	strdeq	r0, [r0], -pc	; <UNPREDICTABLE>
   12c9c:	00000000 	andeq	r0, r0, r0
   12ca0:	ff000000 			; <UNDEFINED> instruction: 0xff000000
   12ca4:	ff0000ff 			; <UNDEFINED> instruction: 0xff0000ff
   12ca8:	000000ff 	strdeq	r0, [r0], -pc	; <UNPREDICTABLE>
   12cac:	00000000 	andeq	r0, r0, r0
   12cb0:	ff000000 			; <UNDEFINED> instruction: 0xff000000
   12cb4:	000000ff 	strdeq	r0, [r0], -pc	; <UNPREDICTABLE>
   12cb8:	00ffff00 	rscseq	pc, pc, r0, lsl #30
	...
   12cc4:	ff000000 			; <UNDEFINED> instruction: 0xff000000
   12cc8:	000000ff 	strdeq	r0, [r0], -pc	; <UNPREDICTABLE>
   12ccc:	00000000 	andeq	r0, r0, r0
   12cd0:	ff000000 			; <UNDEFINED> instruction: 0xff000000
   12cd4:	ff0000ff 			; <UNDEFINED> instruction: 0xff0000ff
   12cd8:	ff0000ff 			; <UNDEFINED> instruction: 0xff0000ff
   12cdc:	000000ff 	strdeq	r0, [r0], -pc	; <UNPREDICTABLE>
   12ce0:	ff000000 			; <UNDEFINED> instruction: 0xff000000
   12ce4:	000000ff 	strdeq	r0, [r0], -pc	; <UNPREDICTABLE>
   12ce8:	ff000000 			; <UNDEFINED> instruction: 0xff000000
   12cec:	000000ff 	strdeq	r0, [r0], -pc	; <UNPREDICTABLE>
   12cf0:	ff000000 			; <UNDEFINED> instruction: 0xff000000
   12cf4:	000000ff 	strdeq	r0, [r0], -pc	; <UNPREDICTABLE>
   12cf8:	ff000000 			; <UNDEFINED> instruction: 0xff000000
   12cfc:	000000ff 	strdeq	r0, [r0], -pc	; <UNPREDICTABLE>
	...
   12d10:	ff000000 			; <UNDEFINED> instruction: 0xff000000
   12d14:	000000ff 	strdeq	r0, [r0], -pc	; <UNPREDICTABLE>
   12d18:	ff000000 			; <UNDEFINED> instruction: 0xff000000
   12d1c:	000000ff 	strdeq	r0, [r0], -pc	; <UNPREDICTABLE>
   12d20:	ff000000 			; <UNDEFINED> instruction: 0xff000000
   12d24:	000000ff 	strdeq	r0, [r0], -pc	; <UNPREDICTABLE>
   12d28:	ff000000 			; <UNDEFINED> instruction: 0xff000000
   12d2c:	000000ff 	strdeq	r0, [r0], -pc	; <UNPREDICTABLE>
   12d30:	ff000000 			; <UNDEFINED> instruction: 0xff000000
   12d34:	000000ff 	strdeq	r0, [r0], -pc	; <UNPREDICTABLE>
   12d38:	ff000000 			; <UNDEFINED> instruction: 0xff000000
   12d3c:	000000ff 	strdeq	r0, [r0], -pc	; <UNPREDICTABLE>
   12d40:	ff000000 			; <UNDEFINED> instruction: 0xff000000
   12d44:	000000ff 	strdeq	r0, [r0], -pc	; <UNPREDICTABLE>
   12d48:	ff000000 			; <UNDEFINED> instruction: 0xff000000
   12d4c:	000000ff 	strdeq	r0, [r0], -pc	; <UNPREDICTABLE>
   12d50:	ff000000 			; <UNDEFINED> instruction: 0xff000000
   12d54:	000000ff 	strdeq	r0, [r0], -pc	; <UNPREDICTABLE>
   12d58:	ff000000 			; <UNDEFINED> instruction: 0xff000000
   12d5c:	000000ff 	strdeq	r0, [r0], -pc	; <UNPREDICTABLE>
   12d60:	00000000 	andeq	r0, r0, r0
   12d64:	ff000000 			; <UNDEFINED> instruction: 0xff000000
   12d68:	000000ff 	strdeq	r0, [r0], -pc	; <UNPREDICTABLE>
   12d6c:	00000000 	andeq	r0, r0, r0
   12d70:	ff000000 			; <UNDEFINED> instruction: 0xff000000
   12d74:	000000ff 	strdeq	r0, [r0], -pc	; <UNPREDICTABLE>
   12d78:	ff000000 			; <UNDEFINED> instruction: 0xff000000
   12d7c:	000000ff 	strdeq	r0, [r0], -pc	; <UNPREDICTABLE>
   12d80:	ff000000 			; <UNDEFINED> instruction: 0xff000000
   12d84:	000000ff 	strdeq	r0, [r0], -pc	; <UNPREDICTABLE>
   12d88:	ff000000 			; <UNDEFINED> instruction: 0xff000000
   12d8c:	000000ff 	strdeq	r0, [r0], -pc	; <UNPREDICTABLE>
   12d90:	00000000 	andeq	r0, r0, r0
   12d94:	ff000000 			; <UNDEFINED> instruction: 0xff000000
   12d98:	000000ff 	strdeq	r0, [r0], -pc	; <UNPREDICTABLE>
   12d9c:	00000000 	andeq	r0, r0, r0
   12da0:	ff000000 			; <UNDEFINED> instruction: 0xff000000
   12da4:	ff0000ff 			; <UNDEFINED> instruction: 0xff0000ff
   12da8:	000000ff 	strdeq	r0, [r0], -pc	; <UNPREDICTABLE>
   12dac:	00000000 	andeq	r0, r0, r0
   12db0:	ff000000 			; <UNDEFINED> instruction: 0xff000000
   12db4:	000000ff 	strdeq	r0, [r0], -pc	; <UNPREDICTABLE>
   12db8:	00ffff00 	rscseq	pc, pc, r0, lsl #30
	...
   12dc4:	ff000000 			; <UNDEFINED> instruction: 0xff000000
   12dc8:	000000ff 	strdeq	r0, [r0], -pc	; <UNPREDICTABLE>
   12dcc:	00000000 	andeq	r0, r0, r0
   12dd0:	ff000000 			; <UNDEFINED> instruction: 0xff000000
   12dd4:	ff0000ff 			; <UNDEFINED> instruction: 0xff0000ff
   12dd8:	ff0000ff 			; <UNDEFINED> instruction: 0xff0000ff
   12ddc:	000000ff 	strdeq	r0, [r0], -pc	; <UNPREDICTABLE>
   12de0:	ff000000 			; <UNDEFINED> instruction: 0xff000000
   12de4:	000000ff 	strdeq	r0, [r0], -pc	; <UNPREDICTABLE>
   12de8:	ff000000 			; <UNDEFINED> instruction: 0xff000000
   12dec:	000000ff 	strdeq	r0, [r0], -pc	; <UNPREDICTABLE>
   12df0:	ff000000 			; <UNDEFINED> instruction: 0xff000000
   12df4:	000000ff 	strdeq	r0, [r0], -pc	; <UNPREDICTABLE>
   12df8:	ff000000 			; <UNDEFINED> instruction: 0xff000000
   12dfc:	000000ff 	strdeq	r0, [r0], -pc	; <UNPREDICTABLE>
	...
   12e10:	ff000000 			; <UNDEFINED> instruction: 0xff000000
   12e14:	ffffffff 			; <UNDEFINED> instruction: 0xffffffff
   12e18:	ffffffff 			; <UNDEFINED> instruction: 0xffffffff
   12e1c:	000000ff 	strdeq	r0, [r0], -pc	; <UNPREDICTABLE>
   12e20:	ff000000 			; <UNDEFINED> instruction: 0xff000000
   12e24:	ffffffff 			; <UNDEFINED> instruction: 0xffffffff
   12e28:	ffffffff 			; <UNDEFINED> instruction: 0xffffffff
   12e2c:	000000ff 	strdeq	r0, [r0], -pc	; <UNPREDICTABLE>
   12e30:	00000000 	andeq	r0, r0, r0
   12e34:	ffffff00 			; <UNDEFINED> instruction: 0xffffff00
   12e38:	00ffffff 	ldrshteq	pc, [pc], #255	; <UNPREDICTABLE>
   12e3c:	00000000 	andeq	r0, r0, r0
   12e40:	ff000000 			; <UNDEFINED> instruction: 0xff000000
   12e44:	ffffffff 			; <UNDEFINED> instruction: 0xffffffff
   12e48:	ffffffff 			; <UNDEFINED> instruction: 0xffffffff
   12e4c:	000000ff 	strdeq	r0, [r0], -pc	; <UNPREDICTABLE>
   12e50:	00000000 	andeq	r0, r0, r0
   12e54:	ffffff00 			; <UNDEFINED> instruction: 0xffffff00
   12e58:	00ffffff 	ldrshteq	pc, [pc], #255	; <UNPREDICTABLE>
	...
   12e64:	ff000000 			; <UNDEFINED> instruction: 0xff000000
   12e68:	000000ff 	strdeq	r0, [r0], -pc	; <UNPREDICTABLE>
   12e6c:	00000000 	andeq	r0, r0, r0
   12e70:	ff000000 			; <UNDEFINED> instruction: 0xff000000
   12e74:	ffffffff 			; <UNDEFINED> instruction: 0xffffffff
   12e78:	00ffffff 	ldrshteq	pc, [pc], #255	; <UNPREDICTABLE>
   12e7c:	00000000 	andeq	r0, r0, r0
   12e80:	ff000000 			; <UNDEFINED> instruction: 0xff000000
   12e84:	000000ff 	strdeq	r0, [r0], -pc	; <UNPREDICTABLE>
   12e88:	ff000000 			; <UNDEFINED> instruction: 0xff000000
   12e8c:	000000ff 	strdeq	r0, [r0], -pc	; <UNPREDICTABLE>
   12e90:	00000000 	andeq	r0, r0, r0
   12e94:	ff000000 			; <UNDEFINED> instruction: 0xff000000
   12e98:	000000ff 	strdeq	r0, [r0], -pc	; <UNPREDICTABLE>
   12e9c:	00000000 	andeq	r0, r0, r0
   12ea0:	ff000000 			; <UNDEFINED> instruction: 0xff000000
   12ea4:	ffffffff 			; <UNDEFINED> instruction: 0xffffffff
   12ea8:	000000ff 	strdeq	r0, [r0], -pc	; <UNPREDICTABLE>
   12eac:	00000000 	andeq	r0, r0, r0
   12eb0:	ff000000 			; <UNDEFINED> instruction: 0xff000000
   12eb4:	000000ff 	strdeq	r0, [r0], -pc	; <UNPREDICTABLE>
   12eb8:	ff000000 			; <UNDEFINED> instruction: 0xff000000
   12ebc:	000000ff 	strdeq	r0, [r0], -pc	; <UNPREDICTABLE>
   12ec0:	00000000 	andeq	r0, r0, r0
   12ec4:	ff000000 			; <UNDEFINED> instruction: 0xff000000
   12ec8:	000000ff 	strdeq	r0, [r0], -pc	; <UNPREDICTABLE>
   12ecc:	00000000 	andeq	r0, r0, r0
   12ed0:	ff000000 			; <UNDEFINED> instruction: 0xff000000
   12ed4:	ff0000ff 			; <UNDEFINED> instruction: 0xff0000ff
   12ed8:	ff0000ff 			; <UNDEFINED> instruction: 0xff0000ff
   12edc:	000000ff 	strdeq	r0, [r0], -pc	; <UNPREDICTABLE>
   12ee0:	ff000000 			; <UNDEFINED> instruction: 0xff000000
   12ee4:	000000ff 	strdeq	r0, [r0], -pc	; <UNPREDICTABLE>
   12ee8:	ff000000 			; <UNDEFINED> instruction: 0xff000000
   12eec:	000000ff 	strdeq	r0, [r0], -pc	; <UNPREDICTABLE>
   12ef0:	00000000 	andeq	r0, r0, r0
   12ef4:	ffffff00 			; <UNDEFINED> instruction: 0xffffff00
   12ef8:	00ffffff 	ldrshteq	pc, [pc], #255	; <UNPREDICTABLE>
	...
   12f10:	ff000000 			; <UNDEFINED> instruction: 0xff000000
   12f14:	ffffffff 			; <UNDEFINED> instruction: 0xffffffff
   12f18:	ffffffff 			; <UNDEFINED> instruction: 0xffffffff
   12f1c:	000000ff 	strdeq	r0, [r0], -pc	; <UNPREDICTABLE>
   12f20:	ff000000 			; <UNDEFINED> instruction: 0xff000000
   12f24:	ffffffff 			; <UNDEFINED> instruction: 0xffffffff
   12f28:	ffffffff 			; <UNDEFINED> instruction: 0xffffffff
   12f2c:	000000ff 	strdeq	r0, [r0], -pc	; <UNPREDICTABLE>
   12f30:	00000000 	andeq	r0, r0, r0
   12f34:	ffffff00 			; <UNDEFINED> instruction: 0xffffff00
   12f38:	00ffffff 	ldrshteq	pc, [pc], #255	; <UNPREDICTABLE>
   12f3c:	00000000 	andeq	r0, r0, r0
   12f40:	ff000000 			; <UNDEFINED> instruction: 0xff000000
   12f44:	ffffffff 			; <UNDEFINED> instruction: 0xffffffff
   12f48:	ffffffff 			; <UNDEFINED> instruction: 0xffffffff
   12f4c:	000000ff 	strdeq	r0, [r0], -pc	; <UNPREDICTABLE>
   12f50:	00000000 	andeq	r0, r0, r0
   12f54:	ffffff00 			; <UNDEFINED> instruction: 0xffffff00
   12f58:	00ffffff 	ldrshteq	pc, [pc], #255	; <UNPREDICTABLE>
	...
   12f64:	ff000000 			; <UNDEFINED> instruction: 0xff000000
   12f68:	000000ff 	strdeq	r0, [r0], -pc	; <UNPREDICTABLE>
   12f6c:	00000000 	andeq	r0, r0, r0
   12f70:	ff000000 			; <UNDEFINED> instruction: 0xff000000
   12f74:	ffffffff 			; <UNDEFINED> instruction: 0xffffffff
   12f78:	00ffffff 	ldrshteq	pc, [pc], #255	; <UNPREDICTABLE>
   12f7c:	00000000 	andeq	r0, r0, r0
   12f80:	ff000000 			; <UNDEFINED> instruction: 0xff000000
   12f84:	000000ff 	strdeq	r0, [r0], -pc	; <UNPREDICTABLE>
   12f88:	ff000000 			; <UNDEFINED> instruction: 0xff000000
   12f8c:	000000ff 	strdeq	r0, [r0], -pc	; <UNPREDICTABLE>
   12f90:	00000000 	andeq	r0, r0, r0
   12f94:	ff000000 			; <UNDEFINED> instruction: 0xff000000
   12f98:	000000ff 	strdeq	r0, [r0], -pc	; <UNPREDICTABLE>
   12f9c:	00000000 	andeq	r0, r0, r0
   12fa0:	ff000000 			; <UNDEFINED> instruction: 0xff000000
   12fa4:	ffffffff 			; <UNDEFINED> instruction: 0xffffffff
   12fa8:	000000ff 	strdeq	r0, [r0], -pc	; <UNPREDICTABLE>
   12fac:	00000000 	andeq	r0, r0, r0
   12fb0:	ff000000 			; <UNDEFINED> instruction: 0xff000000
   12fb4:	000000ff 	strdeq	r0, [r0], -pc	; <UNPREDICTABLE>
   12fb8:	ff000000 			; <UNDEFINED> instruction: 0xff000000
   12fbc:	000000ff 	strdeq	r0, [r0], -pc	; <UNPREDICTABLE>
   12fc0:	00000000 	andeq	r0, r0, r0
   12fc4:	ff000000 			; <UNDEFINED> instruction: 0xff000000
   12fc8:	000000ff 	strdeq	r0, [r0], -pc	; <UNPREDICTABLE>
   12fcc:	00000000 	andeq	r0, r0, r0
   12fd0:	ff000000 			; <UNDEFINED> instruction: 0xff000000
   12fd4:	ff0000ff 			; <UNDEFINED> instruction: 0xff0000ff
   12fd8:	ff0000ff 			; <UNDEFINED> instruction: 0xff0000ff
   12fdc:	000000ff 	strdeq	r0, [r0], -pc	; <UNPREDICTABLE>
   12fe0:	ff000000 			; <UNDEFINED> instruction: 0xff000000
   12fe4:	000000ff 	strdeq	r0, [r0], -pc	; <UNPREDICTABLE>
   12fe8:	ff000000 			; <UNDEFINED> instruction: 0xff000000
   12fec:	000000ff 	strdeq	r0, [r0], -pc	; <UNPREDICTABLE>
   12ff0:	00000000 	andeq	r0, r0, r0
   12ff4:	ffffff00 			; <UNDEFINED> instruction: 0xffffff00
   12ff8:	00ffffff 	ldrshteq	pc, [pc], #255	; <UNPREDICTABLE>
	...
   130b4:	ff000000 			; <UNDEFINED> instruction: 0xff000000
   130b8:	00ffffff 	ldrshteq	pc, [pc], #255	; <UNPREDICTABLE>
	...
   130c4:	ff000000 			; <UNDEFINED> instruction: 0xff000000
   130c8:	000000ff 	strdeq	r0, [r0], -pc	; <UNPREDICTABLE>
	...
   130d4:	ffffff00 			; <UNDEFINED> instruction: 0xffffff00
   130d8:	000000ff 	strdeq	r0, [r0], -pc	; <UNPREDICTABLE>
   130dc:	00000000 	andeq	r0, r0, r0
   130e0:	ff000000 			; <UNDEFINED> instruction: 0xff000000
   130e4:	00ffffff 	ldrshteq	pc, [pc], #255	; <UNPREDICTABLE>
   130e8:	ff000000 			; <UNDEFINED> instruction: 0xff000000
   130ec:	000000ff 	strdeq	r0, [r0], -pc	; <UNPREDICTABLE>
	...
   131b4:	ff000000 			; <UNDEFINED> instruction: 0xff000000
   131b8:	00ffffff 	ldrshteq	pc, [pc], #255	; <UNPREDICTABLE>
	...
   131c4:	ff000000 			; <UNDEFINED> instruction: 0xff000000
   131c8:	000000ff 	strdeq	r0, [r0], -pc	; <UNPREDICTABLE>
	...
   131d4:	ffffff00 			; <UNDEFINED> instruction: 0xffffff00
   131d8:	000000ff 	strdeq	r0, [r0], -pc	; <UNPREDICTABLE>
   131dc:	00000000 	andeq	r0, r0, r0
   131e0:	ff000000 			; <UNDEFINED> instruction: 0xff000000
   131e4:	00ffffff 	ldrshteq	pc, [pc], #255	; <UNPREDICTABLE>
   131e8:	ff000000 			; <UNDEFINED> instruction: 0xff000000
   131ec:	000000ff 	strdeq	r0, [r0], -pc	; <UNPREDICTABLE>
	...
   132b4:	00ffff00 	rscseq	pc, pc, r0, lsl #30
	...
   132c4:	ff000000 			; <UNDEFINED> instruction: 0xff000000
   132c8:	000000ff 	strdeq	r0, [r0], -pc	; <UNPREDICTABLE>
	...
   132d8:	00ffff00 	rscseq	pc, pc, r0, lsl #30
   132dc:	00000000 	andeq	r0, r0, r0
   132e0:	00ffff00 	rscseq	pc, pc, r0, lsl #30
   132e4:	ff000000 			; <UNDEFINED> instruction: 0xff000000
   132e8:	00ffffff 	ldrshteq	pc, [pc], #255	; <UNPREDICTABLE>
	...
   133b4:	00ffff00 	rscseq	pc, pc, r0, lsl #30
	...
   133c4:	ff000000 			; <UNDEFINED> instruction: 0xff000000
   133c8:	000000ff 	strdeq	r0, [r0], -pc	; <UNPREDICTABLE>
	...
   133d8:	00ffff00 	rscseq	pc, pc, r0, lsl #30
   133dc:	00000000 	andeq	r0, r0, r0
   133e0:	00ffff00 	rscseq	pc, pc, r0, lsl #30
   133e4:	ff000000 			; <UNDEFINED> instruction: 0xff000000
   133e8:	00ffffff 	ldrshteq	pc, [pc], #255	; <UNPREDICTABLE>
	...
   13400:	ff000000 			; <UNDEFINED> instruction: 0xff000000
   13404:	ff0000ff 			; <UNDEFINED> instruction: 0xff0000ff
   13408:	00ffffff 	ldrshteq	pc, [pc], #255	; <UNPREDICTABLE>
	...
   13414:	ffffff00 			; <UNDEFINED> instruction: 0xffffff00
   13418:	ff0000ff 			; <UNDEFINED> instruction: 0xff0000ff
   1341c:	000000ff 	strdeq	r0, [r0], -pc	; <UNPREDICTABLE>
   13420:	ff000000 			; <UNDEFINED> instruction: 0xff000000
   13424:	ff0000ff 			; <UNDEFINED> instruction: 0xff0000ff
   13428:	00ffffff 	ldrshteq	pc, [pc], #255	; <UNPREDICTABLE>
	...
   13434:	ffffff00 			; <UNDEFINED> instruction: 0xffffff00
   13438:	00ffffff 	ldrshteq	pc, [pc], #255	; <UNPREDICTABLE>
	...
   13444:	ff000000 			; <UNDEFINED> instruction: 0xff000000
   13448:	000000ff 	strdeq	r0, [r0], -pc	; <UNPREDICTABLE>
	...
   134b4:	00ffff00 	rscseq	pc, pc, r0, lsl #30
	...
   134c4:	ff000000 			; <UNDEFINED> instruction: 0xff000000
   134c8:	000000ff 	strdeq	r0, [r0], -pc	; <UNPREDICTABLE>
	...
   134d8:	00ffff00 	rscseq	pc, pc, r0, lsl #30
	...
   13500:	ff000000 			; <UNDEFINED> instruction: 0xff000000
   13504:	ff0000ff 			; <UNDEFINED> instruction: 0xff0000ff
   13508:	00ffffff 	ldrshteq	pc, [pc], #255	; <UNPREDICTABLE>
	...
   13514:	ffffff00 			; <UNDEFINED> instruction: 0xffffff00
   13518:	ff0000ff 			; <UNDEFINED> instruction: 0xff0000ff
   1351c:	000000ff 	strdeq	r0, [r0], -pc	; <UNPREDICTABLE>
   13520:	ff000000 			; <UNDEFINED> instruction: 0xff000000
   13524:	ff0000ff 			; <UNDEFINED> instruction: 0xff0000ff
   13528:	00ffffff 	ldrshteq	pc, [pc], #255	; <UNPREDICTABLE>
	...
   13534:	ffffff00 			; <UNDEFINED> instruction: 0xffffff00
   13538:	00ffffff 	ldrshteq	pc, [pc], #255	; <UNPREDICTABLE>
	...
   13544:	ff000000 			; <UNDEFINED> instruction: 0xff000000
   13548:	000000ff 	strdeq	r0, [r0], -pc	; <UNPREDICTABLE>
	...
   135b4:	00ffff00 	rscseq	pc, pc, r0, lsl #30
	...
   135c4:	ff000000 			; <UNDEFINED> instruction: 0xff000000
   135c8:	000000ff 	strdeq	r0, [r0], -pc	; <UNPREDICTABLE>
	...
   135d8:	00ffff00 	rscseq	pc, pc, r0, lsl #30
	...
   13600:	ff000000 			; <UNDEFINED> instruction: 0xff000000
   13604:	00ffffff 	ldrshteq	pc, [pc], #255	; <UNPREDICTABLE>
   13608:	ff000000 			; <UNDEFINED> instruction: 0xff000000
   1360c:	000000ff 	strdeq	r0, [r0], -pc	; <UNPREDICTABLE>
   13610:	ff000000 			; <UNDEFINED> instruction: 0xff000000
   13614:	000000ff 	strdeq	r0, [r0], -pc	; <UNPREDICTABLE>
   13618:	ffffff00 			; <UNDEFINED> instruction: 0xffffff00
   1361c:	000000ff 	strdeq	r0, [r0], -pc	; <UNPREDICTABLE>
   13620:	ff000000 			; <UNDEFINED> instruction: 0xff000000
   13624:	00ffffff 	ldrshteq	pc, [pc], #255	; <UNPREDICTABLE>
   13628:	ff000000 			; <UNDEFINED> instruction: 0xff000000
   1362c:	000000ff 	strdeq	r0, [r0], -pc	; <UNPREDICTABLE>
   13630:	ff000000 			; <UNDEFINED> instruction: 0xff000000
   13634:	000000ff 	strdeq	r0, [r0], -pc	; <UNPREDICTABLE>
   13638:	ff000000 			; <UNDEFINED> instruction: 0xff000000
   1363c:	000000ff 	strdeq	r0, [r0], -pc	; <UNPREDICTABLE>
   13640:	ff000000 			; <UNDEFINED> instruction: 0xff000000
   13644:	ffffffff 			; <UNDEFINED> instruction: 0xffffffff
   13648:	ffffffff 			; <UNDEFINED> instruction: 0xffffffff
   1364c:	000000ff 	strdeq	r0, [r0], -pc	; <UNPREDICTABLE>
   13650:	ff000000 			; <UNDEFINED> instruction: 0xff000000
   13654:	000000ff 	strdeq	r0, [r0], -pc	; <UNPREDICTABLE>
   13658:	ff000000 			; <UNDEFINED> instruction: 0xff000000
   1365c:	000000ff 	strdeq	r0, [r0], -pc	; <UNPREDICTABLE>
   13660:	ff000000 			; <UNDEFINED> instruction: 0xff000000
   13664:	000000ff 	strdeq	r0, [r0], -pc	; <UNPREDICTABLE>
   13668:	ff000000 			; <UNDEFINED> instruction: 0xff000000
   1366c:	000000ff 	strdeq	r0, [r0], -pc	; <UNPREDICTABLE>
   13670:	ff000000 			; <UNDEFINED> instruction: 0xff000000
   13674:	ff0000ff 			; <UNDEFINED> instruction: 0xff0000ff
   13678:	ff0000ff 			; <UNDEFINED> instruction: 0xff0000ff
   1367c:	000000ff 	strdeq	r0, [r0], -pc	; <UNPREDICTABLE>
   13680:	ff000000 			; <UNDEFINED> instruction: 0xff000000
   13684:	000000ff 	strdeq	r0, [r0], -pc	; <UNPREDICTABLE>
   13688:	ff000000 			; <UNDEFINED> instruction: 0xff000000
   1368c:	000000ff 	strdeq	r0, [r0], -pc	; <UNPREDICTABLE>
   13690:	ff000000 			; <UNDEFINED> instruction: 0xff000000
   13694:	000000ff 	strdeq	r0, [r0], -pc	; <UNPREDICTABLE>
   13698:	ff000000 			; <UNDEFINED> instruction: 0xff000000
   1369c:	000000ff 	strdeq	r0, [r0], -pc	; <UNPREDICTABLE>
   136a0:	ff000000 			; <UNDEFINED> instruction: 0xff000000
   136a4:	ffffffff 			; <UNDEFINED> instruction: 0xffffffff
   136a8:	ffffffff 			; <UNDEFINED> instruction: 0xffffffff
   136ac:	000000ff 	strdeq	r0, [r0], -pc	; <UNPREDICTABLE>
   136b0:	ff000000 			; <UNDEFINED> instruction: 0xff000000
   136b4:	000000ff 	strdeq	r0, [r0], -pc	; <UNPREDICTABLE>
	...
   136d8:	ff000000 			; <UNDEFINED> instruction: 0xff000000
   136dc:	000000ff 	strdeq	r0, [r0], -pc	; <UNPREDICTABLE>
	...
   13700:	ff000000 			; <UNDEFINED> instruction: 0xff000000
   13704:	00ffffff 	ldrshteq	pc, [pc], #255	; <UNPREDICTABLE>
   13708:	ff000000 			; <UNDEFINED> instruction: 0xff000000
   1370c:	000000ff 	strdeq	r0, [r0], -pc	; <UNPREDICTABLE>
   13710:	ff000000 			; <UNDEFINED> instruction: 0xff000000
   13714:	000000ff 	strdeq	r0, [r0], -pc	; <UNPREDICTABLE>
   13718:	ffffff00 			; <UNDEFINED> instruction: 0xffffff00
   1371c:	000000ff 	strdeq	r0, [r0], -pc	; <UNPREDICTABLE>
   13720:	ff000000 			; <UNDEFINED> instruction: 0xff000000
   13724:	00ffffff 	ldrshteq	pc, [pc], #255	; <UNPREDICTABLE>
   13728:	ff000000 			; <UNDEFINED> instruction: 0xff000000
   1372c:	000000ff 	strdeq	r0, [r0], -pc	; <UNPREDICTABLE>
   13730:	ff000000 			; <UNDEFINED> instruction: 0xff000000
   13734:	000000ff 	strdeq	r0, [r0], -pc	; <UNPREDICTABLE>
   13738:	ff000000 			; <UNDEFINED> instruction: 0xff000000
   1373c:	000000ff 	strdeq	r0, [r0], -pc	; <UNPREDICTABLE>
   13740:	ff000000 			; <UNDEFINED> instruction: 0xff000000
   13744:	ffffffff 			; <UNDEFINED> instruction: 0xffffffff
   13748:	ffffffff 			; <UNDEFINED> instruction: 0xffffffff
   1374c:	000000ff 	strdeq	r0, [r0], -pc	; <UNPREDICTABLE>
   13750:	ff000000 			; <UNDEFINED> instruction: 0xff000000
   13754:	000000ff 	strdeq	r0, [r0], -pc	; <UNPREDICTABLE>
   13758:	ff000000 			; <UNDEFINED> instruction: 0xff000000
   1375c:	000000ff 	strdeq	r0, [r0], -pc	; <UNPREDICTABLE>
   13760:	ff000000 			; <UNDEFINED> instruction: 0xff000000
   13764:	000000ff 	strdeq	r0, [r0], -pc	; <UNPREDICTABLE>
   13768:	ff000000 			; <UNDEFINED> instruction: 0xff000000
   1376c:	000000ff 	strdeq	r0, [r0], -pc	; <UNPREDICTABLE>
   13770:	ff000000 			; <UNDEFINED> instruction: 0xff000000
   13774:	ff0000ff 			; <UNDEFINED> instruction: 0xff0000ff
   13778:	ff0000ff 			; <UNDEFINED> instruction: 0xff0000ff
   1377c:	000000ff 	strdeq	r0, [r0], -pc	; <UNPREDICTABLE>
   13780:	ff000000 			; <UNDEFINED> instruction: 0xff000000
   13784:	000000ff 	strdeq	r0, [r0], -pc	; <UNPREDICTABLE>
   13788:	ff000000 			; <UNDEFINED> instruction: 0xff000000
   1378c:	000000ff 	strdeq	r0, [r0], -pc	; <UNPREDICTABLE>
   13790:	ff000000 			; <UNDEFINED> instruction: 0xff000000
   13794:	000000ff 	strdeq	r0, [r0], -pc	; <UNPREDICTABLE>
   13798:	ff000000 			; <UNDEFINED> instruction: 0xff000000
   1379c:	000000ff 	strdeq	r0, [r0], -pc	; <UNPREDICTABLE>
   137a0:	ff000000 			; <UNDEFINED> instruction: 0xff000000
   137a4:	ffffffff 			; <UNDEFINED> instruction: 0xffffffff
   137a8:	ffffffff 			; <UNDEFINED> instruction: 0xffffffff
   137ac:	000000ff 	strdeq	r0, [r0], -pc	; <UNPREDICTABLE>
   137b0:	ff000000 			; <UNDEFINED> instruction: 0xff000000
   137b4:	000000ff 	strdeq	r0, [r0], -pc	; <UNPREDICTABLE>
	...
   137d8:	ff000000 			; <UNDEFINED> instruction: 0xff000000
   137dc:	000000ff 	strdeq	r0, [r0], -pc	; <UNPREDICTABLE>
	...
   13800:	ff000000 			; <UNDEFINED> instruction: 0xff000000
   13804:	00ffffff 	ldrshteq	pc, [pc], #255	; <UNPREDICTABLE>
   13808:	ff000000 			; <UNDEFINED> instruction: 0xff000000
   1380c:	000000ff 	strdeq	r0, [r0], -pc	; <UNPREDICTABLE>
   13810:	ff000000 			; <UNDEFINED> instruction: 0xff000000
   13814:	000000ff 	strdeq	r0, [r0], -pc	; <UNPREDICTABLE>
   13818:	ffffff00 			; <UNDEFINED> instruction: 0xffffff00
   1381c:	000000ff 	strdeq	r0, [r0], -pc	; <UNPREDICTABLE>
   13820:	ff000000 			; <UNDEFINED> instruction: 0xff000000
   13824:	000000ff 	strdeq	r0, [r0], -pc	; <UNPREDICTABLE>
	...
   13830:	ff000000 			; <UNDEFINED> instruction: 0xff000000
   13834:	ffffffff 			; <UNDEFINED> instruction: 0xffffffff
   13838:	000000ff 	strdeq	r0, [r0], -pc	; <UNPREDICTABLE>
	...
   13844:	ff000000 			; <UNDEFINED> instruction: 0xff000000
   13848:	000000ff 	strdeq	r0, [r0], -pc	; <UNPREDICTABLE>
   1384c:	00000000 	andeq	r0, r0, r0
   13850:	ff000000 			; <UNDEFINED> instruction: 0xff000000
   13854:	000000ff 	strdeq	r0, [r0], -pc	; <UNPREDICTABLE>
   13858:	ff000000 			; <UNDEFINED> instruction: 0xff000000
   1385c:	000000ff 	strdeq	r0, [r0], -pc	; <UNPREDICTABLE>
   13860:	ff000000 			; <UNDEFINED> instruction: 0xff000000
   13864:	000000ff 	strdeq	r0, [r0], -pc	; <UNPREDICTABLE>
   13868:	ff000000 			; <UNDEFINED> instruction: 0xff000000
   1386c:	000000ff 	strdeq	r0, [r0], -pc	; <UNPREDICTABLE>
   13870:	ff000000 			; <UNDEFINED> instruction: 0xff000000
   13874:	ff0000ff 			; <UNDEFINED> instruction: 0xff0000ff
   13878:	ff0000ff 			; <UNDEFINED> instruction: 0xff0000ff
   1387c:	000000ff 	strdeq	r0, [r0], -pc	; <UNPREDICTABLE>
   13880:	00000000 	andeq	r0, r0, r0
   13884:	00ffff00 	rscseq	pc, pc, r0, lsl #30
   13888:	00ffff00 	rscseq	pc, pc, r0, lsl #30
	...
   13894:	00ffff00 	rscseq	pc, pc, r0, lsl #30
   13898:	00ffff00 	rscseq	pc, pc, r0, lsl #30
	...
   138a8:	00ffff00 	rscseq	pc, pc, r0, lsl #30
	...
   138b4:	00ffff00 	rscseq	pc, pc, r0, lsl #30
	...
   138c4:	ff000000 			; <UNDEFINED> instruction: 0xff000000
   138c8:	000000ff 	strdeq	r0, [r0], -pc	; <UNPREDICTABLE>
	...
   138d8:	00ffff00 	rscseq	pc, pc, r0, lsl #30
	...
   13900:	ff000000 			; <UNDEFINED> instruction: 0xff000000
   13904:	00ffffff 	ldrshteq	pc, [pc], #255	; <UNPREDICTABLE>
   13908:	ff000000 			; <UNDEFINED> instruction: 0xff000000
   1390c:	000000ff 	strdeq	r0, [r0], -pc	; <UNPREDICTABLE>
   13910:	ff000000 			; <UNDEFINED> instruction: 0xff000000
   13914:	000000ff 	strdeq	r0, [r0], -pc	; <UNPREDICTABLE>
   13918:	ffffff00 			; <UNDEFINED> instruction: 0xffffff00
   1391c:	000000ff 	strdeq	r0, [r0], -pc	; <UNPREDICTABLE>
   13920:	ff000000 			; <UNDEFINED> instruction: 0xff000000
   13924:	000000ff 	strdeq	r0, [r0], -pc	; <UNPREDICTABLE>
	...
   13930:	ff000000 			; <UNDEFINED> instruction: 0xff000000
   13934:	ffffffff 			; <UNDEFINED> instruction: 0xffffffff
   13938:	000000ff 	strdeq	r0, [r0], -pc	; <UNPREDICTABLE>
	...
   13944:	ff000000 			; <UNDEFINED> instruction: 0xff000000
   13948:	000000ff 	strdeq	r0, [r0], -pc	; <UNPREDICTABLE>
   1394c:	00000000 	andeq	r0, r0, r0
   13950:	ff000000 			; <UNDEFINED> instruction: 0xff000000
   13954:	000000ff 	strdeq	r0, [r0], -pc	; <UNPREDICTABLE>
   13958:	ff000000 			; <UNDEFINED> instruction: 0xff000000
   1395c:	000000ff 	strdeq	r0, [r0], -pc	; <UNPREDICTABLE>
   13960:	ff000000 			; <UNDEFINED> instruction: 0xff000000
   13964:	000000ff 	strdeq	r0, [r0], -pc	; <UNPREDICTABLE>
   13968:	ff000000 			; <UNDEFINED> instruction: 0xff000000
   1396c:	000000ff 	strdeq	r0, [r0], -pc	; <UNPREDICTABLE>
   13970:	ff000000 			; <UNDEFINED> instruction: 0xff000000
   13974:	ff0000ff 			; <UNDEFINED> instruction: 0xff0000ff
   13978:	ff0000ff 			; <UNDEFINED> instruction: 0xff0000ff
   1397c:	000000ff 	strdeq	r0, [r0], -pc	; <UNPREDICTABLE>
   13980:	00000000 	andeq	r0, r0, r0
   13984:	00ffff00 	rscseq	pc, pc, r0, lsl #30
   13988:	00ffff00 	rscseq	pc, pc, r0, lsl #30
	...
   13994:	00ffff00 	rscseq	pc, pc, r0, lsl #30
   13998:	00ffff00 	rscseq	pc, pc, r0, lsl #30
	...
   139a8:	00ffff00 	rscseq	pc, pc, r0, lsl #30
	...
   139b4:	00ffff00 	rscseq	pc, pc, r0, lsl #30
	...
   139c4:	ff000000 			; <UNDEFINED> instruction: 0xff000000
   139c8:	000000ff 	strdeq	r0, [r0], -pc	; <UNPREDICTABLE>
	...
   139d8:	00ffff00 	rscseq	pc, pc, r0, lsl #30
	...
   13a00:	ff000000 			; <UNDEFINED> instruction: 0xff000000
   13a04:	ff0000ff 			; <UNDEFINED> instruction: 0xff0000ff
   13a08:	00ffffff 	ldrshteq	pc, [pc], #255	; <UNPREDICTABLE>
	...
   13a14:	ffffff00 			; <UNDEFINED> instruction: 0xffffff00
   13a18:	ff0000ff 			; <UNDEFINED> instruction: 0xff0000ff
   13a1c:	000000ff 	strdeq	r0, [r0], -pc	; <UNPREDICTABLE>
   13a20:	ff000000 			; <UNDEFINED> instruction: 0xff000000
   13a24:	000000ff 	strdeq	r0, [r0], -pc	; <UNPREDICTABLE>
	...
   13a34:	ff000000 			; <UNDEFINED> instruction: 0xff000000
   13a38:	ffffffff 			; <UNDEFINED> instruction: 0xffffffff
   13a3c:	000000ff 	strdeq	r0, [r0], -pc	; <UNPREDICTABLE>
   13a40:	00000000 	andeq	r0, r0, r0
   13a44:	ff000000 			; <UNDEFINED> instruction: 0xff000000
   13a48:	000000ff 	strdeq	r0, [r0], -pc	; <UNPREDICTABLE>
   13a4c:	00000000 	andeq	r0, r0, r0
   13a50:	ff000000 			; <UNDEFINED> instruction: 0xff000000
   13a54:	000000ff 	strdeq	r0, [r0], -pc	; <UNPREDICTABLE>
   13a58:	ff000000 			; <UNDEFINED> instruction: 0xff000000
   13a5c:	000000ff 	strdeq	r0, [r0], -pc	; <UNPREDICTABLE>
   13a60:	ff000000 			; <UNDEFINED> instruction: 0xff000000
   13a64:	000000ff 	strdeq	r0, [r0], -pc	; <UNPREDICTABLE>
   13a68:	ff000000 			; <UNDEFINED> instruction: 0xff000000
   13a6c:	000000ff 	strdeq	r0, [r0], -pc	; <UNPREDICTABLE>
   13a70:	ff000000 			; <UNDEFINED> instruction: 0xff000000
   13a74:	ff0000ff 			; <UNDEFINED> instruction: 0xff0000ff
   13a78:	ff0000ff 			; <UNDEFINED> instruction: 0xff0000ff
   13a7c:	000000ff 	strdeq	r0, [r0], -pc	; <UNPREDICTABLE>
   13a80:	00000000 	andeq	r0, r0, r0
   13a84:	ff000000 			; <UNDEFINED> instruction: 0xff000000
   13a88:	000000ff 	strdeq	r0, [r0], -pc	; <UNPREDICTABLE>
	...
   13a94:	ff000000 			; <UNDEFINED> instruction: 0xff000000
   13a98:	000000ff 	strdeq	r0, [r0], -pc	; <UNPREDICTABLE>
	...
   13aa4:	ff000000 			; <UNDEFINED> instruction: 0xff000000
   13aa8:	000000ff 	strdeq	r0, [r0], -pc	; <UNPREDICTABLE>
	...
   13ab4:	00ffff00 	rscseq	pc, pc, r0, lsl #30
	...
   13ac4:	ff000000 			; <UNDEFINED> instruction: 0xff000000
   13ac8:	000000ff 	strdeq	r0, [r0], -pc	; <UNPREDICTABLE>
	...
   13ad8:	00ffff00 	rscseq	pc, pc, r0, lsl #30
	...
   13b00:	ff000000 			; <UNDEFINED> instruction: 0xff000000
   13b04:	ff0000ff 			; <UNDEFINED> instruction: 0xff0000ff
   13b08:	00ffffff 	ldrshteq	pc, [pc], #255	; <UNPREDICTABLE>
	...
   13b14:	ffffff00 			; <UNDEFINED> instruction: 0xffffff00
   13b18:	ff0000ff 			; <UNDEFINED> instruction: 0xff0000ff
   13b1c:	000000ff 	strdeq	r0, [r0], -pc	; <UNPREDICTABLE>
   13b20:	ff000000 			; <UNDEFINED> instruction: 0xff000000
   13b24:	000000ff 	strdeq	r0, [r0], -pc	; <UNPREDICTABLE>
	...
   13b34:	ff000000 			; <UNDEFINED> instruction: 0xff000000
   13b38:	ffffffff 			; <UNDEFINED> instruction: 0xffffffff
   13b3c:	000000ff 	strdeq	r0, [r0], -pc	; <UNPREDICTABLE>
   13b40:	00000000 	andeq	r0, r0, r0
   13b44:	ff000000 			; <UNDEFINED> instruction: 0xff000000
   13b48:	000000ff 	strdeq	r0, [r0], -pc	; <UNPREDICTABLE>
   13b4c:	00000000 	andeq	r0, r0, r0
   13b50:	ff000000 			; <UNDEFINED> instruction: 0xff000000
   13b54:	000000ff 	strdeq	r0, [r0], -pc	; <UNPREDICTABLE>
   13b58:	ff000000 			; <UNDEFINED> instruction: 0xff000000
   13b5c:	000000ff 	strdeq	r0, [r0], -pc	; <UNPREDICTABLE>
   13b60:	ff000000 			; <UNDEFINED> instruction: 0xff000000
   13b64:	000000ff 	strdeq	r0, [r0], -pc	; <UNPREDICTABLE>
   13b68:	ff000000 			; <UNDEFINED> instruction: 0xff000000
   13b6c:	000000ff 	strdeq	r0, [r0], -pc	; <UNPREDICTABLE>
   13b70:	ff000000 			; <UNDEFINED> instruction: 0xff000000
   13b74:	ff0000ff 			; <UNDEFINED> instruction: 0xff0000ff
   13b78:	ff0000ff 			; <UNDEFINED> instruction: 0xff0000ff
   13b7c:	000000ff 	strdeq	r0, [r0], -pc	; <UNPREDICTABLE>
   13b80:	00000000 	andeq	r0, r0, r0
   13b84:	ff000000 			; <UNDEFINED> instruction: 0xff000000
   13b88:	000000ff 	strdeq	r0, [r0], -pc	; <UNPREDICTABLE>
	...
   13b94:	ff000000 			; <UNDEFINED> instruction: 0xff000000
   13b98:	000000ff 	strdeq	r0, [r0], -pc	; <UNPREDICTABLE>
	...
   13ba4:	ff000000 			; <UNDEFINED> instruction: 0xff000000
   13ba8:	000000ff 	strdeq	r0, [r0], -pc	; <UNPREDICTABLE>
	...
   13bb4:	00ffff00 	rscseq	pc, pc, r0, lsl #30
	...
   13bc4:	ff000000 			; <UNDEFINED> instruction: 0xff000000
   13bc8:	000000ff 	strdeq	r0, [r0], -pc	; <UNPREDICTABLE>
	...
   13bd8:	00ffff00 	rscseq	pc, pc, r0, lsl #30
	...
   13c00:	ff000000 			; <UNDEFINED> instruction: 0xff000000
   13c04:	000000ff 	strdeq	r0, [r0], -pc	; <UNPREDICTABLE>
	...
   13c18:	ff000000 			; <UNDEFINED> instruction: 0xff000000
   13c1c:	000000ff 	strdeq	r0, [r0], -pc	; <UNPREDICTABLE>
   13c20:	ff000000 			; <UNDEFINED> instruction: 0xff000000
   13c24:	000000ff 	strdeq	r0, [r0], -pc	; <UNPREDICTABLE>
	...
   13c30:	ff000000 			; <UNDEFINED> instruction: 0xff000000
   13c34:	000000ff 	strdeq	r0, [r0], -pc	; <UNPREDICTABLE>
   13c38:	ff000000 			; <UNDEFINED> instruction: 0xff000000
   13c3c:	000000ff 	strdeq	r0, [r0], -pc	; <UNPREDICTABLE>
   13c40:	00000000 	andeq	r0, r0, r0
   13c44:	ff000000 			; <UNDEFINED> instruction: 0xff000000
   13c48:	000000ff 	strdeq	r0, [r0], -pc	; <UNPREDICTABLE>
   13c4c:	00000000 	andeq	r0, r0, r0
   13c50:	ff000000 			; <UNDEFINED> instruction: 0xff000000
   13c54:	000000ff 	strdeq	r0, [r0], -pc	; <UNPREDICTABLE>
   13c58:	ffffff00 			; <UNDEFINED> instruction: 0xffffff00
   13c5c:	000000ff 	strdeq	r0, [r0], -pc	; <UNPREDICTABLE>
   13c60:	00000000 	andeq	r0, r0, r0
   13c64:	00ffff00 	rscseq	pc, pc, r0, lsl #30
   13c68:	00ffff00 	rscseq	pc, pc, r0, lsl #30
	...
   13c74:	00ffff00 	rscseq	pc, pc, r0, lsl #30
   13c78:	00ffff00 	rscseq	pc, pc, r0, lsl #30
	...
   13c84:	00ffff00 	rscseq	pc, pc, r0, lsl #30
   13c88:	00ffff00 	rscseq	pc, pc, r0, lsl #30
	...
   13c94:	ff000000 			; <UNDEFINED> instruction: 0xff000000
   13c98:	000000ff 	strdeq	r0, [r0], -pc	; <UNPREDICTABLE>
	...
   13ca4:	00ffff00 	rscseq	pc, pc, r0, lsl #30
	...
   13cb4:	00ffff00 	rscseq	pc, pc, r0, lsl #30
	...
   13cc4:	ff000000 			; <UNDEFINED> instruction: 0xff000000
   13cc8:	000000ff 	strdeq	r0, [r0], -pc	; <UNPREDICTABLE>
	...
   13cd8:	00ffff00 	rscseq	pc, pc, r0, lsl #30
	...
   13d00:	ff000000 			; <UNDEFINED> instruction: 0xff000000
   13d04:	000000ff 	strdeq	r0, [r0], -pc	; <UNPREDICTABLE>
	...
   13d18:	ff000000 			; <UNDEFINED> instruction: 0xff000000
   13d1c:	000000ff 	strdeq	r0, [r0], -pc	; <UNPREDICTABLE>
   13d20:	ff000000 			; <UNDEFINED> instruction: 0xff000000
   13d24:	000000ff 	strdeq	r0, [r0], -pc	; <UNPREDICTABLE>
	...
   13d30:	ff000000 			; <UNDEFINED> instruction: 0xff000000
   13d34:	000000ff 	strdeq	r0, [r0], -pc	; <UNPREDICTABLE>
   13d38:	ff000000 			; <UNDEFINED> instruction: 0xff000000
   13d3c:	000000ff 	strdeq	r0, [r0], -pc	; <UNPREDICTABLE>
   13d40:	00000000 	andeq	r0, r0, r0
   13d44:	ff000000 			; <UNDEFINED> instruction: 0xff000000
   13d48:	000000ff 	strdeq	r0, [r0], -pc	; <UNPREDICTABLE>
   13d4c:	00000000 	andeq	r0, r0, r0
   13d50:	ff000000 			; <UNDEFINED> instruction: 0xff000000
   13d54:	000000ff 	strdeq	r0, [r0], -pc	; <UNPREDICTABLE>
   13d58:	ffffff00 			; <UNDEFINED> instruction: 0xffffff00
   13d5c:	000000ff 	strdeq	r0, [r0], -pc	; <UNPREDICTABLE>
   13d60:	00000000 	andeq	r0, r0, r0
   13d64:	00ffff00 	rscseq	pc, pc, r0, lsl #30
   13d68:	00ffff00 	rscseq	pc, pc, r0, lsl #30
	...
   13d74:	00ffff00 	rscseq	pc, pc, r0, lsl #30
   13d78:	00ffff00 	rscseq	pc, pc, r0, lsl #30
	...
   13d84:	00ffff00 	rscseq	pc, pc, r0, lsl #30
   13d88:	00ffff00 	rscseq	pc, pc, r0, lsl #30
	...
   13d94:	ff000000 			; <UNDEFINED> instruction: 0xff000000
   13d98:	000000ff 	strdeq	r0, [r0], -pc	; <UNPREDICTABLE>
	...
   13da4:	00ffff00 	rscseq	pc, pc, r0, lsl #30
	...
   13db4:	00ffff00 	rscseq	pc, pc, r0, lsl #30
	...
   13dc4:	ff000000 			; <UNDEFINED> instruction: 0xff000000
   13dc8:	000000ff 	strdeq	r0, [r0], -pc	; <UNPREDICTABLE>
	...
   13dd8:	00ffff00 	rscseq	pc, pc, r0, lsl #30
	...
   13e00:	ff000000 			; <UNDEFINED> instruction: 0xff000000
   13e04:	000000ff 	strdeq	r0, [r0], -pc	; <UNPREDICTABLE>
	...
   13e18:	ff000000 			; <UNDEFINED> instruction: 0xff000000
   13e1c:	000000ff 	strdeq	r0, [r0], -pc	; <UNPREDICTABLE>
   13e20:	ff000000 			; <UNDEFINED> instruction: 0xff000000
   13e24:	000000ff 	strdeq	r0, [r0], -pc	; <UNPREDICTABLE>
	...
   13e34:	ffffff00 			; <UNDEFINED> instruction: 0xffffff00
   13e38:	00ffffff 	ldrshteq	pc, [pc], #255	; <UNPREDICTABLE>
	...
   13e44:	ff000000 			; <UNDEFINED> instruction: 0xff000000
   13e48:	ffffffff 			; <UNDEFINED> instruction: 0xffffffff
   13e4c:	000000ff 	strdeq	r0, [r0], -pc	; <UNPREDICTABLE>
   13e50:	00000000 	andeq	r0, r0, r0
   13e54:	ffffff00 			; <UNDEFINED> instruction: 0xffffff00
   13e58:	ff0000ff 			; <UNDEFINED> instruction: 0xff0000ff
   13e5c:	000000ff 	strdeq	r0, [r0], -pc	; <UNPREDICTABLE>
   13e60:	00000000 	andeq	r0, r0, r0
   13e64:	ff000000 			; <UNDEFINED> instruction: 0xff000000
   13e68:	000000ff 	strdeq	r0, [r0], -pc	; <UNPREDICTABLE>
	...
   13e74:	00ffff00 	rscseq	pc, pc, r0, lsl #30
   13e78:	00ffff00 	rscseq	pc, pc, r0, lsl #30
   13e7c:	00000000 	andeq	r0, r0, r0
   13e80:	ff000000 			; <UNDEFINED> instruction: 0xff000000
   13e84:	000000ff 	strdeq	r0, [r0], -pc	; <UNPREDICTABLE>
   13e88:	ff000000 			; <UNDEFINED> instruction: 0xff000000
   13e8c:	000000ff 	strdeq	r0, [r0], -pc	; <UNPREDICTABLE>
   13e90:	00000000 	andeq	r0, r0, r0
   13e94:	ff000000 			; <UNDEFINED> instruction: 0xff000000
   13e98:	000000ff 	strdeq	r0, [r0], -pc	; <UNPREDICTABLE>
   13e9c:	00000000 	andeq	r0, r0, r0
   13ea0:	ff000000 			; <UNDEFINED> instruction: 0xff000000
   13ea4:	ffffffff 			; <UNDEFINED> instruction: 0xffffffff
   13ea8:	ffffffff 			; <UNDEFINED> instruction: 0xffffffff
   13eac:	000000ff 	strdeq	r0, [r0], -pc	; <UNPREDICTABLE>
   13eb0:	00000000 	andeq	r0, r0, r0
   13eb4:	ff000000 			; <UNDEFINED> instruction: 0xff000000
   13eb8:	00ffffff 	ldrshteq	pc, [pc], #255	; <UNPREDICTABLE>
	...
   13ec4:	ff000000 			; <UNDEFINED> instruction: 0xff000000
   13ec8:	000000ff 	strdeq	r0, [r0], -pc	; <UNPREDICTABLE>
	...
   13ed4:	ffffff00 			; <UNDEFINED> instruction: 0xffffff00
   13ed8:	000000ff 	strdeq	r0, [r0], -pc	; <UNPREDICTABLE>
	...
   13f00:	ff000000 			; <UNDEFINED> instruction: 0xff000000
   13f04:	000000ff 	strdeq	r0, [r0], -pc	; <UNPREDICTABLE>
	...
   13f18:	ff000000 			; <UNDEFINED> instruction: 0xff000000
   13f1c:	000000ff 	strdeq	r0, [r0], -pc	; <UNPREDICTABLE>
   13f20:	ff000000 			; <UNDEFINED> instruction: 0xff000000
   13f24:	000000ff 	strdeq	r0, [r0], -pc	; <UNPREDICTABLE>
	...
   13f34:	ffffff00 			; <UNDEFINED> instruction: 0xffffff00
   13f38:	00ffffff 	ldrshteq	pc, [pc], #255	; <UNPREDICTABLE>
	...
   13f44:	ff000000 			; <UNDEFINED> instruction: 0xff000000
   13f48:	ffffffff 			; <UNDEFINED> instruction: 0xffffffff
   13f4c:	000000ff 	strdeq	r0, [r0], -pc	; <UNPREDICTABLE>
   13f50:	00000000 	andeq	r0, r0, r0
   13f54:	ffffff00 			; <UNDEFINED> instruction: 0xffffff00
   13f58:	ff0000ff 			; <UNDEFINED> instruction: 0xff0000ff
   13f5c:	000000ff 	strdeq	r0, [r0], -pc	; <UNPREDICTABLE>
   13f60:	00000000 	andeq	r0, r0, r0
   13f64:	ff000000 			; <UNDEFINED> instruction: 0xff000000
   13f68:	000000ff 	strdeq	r0, [r0], -pc	; <UNPREDICTABLE>
	...
   13f74:	00ffff00 	rscseq	pc, pc, r0, lsl #30
   13f78:	00ffff00 	rscseq	pc, pc, r0, lsl #30
   13f7c:	00000000 	andeq	r0, r0, r0
   13f80:	ff000000 			; <UNDEFINED> instruction: 0xff000000
   13f84:	000000ff 	strdeq	r0, [r0], -pc	; <UNPREDICTABLE>
   13f88:	ff000000 			; <UNDEFINED> instruction: 0xff000000
   13f8c:	000000ff 	strdeq	r0, [r0], -pc	; <UNPREDICTABLE>
   13f90:	00000000 	andeq	r0, r0, r0
   13f94:	ff000000 			; <UNDEFINED> instruction: 0xff000000
   13f98:	000000ff 	strdeq	r0, [r0], -pc	; <UNPREDICTABLE>
   13f9c:	00000000 	andeq	r0, r0, r0
   13fa0:	ff000000 			; <UNDEFINED> instruction: 0xff000000
   13fa4:	ffffffff 			; <UNDEFINED> instruction: 0xffffffff
   13fa8:	ffffffff 			; <UNDEFINED> instruction: 0xffffffff
   13fac:	000000ff 	strdeq	r0, [r0], -pc	; <UNPREDICTABLE>
   13fb0:	00000000 	andeq	r0, r0, r0
   13fb4:	ff000000 			; <UNDEFINED> instruction: 0xff000000
   13fb8:	00ffffff 	ldrshteq	pc, [pc], #255	; <UNPREDICTABLE>
	...
   13fc4:	ff000000 			; <UNDEFINED> instruction: 0xff000000
   13fc8:	000000ff 	strdeq	r0, [r0], -pc	; <UNPREDICTABLE>
	...
   13fd4:	ffffff00 			; <UNDEFINED> instruction: 0xffffff00
   13fd8:	000000ff 	strdeq	r0, [r0], -pc	; <UNPREDICTABLE>
	...

Disassembly of section .rodata.str1.4:

0001c000 <.rodata.str1.4>:
   1c000:	000a3d4d 	andeq	r3, sl, sp, asr #26
   1c004:	654c5f56 	strbvs	r5, [ip, #-3926]	; 0xfffff0aa
   1c008:	6874676e 	ldmdavs	r4!, {r1, r2, r3, r5, r6, r8, r9, sl, sp, lr}^
   1c00c:	00000a3d 	andeq	r0, r0, sp, lsr sl
   1c010:	2d2d2d2d 	stccs	13, cr2, [sp, #-180]!	; 0xffffff4c
   1c014:	2d2d2d2d 	stccs	13, cr2, [sp, #-180]!	; 0xffffff4c
   1c018:	2d2d2d2d 	stccs	13, cr2, [sp, #-180]!	; 0xffffff4c
   1c01c:	2d2d2d2d 	stccs	13, cr2, [sp, #-180]!	; 0xffffff4c
   1c020:	2d2d2d2d 	stccs	13, cr2, [sp, #-180]!	; 0xffffff4c
   1c024:	2d2d2d2d 	stccs	13, cr2, [sp, #-180]!	; 0xffffff4c
   1c028:	2d2d2d2d 	stccs	13, cr2, [sp, #-180]!	; 0xffffff4c
   1c02c:	2d2d2d2d 	stccs	13, cr2, [sp, #-180]!	; 0xffffff4c
   1c030:	2d2d2d2d 	stccs	13, cr2, [sp, #-180]!	; 0xffffff4c
   1c034:	2d2d2d2d 	stccs	13, cr2, [sp, #-180]!	; 0xffffff4c
   1c038:	2d2d2d2d 	stccs	13, cr2, [sp, #-180]!	; 0xffffff4c
   1c03c:	2d2d2d2d 	stccs	13, cr2, [sp, #-180]!	; 0xffffff4c
   1c040:	00000a2d 	andeq	r0, r0, sp, lsr #20
   1c044:	45524f43 	ldrbmi	r4, [r2, #-3907]	; 0xfffff0bd
   1c048:	45522030 	ldrbmi	r2, [r2, #-48]	; 0xffffffd0
   1c04c:	0a594441 	beq	166d158 <__bss_end+0x1604158>
   1c050:	00000000 	andeq	r0, r0, r0
   1c054:	4f454e20 	svcmi	0x00454e20
   1c058:	4554204e 	ldrbmi	r2, [r4, #-78]	; 0xffffffb2
   1c05c:	000a5453 	andeq	r5, sl, r3, asr r4
   1c060:	454d4954 	strbmi	r4, [sp, #-2388]	; 0xfffff6ac
   1c064:	5d736d5b 	ldclpl	13, cr6, [r3, #-364]!	; 0xfffffe94
   1c068:	00000a3d 	andeq	r0, r0, sp, lsr sl
   1c06c:	52444441 	subpl	r4, r4, #1090519040	; 0x41000000
   1c070:	3d5d305b 	ldclcc	0, cr3, [sp, #-364]	; 0xfffffe94
   1c074:	0000000a 	andeq	r0, r0, sl
   1c078:	52444441 	subpl	r4, r4, #1090519040	; 0x41000000
   1c07c:	3d5d315b 	ldfcce	f3, [sp, #-364]	; 0xfffffe94
   1c080:	0000000a 	andeq	r0, r0, sl
   1c084:	4f454e20 	svcmi	0x00454e20
   1c088:	4f44204e 	svcmi	0x0044204e
   1c08c:	000a454e 	andeq	r4, sl, lr, asr #10
   1c090:	6c69616d 	stfvse	f6, [r9], #-436	; 0xfffffe4c
   1c094:	5f786f62 	svcpl	0x00786f62
   1c098:	5f757071 	svcpl	0x00757071
   1c09c:	62616e65 	rsbvs	r6, r1, #1616	; 0x650
   1c0a0:	4620656c 	strtmi	r6, [r0], -ip, ror #10
   1c0a4:	454c4941 	strbmi	r4, [ip, #-2369]	; 0xfffff6bf
   1c0a8:	5b702044 	blpl	1c241c0 <__bss_end+0x1bbb1c0>
   1c0ac:	0a3d5d31 	beq	f73578 <__bss_end+0xf0a578>
   1c0b0:	00000000 	andeq	r0, r0, r0
   1c0b4:	6c69616d 	stfvse	f6, [r9], #-436	; 0xfffffe4c
   1c0b8:	5f786f62 	svcpl	0x00786f62
   1c0bc:	5f757071 	svcpl	0x00757071
   1c0c0:	62616e65 	rsbvs	r6, r1, #1616	; 0x650
   1c0c4:	4f20656c 	svcmi	0x0020656c
   1c0c8:	000a204b 	andeq	r2, sl, fp, asr #32
   1c0cc:	6c69616d 	stfvse	f6, [r9], #-436	; 0xfffffe4c
   1c0d0:	5f786f62 	svcpl	0x00786f62
   1c0d4:	6f6c6e75 	svcvs	0x006c6e75
   1c0d8:	6d5f6b63 	vldrvs	d22, [pc, #-396]	; 1bf54 <__rodata_start+0xff54>
   1c0dc:	726f6d65 	rsbvc	r6, pc, #6464	; 0x1940
   1c0e0:	41462079 	hvcmi	25097	; 0x6209
   1c0e4:	44454c49 	strbmi	r4, [r5], #-3145	; 0xfffff3b7
   1c0e8:	315b7020 	cmpcc	fp, r0, lsr #32
   1c0ec:	000a3d5d 	andeq	r3, sl, sp, asr sp
   1c0f0:	6c69616d 	stfvse	f6, [r9], #-436	; 0xfffffe4c
   1c0f4:	5f786f62 	svcpl	0x00786f62
   1c0f8:	6f6c6c61 	svcvs	0x006c6c61
   1c0fc:	65746163 	ldrbvs	r6, [r4, #-355]!	; 0xfffffe9d
   1c100:	6d656d5f 	stclvs	13, cr6, [r5, #-380]!	; 0xfffffe84
   1c104:	2079726f 	rsbscs	r7, r9, pc, ror #4
   1c108:	646e6168 	strbtvs	r6, [lr], #-360	; 0xfffffe98
   1c10c:	0a3d656c 	beq	f756c4 <__bss_end+0xf0c6c4>
   1c110:	00000000 	andeq	r0, r0, r0
   1c114:	6c69616d 	stfvse	f6, [r9], #-436	; 0xfffffe4c
   1c118:	5f786f62 	svcpl	0x00786f62
   1c11c:	6b636f6c 	blvs	18f7ed4 <__bss_end+0x188eed4>
   1c120:	6d656d5f 	stclvs	13, cr6, [r5, #-380]!	; 0xfffffe84
   1c124:	2079726f 	rsbscs	r7, r9, pc, ror #4
   1c128:	4c494146 	stfmie	f4, [r9], {70}	; 0x46
   1c12c:	70204445 	eorvc	r4, r0, r5, asr #8
   1c130:	3d5d315b 	ldfcce	f3, [sp, #-364]	; 0xfffffe94
   1c134:	0000000a 	andeq	r0, r0, sl
   1c138:	4c49414d 	stfmie	f4, [r9], {77}	; 0x4d
   1c13c:	5f584f42 	svcpl	0x00584f42
   1c140:	4d415246 	sfmmi	f5, 2, [r1, #-280]	; 0xfffffee8
   1c144:	46554245 	ldrbmi	r4, [r5], -r5, asr #4
   1c148:	20524546 	subscs	r4, r2, r6, asr #10
   1c14c:	6e756f63 	cdpvs	15, 7, cr6, cr5, cr3, {3}
   1c150:	000a3d74 	andeq	r3, sl, r4, ror sp
   1c154:	00203a20 	eoreq	r3, r0, r0, lsr #20

Disassembly of section .data:

0001d000 <__data_start>:
   1d000:	ffffffff 			; <UNDEFINED> instruction: 0xffffffff
   1d004:	00000000 	andeq	r0, r0, r0

0001d008 <char_table>:
   1d008:	33323130 	teqcc	r2, #48, 2
   1d00c:	37363534 			; <UNDEFINED> instruction: 0x37363534
   1d010:	42413938 	submi	r3, r1, #56, 18	; 0xe0000
   1d014:	46454443 	strbmi	r4, [r5], -r3, asr #8

0001d018 <rand_a>:
   1d018:	00000001 	andeq	r0, r0, r1

0001d01c <rand_b>:
   1d01c:	00005ba0 	andeq	r5, r0, r0, lsr #23

0001d020 <rand_c>:
   1d020:	007864cb 	rsbseq	r6, r8, fp, asr #9
   1d024:	00000000 	andeq	r0, r0, r0

0001d028 <fsintable>:
   1d028:	00000000 	andeq	r0, r0, r0
   1d02c:	3a491080 	bcc	1261234 <__bss_end+0x11f8234>
   1d030:	3ac91080 	bcc	ff261238 <__bss_end+0xff1f8238>
   1d034:	3b16cc60 	blcc	5d01bc <__bss_end+0x5671bc>
   1d038:	3b491080 	blcc	1261240 <__bss_end+0x11f8240>
   1d03c:	3b7b54a0 	blcc	1ef22c4 <__bss_end+0x1e892c4>
   1d040:	3b96cc60 	blcc	fe5d01c8 <__bss_end+0xfe5671c8>
   1d044:	3bafee70 	blcc	fec18a0c <__bss_end+0xfebafa0c>
   1d048:	3bc91080 	blcc	ff261250 <__bss_end+0xff1f8250>
   1d04c:	3be23290 	blcc	ff8a9a94 <__bss_end+0xff840a94>
   1d050:	3bfb54a0 	blcc	ffef22d8 <__bss_end+0xffe892d8>
   1d054:	3c0a3b58 	stccc	11, cr3, [sl], {88}	; 0x58
   1d058:	3c16cc60 	ldccc	12, cr12, [r6], {96}	; 0x60
   1d05c:	3c235d68 	stccc	13, cr5, [r3], #-416	; 0xfffffe60
   1d060:	3c2fee70 	stccc	14, cr14, [pc], #-448	; 1cea8 <__rodata_start+0x10ea8>
   1d064:	3c3c7f78 	ldccc	15, cr7, [ip], #-480	; 0xfffffe20
   1d068:	3c491080 	mcrrcc	0, 8, r1, r9, cr0
   1d06c:	3c559d56 	mrrccc	13, 5, r9, r5, cr6
   1d070:	3c622e5e 	stclcc	14, cr2, [r2], #-376	; 0xfffffe88
   1d074:	3c6ebf66 	stclcc	15, cr11, [lr], #-408	; 0xfffffe68
   1d078:	3c7b506e 	ldclcc	0, cr5, [fp], #-440	; 0xfffffe48
   1d07c:	3c83f0bb 	stccc	0, cr15, [r3], {187}	; 0xbb
   1d080:	3c8a393f 	stccc	9, cr3, [sl], {63}	; 0x3f
   1d084:	3c9081c3 	ldfccd	f0, [r0], {195}	; 0xc3
   1d088:	3c96ca47 	vldmiacc	r6, {s24-s94}
   1d08c:	3c9d12cb 	lfmcc	f1, 4, [sp], {203}	; 0xcb
   1d090:	3ca35936 	stccc	9, cr5, [r3], #216	; 0xd8
   1d094:	3ca9a1ba 	stfccd	f2, [r9], #744	; 0x2e8
   1d098:	3cafea3e 	vstmiacc	pc!, {s28-s89}
   1d09c:	3cb632c2 	lfmcc	f3, 4, [r6], #776	; 0x308
   1d0a0:	3cbc7b46 	vldmiacc	ip!, {d7-<overflow reg d41>}
   1d0a4:	3cc2c1b1 	stfccp	f4, [r2], {177}	; 0xb1
   1d0a8:	3cc90a35 	vstmiacc	r9, {s1-s53}
   1d0ac:	3ccf52b9 	sfmcc	f5, 2, [pc], {185}	; 0xb9
   1d0b0:	3cd59b3d 	fldmiaxcc	r5, {d25-d54}	;@ Deprecated
   1d0b4:	3cdbe1a8 	ldfccp	f6, [fp], {168}	; 0xa8
   1d0b8:	3ce22a2c 	vstmiacc	r2!, {s5-s48}
   1d0bc:	3ce872b0 	sfmcc	f7, 2, [r8], #704	; 0x2c0
   1d0c0:	3ceebb34 	vstmiacc	lr!, {d27-<overflow reg d52>}
   1d0c4:	3cf5019f 	ldfcce	f0, [r5], #636	; 0x27c
   1d0c8:	3cfb4a23 	vldmiacc	fp!, {s9-s43}
   1d0cc:	3d00c847 	stccc	8, cr12, [r0, #-284]	; 0xfffffee4
   1d0d0:	3d03ec89 	stccc	12, cr14, [r3, #-548]	; 0xfffffddc
   1d0d4:	3d0710cb 	stccc	0, cr1, [r7, #-812]	; 0xfffffcd4
   1d0d8:	3d0a3401 	cfstrscc	mvf3, [sl, #-4]
   1d0dc:	3d0d5843 	stccc	8, cr5, [sp, #-268]	; 0xfffffef4
   1d0e0:	3d107b78 	vldrcc	d7, [r0, #-480]	; 0xfffffe20
   1d0e4:	3d139fba 	ldccc	15, cr9, [r3, #-744]	; 0xfffffd18
   1d0e8:	3d16c2f0 	lfmcc	f4, 1, [r6, #-960]	; 0xfffffc40
   1d0ec:	3d19e732 	ldccc	7, cr14, [r9, #-200]	; 0xffffff38
   1d0f0:	3d1d0a67 	vldrcc	s0, [sp, #-412]	; 0xfffffe64
   1d0f4:	3d202ea9 	stccc	14, cr2, [r0, #-676]!	; 0xfffffd5c
   1d0f8:	3d2351df 	stfccs	f5, [r3, #-892]!	; 0xfffffc84
   1d0fc:	3d267514 	cfstr32cc	mvfx7, [r6, #-80]!	; 0xffffffb0
   1d100:	3d299956 	stccc	9, cr9, [r9, #-344]!	; 0xfffffea8
   1d104:	3d2cbc8c 	stccc	12, cr11, [ip, #-560]!	; 0xfffffdd0
   1d108:	3d2fdfc2 	stccc	15, cr13, [pc, #-776]!	; 1ce08 <__rodata_start+0x10e08>
   1d10c:	3d330404 	cfldrscc	mvf0, [r3, #-16]!
   1d110:	3d362739 	ldccc	7, cr2, [r6, #-228]!	; 0xffffff1c
   1d114:	3d394a6f 	vldmdbcc	r9!, {s8-s118}
   1d118:	3d3c6da4 	ldccc	13, cr6, [ip, #-656]!	; 0xfffffd70
   1d11c:	3d3f90da 	ldccc	0, cr9, [pc, #-872]!	; 1cdbc <__rodata_start+0x10dbc>
   1d120:	3d42b40f 	cfstrdcc	mvd11, [r2, #-60]	; 0xffffffc4
   1d124:	3d45d851 	stclcc	8, cr13, [r5, #-324]	; 0xfffffebc
   1d128:	3d48fb87 	vstrcc	d31, [r8, #-540]	; 0xfffffde4
   1d12c:	3d4c1ebd 	stclcc	14, cr1, [ip, #-756]	; 0xfffffd0c
   1d130:	3d4f41f2 	stfcce	f4, [pc, #-968]	; 1cd70 <__rodata_start+0x10d70>
   1d134:	3d526528 	cfldr64cc	mvdx6, [r2, #-160]	; 0xffffff60
   1d138:	3d55885d 	ldclcc	8, cr8, [r5, #-372]	; 0xfffffe8c
   1d13c:	3d58ab93 	vldrcc	d26, [r8, #-588]	; 0xfffffdb4
   1d140:	3d5bcec8 	ldclcc	14, cr12, [fp, #-800]	; 0xfffffce0
   1d144:	3d5ef0f1 	ldclcc	0, cr15, [lr, #-964]	; 0xfffffc3c
   1d148:	3d621427 	cfstrdcc	mvd1, [r2, #-156]!	; 0xffffff64
   1d14c:	3d65375d 	stclcc	7, cr3, [r5, #-372]!	; 0xfffffe8c
   1d150:	3d685a92 	vstmdbcc	r8!, {s11-s156}
   1d154:	3d6b7dc8 	stclcc	13, cr7, [fp, #-800]!	; 0xfffffce0
   1d158:	3d6e9ff1 	stclcc	15, cr9, [lr, #-964]!	; 0xfffffc3c
   1d15c:	3d71c326 	ldclcc	3, cr12, [r1, #-152]!	; 0xffffff68
   1d160:	3d74e65c 	ldclcc	6, cr14, [r4, #-368]!	; 0xfffffe90
   1d164:	3d780885 	ldclcc	8, cr0, [r8, #-532]!	; 0xfffffdec
   1d168:	3d7b2bbb 	fldmdbxcc	fp!, {d18-d110}	;@ Deprecated
   1d16c:	3d7e4de4 	ldclcc	13, cr4, [lr, #-912]!	; 0xfffffc70
   1d170:	3d80b88d 	stccc	8, cr11, [r0, #564]	; 0x234
   1d174:	3d8249a1 	stccc	9, cr4, [r2, #644]	; 0x284
   1d178:	3d83db3c 	vstrcc	d13, [r3, #240]	; 0xf0
   1d17c:	3d856c51 	stccc	12, cr6, [r5, #324]	; 0x144
   1d180:	3d86fd65 	stccc	13, cr15, [r6, #404]	; 0x194
   1d184:	3d888f00 	stccc	15, cr8, [r8]
   1d188:	3d8a2014 	stccc	0, cr2, [sl, #80]	; 0x50
   1d18c:	3d8bb129 	stfccd	f3, [fp, #164]	; 0xa4
   1d190:	3d8d423e 	sfmcc	f4, 4, [sp, #248]	; 0xf8
   1d194:	3d8ed352 	stccc	3, cr13, [lr, #328]	; 0x148
   1d198:	3d9064ed 	cfldrscc	mvf6, [r0, #948]	; 0x3b4
   1d19c:	3d91f601 	ldccc	6, cr15, [r1, #4]
   1d1a0:	3d938716 	ldccc	7, cr8, [r3, #88]	; 0x58
   1d1a4:	3d95182b 	ldccc	8, cr1, [r5, #172]	; 0xac
   1d1a8:	3d96a93f 	ldccc	9, cr10, [r6, #252]	; 0xfc
   1d1ac:	3d9839ce 	ldccc	9, cr3, [r8, #824]	; 0x338
   1d1b0:	3d99cae2 	vldrcc	s24, [r9, #904]	; 0x388
   1d1b4:	3d9b5bf7 	vldrcc	d5, [fp, #988]	; 0x3dc
   1d1b8:	3d9ced0b 	ldccc	13, cr14, [ip, #44]	; 0x2c
   1d1bc:	3d9e7e20 	ldccc	14, cr7, [lr, #128]	; 0x80
   1d1c0:	3da00eae 	stccc	14, cr0, [r0, #696]!	; 0x2b8
   1d1c4:	3da19fc3 	stccc	15, cr9, [r1, #780]!	; 0x30c
   1d1c8:	3da33051 	stccc	0, cr3, [r3, #324]!	; 0x144
   1d1cc:	3da4c166 	stfccd	f4, [r4, #408]!	; 0x198
   1d1d0:	3da651f4 	stfccs	f5, [r6, #976]!	; 0x3d0
   1d1d4:	3da7e308 	stccc	3, cr14, [r7, #32]!
   1d1d8:	3da97397 	stccc	3, cr7, [r9, #604]!	; 0x25c
   1d1dc:	3dab04ab 	cfstrscc	mvf0, [fp, #684]!	; 0x2ac
   1d1e0:	3dac953a 	cfstr32cc	mvfx9, [ip, #232]!	; 0xe8
   1d1e4:	3dae25c8 	cfstr32cc	mvfx2, [lr, #800]!	; 0x320
   1d1e8:	3dafb656 	stccc	6, cr11, [pc, #344]!	; 1d348 <fsintable+0x320>
   1d1ec:	3db146e5 	ldccc	6, cr4, [r1, #916]!	; 0x394
   1d1f0:	3db2d7f9 	ldccc	7, cr13, [r2, #996]!	; 0x3e4
   1d1f4:	3db46888 	ldccc	8, cr6, [r4, #544]!	; 0x220
   1d1f8:	3db5f916 	ldccc	9, cr15, [r5, #88]!	; 0x58
   1d1fc:	3db7891e 	ldccc	9, cr8, [r7, #120]!	; 0x78
   1d200:	3db919ac 	ldccc	9, cr1, [r9, #688]!	; 0x2b0
   1d204:	3dbaaa3b 	ldccc	10, cr10, [sl, #236]!	; 0xec
   1d208:	3dbc3ac9 	ldccc	10, cr3, [ip, #804]!	; 0x324
   1d20c:	3dbdcb58 	ldccc	11, cr12, [sp, #352]!	; 0x160
   1d210:	3dbf5b60 	ldccc	11, cr5, [pc, #384]!	; 1d398 <fsintable+0x370>
   1d214:	3dc0ebee 	vstrcc	d30, [r0, #952]	; 0x3b8
   1d218:	3dc27bf6 	vstrcc	d23, [r2, #984]	; 0x3d8
   1d21c:	3dc40c84 	stclcc	12, cr0, [r4, #528]	; 0x210
   1d220:	3dc59c8d 	stclcc	12, cr9, [r5, #564]	; 0x234
   1d224:	3dc72d1b 	stclcc	13, cr2, [r7, #108]	; 0x6c
   1d228:	3dc8bd23 	stclcc	13, cr11, [r8, #140]	; 0x8c
   1d22c:	3dca4d2b 	stclcc	13, cr4, [sl, #172]	; 0xac
   1d230:	3dcbddba 	stclcc	13, cr13, [fp, #744]	; 0x2e8
   1d234:	3dcd6dc2 	stclcc	13, cr6, [sp, #776]	; 0x308
   1d238:	3dcefdca 	stclcc	13, cr15, [lr, #808]	; 0x328
   1d23c:	3dd08dd2 	ldclcc	13, cr8, [r0, #840]	; 0x348
   1d240:	3dd21dda 	ldclcc	13, cr1, [r2, #872]	; 0x368
   1d244:	3dd3ade2 	ldclcc	13, cr10, [r3, #904]	; 0x388
   1d248:	3dd53dea 	ldclcc	13, cr3, [r5, #936]	; 0x3a8
   1d24c:	3dd6cd6c 	ldclcc	13, cr12, [r6, #432]	; 0x1b0
   1d250:	3dd85d74 	ldclcc	13, cr5, [r8, #464]	; 0x1d0
   1d254:	3dd9ed7c 	ldclcc	13, cr14, [r9, #496]	; 0x1f0
   1d258:	3ddb7cfe 	ldclcc	12, cr7, [fp, #1016]	; 0x3f8
   1d25c:	3ddd0d06 	ldclcc	13, cr0, [sp, #24]
   1d260:	3dde9c88 	ldclcc	12, cr9, [lr, #544]	; 0x220
   1d264:	3de02c91 	stclcc	12, cr2, [r0, #580]!	; 0x244
   1d268:	3de1bc12 	stclcc	12, cr11, [r1, #72]!	; 0x48
   1d26c:	3de34b94 	stclcc	11, cr4, [r3, #592]!	; 0x250
   1d270:	3de4db9c 	stclcc	11, cr13, [r4, #624]!	; 0x270
   1d274:	3de66b1e 	stclcc	11, cr6, [r6, #120]!	; 0x78
   1d278:	3de7faa0 	stclcc	10, cr15, [r7, #640]!	; 0x280
   1d27c:	3de98a22 	stclcc	10, cr8, [r9, #136]!	; 0x88
   1d280:	3deb19a4 	stclcc	9, cr1, [fp, #656]!	; 0x290
   1d284:	3deca926 	stclcc	9, cr10, [ip, #152]!	; 0x98
   1d288:	3dee38a8 	stclcc	8, cr3, [lr, #672]!	; 0x2a0
   1d28c:	3defc7a4 	stclcc	7, cr12, [pc, #656]!	; 1d524 <fsintable+0x4fc>
   1d290:	3df15726 	ldclcc	7, cr5, [r1, #152]!	; 0x98
   1d294:	3df2e6a7 	ldclcc	6, cr14, [r2, #668]!	; 0x29c
   1d298:	3df475a3 	cfldr64cc	mvdx7, [r4, #652]!	; 0x28c
   1d29c:	3df60525 	cfldr64cc	mvdx0, [r6, #148]!	; 0x94
   1d2a0:	3df79421 	cfldrdcc	mvd9, [r7, #132]!	; 0x84
   1d2a4:	3df9231c 	ldclcc	3, cr2, [r9, #112]!	; 0x70
   1d2a8:	3dfab29e 	lfmcc	f3, 3, [sl, #632]!	; 0x278
   1d2ac:	3dfc419a 	ldfcce	f4, [ip, #616]!	; 0x268
   1d2b0:	3dfdd096 	ldclcc	0, cr13, [sp, #600]!	; 0x258
   1d2b4:	3dff5f91 	ldclcc	15, cr5, [pc, #580]!	; 1d500 <fsintable+0x4d8>
   1d2b8:	3e007747 	cdpcc	7, 0, cr7, cr0, cr7, {2}
   1d2bc:	3e013ec4 	cdpcc	14, 0, cr3, cr1, cr4, {6}
   1d2c0:	3e020642 	cfmadd32cc	mvax2, mvfx0, mvfx2, mvfx2
   1d2c4:	3e02cd7d 	mcrcc	13, 0, ip, cr2, cr13, {3}
   1d2c8:	3e0394fb 	mcrcc	4, 0, r9, cr3, cr11, {7}
   1d2cc:	3e045c79 	mcrcc	12, 0, r5, cr4, cr9, {3}
   1d2d0:	3e0523b3 	mcrcc	3, 0, r2, cr5, cr3, {5}
   1d2d4:	3e05eb31 	vmovcc.16	d5[0], lr
   1d2d8:	3e06b26c 	cdpcc	2, 0, cr11, cr6, cr12, {3}
   1d2dc:	3e0779a7 	cdpcc	9, 0, cr7, cr7, cr7, {5}
   1d2e0:	3e084125 	adfccep	f4, f0, f5
   1d2e4:	3e09085f 	mcrcc	8, 0, r0, cr9, cr15, {2}
   1d2e8:	3e09cf9a 	mcrcc	15, 0, ip, cr9, cr10, {4}
   1d2ec:	3e0a96d5 	mcrcc	6, 0, r9, cr10, cr5, {6}
   1d2f0:	3e0b5e0f 	cdpcc	14, 0, cr5, cr11, cr15, {0}
   1d2f4:	3e0c2507 	cfsh32cc	mvfx2, mvfx12, #7
   1d2f8:	3e0cec42 	cdpcc	12, 0, cr14, cr12, cr2, {2}
   1d2fc:	3e0db37d 	mcrcc	3, 0, fp, cr13, cr13, {3}
   1d300:	3e0e7a74 	mcrcc	10, 0, r7, cr14, cr4, {3}
   1d304:	3e0f41af 	adfcc<illegal precision>p	f4, f7, #10.0
   1d308:	3e1008a7 	cdpcc	8, 1, cr0, cr0, cr7, {5}
   1d30c:	3e10cfe1 	cdpcc	15, 1, cr12, cr0, cr1, {7}
   1d310:	3e1196d9 	mrccc	6, 0, r9, cr1, cr9, {6}
   1d314:	3e125dd1 	mrccc	13, 0, r5, cr2, cr1, {6}
   1d318:	3e1324c8 	cdpcc	4, 1, cr2, cr3, cr8, {6}
   1d31c:	3e13ebc0 	vnmlacc.f64	d14, d19, d0
   1d320:	3e14b2b7 	mrccc	2, 0, fp, cr4, cr7, {5}
   1d324:	3e1579af 	cdpcc	9, 1, cr7, cr5, cr15, {5}
   1d328:	3e164064 	cdpcc	0, 1, cr4, cr6, cr4, {3}
   1d32c:	3e17075b 	mrccc	7, 0, r0, cr7, cr11, {2}
   1d330:	3e17ce53 	mrccc	14, 0, ip, cr7, cr3, {2}
   1d334:	3e189507 	cfmul32cc	mvfx9, mvfx8, mvfx7
   1d338:	3e195bff 	vmovcc.s16	r5, d25[1]
   1d33c:	3e1a22b4 	mrccc	2, 0, r2, cr10, cr4, {5}
   1d340:	3e1ae968 	cdpcc	9, 1, cr14, cr10, cr8, {3}
   1d344:	3e1bb01d 	mrccc	0, 0, fp, cr11, cr13, {0}
   1d348:	3e1c76d1 	mrccc	6, 0, r7, cr12, cr1, {6}
   1d34c:	3e1d3d86 	cdpcc	13, 1, cr3, cr13, cr6, {4}
   1d350:	3e1e043a 	mrccc	4, 0, r0, cr14, cr10, {1}
   1d354:	3e1ecaef 	vnmlacc.f32	s24, s29, s31
   1d358:	3e1f9160 	mnfccez	f1, f0
   1d35c:	3e205815 	mcrcc	8, 1, r5, cr0, cr5, {0}
   1d360:	3e211e86 	cdpcc	14, 2, cr1, cr1, cr6, {4}
   1d364:	3e21e53b 	mcrcc	5, 1, lr, cr1, cr11, {1}
   1d368:	3e22abac 	vmulcc.f64	d10, d18, d28
   1d36c:	3e23721d 	mcrcc	2, 1, r7, cr3, cr13, {0}
   1d370:	3e24388f 	cdpcc	8, 2, cr3, cr4, cr15, {4}
   1d374:	3e24ff00 	cdpcc	15, 2, cr15, cr4, cr0, {0}
   1d378:	3e25c572 	mcrcc	5, 1, ip, cr5, cr2, {3}
   1d37c:	3e268be3 	vnmulcc.f64	d8, d22, d19
   1d380:	3e275254 	mcrcc	2, 1, r5, cr7, cr4, {2}
   1d384:	3e2818c6 	cdpcc	8, 2, cr1, cr8, cr6, {6}
   1d388:	3e28def4 	mcrcc	14, 1, sp, cr8, cr4, {7}
   1d38c:	3e29a565 	cfsh64cc	mvdx10, mvdx9, #53
   1d390:	3e2a6b94 	vmovcc.32	d26[1], r6
   1d394:	3e2b31c2 	sufcc<illegal precision>m	f3, f3, f2
   1d398:	3e2bf7f0 	mcrcc	7, 1, pc, cr11, cr0, {7}	; <UNPREDICTABLE>
   1d39c:	3e2cbe1f 	mcrcc	14, 1, fp, cr12, cr15, {0}
   1d3a0:	3e2d844d 	cdpcc	4, 2, cr8, cr13, cr13, {2}
   1d3a4:	3e2e4a7b 	mcrcc	10, 1, r4, cr14, cr11, {3}
   1d3a8:	3e2f10aa 	cdpcc	0, 2, cr1, cr15, cr10, {5}
   1d3ac:	3e2fd6d8 	mcrcc	6, 1, sp, cr15, cr8, {6}
   1d3b0:	3e309cc3 	cdpcc	12, 3, cr9, cr0, cr3, {6}
   1d3b4:	3e3162f1 	mrccc	2, 1, r6, cr1, cr1, {7}
   1d3b8:	3e3228dd 	mrccc	8, 1, r2, cr2, cr13, {6}
   1d3bc:	3e32eec8 	cdpcc	14, 3, cr14, cr2, cr8, {6}
   1d3c0:	3e33b4b3 	mrccc	4, 1, fp, cr3, cr3, {5}
   1d3c4:	3e347a9e 	mrccc	10, 1, r7, cr4, cr14, {4}
   1d3c8:	3e354089 	cdpcc	0, 3, cr4, cr5, cr9, {4}
   1d3cc:	3e360675 	mrccc	6, 1, r0, cr6, cr5, {3}
   1d3d0:	3e36cc60 	cdpcc	12, 3, cr12, cr6, cr0, {3}
   1d3d4:	3e379208 	cdpcc	2, 3, cr9, cr7, cr8, {0}
   1d3d8:	3e3857f3 	mrccc	7, 1, r5, cr8, cr3, {7}
   1d3dc:	3e391d9b 	mrccc	13, 1, r1, cr9, cr11, {4}
   1d3e0:	3e39e386 	cdpcc	3, 3, cr14, cr9, cr6, {4}
   1d3e4:	3e3aa92e 	cdpcc	9, 3, cr10, cr10, cr14, {1}
   1d3e8:	3e3b6ed6 	mrccc	14, 1, r6, cr11, cr6, {6}
   1d3ec:	3e3c347f 	mrccc	4, 1, r3, cr12, cr15, {3}
   1d3f0:	3e3cfa27 	vaddcc.f32	s30, s24, s15
   1d3f4:	3e3dbf8c 	cdpcc	15, 3, cr11, cr13, cr12, {4}
   1d3f8:	3e3e8534 	mrccc	5, 1, r8, cr14, cr4, {1}
   1d3fc:	3e3f4adc 	mrccc	10, 1, r4, cr15, cr12, {6}
   1d400:	3e401041 	cdpcc	0, 4, cr1, cr0, cr1, {2}
   1d404:	3e40d5a6 	cdpcc	5, 4, cr13, cr0, cr6, {5}
   1d408:	3e419b4e 	vmlscc.f64	d25, d1, d14
   1d40c:	3e4260b3 	mcrcc	0, 2, r6, cr2, cr3, {5}
   1d410:	3e432618 	mcrcc	6, 2, r2, cr3, cr8, {0}
   1d414:	3e43eb7d 	vmovcc.8	d3[3], lr
   1d418:	3e44b09f 	mcrcc	0, 2, fp, cr4, cr15, {4}
   1d41c:	3e457604 	cdpcc	6, 4, cr7, cr5, cr4, {0}
   1d420:	3e463b69 	vmlscc.f64	d19, d6, d25
   1d424:	3e47008a 	cdpcc	0, 4, cr0, cr7, cr10, {4}
   1d428:	3e47c5ac 	cdpcc	5, 4, cr12, cr7, cr12, {5}
   1d42c:	3e488b11 	vmovcc.8	d8[0], r8
   1d430:	3e495033 	mcrcc	0, 2, r5, cr9, cr3, {1}
   1d434:	3e4a1555 	mcrcc	5, 2, r1, cr10, cr5, {2}
   1d438:	3e4ada34 	mcrcc	10, 2, sp, cr10, cr4, {1}
   1d43c:	3e4b9f56 	mcrcc	15, 2, r9, cr11, cr6, {2}
   1d440:	3e4c6477 	mcrcc	4, 2, r6, cr12, cr7, {3}
   1d444:	3e4d2956 	mcrcc	9, 2, r2, cr13, cr6, {2}
   1d448:	3e4dee78 	mcrcc	14, 2, lr, cr13, cr8, {3}
   1d44c:	3e4eb357 	mcrcc	3, 2, fp, cr14, cr7, {2}
   1d450:	3e4f7836 	mcrcc	8, 2, r7, cr15, cr6, {1}
   1d454:	3e503d14 	mrccc	13, 2, r3, cr0, cr4, {0}
   1d458:	3e5101f3 	mrccc	1, 2, r0, cr1, cr3, {7}
   1d45c:	3e51c6d2 	mrccc	6, 2, ip, cr1, cr2, {6}
   1d460:	3e528b6e 	vnmlacc.f64	d24, d2, d30
   1d464:	3e53504c 	cdpcc	0, 5, cr5, cr3, cr12, {2}
   1d468:	3e5414e8 	cdpcc	4, 5, cr1, cr4, cr8, {7}
   1d46c:	3e54d9c7 	cdpcc	9, 5, cr13, cr4, cr7, {6}
   1d470:	3e559e62 	cdpcc	14, 5, cr9, cr5, cr2, {3}
   1d474:	3e5662fe 	mrccc	2, 2, r6, cr6, cr14, {7}
   1d478:	3e57279a 	mrccc	7, 2, r2, cr7, cr10, {4}
   1d47c:	3e57ec35 	mrccc	12, 2, lr, cr7, cr5, {1}
   1d480:	3e58b08e 	cdpcc	0, 5, cr11, cr8, cr14, {4}
   1d484:	3e597529 	cdpcc	5, 5, cr7, cr9, cr9, {1}
   1d488:	3e5a3982 	cdpcc	9, 5, cr3, cr10, cr2, {4}
   1d48c:	3e5afe1e 	mrccc	14, 2, APSR_nzcv, cr10, cr14, {0}
   1d490:	3e5bc276 	mrccc	2, 2, ip, cr11, cr6, {3}
   1d494:	3e5c86cf 	cdpcc	6, 5, cr8, cr12, cr15, {6}
   1d498:	3e5d4b27 	vnmlscc.f64	d20, d13, d23
   1d49c:	3e5e0f80 	cdpcc	15, 5, cr0, cr14, cr0, {4}
   1d4a0:	3e5ed395 	mrccc	3, 2, sp, cr14, cr5, {4}
   1d4a4:	3e5f97ee 	cdpcc	7, 5, cr9, cr15, cr14, {7}
   1d4a8:	3e605c03 	cdpcc	12, 6, cr5, cr0, cr3, {0}
   1d4ac:	3e61205c 	mcrcc	0, 3, r2, cr1, cr12, {2}
   1d4b0:	3e61e471 	mcrcc	4, 3, lr, cr1, cr1, {3}
   1d4b4:	3e62a887 	cdpcc	8, 6, cr10, cr2, cr7, {4}
   1d4b8:	3e636c9c 	mcrcc	12, 3, r6, cr3, cr12, {4}
   1d4bc:	3e64306e 	cdpcc	0, 6, cr3, cr4, cr14, {3}
   1d4c0:	3e64f484 	cdpcc	4, 6, cr15, cr4, cr4, {4}
   1d4c4:	3e65b899 	mcrcc	8, 3, fp, cr5, cr9, {4}
   1d4c8:	3e667c6c 	cdpcc	12, 6, cr7, cr6, cr12, {3}
   1d4cc:	3e67403e 	mcrcc	0, 3, r4, cr7, cr14, {1}
   1d4d0:	3e680410 	mcrcc	4, 3, r0, cr8, cr0, {0}
   1d4d4:	3e68c7e3 	cdpcc	7, 6, cr12, cr8, cr3, {7}
   1d4d8:	3e698bb5 	vmovcc.8	d25[5], r8
   1d4dc:	3e6a4f87 	cdpcc	15, 6, cr4, cr10, cr7, {4}
   1d4e0:	3e6b1316 	mcrcc	3, 3, r1, cr11, cr6, {0}
   1d4e4:	3e6bd6e9 	cdpcc	6, 6, cr13, cr11, cr9, {7}
   1d4e8:	3e6c9a78 	mcrcc	10, 3, r9, cr12, cr8, {3}
   1d4ec:	3e6d5e07 	cdpcc	14, 6, cr5, cr13, cr7, {0}
   1d4f0:	3e6e2196 	mcrcc	1, 3, r2, cr14, cr6, {4}
   1d4f4:	3e6ee526 	cdpcc	5, 6, cr14, cr14, cr6, {1}
   1d4f8:	3e6fa8b5 	mcrcc	8, 3, sl, cr15, cr5, {5}
   1d4fc:	3e706c44 	cdpcc	12, 7, cr6, cr0, cr4, {2}
   1d500:	3e712f90 	mrccc	15, 3, r2, cr1, cr0, {4}
   1d504:	3e71f2dc 	mrccc	2, 3, APSR_nzcv, cr1, cr12, {6}
   1d508:	3e72b66b 	cdpcc	6, 7, cr11, cr2, cr11, {3}
   1d50c:	3e7379b7 	mrccc	9, 3, r7, cr3, cr7, {5}
   1d510:	3e743d04 	cdpcc	13, 7, cr3, cr4, cr4, {0}
   1d514:	3e75000d 	cdpcc	0, 7, cr0, cr5, cr13, {0}
   1d518:	3e75c359 	mrccc	3, 3, ip, cr5, cr9, {2}
   1d51c:	3e7686a5 	cdpcc	6, 7, cr8, cr6, cr5, {5}
   1d520:	3e7749ae 	cdpcc	9, 7, cr4, cr7, cr14, {5}
   1d524:	3e780cb7 	mrccc	12, 3, r0, cr8, cr7, {5}
   1d528:	3e78cfc0 	cdpcc	15, 7, cr12, cr8, cr0, {6}
   1d52c:	3e7992c9 	cdpcc	2, 7, cr9, cr9, cr9, {6}
   1d530:	3e7a55d2 	mrccc	5, 3, r5, cr10, cr2, {6}
   1d534:	3e7b18db 	mrccc	8, 3, r1, cr11, cr11, {6}
   1d538:	3e7bdba1 	vaddcc.f64	d29, d27, d17
   1d53c:	3e7c9e67 	cdpcc	14, 7, cr9, cr12, cr7, {3}
   1d540:	3e7d6170 	mrccc	1, 3, r6, cr13, cr0, {3}
   1d544:	3e7e2435 	mrccc	4, 3, r2, cr14, cr5, {1}
   1d548:	3e7ee6fb 	mrccc	6, 3, lr, cr14, cr11, {7}
   1d54c:	3e7fa97e 	mrccc	9, 3, sl, cr15, cr14, {3}
   1d550:	3e803622 	cdpcc	6, 8, cr3, cr0, cr2, {1}
   1d554:	3e809763 	cdpcc	7, 8, cr9, cr0, cr3, {3}
   1d558:	3e80f8c6 	cdpcc	8, 8, cr15, cr0, cr6, {6}
   1d55c:	3e815a08 	vdivcc.f32	s10, s2, s16
   1d560:	3e81bb49 	cdpcc	11, 8, cr11, cr1, cr9, {2}
   1d564:	3e821c8a 	cdpcc	12, 8, cr1, cr2, cr10, {4}
   1d568:	3e827dcc 	cdpcc	13, 8, cr7, cr2, cr12, {6}
   1d56c:	3e82deec 	cdpcc	14, 8, cr13, cr2, cr12, {7}
   1d570:	3e83402d 	cdpcc	0, 8, cr4, cr3, cr13, {1}
   1d574:	3e83a14d 	sinccsm	f2, #5.0
   1d578:	3e84026d 	cdpcc	2, 8, cr0, cr4, cr13, {3}
   1d57c:	3e84638d 	cdpcc	3, 8, cr6, cr4, cr13, {4}
   1d580:	3e84c4ac 	cdpcc	4, 8, cr12, cr4, cr12, {5}
   1d584:	3e8525cc 	cdpcc	5, 8, cr2, cr5, cr12, {6}
   1d588:	3e8586cb 	cdpcc	6, 8, cr8, cr5, cr11, {6}
   1d58c:	3e85e7c9 	cdpcc	7, 8, cr14, cr5, cr9, {6}
   1d590:	3e8648e9 	cdpcc	8, 8, cr4, cr6, cr9, {7}
   1d594:	3e86a9e7 	cdpcc	9, 8, cr10, cr6, cr7, {7}
   1d598:	3e870ae5 	cdpcc	10, 8, cr0, cr7, cr5, {7}
   1d59c:	3e876bc2 	cdpcc	11, 8, cr6, cr7, cr2, {6}
   1d5a0:	3e87ccc0 	cdpcc	12, 8, cr12, cr7, cr0, {6}
   1d5a4:	3e882d9d 	mcrcc	13, 4, r2, cr8, cr13, {4}
   1d5a8:	3e888e9b 	mcrcc	14, 4, r8, cr8, cr11, {4}
   1d5ac:	3e88ef78 	mcrcc	15, 4, lr, cr8, cr8, {3}
   1d5b0:	3e895055 	mcrcc	0, 4, r5, cr9, cr5, {2}
   1d5b4:	3e89b131 	mcrcc	1, 4, fp, cr9, cr1, {1}
   1d5b8:	3e8a11ed 	rmfcc<illegal precision>z	f1, f2, #5.0
   1d5bc:	3e8a72c9 	cdpcc	2, 8, cr7, cr10, cr9, {6}
   1d5c0:	3e8ad384 	cdpcc	3, 8, cr13, cr10, cr4, {4}
   1d5c4:	3e8b3440 	cdpcc	4, 8, cr3, cr11, cr0, {2}
   1d5c8:	3e8b94fb 	mcrcc	4, 4, r9, cr11, cr11, {7}
   1d5cc:	3e8bf5b6 	mcrcc	5, 4, pc, cr11, cr6, {5}	; <UNPREDICTABLE>
   1d5d0:	3e8c5671 	mcrcc	6, 4, r5, cr12, cr1, {3}
   1d5d4:	3e8cb70b 	cdpcc	7, 8, cr11, cr12, cr11, {0}
   1d5d8:	3e8d17c6 	cdpcc	7, 8, cr1, cr13, cr6, {6}
   1d5dc:	3e8d7860 	cdpcc	8, 8, cr7, cr13, cr0, {3}
   1d5e0:	3e8dd8f9 	mcrcc	8, 4, sp, cr13, cr9, {7}
   1d5e4:	3e8e3993 	mcrcc	9, 4, r3, cr14, cr3, {4}
   1d5e8:	3e8e9a2c 	vdivcc.f32	s18, s28, s25
   1d5ec:	3e8efaa4 	vdivcc.f32	s30, s29, s9
   1d5f0:	3e8f5b3e 	vdupcc.16	d15, r5
   1d5f4:	3e8fbbb6 	vdupcc.16	d31, fp
   1d5f8:	3e901c2e 	cdpcc	12, 9, cr1, cr0, cr14, {1}
   1d5fc:	3e907ca6 	cdpcc	12, 9, cr7, cr0, cr6, {5}
   1d600:	3e90dd1e 	mrccc	13, 4, sp, cr0, cr14, {0}
   1d604:	3e913d75 	mrccc	13, 4, r3, cr1, cr5, {3}
   1d608:	3e919ded 	cdpcc	13, 9, cr9, cr1, cr13, {7}
   1d60c:	3e91fe43 	cdpcc	14, 9, cr15, cr1, cr3, {2}
   1d610:	3e925e9a 	mrccc	14, 4, r5, cr2, cr10, {4}
   1d614:	3e92bef0 	mrccc	14, 4, fp, cr2, cr0, {7}
   1d618:	3e931f25 	cdpcc	15, 9, cr1, cr3, cr5, {1}
   1d61c:	3e937f7c 	mrccc	15, 4, r7, cr3, cr12, {3}
   1d620:	3e93dfb1 	mrccc	15, 4, sp, cr3, cr1, {5}
   1d624:	3e944007 	cdpcc	0, 9, cr4, cr4, cr7, {0}
   1d628:	3e94a03c 	mrccc	0, 4, sl, cr4, cr12, {1}
   1d62c:	3e950071 	mrccc	0, 4, r0, cr5, cr1, {3}
   1d630:	3e956085 	cdpcc	0, 9, cr6, cr5, cr5, {4}
   1d634:	3e95c0ba 	mrccc	0, 4, ip, cr5, cr10, {5}
   1d638:	3e9620cd 	cdpcc	0, 9, cr2, cr6, cr13, {6}
   1d63c:	3e9680e0 	cdpcc	0, 9, cr8, cr6, cr0, {7}
   1d640:	3e96e0f4 	mrccc	0, 4, lr, cr6, cr4, {7}
   1d644:	3e974107 	fmlccs	f4, f7, f7
   1d648:	3e97a11b 	mrccc	1, 4, sl, cr7, cr11, {0}
   1d64c:	3e98010c 	fmlcce	f0, f0, #4.0
   1d650:	3e986120 	fmlccep	f6, f0, f0
   1d654:	3e98c112 	mrccc	1, 4, ip, cr8, cr2, {0}
   1d658:	3e992104 	fmlcce	f2, f1, f4
   1d65c:	3e9980f5 	mrccc	0, 4, r8, cr9, cr5, {7}
   1d660:	3e99e0c6 	cdpcc	0, 9, cr14, cr9, cr6, {6}
   1d664:	3e9a40b8 	mrccc	0, 4, r4, cr10, cr8, {5}
   1d668:	3e9aa088 	cdpcc	0, 9, cr10, cr10, cr8, {4}
   1d66c:	3e9b0058 	mrccc	0, 4, r0, cr11, cr8, {2}
   1d670:	3e9b6028 	cdpcc	0, 9, cr6, cr11, cr8, {1}
   1d674:	3e9bbff9 	mrccc	15, 4, fp, cr11, cr9, {7}
   1d678:	3e9c1fa7 	cdpcc	15, 9, cr1, cr12, cr7, {5}
   1d67c:	3e9c7f78 	mrccc	15, 4, r7, cr12, cr8, {3}
   1d680:	3e9cdf26 	cdpcc	15, 9, cr13, cr12, cr6, {1}
   1d684:	3e9d3ed5 	mrccc	14, 4, r3, cr13, cr5, {6}
   1d688:	3e9d9e84 	cdpcc	14, 9, cr9, cr13, cr4, {4}
   1d68c:	3e9dfe11 	mrccc	14, 4, APSR_nzcv, cr13, cr1, {0}
   1d690:	3e9e5dc0 	cdpcc	13, 9, cr5, cr14, cr0, {6}
   1d694:	3e9ebd4d 	cdpcc	13, 9, cr11, cr14, cr13, {2}
   1d698:	3e9f1cda 	mrccc	12, 4, r1, cr15, cr10, {6}
   1d69c:	3e9f7c67 	cdpcc	12, 9, cr7, cr15, cr7, {3}
   1d6a0:	3e9fdbf5 	vmovcc.u16	sp, d31[1]
   1d6a4:	3ea03b60 	vfmscc.f64	d3, d0, d16
   1d6a8:	3ea09aed 	vfmscc.f32	s18, s1, s27
   1d6ac:	3ea0fa59 	mcrcc	10, 5, pc, cr0, cr9, {2}	; <UNPREDICTABLE>
   1d6b0:	3ea159c5 	cdpcc	9, 10, cr5, cr1, cr5, {6}
   1d6b4:	3ea1b930 	mcrcc	9, 5, fp, cr1, cr0, {1}
   1d6b8:	3ea2187a 	mcrcc	8, 5, r1, cr2, cr10, {3}
   1d6bc:	3ea277e6 	cdpcc	7, 10, cr7, cr2, cr6, {7}
   1d6c0:	3ea2d730 	mcrcc	7, 5, sp, cr2, cr0, {1}
   1d6c4:	3ea3367a 	mcrcc	6, 5, r3, cr3, cr10, {3}
   1d6c8:	3ea395c4 	cdpcc	5, 10, cr9, cr3, cr4, {6}
   1d6cc:	3ea3f50e 	cdpcc	5, 10, cr15, cr3, cr14, {0}
   1d6d0:	3ea45437 	mcrcc	4, 5, r5, cr4, cr7, {1}
   1d6d4:	3ea4b381 	cdpcc	3, 10, cr11, cr4, cr1, {4}
   1d6d8:	3ea512a9 	cdpcc	2, 10, cr1, cr5, cr9, {5}
   1d6dc:	3ea571d2 	mcrcc	1, 5, r7, cr5, cr2, {6}
   1d6e0:	3ea5d0d9 	mcrcc	0, 5, sp, cr5, cr9, {6}
   1d6e4:	3ea63001 	cdpcc	0, 10, cr3, cr6, cr1, {0}
   1d6e8:	3ea68f08 	cdpcc	15, 10, cr8, cr6, cr8, {0}
   1d6ec:	3ea6ee0f 	cdpcc	14, 10, cr14, cr6, cr15, {0}
   1d6f0:	3ea74d16 	mcrcc	13, 5, r4, cr7, cr6, {0}
   1d6f4:	3ea7ac1d 	mcrcc	12, 5, sl, cr7, cr13, {0}
   1d6f8:	3ea80b24 	vfmacc.f64	d0, d8, d20
   1d6fc:	3ea86a0a 	vfmacc.f32	s12, s16, s20
   1d700:	3ea8c8ef 	cdpcc	8, 10, cr12, cr8, cr15, {7}
   1d704:	3ea927d4 	mcrcc	7, 5, r2, cr9, cr4, {6}
   1d708:	3ea986ba 	mcrcc	6, 5, r8, cr9, cr10, {5}
   1d70c:	3ea9e59f 	mcrcc	5, 5, lr, cr9, cr15, {4}
   1d710:	3eaa4463 	cdpcc	4, 10, cr4, cr10, cr3, {3}
   1d714:	3eaaa348 	cdpcc	3, 10, cr10, cr10, cr8, {2}
   1d718:	3eab020c 	cdpcc	2, 10, cr0, cr11, cr12, {0}
   1d71c:	3eab60af 	cdpcc	0, 10, cr6, cr11, cr15, {5}
   1d720:	3eabbf72 	mcrcc	15, 5, fp, cr11, cr2, {3}
   1d724:	3eac1e36 	mcrcc	14, 5, r1, cr12, cr6, {1}
   1d728:	3eac7cd9 	mcrcc	12, 5, r7, cr12, cr9, {6}
   1d72c:	3eacdb7b 	mcrcc	11, 5, sp, cr12, cr11, {3}
   1d730:	3ead3a1d 	mcrcc	10, 5, r3, cr13, cr13, {0}
   1d734:	3ead989e 	mcrcc	8, 5, r9, cr13, cr14, {4}
   1d738:	3eadf740 	cdpcc	7, 10, cr15, cr13, cr0, {2}
   1d73c:	3eae55c1 	cdpcc	5, 10, cr5, cr14, cr1, {6}
   1d740:	3eaeb442 	cdpcc	4, 10, cr11, cr14, cr2, {2}
   1d744:	3eaf12c2 	cdpcc	2, 10, cr1, cr15, cr2, {6}
   1d748:	3eaf7143 	fdvccem	f7, f7, f3
   1d74c:	3eafcfa2 	cdpcc	15, 10, cr12, cr15, cr2, {5}
   1d750:	3eb02e02 	cdpcc	14, 11, cr2, cr0, cr2, {0}
   1d754:	3eb08c61 	cdpcc	12, 11, cr8, cr0, cr1, {3}
   1d758:	3eb0eac0 	vabscc.f32	s28, s0
   1d75c:	3eb1491f 	mrccc	9, 5, r4, cr1, cr15, {0}
   1d760:	3eb1a75d 	mrccc	7, 5, sl, cr1, cr13, {2}
   1d764:	3eb205bc 	mrccc	5, 5, r0, cr2, cr12, {5}
   1d768:	3eb263fa 	mrccc	3, 5, r6, cr2, cr10, {7}
   1d76c:	3eb2c237 	mrccc	2, 5, ip, cr2, cr7, {1}
   1d770:	3eb32053 	mrccc	0, 5, r2, cr3, cr3, {2}
   1d774:	3eb37e91 	mrccc	14, 5, r7, cr3, cr1, {4}
   1d778:	3eb3dcad 	cdpcc	12, 11, cr13, cr3, cr13, {5}
   1d77c:	3eb43ac9 	vcmpecc.f32	s6, s18
   1d780:	3eb498e5 	cdpcc	8, 11, cr9, cr4, cr5, {7}
   1d784:	3eb4f6e0 	cdpcc	6, 11, cr15, cr4, cr0, {7}
   1d788:	3eb554fc 	mrccc	4, 5, r5, cr5, cr12, {7}
   1d78c:	3eb5b2f6 	mrccc	2, 5, fp, cr5, cr6, {7}
   1d790:	3eb610f1 	mrccc	0, 5, r1, cr6, cr1, {7}
   1d794:	3eb66eca 	cdpcc	14, 11, cr6, cr6, cr10, {6}
   1d798:	3eb6ccc4 	cdpcc	12, 11, cr12, cr6, cr4, {6}
   1d79c:	3eb72a9d 	mrccc	10, 5, r2, cr7, cr13, {4}
   1d7a0:	3eb78876 	mrccc	8, 5, r8, cr7, cr6, {3}
   1d7a4:	3eb7e64f 	cdpcc	6, 11, cr14, cr7, cr15, {2}
   1d7a8:	3eb84428 	cdpcc	4, 11, cr4, cr8, cr8, {1}
   1d7ac:	3eb8a201 	cdpcc	2, 11, cr10, cr8, cr1, {0}
   1d7b0:	3eb8ffb9 	mrccc	15, 5, APSR_nzcv, cr8, cr9, {5}
   1d7b4:	3eb95d70 	mrccc	13, 5, r5, cr9, cr0, {3}
   1d7b8:	3eb9bb28 	cdpcc	11, 11, cr11, cr9, cr8, {1}
   1d7bc:	3eba18bd 	mrccc	8, 5, r1, cr10, cr13, {5}
   1d7c0:	3eba7675 	mrccc	6, 5, r7, cr10, cr5, {3}
   1d7c4:	3ebad40b 	cdpcc	4, 11, cr13, cr10, cr11, {0}
   1d7c8:	3ebb31a1 	frdcc<illegal precision>p	f3, f3, f1
   1d7cc:	3ebb8f36 	mrccc	15, 5, r8, cr11, cr6, {1}
   1d7d0:	3ebbecab 	cdpcc	12, 11, cr14, cr11, cr11, {5}
   1d7d4:	3ebc4a41 	vcvtrcc.u32.f32	s8, s2
   1d7d8:	3ebca7b5 	mrccc	7, 5, sl, cr12, cr5, {5}
   1d7dc:	3ebd0529 	cdpcc	5, 11, cr0, cr13, cr9, {1}
   1d7e0:	3ebd627c 	mrccc	2, 5, r6, cr13, cr12, {3}
   1d7e4:	3ebdbff0 	mrccc	15, 5, fp, cr13, cr0, {7}
   1d7e8:	3ebe1d43 	cdpcc	13, 11, cr1, cr14, cr3, {2}
   1d7ec:	3ebe7a96 	mrccc	10, 5, r7, cr14, cr6, {4}
   1d7f0:	3ebed7e9 	cdpcc	7, 11, cr13, cr14, cr9, {7}
   1d7f4:	3ebf353b 	mrccc	5, 5, r3, cr15, cr11, {1}
   1d7f8:	3ebf926c 	cdpcc	2, 11, cr9, cr15, cr12, {3}
   1d7fc:	3ebfef9e 	mrccc	15, 5, lr, cr15, cr14, {4}
   1d800:	3ec04ccf 	cdpcc	12, 12, cr4, cr0, cr15, {6}
   1d804:	3ec0aa00 	vdivcc.f32	s21, s0, s0
   1d808:	3ec10710 	mcrcc	7, 6, r0, cr1, cr0, {0}
   1d80c:	3ec16441 	cdpcc	4, 12, cr6, cr1, cr1, {2}
   1d810:	3ec1c151 	mcrcc	1, 6, ip, cr1, cr1, {2}
   1d814:	3ec21e60 	cdpcc	14, 12, cr1, cr2, cr0, {3}
   1d818:	3ec27b4e 	cdpcc	11, 12, cr7, cr2, cr14, {2}
   1d81c:	3ec2d85e 	mcrcc	8, 6, sp, cr2, cr14, {2}
   1d820:	3ec3354c 	cdpcc	5, 12, cr3, cr3, cr12, {2}
   1d824:	3ec3923a 	mcrcc	2, 6, r9, cr3, cr10, {1}
   1d828:	3ec3ef07 	cdpcc	15, 12, cr14, cr3, cr7, {0}
   1d82c:	3ec44bf5 	mcrcc	11, 6, r4, cr4, cr5, {7}
   1d830:	3ec4a8c1 	cdpcc	8, 12, cr10, cr4, cr1, {6}
   1d834:	3ec5058e 	cdpcc	5, 12, cr0, cr5, cr14, {4}
   1d838:	3ec5625a 	mcrcc	2, 6, r6, cr5, cr10, {2}
   1d83c:	3ec5bf27 	cdpcc	15, 12, cr11, cr5, cr7, {1}
   1d840:	3ec61bd2 	mcrcc	11, 6, r1, cr6, cr2, {6}
   1d844:	3ec6787d 	mcrcc	8, 6, r7, cr6, cr13, {3}
   1d848:	3ec6d528 	cdpcc	5, 12, cr13, cr6, cr8, {1}
   1d84c:	3ec731d3 	mcrcc	1, 6, r3, cr7, cr3, {6}
   1d850:	3ec78e5c 	mcrcc	14, 6, r8, cr7, cr12, {2}
   1d854:	3ec7eae6 	cdpcc	10, 12, cr14, cr7, cr6, {7}
   1d858:	3ec8476f 	cdpcc	7, 12, cr4, cr8, cr15, {3}
   1d85c:	3ec8a3f9 	mcrcc	3, 6, sl, cr8, cr9, {7}
   1d860:	3ec90082 	cdpcc	0, 12, cr0, cr9, cr2, {4}
   1d864:	3ec95cea 	cdpcc	12, 12, cr5, cr9, cr10, {7}
   1d868:	3ec9b952 	mcrcc	9, 6, fp, cr9, cr2, {2}
   1d86c:	3eca15ba 	mcrcc	5, 6, r1, cr10, cr10, {5}
   1d870:	3eca7200 	cdpcc	2, 12, cr7, cr10, cr0, {0}
   1d874:	3ecace68 	cdpcc	14, 12, cr12, cr10, cr8, {3}
   1d878:	3ecb2aae 	vdivcc.f32	s5, s23, s29
   1d87c:	3ecb86f4 	mcrcc	6, 6, r8, cr11, cr4, {7}
   1d880:	3ecbe33b 	mcrcc	3, 6, lr, cr11, cr11, {1}
   1d884:	3ecc3f60 	cdpcc	15, 12, cr3, cr12, cr0, {3}
   1d888:	3ecc9b84 	vdivcc.f64	d25, d28, d4
   1d88c:	3eccf7a9 	cdpcc	7, 12, cr15, cr12, cr9, {5}
   1d890:	3ecd53ce 	cdpcc	3, 12, cr5, cr13, cr14, {6}
   1d894:	3ecdafd1 	mcrcc	15, 6, sl, cr13, cr1, {6}
   1d898:	3ece0bf6 	mcrcc	11, 6, r0, cr14, cr6, {7}
   1d89c:	3ece67f9 	mcrcc	7, 6, r6, cr14, cr9, {7}
   1d8a0:	3ecec3db 	mcrcc	3, 6, ip, cr14, cr11, {6}
   1d8a4:	3ecf1fde 	mcrcc	15, 6, r1, cr15, cr14, {6}
   1d8a8:	3ecf7bc0 	cdpcc	11, 12, cr7, cr15, cr0, {6}
   1d8ac:	3ecfd7a1 	cdpcc	7, 12, cr13, cr15, cr1, {5}
   1d8b0:	3ed03383 	cdpcc	3, 13, cr3, cr0, cr3, {4}
   1d8b4:	3ed08f65 	cdpcc	15, 13, cr8, cr0, cr5, {3}
   1d8b8:	3ed0eb25 	vfnmscc.f64	d30, d0, d21
   1d8bc:	3ed146e5 	cdpcc	6, 13, cr4, cr1, cr5, {7}
   1d8c0:	3ed1a2a5 	cdpcc	2, 13, cr10, cr1, cr5, {5}
   1d8c4:	3ed1fe65 	cdpcc	14, 13, cr15, cr1, cr5, {3}
   1d8c8:	3ed25a04 	vfnmscc.f32	s11, s4, s8
   1d8cc:	3ed2b5a2 	cdpcc	5, 13, cr11, cr2, cr2, {5}
   1d8d0:	3ed31141 	cdpcc	1, 13, cr1, cr3, cr1, {2}
   1d8d4:	3ed36cdf 	mrccc	12, 6, r6, cr3, cr15, {6}
   1d8d8:	3ed3c85c 	mrccc	8, 6, ip, cr3, cr12, {2}
   1d8dc:	3ed423d9 	mrccc	3, 6, r2, cr4, cr9, {6}
   1d8e0:	3ed47f56 	mrccc	15, 6, r7, cr4, cr6, {2}
   1d8e4:	3ed4dad3 	mrccc	10, 6, sp, cr4, cr3, {6}
   1d8e8:	3ed53650 	mrccc	6, 6, r3, cr5, cr0, {2}
   1d8ec:	3ed591ac 	atnccdp	f1, #4.0
   1d8f0:	3ed5ed07 	cdpcc	13, 13, cr14, cr5, cr7, {0}
   1d8f4:	3ed64841 	cdpcc	8, 13, cr4, cr6, cr1, {2}
   1d8f8:	3ed6a39c 	mrccc	3, 6, sl, cr6, cr12, {4}
   1d8fc:	3ed6fed6 	mrccc	14, 6, APSR_nzcv, cr6, cr6, {6}
   1d900:	3ed75a10 	mrccc	10, 6, r5, cr7, cr0, {0}
   1d904:	3ed7b54a 	cdpcc	5, 13, cr11, cr7, cr10, {2}
   1d908:	3ed81062 	cdpcc	0, 13, cr1, cr8, cr2, {3}
   1d90c:	3ed86b7b 	vmovcc.u8	r6, d8[3]
   1d910:	3ed8c693 	mrccc	6, 6, ip, cr8, cr3, {4}
   1d914:	3ed921ab 	cdpcc	1, 13, cr2, cr9, cr11, {5}
   1d918:	3ed97cc4 	cdpcc	12, 13, cr7, cr9, cr4, {6}
   1d91c:	3ed9d7ba 	mrccc	7, 6, sp, cr9, cr10, {5}
   1d920:	3eda32b1 	mrccc	2, 6, r3, cr10, cr1, {5}
   1d924:	3eda8da8 	cdpcc	13, 13, cr8, cr10, cr8, {5}
   1d928:	3edae87d 	mrccc	8, 6, lr, cr10, cr13, {3}
   1d92c:	3edb4352 	mrccc	3, 6, r4, cr11, cr2, {2}
   1d930:	3edb9e28 	cdpcc	14, 13, cr9, cr11, cr8, {1}
   1d934:	3edbf8fd 	mrccc	8, 6, APSR_nzcv, cr11, cr13, {7}
   1d938:	3edc53b1 	mrccc	3, 6, r5, cr12, cr1, {5}
   1d93c:	3edcae86 	cdpcc	14, 13, cr10, cr12, cr6, {4}
   1d940:	3edd0939 	mrccc	9, 6, r0, cr13, cr9, {1}
   1d944:	3edd63cc 	cdpcc	3, 13, cr6, cr13, cr12, {6}
   1d948:	3eddbe7f 	mrccc	14, 6, fp, cr13, cr15, {3}
   1d94c:	3ede1911 	mrccc	9, 6, r1, cr14, cr1, {0}
   1d950:	3ede73a3 	cdpcc	3, 13, cr7, cr14, cr3, {5}
   1d954:	3edece36 	mrccc	14, 6, ip, cr14, cr6, {1}
   1d958:	3edf28a6 	cdpcc	8, 13, cr2, cr15, cr6, {5}
   1d95c:	3edf8317 	mrccc	3, 6, r8, cr15, cr7, {0}
   1d960:	3edfdd87 	cdpcc	13, 13, cr13, cr15, cr7, {4}
   1d964:	3ee037f8 	mcrcc	7, 7, r3, cr0, cr8, {7}
   1d968:	3ee09247 	cdpcc	2, 14, cr9, cr0, cr7, {2}
   1d96c:	3ee0ec96 	mcrcc	12, 7, lr, cr0, cr6, {4}
   1d970:	3ee146e5 	cdpcc	6, 14, cr4, cr1, cr5, {7}
   1d974:	3ee1a134 	mcrcc	1, 7, sl, cr1, cr4, {1}
   1d978:	3ee1fb61 	vfmscc.f64	d31, d1, d17
   1d97c:	3ee2558f 	cdpcc	5, 14, cr5, cr2, cr15, {4}
   1d980:	3ee2afbc 	mcrcc	15, 7, sl, cr2, cr12, {5}
   1d984:	3ee309ea 	cdpcc	9, 14, cr0, cr3, cr10, {7}
   1d988:	3ee363f5 	mcrcc	3, 7, r6, cr3, cr5, {7}
   1d98c:	3ee3be01 	cdpcc	14, 14, cr11, cr3, cr1, {0}
   1d990:	3ee4180d 	cdpcc	8, 14, cr1, cr4, cr13, {0}
   1d994:	3ee47219 	mcrcc	2, 7, r7, cr4, cr9, {0}
   1d998:	3ee4cc03 	cdpcc	12, 14, cr12, cr4, cr3, {0}
   1d99c:	3ee525ee 	cdpcc	5, 14, cr2, cr5, cr14, {7}
   1d9a0:	3ee57fd8 	mcrcc	15, 7, r7, cr5, cr8, {6}
   1d9a4:	3ee5d9a1 	cdpcc	9, 14, cr13, cr5, cr1, {5}
   1d9a8:	3ee6336a 	cdpcc	3, 14, cr3, cr6, cr10, {3}
   1d9ac:	3ee68d33 	mcrcc	13, 7, r8, cr6, cr3, {1}
   1d9b0:	3ee6e6fb 	mcrcc	6, 7, lr, cr6, cr11, {7}
   1d9b4:	3ee740a3 	cdpcc	0, 14, cr4, cr7, cr3, {5}
   1d9b8:	3ee79a6b 	vfmscc.f32	s19, s14, s23
   1d9bc:	3ee7f3f1 	mcrcc	3, 7, pc, cr7, cr1, {7}	; <UNPREDICTABLE>
   1d9c0:	3ee84d98 	mcrcc	13, 7, r4, cr8, cr8, {4}
   1d9c4:	3ee8a71e 	mcrcc	7, 7, sl, cr8, cr14, {0}
   1d9c8:	3ee900c5 	cdpcc	0, 14, cr0, cr9, cr5, {6}
   1d9cc:	3ee95a29 	vfmacc.f32	s11, s18, s19
   1d9d0:	3ee9b3af 	cdpcc	3, 14, cr11, cr9, cr15, {5}
   1d9d4:	3eea0d13 	mcrcc	13, 7, r0, cr10, cr3, {0}
   1d9d8:	3eea6677 	mcrcc	6, 7, r6, cr10, cr7, {3}
   1d9dc:	3eeabfdb 	mcrcc	15, 7, fp, cr10, cr11, {6}
   1d9e0:	3eeb193f 	mcrcc	9, 7, r1, cr11, cr15, {1}
   1d9e4:	3eeb7282 	cdpcc	2, 14, cr7, cr11, cr2, {4}
   1d9e8:	3eebcbc5 	vfmscc.f64	d28, d27, d5
   1d9ec:	3eec24e6 	cdpcc	4, 14, cr2, cr12, cr6, {7}
   1d9f0:	3eec7e28 	cdpcc	14, 14, cr7, cr12, cr8, {1}
   1d9f4:	3eecd749 	cdpcc	7, 14, cr13, cr12, cr9, {2}
   1d9f8:	3eed306a 	cdpcc	0, 14, cr3, cr13, cr10, {3}
   1d9fc:	3eed896a 	cdpcc	9, 14, cr8, cr13, cr10, {3}
   1da00:	3eede28b 	cdpcc	2, 14, cr14, cr13, cr11, {4}
   1da04:	3eee3b8a 	vfmacc.f64	d19, d30, d10
   1da08:	3eee9468 	cdpcc	4, 14, cr9, cr14, cr8, {3}
   1da0c:	3eeeed67 	cdpcc	13, 14, cr14, cr14, cr7, {3}
   1da10:	3eef4645 	cdpcc	6, 14, cr4, cr15, cr5, {2}
   1da14:	3eef9f23 	cdpcc	15, 14, cr9, cr15, cr3, {1}
   1da18:	3eeff801 	cdpcc	8, 14, cr15, cr15, cr1, {0}
   1da1c:	3ef050be 	mrccc	0, 7, r5, cr0, cr14, {5}
   1da20:	3ef0a97a 	mrccc	9, 7, sl, cr0, cr10, {3}
   1da24:	3ef10236 	mrccc	2, 7, r0, cr1, cr6, {1}
   1da28:	3ef15af3 	mrccc	10, 7, r5, cr1, cr3, {7}
   1da2c:	3ef1b38d 	cdpcc	3, 15, cr11, cr1, cr13, {4}
   1da30:	3ef20c28 	cdpcc	12, 15, cr0, cr2, cr8, {1}
   1da34:	3ef264c3 	cdpcc	4, 15, cr6, cr2, cr3, {6}
   1da38:	3ef2bd3c 	mrccc	13, 7, fp, cr2, cr12, {1}
   1da3c:	3ef315b5 	mrccc	5, 7, r1, cr3, cr5, {5}
   1da40:	3ef36e2f 	cdpcc	14, 15, cr6, cr3, cr15, {1}
   1da44:	3ef3c6a8 	cdpcc	6, 15, cr12, cr3, cr8, {5}
   1da48:	3ef41f00 	cdpcc	15, 15, cr1, cr4, cr0, {0}
   1da4c:	3ef47757 	mrccc	7, 7, r7, cr4, cr7, {2}
   1da50:	3ef4cfaf 	cdpcc	15, 15, cr12, cr4, cr15, {5}
   1da54:	3ef52807 	cdpcc	8, 15, cr2, cr5, cr7, {0}
   1da58:	3ef5803d 	mrccc	0, 7, r8, cr5, cr13, {1}
   1da5c:	3ef5d873 	mrccc	8, 7, sp, cr5, cr3, {3}
   1da60:	3ef63088 	cdpcc	0, 15, cr3, cr6, cr8, {4}
   1da64:	3ef688be 	mrccc	8, 7, r8, cr6, cr14, {5}
   1da68:	3ef6e0d2 	mrccc	0, 7, lr, cr6, cr2, {6}
   1da6c:	3ef738e7 	cdpcc	8, 15, cr3, cr7, cr7, {7}
   1da70:	3ef790da 	mrccc	0, 7, r9, cr7, cr10, {6}
   1da74:	3ef7e8cd 	cdpcc	8, 15, cr14, cr7, cr13, {6}
   1da78:	3ef840c0 	cdpcc	0, 15, cr4, cr8, cr0, {6}
   1da7c:	3ef898b3 	mrccc	8, 7, r9, cr8, cr3, {5}
   1da80:	3ef8f084 	cdpcc	0, 15, cr15, cr8, cr4, {4}
   1da84:	3ef94856 	mrccc	8, 7, r4, cr9, cr6, {2}
   1da88:	3ef9a027 	cdpcc	0, 15, cr10, cr9, cr7, {1}
   1da8c:	3ef9f7f9 	mrccc	7, 7, APSR_nzcv, cr9, cr9, {7}
   1da90:	3efa4fa9 	cdpcc	15, 15, cr4, cr10, cr9, {5}
   1da94:	3efaa759 	mrccc	7, 7, sl, cr10, cr9, {2}
   1da98:	3efafee7 	cdpcc	14, 15, cr15, cr10, cr7, {7}
   1da9c:	3efb5697 	mrccc	6, 7, r5, cr11, cr7, {4}
   1daa0:	3efbae25 	cdpcc	14, 15, cr10, cr11, cr5, {1}
   1daa4:	3efc05b4 	mrccc	5, 7, r0, cr12, cr4, {5}
   1daa8:	3efc5d20 	cdpcc	13, 15, cr5, cr12, cr0, {1}
   1daac:	3efcb48d 	cdpcc	4, 15, cr11, cr12, cr13, {4}
   1dab0:	3efd0bfa 	vmovcc.u8	r0, d29[7]
   1dab4:	3efd6367 	cdpcc	3, 15, cr6, cr13, cr7, {3}
   1dab8:	3efdbab2 	mrccc	10, 7, fp, cr13, cr2, {5}
   1dabc:	3efe11fd 	mrccc	1, 7, r1, cr14, cr13, {7}
   1dac0:	3efe6949 	cdpcc	9, 15, cr6, cr14, cr9, {2}
   1dac4:	3efec094 	mrccc	0, 7, ip, cr14, cr4, {4}
   1dac8:	3eff17be 	mrccc	7, 7, r1, cr15, cr14, {5}
   1dacc:	3eff6ee7 	cdpcc	14, 15, cr6, cr15, cr7, {7}
   1dad0:	3effc5ef 	cdpcc	5, 15, cr12, cr15, cr15, {7}
   1dad4:	3f000e7c 	svccc	0x00000e7c
   1dad8:	3f003a00 	svccc	0x00003a00
   1dadc:	3f006584 	svccc	0x00006584
   1dae0:	3f0090f7 	svccc	0x000090f7
   1dae4:	3f00bc7b 	svccc	0x0000bc7b
   1dae8:	3f00e7de 	svccc	0x0000e7de
   1daec:	3f011351 	svccc	0x00011351
   1daf0:	3f013eb4 	svccc	0x00013eb4
   1daf4:	3f016a16 	svccc	0x00016a16
   1daf8:	3f019579 	svccc	0x00019579
   1dafc:	3f01c0ca 	svccc	0x0001c0ca
   1db00:	3f01ec1c 	svccc	0x0001ec1c
   1db04:	3f02176e 	svccc	0x0002176e
   1db08:	3f0242af 	svccc	0x000242af
   1db0c:	3f026df0 	svccc	0x00026df0
   1db10:	3f029931 	svccc	0x00029931
   1db14:	3f02c472 	svccc	0x0002c472
   1db18:	3f02efa2 	svccc	0x0002efa2
   1db1c:	3f031ad2 	svccc	0x00031ad2
   1db20:	3f0345f1 	svccc	0x000345f1
   1db24:	3f037122 	svccc	0x00037122
   1db28:	3f039c41 	svccc	0x00039c41
   1db2c:	3f03c750 	svccc	0x0003c750
   1db30:	3f03f26f 	svccc	0x0003f26f
   1db34:	3f041d7e 	svccc	0x00041d7e
   1db38:	3f04488c 	svccc	0x0004488c
   1db3c:	3f04738a 	svccc	0x0004738a
   1db40:	3f049e99 	svccc	0x00049e99
   1db44:	3f04c986 	svccc	0x0004c986
   1db48:	3f04f484 	svccc	0x0004f484
   1db4c:	3f051f71 	svccc	0x00051f71
   1db50:	3f054a5e 	svccc	0x00054a5e
   1db54:	3f05754b 	svccc	0x0005754b
   1db58:	3f05a027 	svccc	0x0005a027
   1db5c:	3f05cb04 	svccc	0x0005cb04
   1db60:	3f05f5e0 	svccc	0x0005f5e0
   1db64:	3f0620bc 	svccc	0x000620bc
   1db68:	3f064b88 	svccc	0x00064b88
   1db6c:	3f067653 	svccc	0x00067653
   1db70:	3f06a10e 	svccc	0x0006a10e
   1db74:	3f06cbc9 	svccc	0x0006cbc9
   1db78:	3f06f683 	svccc	0x0006f683
   1db7c:	3f07213e 	svccc	0x0007213e
   1db80:	3f074be8 	svccc	0x00074be8
   1db84:	3f077692 	svccc	0x00077692
   1db88:	3f07a13c 	svccc	0x0007a13c
   1db8c:	3f07cbd5 	svccc	0x0007cbd5
   1db90:	3f07f66f 	svccc	0x0007f66f
   1db94:	3f082108 	svccc	0x00082108
   1db98:	3f084b90 	svccc	0x00084b90
   1db9c:	3f087619 	svccc	0x00087619
   1dba0:	3f08a0a1 	svccc	0x0008a0a1
   1dba4:	3f08cb19 	svccc	0x0008cb19
   1dba8:	3f08f5a1 	svccc	0x0008f5a1
   1dbac:	3f092008 	svccc	0x00092008
   1dbb0:	3f094a80 	svccc	0x00094a80
   1dbb4:	3f0974e6 	svccc	0x000974e6
   1dbb8:	3f099f4d 	svccc	0x00099f4d
   1dbbc:	3f09c9b4 	svccc	0x0009c9b4
   1dbc0:	3f09f40a 	svccc	0x0009f40a
   1dbc4:	3f0a1e60 	svccc	0x000a1e60
   1dbc8:	3f0a48a6 	svccc	0x000a48a6
   1dbcc:	3f0a72fc 	svccc	0x000a72fc
   1dbd0:	3f0a9d41 	svccc	0x000a9d41
   1dbd4:	3f0ac775 	svccc	0x000ac775
   1dbd8:	3f0af1bb 	svccc	0x000af1bb
   1dbdc:	3f0b1bef 	svccc	0x000b1bef
   1dbe0:	3f0b4624 	svccc	0x000b4624
   1dbe4:	3f0b7048 	svccc	0x000b7048
   1dbe8:	3f0b9a6b 	svccc	0x000b9a6b
   1dbec:	3f0bc48f 	svccc	0x000bc48f
   1dbf0:	3f0beea2 	svccc	0x000beea2
   1dbf4:	3f0c18b5 	svccc	0x000c18b5
   1dbf8:	3f0c42c8 	svccc	0x000c42c8
   1dbfc:	3f0c6cdb 	svccc	0x000c6cdb
   1dc00:	3f0c96dd 	svccc	0x000c96dd
   1dc04:	3f0cc0cf 	svccc	0x000cc0cf
   1dc08:	3f0cead1 	svccc	0x000cead1
   1dc0c:	3f0d14c2 	svccc	0x000d14c2
   1dc10:	3f0d3eb4 	svccc	0x000d3eb4
   1dc14:	3f0d68a5 	svccc	0x000d68a5
   1dc18:	3f0d9286 	svccc	0x000d9286
   1dc1c:	3f0dbc66 	svccc	0x000dbc66
   1dc20:	3f0de636 	svccc	0x000de636
   1dc24:	3f0e1006 	svccc	0x000e1006
   1dc28:	3f0e39d6 	svccc	0x000e39d6
   1dc2c:	3f0e63a6 	svccc	0x000e63a6
   1dc30:	3f0e8d65 	svccc	0x000e8d65
   1dc34:	3f0eb724 	svccc	0x000eb724
   1dc38:	3f0ee0e3 	svccc	0x000ee0e3
   1dc3c:	3f0f0a91 	svccc	0x000f0a91
   1dc40:	3f0f3440 	svccc	0x000f3440
   1dc44:	3f0f5ddd 	svccc	0x000f5ddd
   1dc48:	3f0f878b 	svccc	0x000f878b
   1dc4c:	3f0fb129 	svccc	0x000fb129
   1dc50:	3f0fdab6 	svccc	0x000fdab6
   1dc54:	3f100443 	svccc	0x00100443
   1dc58:	3f102dcf 	svccc	0x00102dcf
   1dc5c:	3f10575c 	svccc	0x0010575c
   1dc60:	3f1080d8 	svccc	0x001080d8
   1dc64:	3f10aa54 	svccc	0x0010aa54
   1dc68:	3f10d3d0 	svccc	0x0010d3d0
   1dc6c:	3f10fd3b 	svccc	0x0010fd3b
   1dc70:	3f1126a6 	svccc	0x001126a6
   1dc74:	3f115012 	svccc	0x00115012
   1dc78:	3f11796c 	svccc	0x0011796c
   1dc7c:	3f11a2c6 	svccc	0x0011a2c6
   1dc80:	3f11cc21 	svccc	0x0011cc21
   1dc84:	3f11f56a 	svccc	0x0011f56a
   1dc88:	3f121eb4 	svccc	0x00121eb4
   1dc8c:	3f1247ed 	svccc	0x001247ed
   1dc90:	3f127137 	svccc	0x00127137
   1dc94:	3f129a70 	svccc	0x00129a70
   1dc98:	3f12c398 	svccc	0x0012c398
   1dc9c:	3f12ecc0 	svccc	0x0012ecc0
   1dca0:	3f1315e8 	svccc	0x001315e8
   1dca4:	3f133f10 	svccc	0x00133f10
   1dca8:	3f136827 	svccc	0x00136827
   1dcac:	3f13913f 	svccc	0x0013913f
   1dcb0:	3f13ba56 	svccc	0x0013ba56
   1dcb4:	3f13e35c 	svccc	0x0013e35c
   1dcb8:	3f140c63 	svccc	0x00140c63
   1dcbc:	3f143559 	svccc	0x00143559
   1dcc0:	3f145e5f 	svccc	0x00145e5f
   1dcc4:	3f148744 	svccc	0x00148744
   1dcc8:	3f14b03a 	svccc	0x0014b03a
   1dccc:	3f14d91f 	svccc	0x0014d91f
   1dcd0:	3f150204 	svccc	0x00150204
   1dcd4:	3f152ad8 	svccc	0x00152ad8
   1dcd8:	3f1553bd 	svccc	0x001553bd
   1dcdc:	3f157c81 	svccc	0x00157c81
   1dce0:	3f15a555 	svccc	0x0015a555
   1dce4:	3f15ce18 	svccc	0x0015ce18
   1dce8:	3f15f6dc 	svccc	0x0015f6dc
   1dcec:	3f161f8e 	svccc	0x00161f8e
   1dcf0:	3f164841 	svccc	0x00164841
   1dcf4:	3f1670f4 	svccc	0x001670f4
   1dcf8:	3f1699a6 	svccc	0x001699a6
   1dcfc:	3f16c248 	svccc	0x0016c248
   1dd00:	3f16ead9 	svccc	0x0016ead9
   1dd04:	3f17137b 	svccc	0x0017137b
   1dd08:	3f173c0c 	svccc	0x00173c0c
   1dd0c:	3f17648c 	svccc	0x0017648c
   1dd10:	3f178d1e 	svccc	0x00178d1e
   1dd14:	3f17b59e 	svccc	0x0017b59e
   1dd18:	3f17de0d 	svccc	0x0017de0d
   1dd1c:	3f18068e 	svccc	0x0018068e
   1dd20:	3f182eec 	svccc	0x00182eec
   1dd24:	3f18575c 	svccc	0x0018575c
   1dd28:	3f187fbb 	svccc	0x00187fbb
   1dd2c:	3f18a81a 	svccc	0x0018a81a
   1dd30:	3f18d078 	svccc	0x0018d078
   1dd34:	3f18f8c6 	svccc	0x0018f8c6
   1dd38:	3f192114 	svccc	0x00192114
   1dd3c:	3f194952 	svccc	0x00194952
   1dd40:	3f19718f 	svccc	0x0019718f
   1dd44:	3f1999cc 	svccc	0x001999cc
   1dd48:	3f19c1f8 	svccc	0x0019c1f8
   1dd4c:	3f19ea36 	svccc	0x0019ea36
   1dd50:	3f1a1251 	svccc	0x001a1251
   1dd54:	3f1a3a7e 	svccc	0x001a3a7e
   1dd58:	3f1a6299 	svccc	0x001a6299
   1dd5c:	3f1a8aa4 	svccc	0x001a8aa4
   1dd60:	3f1ab2c0 	svccc	0x001ab2c0
   1dd64:	3f1adaba 	svccc	0x001adaba
   1dd68:	3f1b02c5 	svccc	0x001b02c5
   1dd6c:	3f1b2abf 	svccc	0x001b2abf
   1dd70:	3f1b52b9 	svccc	0x001b52b9
   1dd74:	3f1b7ab3 	svccc	0x001b7ab3
   1dd78:	3f1ba29c 	svccc	0x001ba29c
   1dd7c:	3f1bca86 	svccc	0x001bca86
   1dd80:	3f1bf25e 	svccc	0x001bf25e
   1dd84:	3f1c1a37 	svccc	0x001c1a37
   1dd88:	3f1c420f 	svccc	0x001c420f
   1dd8c:	3f1c69d7 	svccc	0x001c69d7
   1dd90:	3f1c919f 	svccc	0x001c919f
   1dd94:	3f1cb967 	svccc	0x001cb967
   1dd98:	3f1ce11e 	svccc	0x001ce11e
   1dd9c:	3f1d08d5 	svccc	0x001d08d5
   1dda0:	3f1d308c 	svccc	0x001d308c
   1dda4:	3f1d5832 	svccc	0x001d5832
   1dda8:	3f1d7fd8 	svccc	0x001d7fd8
   1ddac:	3f1da76e 	svccc	0x001da76e
   1ddb0:	3f1dcf03 	svccc	0x001dcf03
   1ddb4:	3f1df698 	svccc	0x001df698
   1ddb8:	3f1e1e1d 	svccc	0x001e1e1d
   1ddbc:	3f1e45a2 	svccc	0x001e45a2
   1ddc0:	3f1e6d26 	svccc	0x001e6d26
   1ddc4:	3f1e949a 	svccc	0x001e949a
   1ddc8:	3f1ebc0e 	svccc	0x001ebc0e
   1ddcc:	3f1ee382 	svccc	0x001ee382
   1ddd0:	3f1f0ae5 	svccc	0x001f0ae5
   1ddd4:	3f1f3248 	svccc	0x001f3248
   1ddd8:	3f1f599b 	svccc	0x001f599b
   1dddc:	3f1f80ed 	svccc	0x001f80ed
   1dde0:	3f1fa83f 	svccc	0x001fa83f
   1dde4:	3f1fcf81 	svccc	0x001fcf81
   1dde8:	3f1ff6c2 	svccc	0x001ff6c2
   1ddec:	3f201e04 	svccc	0x00201e04
   1ddf0:	3f204535 	svccc	0x00204535
   1ddf4:	3f206c66 	svccc	0x00206c66
   1ddf8:	3f209396 	svccc	0x00209396
   1ddfc:	3f20bab6 	svccc	0x0020bab6
   1de00:	3f20e1d6 	svccc	0x0020e1d6
   1de04:	3f2108e6 	svccc	0x002108e6
   1de08:	3f212ff5 	svccc	0x00212ff5
   1de0c:	3f215704 	svccc	0x00215704
   1de10:	3f217e02 	svccc	0x00217e02
   1de14:	3f21a501 	svccc	0x0021a501
   1de18:	3f21cbff 	svccc	0x0021cbff
   1de1c:	3f21f2ed 	svccc	0x0021f2ed
   1de20:	3f2219db 	svccc	0x002219db
   1de24:	3f2240b8 	svccc	0x002240b8
   1de28:	3f226794 	svccc	0x00226794
   1de2c:	3f228e71 	svccc	0x00228e71
   1de30:	3f22b53d 	svccc	0x0022b53d
   1de34:	3f22dc0a 	svccc	0x0022dc0a
   1de38:	3f2302d6 	svccc	0x002302d6
   1de3c:	3f232991 	svccc	0x00232991
   1de40:	3f23504c 	svccc	0x0023504c
   1de44:	3f2376f7 	svccc	0x002376f7
   1de48:	3f239da1 	svccc	0x00239da1
   1de4c:	3f23c44c 	svccc	0x0023c44c
   1de50:	3f23eae6 	svccc	0x0023eae6
   1de54:	3f241180 	svccc	0x00241180
   1de58:	3f243819 	svccc	0x00243819
   1de5c:	3f245ea2 	svccc	0x00245ea2
   1de60:	3f24852b 	svccc	0x0024852b
   1de64:	3f24aba4 	svccc	0x0024aba4
   1de68:	3f24d22d 	svccc	0x0024d22d
   1de6c:	3f24f894 	svccc	0x0024f894
   1de70:	3f251f0c 	svccc	0x00251f0c
   1de74:	3f254563 	svccc	0x00254563
   1de78:	3f256bca 	svccc	0x00256bca
   1de7c:	3f259221 	svccc	0x00259221
   1de80:	3f25b878 	svccc	0x0025b878
   1de84:	3f25debe 	svccc	0x0025debe
   1de88:	3f260503 	svccc	0x00260503
   1de8c:	3f262b49 	svccc	0x00262b49
   1de90:	3f26517e 	svccc	0x0026517e
   1de94:	3f2677b4 	svccc	0x002677b4
   1de98:	3f269de9 	svccc	0x00269de9
   1de9c:	3f26c40d 	svccc	0x0026c40d
   1dea0:	3f26ea31 	svccc	0x0026ea31
   1dea4:	3f271045 	svccc	0x00271045
   1dea8:	3f273659 	svccc	0x00273659
   1deac:	3f275c5b 	svccc	0x00275c5b
   1deb0:	3f27826f 	svccc	0x0027826f
   1deb4:	3f27a861 	svccc	0x0027a861
   1deb8:	3f27ce64 	svccc	0x0027ce64
   1debc:	3f27f456 	svccc	0x0027f456
   1dec0:	3f281a48 	svccc	0x00281a48
   1dec4:	3f284029 	svccc	0x00284029
   1dec8:	3f28660a 	svccc	0x0028660a
   1decc:	3f288bdb 	svccc	0x00288bdb
   1ded0:	3f28b1ab 	svccc	0x0028b1ab
   1ded4:	3f28d77b 	svccc	0x0028d77b
   1ded8:	3f28fd3b 	svccc	0x0028fd3b
   1dedc:	3f2922fb 	svccc	0x002922fb
   1dee0:	3f2948bb 	svccc	0x002948bb
   1dee4:	3f296e69 	svccc	0x00296e69
   1dee8:	3f299418 	svccc	0x00299418
   1deec:	3f29b9b6 	svccc	0x0029b9b6
   1def0:	3f29df55 	svccc	0x0029df55
   1def4:	3f2a04f3 	svccc	0x002a04f3
   1def8:	3f2a2a80 	svccc	0x002a2a80
   1defc:	3f2a500d 	svccc	0x002a500d
   1df00:	3f2a758a 	svccc	0x002a758a
   1df04:	3f2a9b07 	svccc	0x002a9b07
   1df08:	3f2ac083 	svccc	0x002ac083
   1df0c:	3f2ae5ef 	svccc	0x002ae5ef
   1df10:	3f2b0b5b 	svccc	0x002b0b5b
   1df14:	3f2b30c6 	svccc	0x002b30c6
   1df18:	3f2b5621 	svccc	0x002b5621
   1df1c:	3f2b7b6c 	svccc	0x002b7b6c
   1df20:	3f2ba0c7 	svccc	0x002ba0c7
   1df24:	3f2bc600 	svccc	0x002bc600
   1df28:	3f2beb4a 	svccc	0x002beb4a
   1df2c:	3f2c1084 	svccc	0x002c1084
   1df30:	3f2c35bd 	svccc	0x002c35bd
   1df34:	3f2c5ae6 	svccc	0x002c5ae6
   1df38:	3f2c800f 	svccc	0x002c800f
   1df3c:	3f2ca537 	svccc	0x002ca537
   1df40:	3f2cca4f 	svccc	0x002cca4f
   1df44:	3f2cef56 	svccc	0x002cef56
   1df48:	3f2d146e 	svccc	0x002d146e
   1df4c:	3f2d3975 	svccc	0x002d3975
   1df50:	3f2d5e6c 	svccc	0x002d5e6c
   1df54:	3f2d8362 	svccc	0x002d8362
   1df58:	3f2da858 	svccc	0x002da858
   1df5c:	3f2dcd3e 	svccc	0x002dcd3e
   1df60:	3f2df224 	svccc	0x002df224
   1df64:	3f2e1709 	svccc	0x002e1709
   1df68:	3f2e3bde 	svccc	0x002e3bde
   1df6c:	3f2e60b3 	svccc	0x002e60b3
   1df70:	3f2e8577 	svccc	0x002e8577
   1df74:	3f2eaa3b 	svccc	0x002eaa3b
   1df78:	3f2eceff 	svccc	0x002eceff
   1df7c:	3f2ef3b2 	svccc	0x002ef3b2
   1df80:	3f2f1855 	svccc	0x002f1855
   1df84:	3f2f3d08 	svccc	0x002f3d08
   1df88:	3f2f61aa 	svccc	0x002f61aa
   1df8c:	3f2f863c 	svccc	0x002f863c
   1df90:	3f2faace 	svccc	0x002faace
   1df94:	3f2fcf5f 	svccc	0x002fcf5f
   1df98:	3f2ff3e0 	svccc	0x002ff3e0
   1df9c:	3f301861 	svccc	0x00301861
   1dfa0:	3f303ce2 	svccc	0x00303ce2
   1dfa4:	3f306152 	svccc	0x00306152
   1dfa8:	3f3085c2 	svccc	0x003085c2
   1dfac:	3f30aa22 	svccc	0x0030aa22
   1dfb0:	3f30ce81 	svccc	0x0030ce81
   1dfb4:	3f30f2d0 	svccc	0x0030f2d0
   1dfb8:	3f31171e 	svccc	0x0031171e
   1dfbc:	3f313b6d 	svccc	0x00313b6d
   1dfc0:	3f315fab 	svccc	0x00315fab
   1dfc4:	3f3183e8 	svccc	0x003183e8
   1dfc8:	3f31a815 	svccc	0x0031a815
   1dfcc:	3f31cc42 	svccc	0x0031cc42
   1dfd0:	3f31f06f 	svccc	0x0031f06f
   1dfd4:	3f32148c 	svccc	0x0032148c
   1dfd8:	3f3238a8 	svccc	0x003238a8
   1dfdc:	3f325cc4 	svccc	0x00325cc4
   1dfe0:	3f3280d0 	svccc	0x003280d0
   1dfe4:	3f32a4ca 	svccc	0x0032a4ca
   1dfe8:	3f32c8c5 	svccc	0x0032c8c5
   1dfec:	3f32ecc0 	svccc	0x0032ecc0
   1dff0:	3f3310aa 	svccc	0x003310aa
   1dff4:	3f333494 	svccc	0x00333494
   1dff8:	3f33587d 	svccc	0x0033587d
   1dffc:	3f337c57 	svccc	0x00337c57
   1e000:	3f33a030 	svccc	0x0033a030
   1e004:	3f33c3f8 	svccc	0x0033c3f8
   1e008:	3f33e7c0 	svccc	0x0033e7c0
   1e00c:	3f340b78 	svccc	0x00340b78
   1e010:	3f342f30 	svccc	0x00342f30
   1e014:	3f3452e7 	svccc	0x003452e7
   1e018:	3f34768e 	svccc	0x0034768e
   1e01c:	3f349a35 	svccc	0x00349a35
   1e020:	3f34bdcb 	svccc	0x0034bdcb
   1e024:	3f34e161 	svccc	0x0034e161
   1e028:	3f3504f7 	svccc	0x003504f7
   1e02c:	3f35287c 	svccc	0x0035287c
   1e030:	3f354c01 	svccc	0x00354c01
   1e034:	3f356f76 	svccc	0x00356f76
   1e038:	3f3592ea 	svccc	0x003592ea
   1e03c:	3f35b64e 	svccc	0x0035b64e
   1e040:	3f35d9b2 	svccc	0x0035d9b2
   1e044:	3f35fd15 	svccc	0x0035fd15
   1e048:	3f362068 	svccc	0x00362068
   1e04c:	3f3643bb 	svccc	0x003643bb
   1e050:	3f3666fd 	svccc	0x003666fd
   1e054:	3f368a40 	svccc	0x00368a40
   1e058:	3f36ad82 	svccc	0x0036ad82
   1e05c:	3f36d0b3 	svccc	0x0036d0b3
   1e060:	3f36f3e4 	svccc	0x0036f3e4
   1e064:	3f371705 	svccc	0x00371705
   1e068:	3f373a26 	svccc	0x00373a26
   1e06c:	3f375d35 	svccc	0x00375d35
   1e070:	3f378045 	svccc	0x00378045
   1e074:	3f37a355 	svccc	0x0037a355
   1e078:	3f37c654 	svccc	0x0037c654
   1e07c:	3f37e953 	svccc	0x0037e953
   1e080:	3f380c41 	svccc	0x00380c41
   1e084:	3f382f30 	svccc	0x00382f30
   1e088:	3f38521e 	svccc	0x0038521e
   1e08c:	3f3874fb 	svccc	0x003874fb
   1e090:	3f3897c8 	svccc	0x003897c8
   1e094:	3f38ba95 	svccc	0x0038ba95
   1e098:	3f38dd61 	svccc	0x0038dd61
   1e09c:	3f39002e 	svccc	0x0039002e
   1e0a0:	3f3922d9 	svccc	0x003922d9
   1e0a4:	3f394595 	svccc	0x00394595
   1e0a8:	3f396840 	svccc	0x00396840
   1e0ac:	3f398aec 	svccc	0x00398aec
   1e0b0:	3f39ad86 	svccc	0x0039ad86
   1e0b4:	3f39d020 	svccc	0x0039d020
   1e0b8:	3f39f2aa 	svccc	0x0039f2aa
   1e0bc:	3f3a1533 	svccc	0x003a1533
   1e0c0:	3f3a37bd 	svccc	0x003a37bd
   1e0c4:	3f3a5a36 	svccc	0x003a5a36
   1e0c8:	3f3a7c9e 	svccc	0x003a7c9e
   1e0cc:	3f3a9f17 	svccc	0x003a9f17
   1e0d0:	3f3ac16e 	svccc	0x003ac16e
   1e0d4:	3f3ae3d6 	svccc	0x003ae3d6
   1e0d8:	3f3b062d 	svccc	0x003b062d
   1e0dc:	3f3b2874 	svccc	0x003b2874
   1e0e0:	3f3b4aba 	svccc	0x003b4aba
   1e0e4:	3f3b6d01 	svccc	0x003b6d01
   1e0e8:	3f3b8f36 	svccc	0x003b8f36
   1e0ec:	3f3bb16c 	svccc	0x003bb16c
   1e0f0:	3f3bd391 	svccc	0x003bd391
   1e0f4:	3f3bf5b6 	svccc	0x003bf5b6
   1e0f8:	3f3c17db 	svccc	0x003c17db
   1e0fc:	3f3c39ef 	svccc	0x003c39ef
   1e100:	3f3c5c03 	svccc	0x003c5c03
   1e104:	3f3c7e07 	svccc	0x003c7e07
   1e108:	3f3ca00a 	svccc	0x003ca00a
   1e10c:	3f3cc1fd 	svccc	0x003cc1fd
   1e110:	3f3ce3ef 	svccc	0x003ce3ef
   1e114:	3f3d05d1 	svccc	0x003d05d1
   1e118:	3f3d27b3 	svccc	0x003d27b3
   1e11c:	3f3d4995 	svccc	0x003d4995
   1e120:	3f3d6b66 	svccc	0x003d6b66
   1e124:	3f3d8d37 	svccc	0x003d8d37
   1e128:	3f3daef7 	svccc	0x003daef7
   1e12c:	3f3dd0b7 	svccc	0x003dd0b7
   1e130:	3f3df267 	svccc	0x003df267
   1e134:	3f3e1416 	svccc	0x003e1416
   1e138:	3f3e35c6 	svccc	0x003e35c6
   1e13c:	3f3e5764 	svccc	0x003e5764
   1e140:	3f3e7903 	svccc	0x003e7903
   1e144:	3f3e9a91 	svccc	0x003e9a91
   1e148:	3f3ebc1f 	svccc	0x003ebc1f
   1e14c:	3f3edd9c 	svccc	0x003edd9c
   1e150:	3f3eff19 	svccc	0x003eff19
   1e154:	3f3f2096 	svccc	0x003f2096
   1e158:	3f3f4203 	svccc	0x003f4203
   1e15c:	3f3f635e 	svccc	0x003f635e
   1e160:	3f3f84ba 	svccc	0x003f84ba
   1e164:	3f3fa616 	svccc	0x003fa616
   1e168:	3f3fc760 	svccc	0x003fc760
   1e16c:	3f3fe8ab 	svccc	0x003fe8ab
   1e170:	3f4009f6 	svccc	0x004009f6
   1e174:	3f402b30 	svccc	0x00402b30
   1e178:	3f404c59 	svccc	0x00404c59
   1e17c:	3f406d83 	svccc	0x00406d83
   1e180:	3f408eac 	svccc	0x00408eac
   1e184:	3f40afc4 	svccc	0x0040afc4
   1e188:	3f40d0dd 	svccc	0x0040d0dd
   1e18c:	3f40f1e5 	svccc	0x0040f1e5
   1e190:	3f4112ec 	svccc	0x004112ec
   1e194:	3f4133e3 	svccc	0x004133e3
   1e198:	3f4154da 	svccc	0x004154da
   1e19c:	3f4175d1 	svccc	0x004175d1
   1e1a0:	3f4196b7 	svccc	0x004196b7
   1e1a4:	3f41b79e 	svccc	0x0041b79e
   1e1a8:	3f41d873 	svccc	0x0041d873
   1e1ac:	3f41f948 	svccc	0x0041f948
   1e1b0:	3f421a0d 	svccc	0x00421a0d
   1e1b4:	3f423ad2 	svccc	0x00423ad2
   1e1b8:	3f425b85 	svccc	0x00425b85
   1e1bc:	3f427c39 	svccc	0x00427c39
   1e1c0:	3f429ced 	svccc	0x00429ced
   1e1c4:	3f42bd90 	svccc	0x0042bd90
   1e1c8:	3f42de22 	svccc	0x0042de22
   1e1cc:	3f42fec5 	svccc	0x0042fec5
   1e1d0:	3f431f47 	svccc	0x00431f47
   1e1d4:	3f433fd9 	svccc	0x00433fd9
   1e1d8:	3f43604a 	svccc	0x0043604a
   1e1dc:	3f4380cb 	svccc	0x004380cb
   1e1e0:	3f43a13c 	svccc	0x0043a13c
   1e1e4:	3f43c19c 	svccc	0x0043c19c
   1e1e8:	3f43e1fc 	svccc	0x0043e1fc
   1e1ec:	3f44025c 	svccc	0x0044025c
   1e1f0:	3f4422ab 	svccc	0x004422ab
   1e1f4:	3f4442fa 	svccc	0x004442fa
   1e1f8:	3f446339 	svccc	0x00446339
   1e1fc:	3f448377 	svccc	0x00448377
   1e200:	3f44a3a5 	svccc	0x0044a3a5
   1e204:	3f44c3d2 	svccc	0x0044c3d2
   1e208:	3f44e3ef 	svccc	0x0044e3ef
   1e20c:	3f45040c 	svccc	0x0045040c
   1e210:	3f452429 	svccc	0x00452429
   1e214:	3f454435 	svccc	0x00454435
   1e218:	3f456441 	svccc	0x00456441
   1e21c:	3f45843c 	svccc	0x0045843c
   1e220:	3f45a427 	svccc	0x0045a427
   1e224:	3f45c422 	svccc	0x0045c422
   1e228:	3f45e3fc 	svccc	0x0045e3fc
   1e22c:	3f4603e6 	svccc	0x004603e6
   1e230:	3f4623c0 	svccc	0x004623c0
   1e234:	3f464389 	svccc	0x00464389
   1e238:	3f466352 	svccc	0x00466352
   1e23c:	3f46831b 	svccc	0x0046831b
   1e240:	3f46a2d3 	svccc	0x0046a2d3
   1e244:	3f46c27a 	svccc	0x0046c27a
   1e248:	3f46e222 	svccc	0x0046e222
   1e24c:	3f4701c9 	svccc	0x004701c9
   1e250:	3f472160 	svccc	0x00472160
   1e254:	3f4740f6 	svccc	0x004740f6
   1e258:	3f47608d 	svccc	0x0047608d
   1e25c:	3f478002 	svccc	0x00478002
   1e260:	3f479f88 	svccc	0x00479f88
   1e264:	3f47befd 	svccc	0x0047befd
   1e268:	3f47de61 	svccc	0x0047de61
   1e26c:	3f47fdc6 	svccc	0x0047fdc6
   1e270:	3f481d2a 	svccc	0x00481d2a
   1e274:	3f483c7d 	svccc	0x00483c7d
   1e278:	3f485bd1 	svccc	0x00485bd1
   1e27c:	3f487b14 	svccc	0x00487b14
   1e280:	3f489a56 	svccc	0x00489a56
   1e284:	3f48b988 	svccc	0x0048b988
   1e288:	3f48d8ba 	svccc	0x0048d8ba
   1e28c:	3f48f7db 	svccc	0x0048f7db
   1e290:	3f4916fd 	svccc	0x004916fd
   1e294:	3f49360d 	svccc	0x0049360d
   1e298:	3f49551d 	svccc	0x0049551d
   1e29c:	3f49742e 	svccc	0x0049742e
   1e2a0:	3f49932d 	svccc	0x0049932d
   1e2a4:	3f49b21c 	svccc	0x0049b21c
   1e2a8:	3f49d10b 	svccc	0x0049d10b
   1e2ac:	3f49effa 	svccc	0x0049effa
   1e2b0:	3f4a0ed8 	svccc	0x004a0ed8
   1e2b4:	3f4a2db6 	svccc	0x004a2db6
   1e2b8:	3f4a4c83 	svccc	0x004a4c83
   1e2bc:	3f4a6b51 	svccc	0x004a6b51
   1e2c0:	3f4a8a0d 	svccc	0x004a8a0d
   1e2c4:	3f4aa8ca 	svccc	0x004aa8ca
   1e2c8:	3f4ac786 	svccc	0x004ac786
   1e2cc:	3f4ae632 	svccc	0x004ae632
   1e2d0:	3f4b04cd 	svccc	0x004b04cd
   1e2d4:	3f4b2368 	svccc	0x004b2368
   1e2d8:	3f4b41f2 	svccc	0x004b41f2
   1e2dc:	3f4b608d 	svccc	0x004b608d
   1e2e0:	3f4b7f06 	svccc	0x004b7f06
   1e2e4:	3f4b9d80 	svccc	0x004b9d80
   1e2e8:	3f4bbbf9 	svccc	0x004bbbf9
   1e2ec:	3f4bda62 	svccc	0x004bda62
   1e2f0:	3f4bf8cb 	svccc	0x004bf8cb
   1e2f4:	3f4c1722 	svccc	0x004c1722
   1e2f8:	3f4c357a 	svccc	0x004c357a
   1e2fc:	3f4c53c1 	svccc	0x004c53c1
   1e300:	3f4c7208 	svccc	0x004c7208
   1e304:	3f4c903f 	svccc	0x004c903f
   1e308:	3f4cae75 	svccc	0x004cae75
   1e30c:	3f4cccab 	svccc	0x004cccab
   1e310:	3f4cead1 	svccc	0x004cead1
   1e314:	3f4d08e6 	svccc	0x004d08e6
   1e318:	3f4d26fa 	svccc	0x004d26fa
   1e31c:	3f4d450f 	svccc	0x004d450f
   1e320:	3f4d6313 	svccc	0x004d6313
   1e324:	3f4d8106 	svccc	0x004d8106
   1e328:	3f4d9f0a 	svccc	0x004d9f0a
   1e32c:	3f4dbced 	svccc	0x004dbced
   1e330:	3f4ddacf 	svccc	0x004ddacf
   1e334:	3f4df8b1 	svccc	0x004df8b1
   1e338:	3f4e1683 	svccc	0x004e1683
   1e33c:	3f4e3455 	svccc	0x004e3455
   1e340:	3f4e5215 	svccc	0x004e5215
   1e344:	3f4e6fd6 	svccc	0x004e6fd6
   1e348:	3f4e8d97 	svccc	0x004e8d97
   1e34c:	3f4eab36 	svccc	0x004eab36
   1e350:	3f4ec8e7 	svccc	0x004ec8e7
   1e354:	3f4ee686 	svccc	0x004ee686
   1e358:	3f4f0414 	svccc	0x004f0414
   1e35c:	3f4f21a3 	svccc	0x004f21a3
   1e360:	3f4f3f31 	svccc	0x004f3f31
   1e364:	3f4f5caf 	svccc	0x004f5caf
   1e368:	3f4f7a1c 	svccc	0x004f7a1c
   1e36c:	3f4f9789 	svccc	0x004f9789
   1e370:	3f4fb4f6 	svccc	0x004fb4f6
   1e374:	3f4fd252 	svccc	0x004fd252
   1e378:	3f4fefae 	svccc	0x004fefae
   1e37c:	3f500cfa 	svccc	0x00500cfa
   1e380:	3f502a35 	svccc	0x00502a35
   1e384:	3f504780 	svccc	0x00504780
   1e388:	3f5064aa 	svccc	0x005064aa
   1e38c:	3f5081e4 	svccc	0x005081e4
   1e390:	3f509efe 	svccc	0x00509efe
   1e394:	3f50bc27 	svccc	0x0050bc27
   1e398:	3f50d930 	svccc	0x0050d930
   1e39c:	3f50f649 	svccc	0x0050f649
   1e3a0:	3f511351 	svccc	0x00511351
   1e3a4:	3f513049 	svccc	0x00513049
   1e3a8:	3f514d40 	svccc	0x00514d40
   1e3ac:	3f516a27 	svccc	0x00516a27
   1e3b0:	3f51870e 	svccc	0x0051870e
   1e3b4:	3f51a3f4 	svccc	0x0051a3f4
   1e3b8:	3f51c0ca 	svccc	0x0051c0ca
   1e3bc:	3f51dd90 	svccc	0x0051dd90
   1e3c0:	3f51fa55 	svccc	0x0051fa55
   1e3c4:	3f521709 	svccc	0x00521709
   1e3c8:	3f5233ce 	svccc	0x005233ce
   1e3cc:	3f525072 	svccc	0x00525072
   1e3d0:	3f526d16 	svccc	0x00526d16
   1e3d4:	3f5289b9 	svccc	0x005289b9
   1e3d8:	3f52a64c 	svccc	0x0052a64c
   1e3dc:	3f52c2ce 	svccc	0x0052c2ce
   1e3e0:	3f52df61 	svccc	0x0052df61
   1e3e4:	3f52fbd2 	svccc	0x0052fbd2
   1e3e8:	3f531844 	svccc	0x00531844
   1e3ec:	3f5334b5 	svccc	0x005334b5
   1e3f0:	3f535116 	svccc	0x00535116
   1e3f4:	3f536d76 	svccc	0x00536d76
   1e3f8:	3f5389c6 	svccc	0x005389c6
   1e3fc:	3f53a616 	svccc	0x0053a616
   1e400:	3f53c255 	svccc	0x0053c255
   1e404:	3f53de94 	svccc	0x0053de94
   1e408:	3f53fac2 	svccc	0x0053fac2
   1e40c:	3f5416f0 	svccc	0x005416f0
   1e410:	3f54330d 	svccc	0x0054330d
   1e414:	3f544f2b 	svccc	0x00544f2b
   1e418:	3f546b38 	svccc	0x00546b38
   1e41c:	3f548744 	svccc	0x00548744
   1e420:	3f54a340 	svccc	0x0054a340
   1e424:	3f54bf3c 	svccc	0x0054bf3c
   1e428:	3f54db38 	svccc	0x0054db38
   1e42c:	3f54f712 	svccc	0x0054f712
   1e430:	3f5512fd 	svccc	0x005512fd
   1e434:	3f552ed8 	svccc	0x00552ed8
   1e438:	3f554aa1 	svccc	0x00554aa1
   1e43c:	3f55666b 	svccc	0x0055666b
   1e440:	3f558234 	svccc	0x00558234
   1e444:	3f559ddc 	svccc	0x00559ddc
   1e448:	3f55b995 	svccc	0x0055b995
   1e44c:	3f55d53d 	svccc	0x0055d53d
   1e450:	3f55f0d4 	svccc	0x0055f0d4
   1e454:	3f560c6b 	svccc	0x00560c6b
   1e458:	3f562802 	svccc	0x00562802
   1e45c:	3f564389 	svccc	0x00564389
   1e460:	3f565eff 	svccc	0x00565eff
   1e464:	3f567a74 	svccc	0x00567a74
   1e468:	3f5695ea 	svccc	0x005695ea
   1e46c:	3f56b14f 	svccc	0x0056b14f
   1e470:	3f56cca3 	svccc	0x0056cca3
   1e474:	3f56e7f7 	svccc	0x0056e7f7
   1e478:	3f57034b 	svccc	0x0057034b
   1e47c:	3f571e8e 	svccc	0x00571e8e
   1e480:	3f5739c1 	svccc	0x005739c1
   1e484:	3f5754f3 	svccc	0x005754f3
   1e488:	3f577026 	svccc	0x00577026
   1e48c:	3f578b48 	svccc	0x00578b48
   1e490:	3f57a66a 	svccc	0x0057a66a
   1e494:	3f57c17b 	svccc	0x0057c17b
   1e498:	3f57dc7b 	svccc	0x0057dc7b
   1e49c:	3f57f77b 	svccc	0x0057f77b
   1e4a0:	3f58127b 	svccc	0x0058127b
   1e4a4:	3f582d6b 	svccc	0x00582d6b
   1e4a8:	3f58485a 	svccc	0x0058485a
   1e4ac:	3f586339 	svccc	0x00586339
   1e4b0:	3f587e07 	svccc	0x00587e07
   1e4b4:	3f5898d4 	svccc	0x005898d4
   1e4b8:	3f58b3a2 	svccc	0x0058b3a2
   1e4bc:	3f58ce5f 	svccc	0x0058ce5f
   1e4c0:	3f58e91d 	svccc	0x0058e91d
   1e4c4:	3f5903c9 	svccc	0x005903c9
   1e4c8:	3f591e64 	svccc	0x00591e64
   1e4cc:	3f593900 	svccc	0x00593900
   1e4d0:	3f59539c 	svccc	0x0059539c
   1e4d4:	3f596e26 	svccc	0x00596e26
   1e4d8:	3f5988b1 	svccc	0x005988b1
   1e4dc:	3f59a32b 	svccc	0x0059a32b
   1e4e0:	3f59bd94 	svccc	0x0059bd94
   1e4e4:	3f59d80e 	svccc	0x0059d80e
   1e4e8:	3f59f267 	svccc	0x0059f267
   1e4ec:	3f5a0cbf 	svccc	0x005a0cbf
   1e4f0:	3f5a2718 	svccc	0x005a2718
   1e4f4:	3f5a415f 	svccc	0x005a415f
   1e4f8:	3f5a5ba7 	svccc	0x005a5ba7
   1e4fc:	3f5a75de 	svccc	0x005a75de
   1e500:	3f5a9004 	svccc	0x005a9004
   1e504:	3f5aaa2a 	svccc	0x005aaa2a
   1e508:	3f5ac450 	svccc	0x005ac450
   1e50c:	3f5ade65 	svccc	0x005ade65
   1e510:	3f5af87b 	svccc	0x005af87b
   1e514:	3f5b127f 	svccc	0x005b127f
   1e518:	3f5b2c73 	svccc	0x005b2c73
   1e51c:	3f5b4667 	svccc	0x005b4667
   1e520:	3f5b605b 	svccc	0x005b605b
   1e524:	3f5b7a3e 	svccc	0x005b7a3e
   1e528:	3f5b9421 	svccc	0x005b9421
   1e52c:	3f5badf3 	svccc	0x005badf3
   1e530:	3f5bc7b4 	svccc	0x005bc7b4
   1e534:	3f5be176 	svccc	0x005be176
   1e538:	3f5bfb37 	svccc	0x005bfb37
   1e53c:	3f5c14e8 	svccc	0x005c14e8
   1e540:	3f5c2e88 	svccc	0x005c2e88
   1e544:	3f5c4828 	svccc	0x005c4828
   1e548:	3f5c61c8 	svccc	0x005c61c8
   1e54c:	3f5c7b57 	svccc	0x005c7b57
   1e550:	3f5c94d5 	svccc	0x005c94d5
   1e554:	3f5cae53 	svccc	0x005cae53
   1e558:	3f5cc7d2 	svccc	0x005cc7d2
   1e55c:	3f5ce13f 	svccc	0x005ce13f
   1e560:	3f5cfa9c 	svccc	0x005cfa9c
   1e564:	3f5d13f9 	svccc	0x005d13f9
   1e568:	3f5d2d56 	svccc	0x005d2d56
   1e56c:	3f5d46a2 	svccc	0x005d46a2
   1e570:	3f5d5fdd 	svccc	0x005d5fdd
   1e574:	3f5d7918 	svccc	0x005d7918
   1e578:	3f5d9253 	svccc	0x005d9253
   1e57c:	3f5dab7e 	svccc	0x005dab7e
   1e580:	3f5dc497 	svccc	0x005dc497
   1e584:	3f5dddb1 	svccc	0x005dddb1
   1e588:	3f5df6ba 	svccc	0x005df6ba
   1e58c:	3f5e0fc3 	svccc	0x005e0fc3
   1e590:	3f5e28bb 	svccc	0x005e28bb
   1e594:	3f5e41b3 	svccc	0x005e41b3
   1e598:	3f5e5aab 	svccc	0x005e5aab
   1e59c:	3f5e7393 	svccc	0x005e7393
   1e5a0:	3f5e8c69 	svccc	0x005e8c69
   1e5a4:	3f5ea540 	svccc	0x005ea540
   1e5a8:	3f5ebe06 	svccc	0x005ebe06
   1e5ac:	3f5ed6cb 	svccc	0x005ed6cb
   1e5b0:	3f5eef80 	svccc	0x005eef80
   1e5b4:	3f5f0835 	svccc	0x005f0835
   1e5b8:	3f5f20da 	svccc	0x005f20da
   1e5bc:	3f5f397e 	svccc	0x005f397e
   1e5c0:	3f5f5211 	svccc	0x005f5211
   1e5c4:	3f5f6aa5 	svccc	0x005f6aa5
   1e5c8:	3f5f8327 	svccc	0x005f8327
   1e5cc:	3f5f9baa 	svccc	0x005f9baa
   1e5d0:	3f5fb41c 	svccc	0x005fb41c
   1e5d4:	3f5fcc8e 	svccc	0x005fcc8e
   1e5d8:	3f5fe4ef 	svccc	0x005fe4ef
   1e5dc:	3f5ffd3f 	svccc	0x005ffd3f
   1e5e0:	3f601590 	svccc	0x00601590
   1e5e4:	3f602de0 	svccc	0x00602de0
   1e5e8:	3f604620 	svccc	0x00604620
   1e5ec:	3f605e5f 	svccc	0x00605e5f
   1e5f0:	3f60768e 	svccc	0x0060768e
   1e5f4:	3f608eac 	svccc	0x00608eac
   1e5f8:	3f60a6ca 	svccc	0x0060a6ca
   1e5fc:	3f60bee8 	svccc	0x0060bee8
   1e600:	3f60d6f5 	svccc	0x0060d6f5
   1e604:	3f60eef2 	svccc	0x0060eef2
   1e608:	3f6106ee 	svccc	0x006106ee
   1e60c:	3f611eeb 	svccc	0x00611eeb
   1e610:	3f6136d6 	svccc	0x006136d6
   1e614:	3f614eb1 	svccc	0x00614eb1
   1e618:	3f61668c 	svccc	0x0061668c
   1e61c:	3f617e56 	svccc	0x00617e56
   1e620:	3f619620 	svccc	0x00619620
   1e624:	3f61adda 	svccc	0x0061adda
   1e628:	3f61c593 	svccc	0x0061c593
   1e62c:	3f61dd4c 	svccc	0x0061dd4c
   1e630:	3f61f4e4 	svccc	0x0061f4e4
   1e634:	3f620c8d 	svccc	0x00620c8d
   1e638:	3f622414 	svccc	0x00622414
   1e63c:	3f623bac 	svccc	0x00623bac
   1e640:	3f625322 	svccc	0x00625322
   1e644:	3f626a98 	svccc	0x00626a98
   1e648:	3f62820e 	svccc	0x0062820e
   1e64c:	3f629974 	svccc	0x00629974
   1e650:	3f62b0d9 	svccc	0x0062b0d9
   1e654:	3f62c82e 	svccc	0x0062c82e
   1e658:	3f62df83 	svccc	0x0062df83
   1e65c:	3f62f6c7 	svccc	0x0062f6c7
   1e660:	3f630dfa 	svccc	0x00630dfa
   1e664:	3f63252d 	svccc	0x0063252d
   1e668:	3f633c60 	svccc	0x00633c60
   1e66c:	3f635382 	svccc	0x00635382
   1e670:	3f636a94 	svccc	0x00636a94
   1e674:	3f6381a6 	svccc	0x006381a6
   1e678:	3f6398a6 	svccc	0x006398a6
   1e67c:	3f63afa7 	svccc	0x0063afa7
   1e680:	3f63c6a8 	svccc	0x0063c6a8
   1e684:	3f63dd87 	svccc	0x0063dd87
   1e688:	3f63f477 	svccc	0x0063f477
   1e68c:	3f640b56 	svccc	0x00640b56
   1e690:	3f642225 	svccc	0x00642225
   1e694:	3f6438e3 	svccc	0x006438e3
   1e698:	3f644fb1 	svccc	0x00644fb1
   1e69c:	3f64665e 	svccc	0x0064665e
   1e6a0:	3f647d1c 	svccc	0x00647d1c
   1e6a4:	3f6493b8 	svccc	0x006493b8
   1e6a8:	3f64aa54 	svccc	0x0064aa54
   1e6ac:	3f64c0f0 	svccc	0x0064c0f0
   1e6b0:	3f64d77b 	svccc	0x0064d77b
   1e6b4:	3f64edf6 	svccc	0x0064edf6
   1e6b8:	3f650471 	svccc	0x00650471
   1e6bc:	3f651aeb 	svccc	0x00651aeb
   1e6c0:	3f653155 	svccc	0x00653155
   1e6c4:	3f6547ae 	svccc	0x006547ae
   1e6c8:	3f655e07 	svccc	0x00655e07
   1e6cc:	3f657460 	svccc	0x00657460
   1e6d0:	3f658a98 	svccc	0x00658a98
   1e6d4:	3f65a0e0 	svccc	0x0065a0e0
   1e6d8:	3f65b717 	svccc	0x0065b717
   1e6dc:	3f65cd3e 	svccc	0x0065cd3e
   1e6e0:	3f65e365 	svccc	0x0065e365
   1e6e4:	3f65f97b 	svccc	0x0065f97b
   1e6e8:	3f660f80 	svccc	0x00660f80
   1e6ec:	3f662596 	svccc	0x00662596
   1e6f0:	3f663b8a 	svccc	0x00663b8a
   1e6f4:	3f66517e 	svccc	0x0066517e
   1e6f8:	3f666773 	svccc	0x00666773
   1e6fc:	3f667d56 	svccc	0x00667d56
   1e700:	3f669329 	svccc	0x00669329
   1e704:	3f66a8fc 	svccc	0x0066a8fc
   1e708:	3f66becf 	svccc	0x0066becf
   1e70c:	3f66d491 	svccc	0x0066d491
   1e710:	3f66ea42 	svccc	0x0066ea42
   1e714:	3f66fff3 	svccc	0x0066fff3
   1e718:	3f671594 	svccc	0x00671594
   1e71c:	3f672b34 	svccc	0x00672b34
   1e720:	3f6740c4 	svccc	0x006740c4
   1e724:	3f675654 	svccc	0x00675654
   1e728:	3f676bd3 	svccc	0x00676bd3
   1e72c:	3f678152 	svccc	0x00678152
   1e730:	3f6796c0 	svccc	0x006796c0
   1e734:	3f67ac2e 	svccc	0x0067ac2e
   1e738:	3f67c18b 	svccc	0x0067c18b
   1e73c:	3f67d6d8 	svccc	0x0067d6d8
   1e740:	3f67ec25 	svccc	0x0067ec25
   1e744:	3f680171 	svccc	0x00680171
   1e748:	3f6816ad 	svccc	0x006816ad
   1e74c:	3f682bd8 	svccc	0x00682bd8
   1e750:	3f684103 	svccc	0x00684103
   1e754:	3f68561d 	svccc	0x0068561d
   1e758:	3f686b38 	svccc	0x00686b38
   1e75c:	3f688041 	svccc	0x00688041
   1e760:	3f68954a 	svccc	0x0068954a
   1e764:	3f68aa43 	svccc	0x0068aa43
   1e768:	3f68bf3c 	svccc	0x0068bf3c
   1e76c:	3f68d424 	svccc	0x0068d424
   1e770:	3f68e90c 	svccc	0x0068e90c
   1e774:	3f68fde3 	svccc	0x0068fde3
   1e778:	3f6912a9 	svccc	0x006912a9
   1e77c:	3f692770 	svccc	0x00692770
   1e780:	3f693c36 	svccc	0x00693c36
   1e784:	3f6950ec 	svccc	0x006950ec
   1e788:	3f696590 	svccc	0x00696590
   1e78c:	3f697a35 	svccc	0x00697a35
   1e790:	3f698ec9 	svccc	0x00698ec9
   1e794:	3f69a35d 	svccc	0x0069a35d
   1e798:	3f69b7e1 	svccc	0x0069b7e1
   1e79c:	3f69cc64 	svccc	0x0069cc64
   1e7a0:	3f69e0d6 	svccc	0x0069e0d6
   1e7a4:	3f69f549 	svccc	0x0069f549
   1e7a8:	3f6a09ab 	svccc	0x006a09ab
   1e7ac:	3f6a1dfc 	svccc	0x006a1dfc
   1e7b0:	3f6a324d 	svccc	0x006a324d
   1e7b4:	3f6a469d 	svccc	0x006a469d
   1e7b8:	3f6a5ade 	svccc	0x006a5ade
   1e7bc:	3f6a6f0d 	svccc	0x006a6f0d
   1e7c0:	3f6a833c 	svccc	0x006a833c
   1e7c4:	3f6a975b 	svccc	0x006a975b
   1e7c8:	3f6aab7a 	svccc	0x006aab7a
   1e7cc:	3f6abf87 	svccc	0x006abf87
   1e7d0:	3f6ad395 	svccc	0x006ad395
   1e7d4:	3f6ae792 	svccc	0x006ae792
   1e7d8:	3f6afb8f 	svccc	0x006afb8f
   1e7dc:	3f6b0f7c 	svccc	0x006b0f7c
   1e7e0:	3f6b2357 	svccc	0x006b2357
   1e7e4:	3f6b3733 	svccc	0x006b3733
   1e7e8:	3f6b4b0e 	svccc	0x006b4b0e
   1e7ec:	3f6b5ed9 	svccc	0x006b5ed9
   1e7f0:	3f6b7293 	svccc	0x006b7293
   1e7f4:	3f6b864d 	svccc	0x006b864d
   1e7f8:	3f6b99f6 	svccc	0x006b99f6
   1e7fc:	3f6bad9f 	svccc	0x006bad9f
   1e800:	3f6bc137 	svccc	0x006bc137
   1e804:	3f6bd4d0 	svccc	0x006bd4d0
   1e808:	3f6be857 	svccc	0x006be857
   1e80c:	3f6bfbdf 	svccc	0x006bfbdf
   1e810:	3f6c0f56 	svccc	0x006c0f56
   1e814:	3f6c22bc 	svccc	0x006c22bc
   1e818:	3f6c3622 	svccc	0x006c3622
   1e81c:	3f6c4988 	svccc	0x006c4988
   1e820:	3f6c5ccd 	svccc	0x006c5ccd
   1e824:	3f6c7022 	svccc	0x006c7022
   1e828:	3f6c8366 	svccc	0x006c8366
   1e82c:	3f6c969a 	svccc	0x006c969a
   1e830:	3f6ca9bd 	svccc	0x006ca9bd
   1e834:	3f6cbcf1 	svccc	0x006cbcf1
   1e838:	3f6cd003 	svccc	0x006cd003
   1e83c:	3f6ce315 	svccc	0x006ce315
   1e840:	3f6cf627 	svccc	0x006cf627
   1e844:	3f6d0929 	svccc	0x006d0929
   1e848:	3f6d1c19 	svccc	0x006d1c19
   1e84c:	3f6d2f0a 	svccc	0x006d2f0a
   1e850:	3f6d41ea 	svccc	0x006d41ea
   1e854:	3f6d54ca 	svccc	0x006d54ca
   1e858:	3f6d67a9 	svccc	0x006d67a9
   1e85c:	3f6d7a68 	svccc	0x006d7a68
   1e860:	3f6d8d26 	svccc	0x006d8d26
   1e864:	3f6d9fe4 	svccc	0x006d9fe4
   1e868:	3f6db292 	svccc	0x006db292
   1e86c:	3f6dc53f 	svccc	0x006dc53f
   1e870:	3f6dd7dc 	svccc	0x006dd7dc
   1e874:	3f6dea68 	svccc	0x006dea68
   1e878:	3f6dfcf4 	svccc	0x006dfcf4
   1e87c:	3f6e0f6f 	svccc	0x006e0f6f
   1e880:	3f6e21ea 	svccc	0x006e21ea
   1e884:	3f6e3455 	svccc	0x006e3455
   1e888:	3f6e46bf 	svccc	0x006e46bf
   1e88c:	3f6e5919 	svccc	0x006e5919
   1e890:	3f6e6b72 	svccc	0x006e6b72
   1e894:	3f6e7dbb 	svccc	0x006e7dbb
   1e898:	3f6e8ff3 	svccc	0x006e8ff3
   1e89c:	3f6ea22b 	svccc	0x006ea22b
   1e8a0:	3f6eb463 	svccc	0x006eb463
   1e8a4:	3f6ec67a 	svccc	0x006ec67a
   1e8a8:	3f6ed8a1 	svccc	0x006ed8a1
   1e8ac:	3f6eeab8 	svccc	0x006eeab8
   1e8b0:	3f6efcbd 	svccc	0x006efcbd
   1e8b4:	3f6f0eb2 	svccc	0x006f0eb2
   1e8b8:	3f6f20b8 	svccc	0x006f20b8
   1e8bc:	3f6f329c 	svccc	0x006f329c
   1e8c0:	3f6f4480 	svccc	0x006f4480
   1e8c4:	3f6f5665 	svccc	0x006f5665
   1e8c8:	3f6f6838 	svccc	0x006f6838
   1e8cc:	3f6f79fb 	svccc	0x006f79fb
   1e8d0:	3f6f8bbd 	svccc	0x006f8bbd
   1e8d4:	3f6f9d6f 	svccc	0x006f9d6f
   1e8d8:	3f6faf21 	svccc	0x006faf21
   1e8dc:	3f6fc0c2 	svccc	0x006fc0c2
   1e8e0:	3f6fd252 	svccc	0x006fd252
   1e8e4:	3f6fe3f3 	svccc	0x006fe3f3
   1e8e8:	3f6ff573 	svccc	0x006ff573
   1e8ec:	3f7006f2 	svccc	0x007006f2
   1e8f0:	3f701861 	svccc	0x00701861
   1e8f4:	3f7029d0 	svccc	0x007029d0
   1e8f8:	3f703b3f 	svccc	0x00703b3f
   1e8fc:	3f704c8c 	svccc	0x00704c8c
   1e900:	3f705dd9 	svccc	0x00705dd9
   1e904:	3f706f26 	svccc	0x00706f26
   1e908:	3f708063 	svccc	0x00708063
   1e90c:	3f70919f 	svccc	0x0070919f
   1e910:	3f70a2cb 	svccc	0x0070a2cb
   1e914:	3f70b3e5 	svccc	0x0070b3e5
   1e918:	3f70c500 	svccc	0x0070c500
   1e91c:	3f70d60a 	svccc	0x0070d60a
   1e920:	3f70e714 	svccc	0x0070e714
   1e924:	3f70f80e 	svccc	0x0070f80e
   1e928:	3f710907 	svccc	0x00710907
   1e92c:	3f7119f0 	svccc	0x007119f0
   1e930:	3f712ad8 	svccc	0x00712ad8
   1e934:	3f713bb0 	svccc	0x00713bb0
   1e938:	3f714c77 	svccc	0x00714c77
   1e93c:	3f715d3e 	svccc	0x00715d3e
   1e940:	3f716df4 	svccc	0x00716df4
   1e944:	3f717eaa 	svccc	0x00717eaa
   1e948:	3f718f50 	svccc	0x00718f50
   1e94c:	3f719ff5 	svccc	0x00719ff5
   1e950:	3f71b08a 	svccc	0x0071b08a
   1e954:	3f71c11e 	svccc	0x0071c11e
   1e958:	3f71d1a2 	svccc	0x0071d1a2
   1e95c:	3f71e215 	svccc	0x0071e215
   1e960:	3f71f288 	svccc	0x0071f288
   1e964:	3f7202fb 	svccc	0x007202fb
   1e968:	3f72134d 	svccc	0x0072134d
   1e96c:	3f7223af 	svccc	0x007223af
   1e970:	3f7233f0 	svccc	0x007233f0
   1e974:	3f724431 	svccc	0x00724431
   1e978:	3f725471 	svccc	0x00725471
   1e97c:	3f7264a1 	svccc	0x007264a1
   1e980:	3f7274c1 	svccc	0x007274c1
   1e984:	3f7284e0 	svccc	0x007284e0
   1e988:	3f7294ff 	svccc	0x007294ff
   1e98c:	3f72a4fd 	svccc	0x0072a4fd
   1e990:	3f72b50b 	svccc	0x0072b50b
   1e994:	3f72c4f8 	svccc	0x0072c4f8
   1e998:	3f72d4e5 	svccc	0x0072d4e5
   1e99c:	3f72e4d2 	svccc	0x0072e4d2
   1e9a0:	3f72f4ae 	svccc	0x0072f4ae
   1e9a4:	3f730479 	svccc	0x00730479
   1e9a8:	3f731444 	svccc	0x00731444
   1e9ac:	3f7323ff 	svccc	0x007323ff
   1e9b0:	3f7333b9 	svccc	0x007333b9
   1e9b4:	3f734363 	svccc	0x00734363
   1e9b8:	3f73530d 	svccc	0x0073530d
   1e9bc:	3f7362a6 	svccc	0x007362a6
   1e9c0:	3f73723f 	svccc	0x0073723f
   1e9c4:	3f7381c7 	svccc	0x007381c7
   1e9c8:	3f73913f 	svccc	0x0073913f
   1e9cc:	3f73a0b6 	svccc	0x0073a0b6
   1e9d0:	3f73b01d 	svccc	0x0073b01d
   1e9d4:	3f73bf83 	svccc	0x0073bf83
   1e9d8:	3f73ced9 	svccc	0x0073ced9
   1e9dc:	3f73de2f 	svccc	0x0073de2f
   1e9e0:	3f73ed74 	svccc	0x0073ed74
   1e9e4:	3f73fca8 	svccc	0x0073fca8
   1e9e8:	3f740bdd 	svccc	0x00740bdd
   1e9ec:	3f741b00 	svccc	0x00741b00
   1e9f0:	3f742a24 	svccc	0x00742a24
   1e9f4:	3f743937 	svccc	0x00743937
   1e9f8:	3f744849 	svccc	0x00744849
   1e9fc:	3f74574b 	svccc	0x0074574b
   1ea00:	3f74664d 	svccc	0x0074664d
   1ea04:	3f74753e 	svccc	0x0074753e
   1ea08:	3f74841f 	svccc	0x0074841f
   1ea0c:	3f7492ff 	svccc	0x007492ff
   1ea10:	3f74a1cf 	svccc	0x0074a1cf
   1ea14:	3f74b09f 	svccc	0x0074b09f
   1ea18:	3f74bf5d 	svccc	0x0074bf5d
   1ea1c:	3f74ce1c 	svccc	0x0074ce1c
   1ea20:	3f74dcca 	svccc	0x0074dcca
   1ea24:	3f74eb68 	svccc	0x0074eb68
   1ea28:	3f74fa05 	svccc	0x0074fa05
   1ea2c:	3f7508a2 	svccc	0x007508a2
   1ea30:	3f75172f 	svccc	0x0075172f
   1ea34:	3f7525ab 	svccc	0x007525ab
   1ea38:	3f753416 	svccc	0x00753416
   1ea3c:	3f754291 	svccc	0x00754291
   1ea40:	3f7550ec 	svccc	0x007550ec
   1ea44:	3f755f46 	svccc	0x00755f46
   1ea48:	3f756d8f 	svccc	0x00756d8f
   1ea4c:	3f757bd9 	svccc	0x00757bd9
   1ea50:	3f758a22 	svccc	0x00758a22
   1ea54:	3f75984a 	svccc	0x0075984a
   1ea58:	3f75a683 	svccc	0x0075a683
   1ea5c:	3f75b49a 	svccc	0x0075b49a
   1ea60:	3f75c2b1 	svccc	0x0075c2b1
   1ea64:	3f75d0c8 	svccc	0x0075d0c8
   1ea68:	3f75dece 	svccc	0x0075dece
   1ea6c:	3f75ecc4 	svccc	0x0075ecc4
   1ea70:	3f75fab9 	svccc	0x0075fab9
   1ea74:	3f76089e 	svccc	0x0076089e
   1ea78:	3f761672 	svccc	0x00761672
   1ea7c:	3f762457 	svccc	0x00762457
   1ea80:	3f76321a 	svccc	0x0076321a
   1ea84:	3f763fdd 	svccc	0x00763fdd
   1ea88:	3f764d90 	svccc	0x00764d90
   1ea8c:	3f765b42 	svccc	0x00765b42
   1ea90:	3f7668e4 	svccc	0x007668e4
   1ea94:	3f767686 	svccc	0x00767686
   1ea98:	3f768416 	svccc	0x00768416
   1ea9c:	3f7691a7 	svccc	0x007691a7
   1eaa0:	3f769f27 	svccc	0x00769f27
   1eaa4:	3f76ac97 	svccc	0x0076ac97
   1eaa8:	3f76ba06 	svccc	0x0076ba06
   1eaac:	3f76c765 	svccc	0x0076c765
   1eab0:	3f76d4c3 	svccc	0x0076d4c3
   1eab4:	3f76e211 	svccc	0x0076e211
   1eab8:	3f76ef5f 	svccc	0x0076ef5f
   1eabc:	3f76fc9c 	svccc	0x0076fc9c
   1eac0:	3f7709c8 	svccc	0x007709c8
   1eac4:	3f7716f4 	svccc	0x007716f4
   1eac8:	3f772410 	svccc	0x00772410
   1eacc:	3f77312b 	svccc	0x0077312b
   1ead0:	3f773e36 	svccc	0x00773e36
   1ead4:	3f774b40 	svccc	0x00774b40
   1ead8:	3f77583a 	svccc	0x0077583a
   1eadc:	3f776523 	svccc	0x00776523
   1eae0:	3f77720d 	svccc	0x0077720d
   1eae4:	3f777ef6 	svccc	0x00777ef6
   1eae8:	3f778bbd 	svccc	0x00778bbd
   1eaec:	3f779896 	svccc	0x00779896
   1eaf0:	3f77a54c 	svccc	0x0077a54c
   1eaf4:	3f77b203 	svccc	0x0077b203
   1eaf8:	3f77beba 	svccc	0x0077beba
   1eafc:	3f77cb60 	svccc	0x0077cb60
   1eb00:	3f77d7f5 	svccc	0x0077d7f5
   1eb04:	3f77e48a 	svccc	0x0077e48a
   1eb08:	3f77f10f 	svccc	0x0077f10f
   1eb0c:	3f77fd93 	svccc	0x0077fd93
   1eb10:	3f780a07 	svccc	0x00780a07
   1eb14:	3f78166a 	svccc	0x0078166a
   1eb18:	3f7822cd 	svccc	0x007822cd
   1eb1c:	3f782f30 	svccc	0x00782f30
   1eb20:	3f783b71 	svccc	0x00783b71
   1eb24:	3f7847c3 	svccc	0x007847c3
   1eb28:	3f7853f4 	svccc	0x007853f4
   1eb2c:	3f786024 	svccc	0x00786024
   1eb30:	3f786c55 	svccc	0x00786c55
   1eb34:	3f787875 	svccc	0x00787875
   1eb38:	3f788484 	svccc	0x00788484
   1eb3c:	3f789093 	svccc	0x00789093
   1eb40:	3f789c91 	svccc	0x00789c91
   1eb44:	3f78a88f 	svccc	0x0078a88f
   1eb48:	3f78b47c 	svccc	0x0078b47c
   1eb4c:	3f78c059 	svccc	0x0078c059
   1eb50:	3f78cc36 	svccc	0x0078cc36
   1eb54:	3f78d812 	svccc	0x0078d812
   1eb58:	3f78e3ce 	svccc	0x0078e3ce
   1eb5c:	3f78ef9a 	svccc	0x0078ef9a
   1eb60:	3f78fb44 	svccc	0x0078fb44
   1eb64:	3f7906ee 	svccc	0x007906ee
   1eb68:	3f791299 	svccc	0x00791299
   1eb6c:	3f791e32 	svccc	0x00791e32
   1eb70:	3f7929bb 	svccc	0x007929bb
   1eb74:	3f793544 	svccc	0x00793544
   1eb78:	3f7940bc 	svccc	0x007940bc
   1eb7c:	3f794c34 	svccc	0x00794c34
   1eb80:	3f79579b 	svccc	0x0079579b
   1eb84:	3f7962f1 	svccc	0x007962f1
   1eb88:	3f796e48 	svccc	0x00796e48
   1eb8c:	3f79799e 	svccc	0x0079799e
   1eb90:	3f7984e4 	svccc	0x007984e4
   1eb94:	3f799019 	svccc	0x00799019
   1eb98:	3f799b3d 	svccc	0x00799b3d
   1eb9c:	3f79a661 	svccc	0x0079a661
   1eba0:	3f79b185 	svccc	0x0079b185
   1eba4:	3f79bc99 	svccc	0x0079bc99
   1eba8:	3f79c79b 	svccc	0x0079c79b
   1ebac:	3f79d29e 	svccc	0x0079d29e
   1ebb0:	3f79dd90 	svccc	0x0079dd90
   1ebb4:	3f79e881 	svccc	0x0079e881
   1ebb8:	3f79f362 	svccc	0x0079f362
   1ebbc:	3f79fe33 	svccc	0x0079fe33
   1ebc0:	3f7a0903 	svccc	0x007a0903
   1ebc4:	3f7a13c2 	svccc	0x007a13c2
   1ebc8:	3f7a1e82 	svccc	0x007a1e82
   1ebcc:	3f7a2930 	svccc	0x007a2930
   1ebd0:	3f7a33df 	svccc	0x007a33df
   1ebd4:	3f7a3e7d 	svccc	0x007a3e7d
   1ebd8:	3f7a490a 	svccc	0x007a490a
   1ebdc:	3f7a5397 	svccc	0x007a5397
   1ebe0:	3f7a5e24 	svccc	0x007a5e24
   1ebe4:	3f7a6890 	svccc	0x007a6890
   1ebe8:	3f7a72fc 	svccc	0x007a72fc
   1ebec:	3f7a7d67 	svccc	0x007a7d67
   1ebf0:	3f7a87c2 	svccc	0x007a87c2
   1ebf4:	3f7a920c 	svccc	0x007a920c
   1ebf8:	3f7a9c56 	svccc	0x007a9c56
   1ebfc:	3f7aa68f 	svccc	0x007aa68f
   1ec00:	3f7ab0c9 	svccc	0x007ab0c9
   1ec04:	3f7abaf1 	svccc	0x007abaf1
   1ec08:	3f7ac519 	svccc	0x007ac519
   1ec0c:	3f7acf31 	svccc	0x007acf31
   1ec10:	3f7ad938 	svccc	0x007ad938
   1ec14:	3f7ae33f 	svccc	0x007ae33f
   1ec18:	3f7aed35 	svccc	0x007aed35
   1ec1c:	3f7af72b 	svccc	0x007af72b
   1ec20:	3f7b0111 	svccc	0x007b0111
   1ec24:	3f7b0ae5 	svccc	0x007b0ae5
   1ec28:	3f7b14ba 	svccc	0x007b14ba
   1ec2c:	3f7b1e8e 	svccc	0x007b1e8e
   1ec30:	3f7b2841 	svccc	0x007b2841
   1ec34:	3f7b3205 	svccc	0x007b3205
   1ec38:	3f7b3ba7 	svccc	0x007b3ba7
   1ec3c:	3f7b454a 	svccc	0x007b454a
   1ec40:	3f7b4eec 	svccc	0x007b4eec
   1ec44:	3f7b587d 	svccc	0x007b587d
   1ec48:	3f7b61fe 	svccc	0x007b61fe
   1ec4c:	3f7b6b7f 	svccc	0x007b6b7f
   1ec50:	3f7b74ef 	svccc	0x007b74ef
   1ec54:	3f7b7e4e 	svccc	0x007b7e4e
   1ec58:	3f7b87ad 	svccc	0x007b87ad
   1ec5c:	3f7b910c 	svccc	0x007b910c
   1ec60:	3f7b9a5b 	svccc	0x007b9a5b
   1ec64:	3f7ba398 	svccc	0x007ba398
   1ec68:	3f7bacc5 	svccc	0x007bacc5
   1ec6c:	3f7bb603 	svccc	0x007bb603
   1ec70:	3f7bbf1f 	svccc	0x007bbf1f
   1ec74:	3f7bc83b 	svccc	0x007bc83b
   1ec78:	3f7bd146 	svccc	0x007bd146
   1ec7c:	3f7bda51 	svccc	0x007bda51
   1ec80:	3f7be34c 	svccc	0x007be34c
   1ec84:	3f7bec46 	svccc	0x007bec46
   1ec88:	3f7bf530 	svccc	0x007bf530
   1ec8c:	3f7bfe19 	svccc	0x007bfe19
   1ec90:	3f7c06e2 	svccc	0x007c06e2
   1ec94:	3f7c0fbb 	svccc	0x007c0fbb
   1ec98:	3f7c1883 	svccc	0x007c1883
   1ec9c:	3f7c213a 	svccc	0x007c213a
   1eca0:	3f7c29e1 	svccc	0x007c29e1
   1eca4:	3f7c3287 	svccc	0x007c3287
   1eca8:	3f7c3b2e 	svccc	0x007c3b2e
   1ecac:	3f7c43b3 	svccc	0x007c43b3
   1ecb0:	3f7c4c49 	svccc	0x007c4c49
   1ecb4:	3f7c54bd 	svccc	0x007c54bd
   1ecb8:	3f7c5d42 	svccc	0x007c5d42
   1ecbc:	3f7c65a5 	svccc	0x007c65a5
   1ecc0:	3f7c6e09 	svccc	0x007c6e09
   1ecc4:	3f7c765c 	svccc	0x007c765c
   1ecc8:	3f7c7eae 	svccc	0x007c7eae
   1eccc:	3f7c86f0 	svccc	0x007c86f0
   1ecd0:	3f7c8f32 	svccc	0x007c8f32
   1ecd4:	3f7c9763 	svccc	0x007c9763
   1ecd8:	3f7c9f84 	svccc	0x007c9f84
   1ecdc:	3f7ca7a4 	svccc	0x007ca7a4
   1ece0:	3f7cafc4 	svccc	0x007cafc4
   1ece4:	3f7cb7c3 	svccc	0x007cb7c3
   1ece8:	3f7cbfc2 	svccc	0x007cbfc2
   1ecec:	3f7cc7c1 	svccc	0x007cc7c1
   1ecf0:	3f7ccfaf 	svccc	0x007ccfaf
   1ecf4:	3f7cd78c 	svccc	0x007cd78c
   1ecf8:	3f7cdf6a 	svccc	0x007cdf6a
   1ecfc:	3f7ce736 	svccc	0x007ce736
   1ed00:	3f7cef03 	svccc	0x007cef03
   1ed04:	3f7cf6be 	svccc	0x007cf6be
   1ed08:	3f7cfe7a 	svccc	0x007cfe7a
   1ed0c:	3f7d0614 	svccc	0x007d0614
   1ed10:	3f7d0dbf 	svccc	0x007d0dbf
   1ed14:	3f7d1559 	svccc	0x007d1559
   1ed18:	3f7d1ce3 	svccc	0x007d1ce3
   1ed1c:	3f7d245b 	svccc	0x007d245b
   1ed20:	3f7d2bd4 	svccc	0x007d2bd4
   1ed24:	3f7d334c 	svccc	0x007d334c
   1ed28:	3f7d3ab4 	svccc	0x007d3ab4
   1ed2c:	3f7d420b 	svccc	0x007d420b
   1ed30:	3f7d4952 	svccc	0x007d4952
   1ed34:	3f7d50a9 	svccc	0x007d50a9
   1ed38:	3f7d57de 	svccc	0x007d57de
   1ed3c:	3f7d5f14 	svccc	0x007d5f14
   1ed40:	3f7d6638 	svccc	0x007d6638
   1ed44:	3f7d6d5d 	svccc	0x007d6d5d
   1ed48:	3f7d7471 	svccc	0x007d7471
   1ed4c:	3f7d7b85 	svccc	0x007d7b85
   1ed50:	3f7d8288 	svccc	0x007d8288
   1ed54:	3f7d897a 	svccc	0x007d897a
   1ed58:	3f7d906d 	svccc	0x007d906d
   1ed5c:	3f7d974e 	svccc	0x007d974e
   1ed60:	3f7d9e30 	svccc	0x007d9e30
   1ed64:	3f7da501 	svccc	0x007da501
   1ed68:	3f7dabd2 	svccc	0x007dabd2
   1ed6c:	3f7db292 	svccc	0x007db292
   1ed70:	3f7db941 	svccc	0x007db941
   1ed74:	3f7dbff0 	svccc	0x007dbff0
   1ed78:	3f7dc68f 	svccc	0x007dc68f
   1ed7c:	3f7dcd1c 	svccc	0x007dcd1c
   1ed80:	3f7dd3aa 	svccc	0x007dd3aa
   1ed84:	3f7dda38 	svccc	0x007dda38
   1ed88:	3f7de0b5 	svccc	0x007de0b5
   1ed8c:	3f7de721 	svccc	0x007de721
   1ed90:	3f7ded8d 	svccc	0x007ded8d
   1ed94:	3f7df3e9 	svccc	0x007df3e9
   1ed98:	3f7dfa33 	svccc	0x007dfa33
   1ed9c:	3f7e007e 	svccc	0x007e007e
   1eda0:	3f7e06c8 	svccc	0x007e06c8
   1eda4:	3f7e0cf2 	svccc	0x007e0cf2
   1eda8:	3f7e132b 	svccc	0x007e132b
   1edac:	3f7e1944 	svccc	0x007e1944
   1edb0:	3f7e1f5c 	svccc	0x007e1f5c
   1edb4:	3f7e2574 	svccc	0x007e2574
   1edb8:	3f7e2b6b 	svccc	0x007e2b6b
   1edbc:	3f7e3172 	svccc	0x007e3172
   1edc0:	3f7e3758 	svccc	0x007e3758
   1edc4:	3f7e3d3e 	svccc	0x007e3d3e
   1edc8:	3f7e4324 	svccc	0x007e4324
   1edcc:	3f7e48f9 	svccc	0x007e48f9
   1edd0:	3f7e4ebe 	svccc	0x007e4ebe
   1edd4:	3f7e5482 	svccc	0x007e5482
   1edd8:	3f7e5a36 	svccc	0x007e5a36
   1eddc:	3f7e5fe9 	svccc	0x007e5fe9
   1ede0:	3f7e658c 	svccc	0x007e658c
   1ede4:	3f7e6b1e 	svccc	0x007e6b1e
   1ede8:	3f7e70b0 	svccc	0x007e70b0
   1edec:	3f7e7632 	svccc	0x007e7632
   1edf0:	3f7e7bb3 	svccc	0x007e7bb3
   1edf4:	3f7e8124 	svccc	0x007e8124
   1edf8:	3f7e8683 	svccc	0x007e8683
   1edfc:	3f7e8be3 	svccc	0x007e8be3
   1ee00:	3f7e9143 	svccc	0x007e9143
   1ee04:	3f7e9681 	svccc	0x007e9681
   1ee08:	3f7e9bd0 	svccc	0x007e9bd0
   1ee0c:	3f7ea0fd 	svccc	0x007ea0fd
   1ee10:	3f7ea62b 	svccc	0x007ea62b
   1ee14:	3f7eab58 	svccc	0x007eab58
   1ee18:	3f7eb064 	svccc	0x007eb064
   1ee1c:	3f7eb580 	svccc	0x007eb580
   1ee20:	3f7eba7c 	svccc	0x007eba7c
   1ee24:	3f7ebf77 	svccc	0x007ebf77
   1ee28:	3f7ec472 	svccc	0x007ec472
   1ee2c:	3f7ec95c 	svccc	0x007ec95c
   1ee30:	3f7ece36 	svccc	0x007ece36
   1ee34:	3f7ed30f 	svccc	0x007ed30f
   1ee38:	3f7ed7d8 	svccc	0x007ed7d8
   1ee3c:	3f7edc90 	svccc	0x007edc90
   1ee40:	3f7ee148 	svccc	0x007ee148
   1ee44:	3f7ee600 	svccc	0x007ee600
   1ee48:	3f7eea96 	svccc	0x007eea96
   1ee4c:	3f7eef3d 	svccc	0x007eef3d
   1ee50:	3f7ef3c3 	svccc	0x007ef3c3
   1ee54:	3f7ef848 	svccc	0x007ef848
   1ee58:	3f7efcce 	svccc	0x007efcce
   1ee5c:	3f7f0143 	svccc	0x007f0143
   1ee60:	3f7f05a7 	svccc	0x007f05a7
   1ee64:	3f7f0a0b 	svccc	0x007f0a0b
   1ee68:	3f7f0e5e 	svccc	0x007f0e5e
   1ee6c:	3f7f12a1 	svccc	0x007f12a1
   1ee70:	3f7f16e3 	svccc	0x007f16e3
   1ee74:	3f7f1b15 	svccc	0x007f1b15
   1ee78:	3f7f1f47 	svccc	0x007f1f47
   1ee7c:	3f7f2368 	svccc	0x007f2368
   1ee80:	3f7f2789 	svccc	0x007f2789
   1ee84:	3f7f2b99 	svccc	0x007f2b99
   1ee88:	3f7f2f98 	svccc	0x007f2f98
   1ee8c:	3f7f3398 	svccc	0x007f3398
   1ee90:	3f7f3786 	svccc	0x007f3786
   1ee94:	3f7f3b75 	svccc	0x007f3b75
   1ee98:	3f7f3f53 	svccc	0x007f3f53
   1ee9c:	3f7f4331 	svccc	0x007f4331
   1eea0:	3f7f46ed 	svccc	0x007f46ed
   1eea4:	3f7f4aba 	svccc	0x007f4aba
   1eea8:	3f7f4e66 	svccc	0x007f4e66
   1eeac:	3f7f5222 	svccc	0x007f5222
   1eeb0:	3f7f55bd 	svccc	0x007f55bd
   1eeb4:	3f7f5958 	svccc	0x007f5958
   1eeb8:	3f7f5ce2 	svccc	0x007f5ce2
   1eebc:	3f7f606b 	svccc	0x007f606b
   1eec0:	3f7f63e5 	svccc	0x007f63e5
   1eec4:	3f7f675e 	svccc	0x007f675e
   1eec8:	3f7f6ac6 	svccc	0x007f6ac6
   1eecc:	3f7f6e2f 	svccc	0x007f6e2f
   1eed0:	3f7f7176 	svccc	0x007f7176
   1eed4:	3f7f74cd 	svccc	0x007f74cd
   1eed8:	3f7f7803 	svccc	0x007f7803
   1eedc:	3f7f7b39 	svccc	0x007f7b39
   1eee0:	3f7f7e6f 	svccc	0x007f7e6f
   1eee4:	3f7f8195 	svccc	0x007f8195
   1eee8:	3f7f84a9 	svccc	0x007f84a9
   1eeec:	3f7f87be 	svccc	0x007f87be
   1eef0:	3f7f8ac2 	svccc	0x007f8ac2
   1eef4:	3f7f8dc5 	svccc	0x007f8dc5
   1eef8:	3f7f90b8 	svccc	0x007f90b8
   1eefc:	3f7f939a 	svccc	0x007f939a
   1ef00:	3f7f967d 	svccc	0x007f967d
   1ef04:	3f7f994e 	svccc	0x007f994e
   1ef08:	3f7f9c20 	svccc	0x007f9c20
   1ef0c:	3f7f9ee0 	svccc	0x007f9ee0
   1ef10:	3f7fa190 	svccc	0x007fa190
   1ef14:	3f7fa440 	svccc	0x007fa440
   1ef18:	3f7fa6df 	svccc	0x007fa6df
   1ef1c:	3f7fa97e 	svccc	0x007fa97e
   1ef20:	3f7fac0c 	svccc	0x007fac0c
   1ef24:	3f7fae9b 	svccc	0x007fae9b
   1ef28:	3f7fb107 	svccc	0x007fb107
   1ef2c:	3f7fb385 	svccc	0x007fb385
   1ef30:	3f7fb5f2 	svccc	0x007fb5f2
   1ef34:	3f7fb84e 	svccc	0x007fb84e
   1ef38:	3f7fba99 	svccc	0x007fba99
   1ef3c:	3f7fbce4 	svccc	0x007fbce4
   1ef40:	3f7fbf2f 	svccc	0x007fbf2f
   1ef44:	3f7fc16a 	svccc	0x007fc16a
   1ef48:	3f7fc393 	svccc	0x007fc393
   1ef4c:	3f7fc5ac 	svccc	0x007fc5ac
   1ef50:	3f7fc7c5 	svccc	0x007fc7c5
   1ef54:	3f7fc9de 	svccc	0x007fc9de
   1ef58:	3f7fcbe6 	svccc	0x007fcbe6
   1ef5c:	3f7fcddd 	svccc	0x007fcddd
   1ef60:	3f7fcfd5 	svccc	0x007fcfd5
   1ef64:	3f7fd1bb 	svccc	0x007fd1bb
   1ef68:	3f7fd391 	svccc	0x007fd391
   1ef6c:	3f7fd567 	svccc	0x007fd567
   1ef70:	3f7fd73d 	svccc	0x007fd73d
   1ef74:	3f7fd8f1 	svccc	0x007fd8f1
   1ef78:	3f7fdab6 	svccc	0x007fdab6
   1ef7c:	3f7fdc59 	svccc	0x007fdc59
   1ef80:	3f7fddfd 	svccc	0x007fddfd
   1ef84:	3f7fdfa0 	svccc	0x007fdfa0
   1ef88:	3f7fe122 	svccc	0x007fe122
   1ef8c:	3f7fe2b5 	svccc	0x007fe2b5
   1ef90:	3f7fe426 	svccc	0x007fe426
   1ef94:	3f7fe597 	svccc	0x007fe597
   1ef98:	3f7fe708 	svccc	0x007fe708
   1ef9c:	3f7fe868 	svccc	0x007fe868
   1efa0:	3f7fe9b8 	svccc	0x007fe9b8
   1efa4:	3f7feb07 	svccc	0x007feb07
   1efa8:	3f7fec46 	svccc	0x007fec46
   1efac:	3f7fed74 	svccc	0x007fed74
   1efb0:	3f7feea2 	svccc	0x007feea2
   1efb4:	3f7fefd0 	svccc	0x007fefd0
   1efb8:	3f7ff0dc 	svccc	0x007ff0dc
   1efbc:	3f7ff1fa 	svccc	0x007ff1fa
   1efc0:	3f7ff2f5 	svccc	0x007ff2f5
   1efc4:	3f7ff3f1 	svccc	0x007ff3f1
   1efc8:	3f7ff4ed 	svccc	0x007ff4ed
   1efcc:	3f7ff5c7 	svccc	0x007ff5c7
   1efd0:	3f7ff6b2 	svccc	0x007ff6b2
   1efd4:	3f7ff77b 	svccc	0x007ff77b
   1efd8:	3f7ff844 	svccc	0x007ff844
   1efdc:	3f7ff90e 	svccc	0x007ff90e
   1efe0:	3f7ff9c6 	svccc	0x007ff9c6
   1efe4:	3f7ffa6e 	svccc	0x007ffa6e
   1efe8:	3f7ffb16 	svccc	0x007ffb16
   1efec:	3f7ffbad 	svccc	0x007ffbad
   1eff0:	3f7ffc33 	svccc	0x007ffc33
   1eff4:	3f7ffcb9 	svccc	0x007ffcb9
   1eff8:	3f7ffd3f 	svccc	0x007ffd3f
   1effc:	3f7ffda4 	svccc	0x007ffda4
   1f000:	3f7ffe19 	svccc	0x007ffe19
   1f004:	3f7ffe6d 	svccc	0x007ffe6d
   1f008:	3f7ffec1 	svccc	0x007ffec1
   1f00c:	3f7fff15 	svccc	0x007fff15
   1f010:	3f7fff47 	svccc	0x007fff47
   1f014:	3f7fff8b 	svccc	0x007fff8b
   1f018:	3f7fffac 	svccc	0x007fffac
   1f01c:	3f7fffce 	svccc	0x007fffce
   1f020:	3f7fffef 	svccc	0x007fffef
   1f024:	3f800000 	svccc	0x00800000
   1f028:	3f800000 	svccc	0x00800000
   1f02c:	3f800000 	svccc	0x00800000
   1f030:	3f7fffef 	svccc	0x007fffef
   1f034:	3f7fffce 	svccc	0x007fffce
   1f038:	3f7fffac 	svccc	0x007fffac
   1f03c:	3f7fff8b 	svccc	0x007fff8b
   1f040:	3f7fff47 	svccc	0x007fff47
   1f044:	3f7fff15 	svccc	0x007fff15
   1f048:	3f7ffec1 	svccc	0x007ffec1
   1f04c:	3f7ffe6d 	svccc	0x007ffe6d
   1f050:	3f7ffe19 	svccc	0x007ffe19
   1f054:	3f7ffda4 	svccc	0x007ffda4
   1f058:	3f7ffd3f 	svccc	0x007ffd3f
   1f05c:	3f7ffcb9 	svccc	0x007ffcb9
   1f060:	3f7ffc33 	svccc	0x007ffc33
   1f064:	3f7ffbad 	svccc	0x007ffbad
   1f068:	3f7ffb16 	svccc	0x007ffb16
   1f06c:	3f7ffa6e 	svccc	0x007ffa6e
   1f070:	3f7ff9c6 	svccc	0x007ff9c6
   1f074:	3f7ff90e 	svccc	0x007ff90e
   1f078:	3f7ff844 	svccc	0x007ff844
   1f07c:	3f7ff77b 	svccc	0x007ff77b
   1f080:	3f7ff6b2 	svccc	0x007ff6b2
   1f084:	3f7ff5c7 	svccc	0x007ff5c7
   1f088:	3f7ff4ed 	svccc	0x007ff4ed
   1f08c:	3f7ff3f1 	svccc	0x007ff3f1
   1f090:	3f7ff2f5 	svccc	0x007ff2f5
   1f094:	3f7ff1fa 	svccc	0x007ff1fa
   1f098:	3f7ff0dc 	svccc	0x007ff0dc
   1f09c:	3f7fefd0 	svccc	0x007fefd0
   1f0a0:	3f7feea2 	svccc	0x007feea2
   1f0a4:	3f7fed74 	svccc	0x007fed74
   1f0a8:	3f7fec46 	svccc	0x007fec46
   1f0ac:	3f7feb07 	svccc	0x007feb07
   1f0b0:	3f7fe9b8 	svccc	0x007fe9b8
   1f0b4:	3f7fe868 	svccc	0x007fe868
   1f0b8:	3f7fe708 	svccc	0x007fe708
   1f0bc:	3f7fe597 	svccc	0x007fe597
   1f0c0:	3f7fe426 	svccc	0x007fe426
   1f0c4:	3f7fe2b5 	svccc	0x007fe2b5
   1f0c8:	3f7fe122 	svccc	0x007fe122
   1f0cc:	3f7fdfa0 	svccc	0x007fdfa0
   1f0d0:	3f7fddfd 	svccc	0x007fddfd
   1f0d4:	3f7fdc59 	svccc	0x007fdc59
   1f0d8:	3f7fdab6 	svccc	0x007fdab6
   1f0dc:	3f7fd8f1 	svccc	0x007fd8f1
   1f0e0:	3f7fd73d 	svccc	0x007fd73d
   1f0e4:	3f7fd567 	svccc	0x007fd567
   1f0e8:	3f7fd391 	svccc	0x007fd391
   1f0ec:	3f7fd1bb 	svccc	0x007fd1bb
   1f0f0:	3f7fcfd5 	svccc	0x007fcfd5
   1f0f4:	3f7fcddd 	svccc	0x007fcddd
   1f0f8:	3f7fcbe6 	svccc	0x007fcbe6
   1f0fc:	3f7fc9de 	svccc	0x007fc9de
   1f100:	3f7fc7c5 	svccc	0x007fc7c5
   1f104:	3f7fc5ac 	svccc	0x007fc5ac
   1f108:	3f7fc393 	svccc	0x007fc393
   1f10c:	3f7fc16a 	svccc	0x007fc16a
   1f110:	3f7fbf2f 	svccc	0x007fbf2f
   1f114:	3f7fbce4 	svccc	0x007fbce4
   1f118:	3f7fba99 	svccc	0x007fba99
   1f11c:	3f7fb84e 	svccc	0x007fb84e
   1f120:	3f7fb5f2 	svccc	0x007fb5f2
   1f124:	3f7fb385 	svccc	0x007fb385
   1f128:	3f7fb107 	svccc	0x007fb107
   1f12c:	3f7fae9b 	svccc	0x007fae9b
   1f130:	3f7fac0c 	svccc	0x007fac0c
   1f134:	3f7fa97e 	svccc	0x007fa97e
   1f138:	3f7fa6df 	svccc	0x007fa6df
   1f13c:	3f7fa440 	svccc	0x007fa440
   1f140:	3f7fa190 	svccc	0x007fa190
   1f144:	3f7f9ee0 	svccc	0x007f9ee0
   1f148:	3f7f9c20 	svccc	0x007f9c20
   1f14c:	3f7f994e 	svccc	0x007f994e
   1f150:	3f7f967d 	svccc	0x007f967d
   1f154:	3f7f939a 	svccc	0x007f939a
   1f158:	3f7f90b8 	svccc	0x007f90b8
   1f15c:	3f7f8dc5 	svccc	0x007f8dc5
   1f160:	3f7f8ac2 	svccc	0x007f8ac2
   1f164:	3f7f87be 	svccc	0x007f87be
   1f168:	3f7f84a9 	svccc	0x007f84a9
   1f16c:	3f7f8195 	svccc	0x007f8195
   1f170:	3f7f7e6f 	svccc	0x007f7e6f
   1f174:	3f7f7b39 	svccc	0x007f7b39
   1f178:	3f7f7803 	svccc	0x007f7803
   1f17c:	3f7f74cd 	svccc	0x007f74cd
   1f180:	3f7f7176 	svccc	0x007f7176
   1f184:	3f7f6e2f 	svccc	0x007f6e2f
   1f188:	3f7f6ac6 	svccc	0x007f6ac6
   1f18c:	3f7f675e 	svccc	0x007f675e
   1f190:	3f7f63e5 	svccc	0x007f63e5
   1f194:	3f7f606b 	svccc	0x007f606b
   1f198:	3f7f5ce2 	svccc	0x007f5ce2
   1f19c:	3f7f5958 	svccc	0x007f5958
   1f1a0:	3f7f55bd 	svccc	0x007f55bd
   1f1a4:	3f7f5222 	svccc	0x007f5222
   1f1a8:	3f7f4e66 	svccc	0x007f4e66
   1f1ac:	3f7f4aba 	svccc	0x007f4aba
   1f1b0:	3f7f46ed 	svccc	0x007f46ed
   1f1b4:	3f7f4331 	svccc	0x007f4331
   1f1b8:	3f7f3f53 	svccc	0x007f3f53
   1f1bc:	3f7f3b75 	svccc	0x007f3b75
   1f1c0:	3f7f3786 	svccc	0x007f3786
   1f1c4:	3f7f3398 	svccc	0x007f3398
   1f1c8:	3f7f2f98 	svccc	0x007f2f98
   1f1cc:	3f7f2b99 	svccc	0x007f2b99
   1f1d0:	3f7f2789 	svccc	0x007f2789
   1f1d4:	3f7f2368 	svccc	0x007f2368
   1f1d8:	3f7f1f47 	svccc	0x007f1f47
   1f1dc:	3f7f1b15 	svccc	0x007f1b15
   1f1e0:	3f7f16e3 	svccc	0x007f16e3
   1f1e4:	3f7f12a1 	svccc	0x007f12a1
   1f1e8:	3f7f0e5e 	svccc	0x007f0e5e
   1f1ec:	3f7f0a0b 	svccc	0x007f0a0b
   1f1f0:	3f7f05a7 	svccc	0x007f05a7
   1f1f4:	3f7f0143 	svccc	0x007f0143
   1f1f8:	3f7efcce 	svccc	0x007efcce
   1f1fc:	3f7ef848 	svccc	0x007ef848
   1f200:	3f7ef3c3 	svccc	0x007ef3c3
   1f204:	3f7eef3d 	svccc	0x007eef3d
   1f208:	3f7eea96 	svccc	0x007eea96
   1f20c:	3f7ee600 	svccc	0x007ee600
   1f210:	3f7ee148 	svccc	0x007ee148
   1f214:	3f7edc90 	svccc	0x007edc90
   1f218:	3f7ed7d8 	svccc	0x007ed7d8
   1f21c:	3f7ed30f 	svccc	0x007ed30f
   1f220:	3f7ece36 	svccc	0x007ece36
   1f224:	3f7ec95c 	svccc	0x007ec95c
   1f228:	3f7ec472 	svccc	0x007ec472
   1f22c:	3f7ebf77 	svccc	0x007ebf77
   1f230:	3f7eba7c 	svccc	0x007eba7c
   1f234:	3f7eb580 	svccc	0x007eb580
   1f238:	3f7eb064 	svccc	0x007eb064
   1f23c:	3f7eab58 	svccc	0x007eab58
   1f240:	3f7ea62b 	svccc	0x007ea62b
   1f244:	3f7ea0fd 	svccc	0x007ea0fd
   1f248:	3f7e9bd0 	svccc	0x007e9bd0
   1f24c:	3f7e9681 	svccc	0x007e9681
   1f250:	3f7e9143 	svccc	0x007e9143
   1f254:	3f7e8be3 	svccc	0x007e8be3
   1f258:	3f7e8683 	svccc	0x007e8683
   1f25c:	3f7e8124 	svccc	0x007e8124
   1f260:	3f7e7bb3 	svccc	0x007e7bb3
   1f264:	3f7e7632 	svccc	0x007e7632
   1f268:	3f7e70b0 	svccc	0x007e70b0
   1f26c:	3f7e6b1e 	svccc	0x007e6b1e
   1f270:	3f7e658c 	svccc	0x007e658c
   1f274:	3f7e5fe9 	svccc	0x007e5fe9
   1f278:	3f7e5a36 	svccc	0x007e5a36
   1f27c:	3f7e5482 	svccc	0x007e5482
   1f280:	3f7e4ebe 	svccc	0x007e4ebe
   1f284:	3f7e48f9 	svccc	0x007e48f9
   1f288:	3f7e4324 	svccc	0x007e4324
   1f28c:	3f7e3d3e 	svccc	0x007e3d3e
   1f290:	3f7e3758 	svccc	0x007e3758
   1f294:	3f7e3172 	svccc	0x007e3172
   1f298:	3f7e2b6b 	svccc	0x007e2b6b
   1f29c:	3f7e2574 	svccc	0x007e2574
   1f2a0:	3f7e1f5c 	svccc	0x007e1f5c
   1f2a4:	3f7e1944 	svccc	0x007e1944
   1f2a8:	3f7e132b 	svccc	0x007e132b
   1f2ac:	3f7e0cf2 	svccc	0x007e0cf2
   1f2b0:	3f7e06c8 	svccc	0x007e06c8
   1f2b4:	3f7e007e 	svccc	0x007e007e
   1f2b8:	3f7dfa33 	svccc	0x007dfa33
   1f2bc:	3f7df3e9 	svccc	0x007df3e9
   1f2c0:	3f7ded8d 	svccc	0x007ded8d
   1f2c4:	3f7de721 	svccc	0x007de721
   1f2c8:	3f7de0b5 	svccc	0x007de0b5
   1f2cc:	3f7dda38 	svccc	0x007dda38
   1f2d0:	3f7dd3aa 	svccc	0x007dd3aa
   1f2d4:	3f7dcd1c 	svccc	0x007dcd1c
   1f2d8:	3f7dc68f 	svccc	0x007dc68f
   1f2dc:	3f7dbff0 	svccc	0x007dbff0
   1f2e0:	3f7db941 	svccc	0x007db941
   1f2e4:	3f7db292 	svccc	0x007db292
   1f2e8:	3f7dabd2 	svccc	0x007dabd2
   1f2ec:	3f7da501 	svccc	0x007da501
   1f2f0:	3f7d9e30 	svccc	0x007d9e30
   1f2f4:	3f7d974e 	svccc	0x007d974e
   1f2f8:	3f7d906d 	svccc	0x007d906d
   1f2fc:	3f7d897a 	svccc	0x007d897a
   1f300:	3f7d8288 	svccc	0x007d8288
   1f304:	3f7d7b85 	svccc	0x007d7b85
   1f308:	3f7d7471 	svccc	0x007d7471
   1f30c:	3f7d6d5d 	svccc	0x007d6d5d
   1f310:	3f7d6638 	svccc	0x007d6638
   1f314:	3f7d5f14 	svccc	0x007d5f14
   1f318:	3f7d57de 	svccc	0x007d57de
   1f31c:	3f7d50a9 	svccc	0x007d50a9
   1f320:	3f7d4952 	svccc	0x007d4952
   1f324:	3f7d420b 	svccc	0x007d420b
   1f328:	3f7d3ab4 	svccc	0x007d3ab4
   1f32c:	3f7d334c 	svccc	0x007d334c
   1f330:	3f7d2bd4 	svccc	0x007d2bd4
   1f334:	3f7d245b 	svccc	0x007d245b
   1f338:	3f7d1ce3 	svccc	0x007d1ce3
   1f33c:	3f7d1559 	svccc	0x007d1559
   1f340:	3f7d0dbf 	svccc	0x007d0dbf
   1f344:	3f7d0614 	svccc	0x007d0614
   1f348:	3f7cfe7a 	svccc	0x007cfe7a
   1f34c:	3f7cf6be 	svccc	0x007cf6be
   1f350:	3f7cef03 	svccc	0x007cef03
   1f354:	3f7ce736 	svccc	0x007ce736
   1f358:	3f7cdf6a 	svccc	0x007cdf6a
   1f35c:	3f7cd78c 	svccc	0x007cd78c
   1f360:	3f7ccfaf 	svccc	0x007ccfaf
   1f364:	3f7cc7c1 	svccc	0x007cc7c1
   1f368:	3f7cbfc2 	svccc	0x007cbfc2
   1f36c:	3f7cb7c3 	svccc	0x007cb7c3
   1f370:	3f7cafc4 	svccc	0x007cafc4
   1f374:	3f7ca7a4 	svccc	0x007ca7a4
   1f378:	3f7c9f84 	svccc	0x007c9f84
   1f37c:	3f7c9763 	svccc	0x007c9763
   1f380:	3f7c8f32 	svccc	0x007c8f32
   1f384:	3f7c86f0 	svccc	0x007c86f0
   1f388:	3f7c7eae 	svccc	0x007c7eae
   1f38c:	3f7c765c 	svccc	0x007c765c
   1f390:	3f7c6e09 	svccc	0x007c6e09
   1f394:	3f7c65a5 	svccc	0x007c65a5
   1f398:	3f7c5d42 	svccc	0x007c5d42
   1f39c:	3f7c54bd 	svccc	0x007c54bd
   1f3a0:	3f7c4c49 	svccc	0x007c4c49
   1f3a4:	3f7c43b3 	svccc	0x007c43b3
   1f3a8:	3f7c3b2e 	svccc	0x007c3b2e
   1f3ac:	3f7c3287 	svccc	0x007c3287
   1f3b0:	3f7c29e1 	svccc	0x007c29e1
   1f3b4:	3f7c213a 	svccc	0x007c213a
   1f3b8:	3f7c1883 	svccc	0x007c1883
   1f3bc:	3f7c0fbb 	svccc	0x007c0fbb
   1f3c0:	3f7c06e2 	svccc	0x007c06e2
   1f3c4:	3f7bfe19 	svccc	0x007bfe19
   1f3c8:	3f7bf530 	svccc	0x007bf530
   1f3cc:	3f7bec46 	svccc	0x007bec46
   1f3d0:	3f7be34c 	svccc	0x007be34c
   1f3d4:	3f7bda51 	svccc	0x007bda51
   1f3d8:	3f7bd146 	svccc	0x007bd146
   1f3dc:	3f7bc83b 	svccc	0x007bc83b
   1f3e0:	3f7bbf1f 	svccc	0x007bbf1f
   1f3e4:	3f7bb603 	svccc	0x007bb603
   1f3e8:	3f7bacc5 	svccc	0x007bacc5
   1f3ec:	3f7ba398 	svccc	0x007ba398
   1f3f0:	3f7b9a5b 	svccc	0x007b9a5b
   1f3f4:	3f7b910c 	svccc	0x007b910c
   1f3f8:	3f7b87ad 	svccc	0x007b87ad
   1f3fc:	3f7b7e4e 	svccc	0x007b7e4e
   1f400:	3f7b74ef 	svccc	0x007b74ef
   1f404:	3f7b6b7f 	svccc	0x007b6b7f
   1f408:	3f7b61fe 	svccc	0x007b61fe
   1f40c:	3f7b587d 	svccc	0x007b587d
   1f410:	3f7b4eec 	svccc	0x007b4eec
   1f414:	3f7b454a 	svccc	0x007b454a
   1f418:	3f7b3ba7 	svccc	0x007b3ba7
   1f41c:	3f7b3205 	svccc	0x007b3205
   1f420:	3f7b2841 	svccc	0x007b2841
   1f424:	3f7b1e8e 	svccc	0x007b1e8e
   1f428:	3f7b14ba 	svccc	0x007b14ba
   1f42c:	3f7b0ae5 	svccc	0x007b0ae5
   1f430:	3f7b0111 	svccc	0x007b0111
   1f434:	3f7af72b 	svccc	0x007af72b
   1f438:	3f7aed35 	svccc	0x007aed35
   1f43c:	3f7ae33f 	svccc	0x007ae33f
   1f440:	3f7ad938 	svccc	0x007ad938
   1f444:	3f7acf31 	svccc	0x007acf31
   1f448:	3f7ac519 	svccc	0x007ac519
   1f44c:	3f7abaf1 	svccc	0x007abaf1
   1f450:	3f7ab0c9 	svccc	0x007ab0c9
   1f454:	3f7aa68f 	svccc	0x007aa68f
   1f458:	3f7a9c56 	svccc	0x007a9c56
   1f45c:	3f7a920c 	svccc	0x007a920c
   1f460:	3f7a87c2 	svccc	0x007a87c2
   1f464:	3f7a7d67 	svccc	0x007a7d67
   1f468:	3f7a72fc 	svccc	0x007a72fc
   1f46c:	3f7a6890 	svccc	0x007a6890
   1f470:	3f7a5e24 	svccc	0x007a5e24
   1f474:	3f7a5397 	svccc	0x007a5397
   1f478:	3f7a490a 	svccc	0x007a490a
   1f47c:	3f7a3e7d 	svccc	0x007a3e7d
   1f480:	3f7a33df 	svccc	0x007a33df
   1f484:	3f7a2930 	svccc	0x007a2930
   1f488:	3f7a1e82 	svccc	0x007a1e82
   1f48c:	3f7a13c2 	svccc	0x007a13c2
   1f490:	3f7a0903 	svccc	0x007a0903
   1f494:	3f79fe33 	svccc	0x0079fe33
   1f498:	3f79f362 	svccc	0x0079f362
   1f49c:	3f79e881 	svccc	0x0079e881
   1f4a0:	3f79dd90 	svccc	0x0079dd90
   1f4a4:	3f79d29e 	svccc	0x0079d29e
   1f4a8:	3f79c79b 	svccc	0x0079c79b
   1f4ac:	3f79bc99 	svccc	0x0079bc99
   1f4b0:	3f79b185 	svccc	0x0079b185
   1f4b4:	3f79a661 	svccc	0x0079a661
   1f4b8:	3f799b3d 	svccc	0x00799b3d
   1f4bc:	3f799019 	svccc	0x00799019
   1f4c0:	3f7984e4 	svccc	0x007984e4
   1f4c4:	3f79799e 	svccc	0x0079799e
   1f4c8:	3f796e48 	svccc	0x00796e48
   1f4cc:	3f7962f1 	svccc	0x007962f1
   1f4d0:	3f79579b 	svccc	0x0079579b
   1f4d4:	3f794c34 	svccc	0x00794c34
   1f4d8:	3f7940bc 	svccc	0x007940bc
   1f4dc:	3f793544 	svccc	0x00793544
   1f4e0:	3f7929bb 	svccc	0x007929bb
   1f4e4:	3f791e32 	svccc	0x00791e32
   1f4e8:	3f791299 	svccc	0x00791299
   1f4ec:	3f7906ee 	svccc	0x007906ee
   1f4f0:	3f78fb44 	svccc	0x0078fb44
   1f4f4:	3f78ef9a 	svccc	0x0078ef9a
   1f4f8:	3f78e3ce 	svccc	0x0078e3ce
   1f4fc:	3f78d812 	svccc	0x0078d812
   1f500:	3f78cc36 	svccc	0x0078cc36
   1f504:	3f78c059 	svccc	0x0078c059
   1f508:	3f78b47c 	svccc	0x0078b47c
   1f50c:	3f78a88f 	svccc	0x0078a88f
   1f510:	3f789c91 	svccc	0x00789c91
   1f514:	3f789093 	svccc	0x00789093
   1f518:	3f788484 	svccc	0x00788484
   1f51c:	3f787875 	svccc	0x00787875
   1f520:	3f786c55 	svccc	0x00786c55
   1f524:	3f786024 	svccc	0x00786024
   1f528:	3f7853f4 	svccc	0x007853f4
   1f52c:	3f7847c3 	svccc	0x007847c3
   1f530:	3f783b71 	svccc	0x00783b71
   1f534:	3f782f30 	svccc	0x00782f30
   1f538:	3f7822cd 	svccc	0x007822cd
   1f53c:	3f78166a 	svccc	0x0078166a
   1f540:	3f780a07 	svccc	0x00780a07
   1f544:	3f77fd93 	svccc	0x0077fd93
   1f548:	3f77f10f 	svccc	0x0077f10f
   1f54c:	3f77e48a 	svccc	0x0077e48a
   1f550:	3f77d7f5 	svccc	0x0077d7f5
   1f554:	3f77cb60 	svccc	0x0077cb60
   1f558:	3f77beba 	svccc	0x0077beba
   1f55c:	3f77b203 	svccc	0x0077b203
   1f560:	3f77a54c 	svccc	0x0077a54c
   1f564:	3f779896 	svccc	0x00779896
   1f568:	3f778bbd 	svccc	0x00778bbd
   1f56c:	3f777ef6 	svccc	0x00777ef6
   1f570:	3f77720d 	svccc	0x0077720d
   1f574:	3f776523 	svccc	0x00776523
   1f578:	3f77583a 	svccc	0x0077583a
   1f57c:	3f774b40 	svccc	0x00774b40
   1f580:	3f773e36 	svccc	0x00773e36
   1f584:	3f77312b 	svccc	0x0077312b
   1f588:	3f772410 	svccc	0x00772410
   1f58c:	3f7716f4 	svccc	0x007716f4
   1f590:	3f7709c8 	svccc	0x007709c8
   1f594:	3f76fc9c 	svccc	0x0076fc9c
   1f598:	3f76ef5f 	svccc	0x0076ef5f
   1f59c:	3f76e211 	svccc	0x0076e211
   1f5a0:	3f76d4c3 	svccc	0x0076d4c3
   1f5a4:	3f76c765 	svccc	0x0076c765
   1f5a8:	3f76ba06 	svccc	0x0076ba06
   1f5ac:	3f76ac97 	svccc	0x0076ac97
   1f5b0:	3f769f27 	svccc	0x00769f27
   1f5b4:	3f7691a7 	svccc	0x007691a7
   1f5b8:	3f768416 	svccc	0x00768416
   1f5bc:	3f767686 	svccc	0x00767686
   1f5c0:	3f7668e4 	svccc	0x007668e4
   1f5c4:	3f765b42 	svccc	0x00765b42
   1f5c8:	3f764d90 	svccc	0x00764d90
   1f5cc:	3f763fdd 	svccc	0x00763fdd
   1f5d0:	3f76321a 	svccc	0x0076321a
   1f5d4:	3f762457 	svccc	0x00762457
   1f5d8:	3f761672 	svccc	0x00761672
   1f5dc:	3f76089e 	svccc	0x0076089e
   1f5e0:	3f75fab9 	svccc	0x0075fab9
   1f5e4:	3f75ecc4 	svccc	0x0075ecc4
   1f5e8:	3f75dece 	svccc	0x0075dece
   1f5ec:	3f75d0c8 	svccc	0x0075d0c8
   1f5f0:	3f75c2b1 	svccc	0x0075c2b1
   1f5f4:	3f75b49a 	svccc	0x0075b49a
   1f5f8:	3f75a683 	svccc	0x0075a683
   1f5fc:	3f75984a 	svccc	0x0075984a
   1f600:	3f758a22 	svccc	0x00758a22
   1f604:	3f757bd9 	svccc	0x00757bd9
   1f608:	3f756d8f 	svccc	0x00756d8f
   1f60c:	3f755f46 	svccc	0x00755f46
   1f610:	3f7550ec 	svccc	0x007550ec
   1f614:	3f754291 	svccc	0x00754291
   1f618:	3f753416 	svccc	0x00753416
   1f61c:	3f7525ab 	svccc	0x007525ab
   1f620:	3f75172f 	svccc	0x0075172f
   1f624:	3f7508a2 	svccc	0x007508a2
   1f628:	3f74fa05 	svccc	0x0074fa05
   1f62c:	3f74eb68 	svccc	0x0074eb68
   1f630:	3f74dcca 	svccc	0x0074dcca
   1f634:	3f74ce1c 	svccc	0x0074ce1c
   1f638:	3f74bf5d 	svccc	0x0074bf5d
   1f63c:	3f74b09f 	svccc	0x0074b09f
   1f640:	3f74a1cf 	svccc	0x0074a1cf
   1f644:	3f7492ff 	svccc	0x007492ff
   1f648:	3f74841f 	svccc	0x0074841f
   1f64c:	3f74753e 	svccc	0x0074753e
   1f650:	3f74664d 	svccc	0x0074664d
   1f654:	3f74574b 	svccc	0x0074574b
   1f658:	3f744849 	svccc	0x00744849
   1f65c:	3f743937 	svccc	0x00743937
   1f660:	3f742a24 	svccc	0x00742a24
   1f664:	3f741b00 	svccc	0x00741b00
   1f668:	3f740bdd 	svccc	0x00740bdd
   1f66c:	3f73fca8 	svccc	0x0073fca8
   1f670:	3f73ed74 	svccc	0x0073ed74
   1f674:	3f73de2f 	svccc	0x0073de2f
   1f678:	3f73ced9 	svccc	0x0073ced9
   1f67c:	3f73bf83 	svccc	0x0073bf83
   1f680:	3f73b01d 	svccc	0x0073b01d
   1f684:	3f73a0b6 	svccc	0x0073a0b6
   1f688:	3f73913f 	svccc	0x0073913f
   1f68c:	3f7381c7 	svccc	0x007381c7
   1f690:	3f73723f 	svccc	0x0073723f
   1f694:	3f7362a6 	svccc	0x007362a6
   1f698:	3f73530d 	svccc	0x0073530d
   1f69c:	3f734363 	svccc	0x00734363
   1f6a0:	3f7333b9 	svccc	0x007333b9
   1f6a4:	3f7323ff 	svccc	0x007323ff
   1f6a8:	3f731444 	svccc	0x00731444
   1f6ac:	3f730479 	svccc	0x00730479
   1f6b0:	3f72f4ae 	svccc	0x0072f4ae
   1f6b4:	3f72e4d2 	svccc	0x0072e4d2
   1f6b8:	3f72d4e5 	svccc	0x0072d4e5
   1f6bc:	3f72c4f8 	svccc	0x0072c4f8
   1f6c0:	3f72b50b 	svccc	0x0072b50b
   1f6c4:	3f72a4fd 	svccc	0x0072a4fd
   1f6c8:	3f7294ff 	svccc	0x007294ff
   1f6cc:	3f7284e0 	svccc	0x007284e0
   1f6d0:	3f7274c1 	svccc	0x007274c1
   1f6d4:	3f7264a1 	svccc	0x007264a1
   1f6d8:	3f725471 	svccc	0x00725471
   1f6dc:	3f724431 	svccc	0x00724431
   1f6e0:	3f7233f0 	svccc	0x007233f0
   1f6e4:	3f7223af 	svccc	0x007223af
   1f6e8:	3f72134d 	svccc	0x0072134d
   1f6ec:	3f7202fb 	svccc	0x007202fb
   1f6f0:	3f71f288 	svccc	0x0071f288
   1f6f4:	3f71e215 	svccc	0x0071e215
   1f6f8:	3f71d1a2 	svccc	0x0071d1a2
   1f6fc:	3f71c11e 	svccc	0x0071c11e
   1f700:	3f71b08a 	svccc	0x0071b08a
   1f704:	3f719ff5 	svccc	0x00719ff5
   1f708:	3f718f50 	svccc	0x00718f50
   1f70c:	3f717eaa 	svccc	0x00717eaa
   1f710:	3f716df4 	svccc	0x00716df4
   1f714:	3f715d3e 	svccc	0x00715d3e
   1f718:	3f714c77 	svccc	0x00714c77
   1f71c:	3f713bb0 	svccc	0x00713bb0
   1f720:	3f712ad8 	svccc	0x00712ad8
   1f724:	3f7119f0 	svccc	0x007119f0
   1f728:	3f710907 	svccc	0x00710907
   1f72c:	3f70f80e 	svccc	0x0070f80e
   1f730:	3f70e714 	svccc	0x0070e714
   1f734:	3f70d60a 	svccc	0x0070d60a
   1f738:	3f70c500 	svccc	0x0070c500
   1f73c:	3f70b3e5 	svccc	0x0070b3e5
   1f740:	3f70a2cb 	svccc	0x0070a2cb
   1f744:	3f70919f 	svccc	0x0070919f
   1f748:	3f708063 	svccc	0x00708063
   1f74c:	3f706f26 	svccc	0x00706f26
   1f750:	3f705dd9 	svccc	0x00705dd9
   1f754:	3f704c8c 	svccc	0x00704c8c
   1f758:	3f703b3f 	svccc	0x00703b3f
   1f75c:	3f7029d0 	svccc	0x007029d0
   1f760:	3f701861 	svccc	0x00701861
   1f764:	3f7006f2 	svccc	0x007006f2
   1f768:	3f6ff573 	svccc	0x006ff573
   1f76c:	3f6fe3f3 	svccc	0x006fe3f3
   1f770:	3f6fd252 	svccc	0x006fd252
   1f774:	3f6fc0c2 	svccc	0x006fc0c2
   1f778:	3f6faf21 	svccc	0x006faf21
   1f77c:	3f6f9d6f 	svccc	0x006f9d6f
   1f780:	3f6f8bbd 	svccc	0x006f8bbd
   1f784:	3f6f79fb 	svccc	0x006f79fb
   1f788:	3f6f6838 	svccc	0x006f6838
   1f78c:	3f6f5665 	svccc	0x006f5665
   1f790:	3f6f4480 	svccc	0x006f4480
   1f794:	3f6f329c 	svccc	0x006f329c
   1f798:	3f6f20b8 	svccc	0x006f20b8
   1f79c:	3f6f0eb2 	svccc	0x006f0eb2
   1f7a0:	3f6efcbd 	svccc	0x006efcbd
   1f7a4:	3f6eeab8 	svccc	0x006eeab8
   1f7a8:	3f6ed8a1 	svccc	0x006ed8a1
   1f7ac:	3f6ec67a 	svccc	0x006ec67a
   1f7b0:	3f6eb463 	svccc	0x006eb463
   1f7b4:	3f6ea22b 	svccc	0x006ea22b
   1f7b8:	3f6e8ff3 	svccc	0x006e8ff3
   1f7bc:	3f6e7dbb 	svccc	0x006e7dbb
   1f7c0:	3f6e6b72 	svccc	0x006e6b72
   1f7c4:	3f6e5919 	svccc	0x006e5919
   1f7c8:	3f6e46bf 	svccc	0x006e46bf
   1f7cc:	3f6e3455 	svccc	0x006e3455
   1f7d0:	3f6e21ea 	svccc	0x006e21ea
   1f7d4:	3f6e0f6f 	svccc	0x006e0f6f
   1f7d8:	3f6dfcf4 	svccc	0x006dfcf4
   1f7dc:	3f6dea68 	svccc	0x006dea68
   1f7e0:	3f6dd7dc 	svccc	0x006dd7dc
   1f7e4:	3f6dc53f 	svccc	0x006dc53f
   1f7e8:	3f6db292 	svccc	0x006db292
   1f7ec:	3f6d9fe4 	svccc	0x006d9fe4
   1f7f0:	3f6d8d26 	svccc	0x006d8d26
   1f7f4:	3f6d7a68 	svccc	0x006d7a68
   1f7f8:	3f6d67a9 	svccc	0x006d67a9
   1f7fc:	3f6d54ca 	svccc	0x006d54ca
   1f800:	3f6d41ea 	svccc	0x006d41ea
   1f804:	3f6d2f0a 	svccc	0x006d2f0a
   1f808:	3f6d1c19 	svccc	0x006d1c19
   1f80c:	3f6d0929 	svccc	0x006d0929
   1f810:	3f6cf627 	svccc	0x006cf627
   1f814:	3f6ce315 	svccc	0x006ce315
   1f818:	3f6cd003 	svccc	0x006cd003
   1f81c:	3f6cbcf1 	svccc	0x006cbcf1
   1f820:	3f6ca9bd 	svccc	0x006ca9bd
   1f824:	3f6c969a 	svccc	0x006c969a
   1f828:	3f6c8366 	svccc	0x006c8366
   1f82c:	3f6c7022 	svccc	0x006c7022
   1f830:	3f6c5ccd 	svccc	0x006c5ccd
   1f834:	3f6c4988 	svccc	0x006c4988
   1f838:	3f6c3622 	svccc	0x006c3622
   1f83c:	3f6c22bc 	svccc	0x006c22bc
   1f840:	3f6c0f56 	svccc	0x006c0f56
   1f844:	3f6bfbdf 	svccc	0x006bfbdf
   1f848:	3f6be857 	svccc	0x006be857
   1f84c:	3f6bd4d0 	svccc	0x006bd4d0
   1f850:	3f6bc137 	svccc	0x006bc137
   1f854:	3f6bad9f 	svccc	0x006bad9f
   1f858:	3f6b99f6 	svccc	0x006b99f6
   1f85c:	3f6b864d 	svccc	0x006b864d
   1f860:	3f6b7293 	svccc	0x006b7293
   1f864:	3f6b5ed9 	svccc	0x006b5ed9
   1f868:	3f6b4b0e 	svccc	0x006b4b0e
   1f86c:	3f6b3733 	svccc	0x006b3733
   1f870:	3f6b2357 	svccc	0x006b2357
   1f874:	3f6b0f7c 	svccc	0x006b0f7c
   1f878:	3f6afb8f 	svccc	0x006afb8f
   1f87c:	3f6ae792 	svccc	0x006ae792
   1f880:	3f6ad395 	svccc	0x006ad395
   1f884:	3f6abf87 	svccc	0x006abf87
   1f888:	3f6aab7a 	svccc	0x006aab7a
   1f88c:	3f6a975b 	svccc	0x006a975b
   1f890:	3f6a833c 	svccc	0x006a833c
   1f894:	3f6a6f0d 	svccc	0x006a6f0d
   1f898:	3f6a5ade 	svccc	0x006a5ade
   1f89c:	3f6a469d 	svccc	0x006a469d
   1f8a0:	3f6a324d 	svccc	0x006a324d
   1f8a4:	3f6a1dfc 	svccc	0x006a1dfc
   1f8a8:	3f6a09ab 	svccc	0x006a09ab
   1f8ac:	3f69f549 	svccc	0x0069f549
   1f8b0:	3f69e0d6 	svccc	0x0069e0d6
   1f8b4:	3f69cc64 	svccc	0x0069cc64
   1f8b8:	3f69b7e1 	svccc	0x0069b7e1
   1f8bc:	3f69a35d 	svccc	0x0069a35d
   1f8c0:	3f698ec9 	svccc	0x00698ec9
   1f8c4:	3f697a35 	svccc	0x00697a35
   1f8c8:	3f696590 	svccc	0x00696590
   1f8cc:	3f6950ec 	svccc	0x006950ec
   1f8d0:	3f693c36 	svccc	0x00693c36
   1f8d4:	3f692770 	svccc	0x00692770
   1f8d8:	3f6912a9 	svccc	0x006912a9
   1f8dc:	3f68fde3 	svccc	0x0068fde3
   1f8e0:	3f68e90c 	svccc	0x0068e90c
   1f8e4:	3f68d424 	svccc	0x0068d424
   1f8e8:	3f68bf3c 	svccc	0x0068bf3c
   1f8ec:	3f68aa43 	svccc	0x0068aa43
   1f8f0:	3f68954a 	svccc	0x0068954a
   1f8f4:	3f688041 	svccc	0x00688041
   1f8f8:	3f686b38 	svccc	0x00686b38
   1f8fc:	3f68561d 	svccc	0x0068561d
   1f900:	3f684103 	svccc	0x00684103
   1f904:	3f682bd8 	svccc	0x00682bd8
   1f908:	3f6816ad 	svccc	0x006816ad
   1f90c:	3f680171 	svccc	0x00680171
   1f910:	3f67ec25 	svccc	0x0067ec25
   1f914:	3f67d6d8 	svccc	0x0067d6d8
   1f918:	3f67c18b 	svccc	0x0067c18b
   1f91c:	3f67ac2e 	svccc	0x0067ac2e
   1f920:	3f6796c0 	svccc	0x006796c0
   1f924:	3f678152 	svccc	0x00678152
   1f928:	3f676bd3 	svccc	0x00676bd3
   1f92c:	3f675654 	svccc	0x00675654
   1f930:	3f6740c4 	svccc	0x006740c4
   1f934:	3f672b34 	svccc	0x00672b34
   1f938:	3f671594 	svccc	0x00671594
   1f93c:	3f66fff3 	svccc	0x0066fff3
   1f940:	3f66ea42 	svccc	0x0066ea42
   1f944:	3f66d491 	svccc	0x0066d491
   1f948:	3f66becf 	svccc	0x0066becf
   1f94c:	3f66a8fc 	svccc	0x0066a8fc
   1f950:	3f669329 	svccc	0x00669329
   1f954:	3f667d56 	svccc	0x00667d56
   1f958:	3f666773 	svccc	0x00666773
   1f95c:	3f66517e 	svccc	0x0066517e
   1f960:	3f663b8a 	svccc	0x00663b8a
   1f964:	3f662596 	svccc	0x00662596
   1f968:	3f660f80 	svccc	0x00660f80
   1f96c:	3f65f97b 	svccc	0x0065f97b
   1f970:	3f65e365 	svccc	0x0065e365
   1f974:	3f65cd3e 	svccc	0x0065cd3e
   1f978:	3f65b717 	svccc	0x0065b717
   1f97c:	3f65a0e0 	svccc	0x0065a0e0
   1f980:	3f658a98 	svccc	0x00658a98
   1f984:	3f657460 	svccc	0x00657460
   1f988:	3f655e07 	svccc	0x00655e07
   1f98c:	3f6547ae 	svccc	0x006547ae
   1f990:	3f653155 	svccc	0x00653155
   1f994:	3f651aeb 	svccc	0x00651aeb
   1f998:	3f650471 	svccc	0x00650471
   1f99c:	3f64edf6 	svccc	0x0064edf6
   1f9a0:	3f64d77b 	svccc	0x0064d77b
   1f9a4:	3f64c0f0 	svccc	0x0064c0f0
   1f9a8:	3f64aa54 	svccc	0x0064aa54
   1f9ac:	3f6493b8 	svccc	0x006493b8
   1f9b0:	3f647d1c 	svccc	0x00647d1c
   1f9b4:	3f64665e 	svccc	0x0064665e
   1f9b8:	3f644fb1 	svccc	0x00644fb1
   1f9bc:	3f6438e3 	svccc	0x006438e3
   1f9c0:	3f642225 	svccc	0x00642225
   1f9c4:	3f640b56 	svccc	0x00640b56
   1f9c8:	3f63f477 	svccc	0x0063f477
   1f9cc:	3f63dd87 	svccc	0x0063dd87
   1f9d0:	3f63c6a8 	svccc	0x0063c6a8
   1f9d4:	3f63afa7 	svccc	0x0063afa7
   1f9d8:	3f6398a6 	svccc	0x006398a6
   1f9dc:	3f6381a6 	svccc	0x006381a6
   1f9e0:	3f636a94 	svccc	0x00636a94
   1f9e4:	3f635382 	svccc	0x00635382
   1f9e8:	3f633c60 	svccc	0x00633c60
   1f9ec:	3f63252d 	svccc	0x0063252d
   1f9f0:	3f630dfa 	svccc	0x00630dfa
   1f9f4:	3f62f6c7 	svccc	0x0062f6c7
   1f9f8:	3f62df83 	svccc	0x0062df83
   1f9fc:	3f62c82e 	svccc	0x0062c82e
   1fa00:	3f62b0d9 	svccc	0x0062b0d9
   1fa04:	3f629974 	svccc	0x00629974
   1fa08:	3f62820e 	svccc	0x0062820e
   1fa0c:	3f626a98 	svccc	0x00626a98
   1fa10:	3f625322 	svccc	0x00625322
   1fa14:	3f623bac 	svccc	0x00623bac
   1fa18:	3f622414 	svccc	0x00622414
   1fa1c:	3f620c8d 	svccc	0x00620c8d
   1fa20:	3f61f4e4 	svccc	0x0061f4e4
   1fa24:	3f61dd4c 	svccc	0x0061dd4c
   1fa28:	3f61c593 	svccc	0x0061c593
   1fa2c:	3f61adda 	svccc	0x0061adda
   1fa30:	3f619620 	svccc	0x00619620
   1fa34:	3f617e56 	svccc	0x00617e56
   1fa38:	3f61668c 	svccc	0x0061668c
   1fa3c:	3f614eb1 	svccc	0x00614eb1
   1fa40:	3f6136d6 	svccc	0x006136d6
   1fa44:	3f611eeb 	svccc	0x00611eeb
   1fa48:	3f6106ee 	svccc	0x006106ee
   1fa4c:	3f60eef2 	svccc	0x0060eef2
   1fa50:	3f60d6f5 	svccc	0x0060d6f5
   1fa54:	3f60bee8 	svccc	0x0060bee8
   1fa58:	3f60a6ca 	svccc	0x0060a6ca
   1fa5c:	3f608eac 	svccc	0x00608eac
   1fa60:	3f60768e 	svccc	0x0060768e
   1fa64:	3f605e5f 	svccc	0x00605e5f
   1fa68:	3f604620 	svccc	0x00604620
   1fa6c:	3f602de0 	svccc	0x00602de0
   1fa70:	3f601590 	svccc	0x00601590
   1fa74:	3f5ffd3f 	svccc	0x005ffd3f
   1fa78:	3f5fe4ef 	svccc	0x005fe4ef
   1fa7c:	3f5fcc8e 	svccc	0x005fcc8e
   1fa80:	3f5fb41c 	svccc	0x005fb41c
   1fa84:	3f5f9baa 	svccc	0x005f9baa
   1fa88:	3f5f8327 	svccc	0x005f8327
   1fa8c:	3f5f6aa5 	svccc	0x005f6aa5
   1fa90:	3f5f5211 	svccc	0x005f5211
   1fa94:	3f5f397e 	svccc	0x005f397e
   1fa98:	3f5f20da 	svccc	0x005f20da
   1fa9c:	3f5f0835 	svccc	0x005f0835
   1faa0:	3f5eef80 	svccc	0x005eef80
   1faa4:	3f5ed6cb 	svccc	0x005ed6cb
   1faa8:	3f5ebe06 	svccc	0x005ebe06
   1faac:	3f5ea540 	svccc	0x005ea540
   1fab0:	3f5e8c69 	svccc	0x005e8c69
   1fab4:	3f5e7393 	svccc	0x005e7393
   1fab8:	3f5e5aab 	svccc	0x005e5aab
   1fabc:	3f5e41b3 	svccc	0x005e41b3
   1fac0:	3f5e28bb 	svccc	0x005e28bb
   1fac4:	3f5e0fc3 	svccc	0x005e0fc3
   1fac8:	3f5df6ba 	svccc	0x005df6ba
   1facc:	3f5dddb1 	svccc	0x005dddb1
   1fad0:	3f5dc497 	svccc	0x005dc497
   1fad4:	3f5dab7e 	svccc	0x005dab7e
   1fad8:	3f5d9253 	svccc	0x005d9253
   1fadc:	3f5d7918 	svccc	0x005d7918
   1fae0:	3f5d5fdd 	svccc	0x005d5fdd
   1fae4:	3f5d46a2 	svccc	0x005d46a2
   1fae8:	3f5d2d56 	svccc	0x005d2d56
   1faec:	3f5d13f9 	svccc	0x005d13f9
   1faf0:	3f5cfa9c 	svccc	0x005cfa9c
   1faf4:	3f5ce13f 	svccc	0x005ce13f
   1faf8:	3f5cc7d2 	svccc	0x005cc7d2
   1fafc:	3f5cae53 	svccc	0x005cae53
   1fb00:	3f5c94d5 	svccc	0x005c94d5
   1fb04:	3f5c7b57 	svccc	0x005c7b57
   1fb08:	3f5c61c8 	svccc	0x005c61c8
   1fb0c:	3f5c4828 	svccc	0x005c4828
   1fb10:	3f5c2e88 	svccc	0x005c2e88
   1fb14:	3f5c14e8 	svccc	0x005c14e8
   1fb18:	3f5bfb37 	svccc	0x005bfb37
   1fb1c:	3f5be176 	svccc	0x005be176
   1fb20:	3f5bc7b4 	svccc	0x005bc7b4
   1fb24:	3f5badf3 	svccc	0x005badf3
   1fb28:	3f5b9421 	svccc	0x005b9421
   1fb2c:	3f5b7a3e 	svccc	0x005b7a3e
   1fb30:	3f5b605b 	svccc	0x005b605b
   1fb34:	3f5b4667 	svccc	0x005b4667
   1fb38:	3f5b2c73 	svccc	0x005b2c73
   1fb3c:	3f5b127f 	svccc	0x005b127f
   1fb40:	3f5af87b 	svccc	0x005af87b
   1fb44:	3f5ade65 	svccc	0x005ade65
   1fb48:	3f5ac450 	svccc	0x005ac450
   1fb4c:	3f5aaa2a 	svccc	0x005aaa2a
   1fb50:	3f5a9004 	svccc	0x005a9004
   1fb54:	3f5a75de 	svccc	0x005a75de
   1fb58:	3f5a5ba7 	svccc	0x005a5ba7
   1fb5c:	3f5a415f 	svccc	0x005a415f
   1fb60:	3f5a2718 	svccc	0x005a2718
   1fb64:	3f5a0cbf 	svccc	0x005a0cbf
   1fb68:	3f59f267 	svccc	0x0059f267
   1fb6c:	3f59d80e 	svccc	0x0059d80e
   1fb70:	3f59bd94 	svccc	0x0059bd94
   1fb74:	3f59a32b 	svccc	0x0059a32b
   1fb78:	3f5988b1 	svccc	0x005988b1
   1fb7c:	3f596e26 	svccc	0x00596e26
   1fb80:	3f59539c 	svccc	0x0059539c
   1fb84:	3f593900 	svccc	0x00593900
   1fb88:	3f591e64 	svccc	0x00591e64
   1fb8c:	3f5903c9 	svccc	0x005903c9
   1fb90:	3f58e91d 	svccc	0x0058e91d
   1fb94:	3f58ce5f 	svccc	0x0058ce5f
   1fb98:	3f58b3a2 	svccc	0x0058b3a2
   1fb9c:	3f5898d4 	svccc	0x005898d4
   1fba0:	3f587e07 	svccc	0x00587e07
   1fba4:	3f586339 	svccc	0x00586339
   1fba8:	3f58485a 	svccc	0x0058485a
   1fbac:	3f582d6b 	svccc	0x00582d6b
   1fbb0:	3f58127b 	svccc	0x0058127b
   1fbb4:	3f57f77b 	svccc	0x0057f77b
   1fbb8:	3f57dc7b 	svccc	0x0057dc7b
   1fbbc:	3f57c17b 	svccc	0x0057c17b
   1fbc0:	3f57a66a 	svccc	0x0057a66a
   1fbc4:	3f578b48 	svccc	0x00578b48
   1fbc8:	3f577026 	svccc	0x00577026
   1fbcc:	3f5754f3 	svccc	0x005754f3
   1fbd0:	3f5739c1 	svccc	0x005739c1
   1fbd4:	3f571e8e 	svccc	0x00571e8e
   1fbd8:	3f57034b 	svccc	0x0057034b
   1fbdc:	3f56e7f7 	svccc	0x0056e7f7
   1fbe0:	3f56cca3 	svccc	0x0056cca3
   1fbe4:	3f56b14f 	svccc	0x0056b14f
   1fbe8:	3f5695ea 	svccc	0x005695ea
   1fbec:	3f567a74 	svccc	0x00567a74
   1fbf0:	3f565eff 	svccc	0x00565eff
   1fbf4:	3f564389 	svccc	0x00564389
   1fbf8:	3f562802 	svccc	0x00562802
   1fbfc:	3f560c6b 	svccc	0x00560c6b
   1fc00:	3f55f0d4 	svccc	0x0055f0d4
   1fc04:	3f55d53d 	svccc	0x0055d53d
   1fc08:	3f55b995 	svccc	0x0055b995
   1fc0c:	3f559ddc 	svccc	0x00559ddc
   1fc10:	3f558234 	svccc	0x00558234
   1fc14:	3f55666b 	svccc	0x0055666b
   1fc18:	3f554aa1 	svccc	0x00554aa1
   1fc1c:	3f552ed8 	svccc	0x00552ed8
   1fc20:	3f5512fd 	svccc	0x005512fd
   1fc24:	3f54f712 	svccc	0x0054f712
   1fc28:	3f54db38 	svccc	0x0054db38
   1fc2c:	3f54bf3c 	svccc	0x0054bf3c
   1fc30:	3f54a340 	svccc	0x0054a340
   1fc34:	3f548744 	svccc	0x00548744
   1fc38:	3f546b38 	svccc	0x00546b38
   1fc3c:	3f544f2b 	svccc	0x00544f2b
   1fc40:	3f54330d 	svccc	0x0054330d
   1fc44:	3f5416f0 	svccc	0x005416f0
   1fc48:	3f53fac2 	svccc	0x0053fac2
   1fc4c:	3f53de94 	svccc	0x0053de94
   1fc50:	3f53c255 	svccc	0x0053c255
   1fc54:	3f53a616 	svccc	0x0053a616
   1fc58:	3f5389c6 	svccc	0x005389c6
   1fc5c:	3f536d76 	svccc	0x00536d76
   1fc60:	3f535116 	svccc	0x00535116
   1fc64:	3f5334b5 	svccc	0x005334b5
   1fc68:	3f531844 	svccc	0x00531844
   1fc6c:	3f52fbd2 	svccc	0x0052fbd2
   1fc70:	3f52df61 	svccc	0x0052df61
   1fc74:	3f52c2ce 	svccc	0x0052c2ce
   1fc78:	3f52a64c 	svccc	0x0052a64c
   1fc7c:	3f5289b9 	svccc	0x005289b9
   1fc80:	3f526d16 	svccc	0x00526d16
   1fc84:	3f525072 	svccc	0x00525072
   1fc88:	3f5233ce 	svccc	0x005233ce
   1fc8c:	3f521709 	svccc	0x00521709
   1fc90:	3f51fa55 	svccc	0x0051fa55
   1fc94:	3f51dd90 	svccc	0x0051dd90
   1fc98:	3f51c0ca 	svccc	0x0051c0ca
   1fc9c:	3f51a3f4 	svccc	0x0051a3f4
   1fca0:	3f51870e 	svccc	0x0051870e
   1fca4:	3f516a27 	svccc	0x00516a27
   1fca8:	3f514d40 	svccc	0x00514d40
   1fcac:	3f513049 	svccc	0x00513049
   1fcb0:	3f511351 	svccc	0x00511351
   1fcb4:	3f50f649 	svccc	0x0050f649
   1fcb8:	3f50d930 	svccc	0x0050d930
   1fcbc:	3f50bc27 	svccc	0x0050bc27
   1fcc0:	3f509efe 	svccc	0x00509efe
   1fcc4:	3f5081e4 	svccc	0x005081e4
   1fcc8:	3f5064aa 	svccc	0x005064aa
   1fccc:	3f504780 	svccc	0x00504780
   1fcd0:	3f502a35 	svccc	0x00502a35
   1fcd4:	3f500cfa 	svccc	0x00500cfa
   1fcd8:	3f4fefae 	svccc	0x004fefae
   1fcdc:	3f4fd252 	svccc	0x004fd252
   1fce0:	3f4fb4f6 	svccc	0x004fb4f6
   1fce4:	3f4f9789 	svccc	0x004f9789
   1fce8:	3f4f7a1c 	svccc	0x004f7a1c
   1fcec:	3f4f5caf 	svccc	0x004f5caf
   1fcf0:	3f4f3f31 	svccc	0x004f3f31
   1fcf4:	3f4f21a3 	svccc	0x004f21a3
   1fcf8:	3f4f0414 	svccc	0x004f0414
   1fcfc:	3f4ee686 	svccc	0x004ee686
   1fd00:	3f4ec8e7 	svccc	0x004ec8e7
   1fd04:	3f4eab36 	svccc	0x004eab36
   1fd08:	3f4e8d97 	svccc	0x004e8d97
   1fd0c:	3f4e6fd6 	svccc	0x004e6fd6
   1fd10:	3f4e5215 	svccc	0x004e5215
   1fd14:	3f4e3455 	svccc	0x004e3455
   1fd18:	3f4e1683 	svccc	0x004e1683
   1fd1c:	3f4df8b1 	svccc	0x004df8b1
   1fd20:	3f4ddacf 	svccc	0x004ddacf
   1fd24:	3f4dbced 	svccc	0x004dbced
   1fd28:	3f4d9f0a 	svccc	0x004d9f0a
   1fd2c:	3f4d8106 	svccc	0x004d8106
   1fd30:	3f4d6313 	svccc	0x004d6313
   1fd34:	3f4d450f 	svccc	0x004d450f
   1fd38:	3f4d26fa 	svccc	0x004d26fa
   1fd3c:	3f4d08e6 	svccc	0x004d08e6
   1fd40:	3f4cead1 	svccc	0x004cead1
   1fd44:	3f4cccab 	svccc	0x004cccab
   1fd48:	3f4cae75 	svccc	0x004cae75
   1fd4c:	3f4c903f 	svccc	0x004c903f
   1fd50:	3f4c7208 	svccc	0x004c7208
   1fd54:	3f4c53c1 	svccc	0x004c53c1
   1fd58:	3f4c357a 	svccc	0x004c357a
   1fd5c:	3f4c1722 	svccc	0x004c1722
   1fd60:	3f4bf8cb 	svccc	0x004bf8cb
   1fd64:	3f4bda62 	svccc	0x004bda62
   1fd68:	3f4bbbf9 	svccc	0x004bbbf9
   1fd6c:	3f4b9d80 	svccc	0x004b9d80
   1fd70:	3f4b7f06 	svccc	0x004b7f06
   1fd74:	3f4b608d 	svccc	0x004b608d
   1fd78:	3f4b41f2 	svccc	0x004b41f2
   1fd7c:	3f4b2368 	svccc	0x004b2368
   1fd80:	3f4b04cd 	svccc	0x004b04cd
   1fd84:	3f4ae632 	svccc	0x004ae632
   1fd88:	3f4ac786 	svccc	0x004ac786
   1fd8c:	3f4aa8ca 	svccc	0x004aa8ca
   1fd90:	3f4a8a0d 	svccc	0x004a8a0d
   1fd94:	3f4a6b51 	svccc	0x004a6b51
   1fd98:	3f4a4c83 	svccc	0x004a4c83
   1fd9c:	3f4a2db6 	svccc	0x004a2db6
   1fda0:	3f4a0ed8 	svccc	0x004a0ed8
   1fda4:	3f49effa 	svccc	0x0049effa
   1fda8:	3f49d10b 	svccc	0x0049d10b
   1fdac:	3f49b21c 	svccc	0x0049b21c
   1fdb0:	3f49932d 	svccc	0x0049932d
   1fdb4:	3f49742e 	svccc	0x0049742e
   1fdb8:	3f49551d 	svccc	0x0049551d
   1fdbc:	3f49360d 	svccc	0x0049360d
   1fdc0:	3f4916fd 	svccc	0x004916fd
   1fdc4:	3f48f7db 	svccc	0x0048f7db
   1fdc8:	3f48d8ba 	svccc	0x0048d8ba
   1fdcc:	3f48b988 	svccc	0x0048b988
   1fdd0:	3f489a56 	svccc	0x00489a56
   1fdd4:	3f487b14 	svccc	0x00487b14
   1fdd8:	3f485bd1 	svccc	0x00485bd1
   1fddc:	3f483c7d 	svccc	0x00483c7d
   1fde0:	3f481d2a 	svccc	0x00481d2a
   1fde4:	3f47fdc6 	svccc	0x0047fdc6
   1fde8:	3f47de61 	svccc	0x0047de61
   1fdec:	3f47befd 	svccc	0x0047befd
   1fdf0:	3f479f88 	svccc	0x00479f88
   1fdf4:	3f478002 	svccc	0x00478002
   1fdf8:	3f47608d 	svccc	0x0047608d
   1fdfc:	3f4740f6 	svccc	0x004740f6
   1fe00:	3f472160 	svccc	0x00472160
   1fe04:	3f4701c9 	svccc	0x004701c9
   1fe08:	3f46e222 	svccc	0x0046e222
   1fe0c:	3f46c27a 	svccc	0x0046c27a
   1fe10:	3f46a2d3 	svccc	0x0046a2d3
   1fe14:	3f46831b 	svccc	0x0046831b
   1fe18:	3f466352 	svccc	0x00466352
   1fe1c:	3f464389 	svccc	0x00464389
   1fe20:	3f4623c0 	svccc	0x004623c0
   1fe24:	3f4603e6 	svccc	0x004603e6
   1fe28:	3f45e3fc 	svccc	0x0045e3fc
   1fe2c:	3f45c422 	svccc	0x0045c422
   1fe30:	3f45a427 	svccc	0x0045a427
   1fe34:	3f45843c 	svccc	0x0045843c
   1fe38:	3f456441 	svccc	0x00456441
   1fe3c:	3f454435 	svccc	0x00454435
   1fe40:	3f452429 	svccc	0x00452429
   1fe44:	3f45040c 	svccc	0x0045040c
   1fe48:	3f44e3ef 	svccc	0x0044e3ef
   1fe4c:	3f44c3d2 	svccc	0x0044c3d2
   1fe50:	3f44a3a5 	svccc	0x0044a3a5
   1fe54:	3f448377 	svccc	0x00448377
   1fe58:	3f446339 	svccc	0x00446339
   1fe5c:	3f4442fa 	svccc	0x004442fa
   1fe60:	3f4422ab 	svccc	0x004422ab
   1fe64:	3f44025c 	svccc	0x0044025c
   1fe68:	3f43e1fc 	svccc	0x0043e1fc
   1fe6c:	3f43c19c 	svccc	0x0043c19c
   1fe70:	3f43a13c 	svccc	0x0043a13c
   1fe74:	3f4380cb 	svccc	0x004380cb
   1fe78:	3f43604a 	svccc	0x0043604a
   1fe7c:	3f433fd9 	svccc	0x00433fd9
   1fe80:	3f431f47 	svccc	0x00431f47
   1fe84:	3f42fec5 	svccc	0x0042fec5
   1fe88:	3f42de22 	svccc	0x0042de22
   1fe8c:	3f42bd90 	svccc	0x0042bd90
   1fe90:	3f429ced 	svccc	0x00429ced
   1fe94:	3f427c39 	svccc	0x00427c39
   1fe98:	3f425b85 	svccc	0x00425b85
   1fe9c:	3f423ad2 	svccc	0x00423ad2
   1fea0:	3f421a0d 	svccc	0x00421a0d
   1fea4:	3f41f948 	svccc	0x0041f948
   1fea8:	3f41d873 	svccc	0x0041d873
   1feac:	3f41b79e 	svccc	0x0041b79e
   1feb0:	3f4196b7 	svccc	0x004196b7
   1feb4:	3f4175d1 	svccc	0x004175d1
   1feb8:	3f4154da 	svccc	0x004154da
   1febc:	3f4133e3 	svccc	0x004133e3
   1fec0:	3f4112ec 	svccc	0x004112ec
   1fec4:	3f40f1e5 	svccc	0x0040f1e5
   1fec8:	3f40d0dd 	svccc	0x0040d0dd
   1fecc:	3f40afc4 	svccc	0x0040afc4
   1fed0:	3f408eac 	svccc	0x00408eac
   1fed4:	3f406d83 	svccc	0x00406d83
   1fed8:	3f404c59 	svccc	0x00404c59
   1fedc:	3f402b30 	svccc	0x00402b30
   1fee0:	3f4009f6 	svccc	0x004009f6
   1fee4:	3f3fe8ab 	svccc	0x003fe8ab
   1fee8:	3f3fc760 	svccc	0x003fc760
   1feec:	3f3fa616 	svccc	0x003fa616
   1fef0:	3f3f84ba 	svccc	0x003f84ba
   1fef4:	3f3f635e 	svccc	0x003f635e
   1fef8:	3f3f4203 	svccc	0x003f4203
   1fefc:	3f3f2096 	svccc	0x003f2096
   1ff00:	3f3eff19 	svccc	0x003eff19
   1ff04:	3f3edd9c 	svccc	0x003edd9c
   1ff08:	3f3ebc1f 	svccc	0x003ebc1f
   1ff0c:	3f3e9a91 	svccc	0x003e9a91
   1ff10:	3f3e7903 	svccc	0x003e7903
   1ff14:	3f3e5764 	svccc	0x003e5764
   1ff18:	3f3e35c6 	svccc	0x003e35c6
   1ff1c:	3f3e1416 	svccc	0x003e1416
   1ff20:	3f3df267 	svccc	0x003df267
   1ff24:	3f3dd0b7 	svccc	0x003dd0b7
   1ff28:	3f3daef7 	svccc	0x003daef7
   1ff2c:	3f3d8d37 	svccc	0x003d8d37
   1ff30:	3f3d6b66 	svccc	0x003d6b66
   1ff34:	3f3d4995 	svccc	0x003d4995
   1ff38:	3f3d27b3 	svccc	0x003d27b3
   1ff3c:	3f3d05d1 	svccc	0x003d05d1
   1ff40:	3f3ce3ef 	svccc	0x003ce3ef
   1ff44:	3f3cc1fd 	svccc	0x003cc1fd
   1ff48:	3f3ca00a 	svccc	0x003ca00a
   1ff4c:	3f3c7e07 	svccc	0x003c7e07
   1ff50:	3f3c5c03 	svccc	0x003c5c03
   1ff54:	3f3c39ef 	svccc	0x003c39ef
   1ff58:	3f3c17db 	svccc	0x003c17db
   1ff5c:	3f3bf5b6 	svccc	0x003bf5b6
   1ff60:	3f3bd391 	svccc	0x003bd391
   1ff64:	3f3bb16c 	svccc	0x003bb16c
   1ff68:	3f3b8f36 	svccc	0x003b8f36
   1ff6c:	3f3b6d01 	svccc	0x003b6d01
   1ff70:	3f3b4aba 	svccc	0x003b4aba
   1ff74:	3f3b2874 	svccc	0x003b2874
   1ff78:	3f3b062d 	svccc	0x003b062d
   1ff7c:	3f3ae3d6 	svccc	0x003ae3d6
   1ff80:	3f3ac16e 	svccc	0x003ac16e
   1ff84:	3f3a9f17 	svccc	0x003a9f17
   1ff88:	3f3a7c9e 	svccc	0x003a7c9e
   1ff8c:	3f3a5a36 	svccc	0x003a5a36
   1ff90:	3f3a37bd 	svccc	0x003a37bd
   1ff94:	3f3a1533 	svccc	0x003a1533
   1ff98:	3f39f2aa 	svccc	0x0039f2aa
   1ff9c:	3f39d020 	svccc	0x0039d020
   1ffa0:	3f39ad86 	svccc	0x0039ad86
   1ffa4:	3f398aec 	svccc	0x00398aec
   1ffa8:	3f396840 	svccc	0x00396840
   1ffac:	3f394595 	svccc	0x00394595
   1ffb0:	3f3922d9 	svccc	0x003922d9
   1ffb4:	3f39002e 	svccc	0x0039002e
   1ffb8:	3f38dd61 	svccc	0x0038dd61
   1ffbc:	3f38ba95 	svccc	0x0038ba95
   1ffc0:	3f3897c8 	svccc	0x003897c8
   1ffc4:	3f3874fb 	svccc	0x003874fb
   1ffc8:	3f38521e 	svccc	0x0038521e
   1ffcc:	3f382f30 	svccc	0x00382f30
   1ffd0:	3f380c41 	svccc	0x00380c41
   1ffd4:	3f37e953 	svccc	0x0037e953
   1ffd8:	3f37c654 	svccc	0x0037c654
   1ffdc:	3f37a355 	svccc	0x0037a355
   1ffe0:	3f378045 	svccc	0x00378045
   1ffe4:	3f375d35 	svccc	0x00375d35
   1ffe8:	3f373a26 	svccc	0x00373a26
   1ffec:	3f371705 	svccc	0x00371705
   1fff0:	3f36f3e4 	svccc	0x0036f3e4
   1fff4:	3f36d0b3 	svccc	0x0036d0b3
   1fff8:	3f36ad82 	svccc	0x0036ad82
   1fffc:	3f368a40 	svccc	0x00368a40
   20000:	3f3666fd 	svccc	0x003666fd
   20004:	3f3643bb 	svccc	0x003643bb
   20008:	3f362068 	svccc	0x00362068
   2000c:	3f35fd15 	svccc	0x0035fd15
   20010:	3f35d9b2 	svccc	0x0035d9b2
   20014:	3f35b64e 	svccc	0x0035b64e
   20018:	3f3592ea 	svccc	0x003592ea
   2001c:	3f356f76 	svccc	0x00356f76
   20020:	3f354c01 	svccc	0x00354c01
   20024:	3f35287c 	svccc	0x0035287c
   20028:	3f3504f7 	svccc	0x003504f7
   2002c:	3f34e161 	svccc	0x0034e161
   20030:	3f34bdcb 	svccc	0x0034bdcb
   20034:	3f349a35 	svccc	0x00349a35
   20038:	3f34768e 	svccc	0x0034768e
   2003c:	3f3452e7 	svccc	0x003452e7
   20040:	3f342f30 	svccc	0x00342f30
   20044:	3f340b78 	svccc	0x00340b78
   20048:	3f33e7c0 	svccc	0x0033e7c0
   2004c:	3f33c3f8 	svccc	0x0033c3f8
   20050:	3f33a030 	svccc	0x0033a030
   20054:	3f337c57 	svccc	0x00337c57
   20058:	3f33587d 	svccc	0x0033587d
   2005c:	3f333494 	svccc	0x00333494
   20060:	3f3310aa 	svccc	0x003310aa
   20064:	3f32ecc0 	svccc	0x0032ecc0
   20068:	3f32c8c5 	svccc	0x0032c8c5
   2006c:	3f32a4ca 	svccc	0x0032a4ca
   20070:	3f3280d0 	svccc	0x003280d0
   20074:	3f325cc4 	svccc	0x00325cc4
   20078:	3f3238a8 	svccc	0x003238a8
   2007c:	3f32148c 	svccc	0x0032148c
   20080:	3f31f06f 	svccc	0x0031f06f
   20084:	3f31cc42 	svccc	0x0031cc42
   20088:	3f31a815 	svccc	0x0031a815
   2008c:	3f3183e8 	svccc	0x003183e8
   20090:	3f315fab 	svccc	0x00315fab
   20094:	3f313b6d 	svccc	0x00313b6d
   20098:	3f31171e 	svccc	0x0031171e
   2009c:	3f30f2d0 	svccc	0x0030f2d0
   200a0:	3f30ce81 	svccc	0x0030ce81
   200a4:	3f30aa22 	svccc	0x0030aa22
   200a8:	3f3085c2 	svccc	0x003085c2
   200ac:	3f306152 	svccc	0x00306152
   200b0:	3f303ce2 	svccc	0x00303ce2
   200b4:	3f301861 	svccc	0x00301861
   200b8:	3f2ff3e0 	svccc	0x002ff3e0
   200bc:	3f2fcf5f 	svccc	0x002fcf5f
   200c0:	3f2faace 	svccc	0x002faace
   200c4:	3f2f863c 	svccc	0x002f863c
   200c8:	3f2f61aa 	svccc	0x002f61aa
   200cc:	3f2f3d08 	svccc	0x002f3d08
   200d0:	3f2f1855 	svccc	0x002f1855
   200d4:	3f2ef3b2 	svccc	0x002ef3b2
   200d8:	3f2eceff 	svccc	0x002eceff
   200dc:	3f2eaa3b 	svccc	0x002eaa3b
   200e0:	3f2e8577 	svccc	0x002e8577
   200e4:	3f2e60b3 	svccc	0x002e60b3
   200e8:	3f2e3bde 	svccc	0x002e3bde
   200ec:	3f2e1709 	svccc	0x002e1709
   200f0:	3f2df224 	svccc	0x002df224
   200f4:	3f2dcd3e 	svccc	0x002dcd3e
   200f8:	3f2da858 	svccc	0x002da858
   200fc:	3f2d8362 	svccc	0x002d8362
   20100:	3f2d5e6c 	svccc	0x002d5e6c
   20104:	3f2d3975 	svccc	0x002d3975
   20108:	3f2d146e 	svccc	0x002d146e
   2010c:	3f2cef56 	svccc	0x002cef56
   20110:	3f2cca4f 	svccc	0x002cca4f
   20114:	3f2ca537 	svccc	0x002ca537
   20118:	3f2c800f 	svccc	0x002c800f
   2011c:	3f2c5ae6 	svccc	0x002c5ae6
   20120:	3f2c35bd 	svccc	0x002c35bd
   20124:	3f2c1084 	svccc	0x002c1084
   20128:	3f2beb4a 	svccc	0x002beb4a
   2012c:	3f2bc600 	svccc	0x002bc600
   20130:	3f2ba0c7 	svccc	0x002ba0c7
   20134:	3f2b7b6c 	svccc	0x002b7b6c
   20138:	3f2b5621 	svccc	0x002b5621
   2013c:	3f2b30c6 	svccc	0x002b30c6
   20140:	3f2b0b5b 	svccc	0x002b0b5b
   20144:	3f2ae5ef 	svccc	0x002ae5ef
   20148:	3f2ac083 	svccc	0x002ac083
   2014c:	3f2a9b07 	svccc	0x002a9b07
   20150:	3f2a758a 	svccc	0x002a758a
   20154:	3f2a500d 	svccc	0x002a500d
   20158:	3f2a2a80 	svccc	0x002a2a80
   2015c:	3f2a04f3 	svccc	0x002a04f3
   20160:	3f29df55 	svccc	0x0029df55
   20164:	3f29b9b6 	svccc	0x0029b9b6
   20168:	3f299418 	svccc	0x00299418
   2016c:	3f296e69 	svccc	0x00296e69
   20170:	3f2948bb 	svccc	0x002948bb
   20174:	3f2922fb 	svccc	0x002922fb
   20178:	3f28fd3b 	svccc	0x0028fd3b
   2017c:	3f28d77b 	svccc	0x0028d77b
   20180:	3f28b1ab 	svccc	0x0028b1ab
   20184:	3f288bdb 	svccc	0x00288bdb
   20188:	3f28660a 	svccc	0x0028660a
   2018c:	3f284029 	svccc	0x00284029
   20190:	3f281a48 	svccc	0x00281a48
   20194:	3f27f456 	svccc	0x0027f456
   20198:	3f27ce64 	svccc	0x0027ce64
   2019c:	3f27a861 	svccc	0x0027a861
   201a0:	3f27826f 	svccc	0x0027826f
   201a4:	3f275c5b 	svccc	0x00275c5b
   201a8:	3f273659 	svccc	0x00273659
   201ac:	3f271045 	svccc	0x00271045
   201b0:	3f26ea31 	svccc	0x0026ea31
   201b4:	3f26c40d 	svccc	0x0026c40d
   201b8:	3f269de9 	svccc	0x00269de9
   201bc:	3f2677b4 	svccc	0x002677b4
   201c0:	3f26517e 	svccc	0x0026517e
   201c4:	3f262b49 	svccc	0x00262b49
   201c8:	3f260503 	svccc	0x00260503
   201cc:	3f25debe 	svccc	0x0025debe
   201d0:	3f25b878 	svccc	0x0025b878
   201d4:	3f259221 	svccc	0x00259221
   201d8:	3f256bca 	svccc	0x00256bca
   201dc:	3f254563 	svccc	0x00254563
   201e0:	3f251f0c 	svccc	0x00251f0c
   201e4:	3f24f894 	svccc	0x0024f894
   201e8:	3f24d22d 	svccc	0x0024d22d
   201ec:	3f24aba4 	svccc	0x0024aba4
   201f0:	3f24852b 	svccc	0x0024852b
   201f4:	3f245ea2 	svccc	0x00245ea2
   201f8:	3f243819 	svccc	0x00243819
   201fc:	3f241180 	svccc	0x00241180
   20200:	3f23eae6 	svccc	0x0023eae6
   20204:	3f23c44c 	svccc	0x0023c44c
   20208:	3f239da1 	svccc	0x00239da1
   2020c:	3f2376f7 	svccc	0x002376f7
   20210:	3f23504c 	svccc	0x0023504c
   20214:	3f232991 	svccc	0x00232991
   20218:	3f2302d6 	svccc	0x002302d6
   2021c:	3f22dc0a 	svccc	0x0022dc0a
   20220:	3f22b53d 	svccc	0x0022b53d
   20224:	3f228e71 	svccc	0x00228e71
   20228:	3f226794 	svccc	0x00226794
   2022c:	3f2240b8 	svccc	0x002240b8
   20230:	3f2219db 	svccc	0x002219db
   20234:	3f21f2ed 	svccc	0x0021f2ed
   20238:	3f21cbff 	svccc	0x0021cbff
   2023c:	3f21a501 	svccc	0x0021a501
   20240:	3f217e02 	svccc	0x00217e02
   20244:	3f215704 	svccc	0x00215704
   20248:	3f212ff5 	svccc	0x00212ff5
   2024c:	3f2108e6 	svccc	0x002108e6
   20250:	3f20e1d6 	svccc	0x0020e1d6
   20254:	3f20bab6 	svccc	0x0020bab6
   20258:	3f209396 	svccc	0x00209396
   2025c:	3f206c66 	svccc	0x00206c66
   20260:	3f204535 	svccc	0x00204535
   20264:	3f201e04 	svccc	0x00201e04
   20268:	3f1ff6c2 	svccc	0x001ff6c2
   2026c:	3f1fcf81 	svccc	0x001fcf81
   20270:	3f1fa83f 	svccc	0x001fa83f
   20274:	3f1f80ed 	svccc	0x001f80ed
   20278:	3f1f599b 	svccc	0x001f599b
   2027c:	3f1f3248 	svccc	0x001f3248
   20280:	3f1f0ae5 	svccc	0x001f0ae5
   20284:	3f1ee382 	svccc	0x001ee382
   20288:	3f1ebc0e 	svccc	0x001ebc0e
   2028c:	3f1e949a 	svccc	0x001e949a
   20290:	3f1e6d26 	svccc	0x001e6d26
   20294:	3f1e45a2 	svccc	0x001e45a2
   20298:	3f1e1e1d 	svccc	0x001e1e1d
   2029c:	3f1df698 	svccc	0x001df698
   202a0:	3f1dcf03 	svccc	0x001dcf03
   202a4:	3f1da76e 	svccc	0x001da76e
   202a8:	3f1d7fd8 	svccc	0x001d7fd8
   202ac:	3f1d5832 	svccc	0x001d5832
   202b0:	3f1d308c 	svccc	0x001d308c
   202b4:	3f1d08d5 	svccc	0x001d08d5
   202b8:	3f1ce11e 	svccc	0x001ce11e
   202bc:	3f1cb967 	svccc	0x001cb967
   202c0:	3f1c919f 	svccc	0x001c919f
   202c4:	3f1c69d7 	svccc	0x001c69d7
   202c8:	3f1c420f 	svccc	0x001c420f
   202cc:	3f1c1a37 	svccc	0x001c1a37
   202d0:	3f1bf25e 	svccc	0x001bf25e
   202d4:	3f1bca86 	svccc	0x001bca86
   202d8:	3f1ba29c 	svccc	0x001ba29c
   202dc:	3f1b7ab3 	svccc	0x001b7ab3
   202e0:	3f1b52b9 	svccc	0x001b52b9
   202e4:	3f1b2abf 	svccc	0x001b2abf
   202e8:	3f1b02c5 	svccc	0x001b02c5
   202ec:	3f1adaba 	svccc	0x001adaba
   202f0:	3f1ab2c0 	svccc	0x001ab2c0
   202f4:	3f1a8aa4 	svccc	0x001a8aa4
   202f8:	3f1a6299 	svccc	0x001a6299
   202fc:	3f1a3a7e 	svccc	0x001a3a7e
   20300:	3f1a1251 	svccc	0x001a1251
   20304:	3f19ea36 	svccc	0x0019ea36
   20308:	3f19c1f8 	svccc	0x0019c1f8
   2030c:	3f1999cc 	svccc	0x001999cc
   20310:	3f19718f 	svccc	0x0019718f
   20314:	3f194952 	svccc	0x00194952
   20318:	3f192114 	svccc	0x00192114
   2031c:	3f18f8c6 	svccc	0x0018f8c6
   20320:	3f18d078 	svccc	0x0018d078
   20324:	3f18a81a 	svccc	0x0018a81a
   20328:	3f187fbb 	svccc	0x00187fbb
   2032c:	3f18575c 	svccc	0x0018575c
   20330:	3f182eec 	svccc	0x00182eec
   20334:	3f18068e 	svccc	0x0018068e
   20338:	3f17de0d 	svccc	0x0017de0d
   2033c:	3f17b59e 	svccc	0x0017b59e
   20340:	3f178d1e 	svccc	0x00178d1e
   20344:	3f17648c 	svccc	0x0017648c
   20348:	3f173c0c 	svccc	0x00173c0c
   2034c:	3f17137b 	svccc	0x0017137b
   20350:	3f16ead9 	svccc	0x0016ead9
   20354:	3f16c248 	svccc	0x0016c248
   20358:	3f1699a6 	svccc	0x001699a6
   2035c:	3f1670f4 	svccc	0x001670f4
   20360:	3f164841 	svccc	0x00164841
   20364:	3f161f8e 	svccc	0x00161f8e
   20368:	3f15f6dc 	svccc	0x0015f6dc
   2036c:	3f15ce18 	svccc	0x0015ce18
   20370:	3f15a555 	svccc	0x0015a555
   20374:	3f157c81 	svccc	0x00157c81
   20378:	3f1553bd 	svccc	0x001553bd
   2037c:	3f152ad8 	svccc	0x00152ad8
   20380:	3f150204 	svccc	0x00150204
   20384:	3f14d91f 	svccc	0x0014d91f
   20388:	3f14b03a 	svccc	0x0014b03a
   2038c:	3f148744 	svccc	0x00148744
   20390:	3f145e5f 	svccc	0x00145e5f
   20394:	3f143559 	svccc	0x00143559
   20398:	3f140c63 	svccc	0x00140c63
   2039c:	3f13e35c 	svccc	0x0013e35c
   203a0:	3f13ba56 	svccc	0x0013ba56
   203a4:	3f13913f 	svccc	0x0013913f
   203a8:	3f136827 	svccc	0x00136827
   203ac:	3f133f10 	svccc	0x00133f10
   203b0:	3f1315e8 	svccc	0x001315e8
   203b4:	3f12ecc0 	svccc	0x0012ecc0
   203b8:	3f12c398 	svccc	0x0012c398
   203bc:	3f129a70 	svccc	0x00129a70
   203c0:	3f127137 	svccc	0x00127137
   203c4:	3f1247ed 	svccc	0x001247ed
   203c8:	3f121eb4 	svccc	0x00121eb4
   203cc:	3f11f56a 	svccc	0x0011f56a
   203d0:	3f11cc21 	svccc	0x0011cc21
   203d4:	3f11a2c6 	svccc	0x0011a2c6
   203d8:	3f11796c 	svccc	0x0011796c
   203dc:	3f115012 	svccc	0x00115012
   203e0:	3f1126a6 	svccc	0x001126a6
   203e4:	3f10fd3b 	svccc	0x0010fd3b
   203e8:	3f10d3d0 	svccc	0x0010d3d0
   203ec:	3f10aa54 	svccc	0x0010aa54
   203f0:	3f1080d8 	svccc	0x001080d8
   203f4:	3f10575c 	svccc	0x0010575c
   203f8:	3f102dcf 	svccc	0x00102dcf
   203fc:	3f100443 	svccc	0x00100443
   20400:	3f0fdab6 	svccc	0x000fdab6
   20404:	3f0fb129 	svccc	0x000fb129
   20408:	3f0f878b 	svccc	0x000f878b
   2040c:	3f0f5ddd 	svccc	0x000f5ddd
   20410:	3f0f3440 	svccc	0x000f3440
   20414:	3f0f0a91 	svccc	0x000f0a91
   20418:	3f0ee0e3 	svccc	0x000ee0e3
   2041c:	3f0eb724 	svccc	0x000eb724
   20420:	3f0e8d65 	svccc	0x000e8d65
   20424:	3f0e63a6 	svccc	0x000e63a6
   20428:	3f0e39d6 	svccc	0x000e39d6
   2042c:	3f0e1006 	svccc	0x000e1006
   20430:	3f0de636 	svccc	0x000de636
   20434:	3f0dbc66 	svccc	0x000dbc66
   20438:	3f0d9286 	svccc	0x000d9286
   2043c:	3f0d68a5 	svccc	0x000d68a5
   20440:	3f0d3eb4 	svccc	0x000d3eb4
   20444:	3f0d14c2 	svccc	0x000d14c2
   20448:	3f0cead1 	svccc	0x000cead1
   2044c:	3f0cc0cf 	svccc	0x000cc0cf
   20450:	3f0c96dd 	svccc	0x000c96dd
   20454:	3f0c6cdb 	svccc	0x000c6cdb
   20458:	3f0c42c8 	svccc	0x000c42c8
   2045c:	3f0c18b5 	svccc	0x000c18b5
   20460:	3f0beea2 	svccc	0x000beea2
   20464:	3f0bc48f 	svccc	0x000bc48f
   20468:	3f0b9a6b 	svccc	0x000b9a6b
   2046c:	3f0b7048 	svccc	0x000b7048
   20470:	3f0b4624 	svccc	0x000b4624
   20474:	3f0b1bef 	svccc	0x000b1bef
   20478:	3f0af1bb 	svccc	0x000af1bb
   2047c:	3f0ac775 	svccc	0x000ac775
   20480:	3f0a9d41 	svccc	0x000a9d41
   20484:	3f0a72fc 	svccc	0x000a72fc
   20488:	3f0a48a6 	svccc	0x000a48a6
   2048c:	3f0a1e60 	svccc	0x000a1e60
   20490:	3f09f40a 	svccc	0x0009f40a
   20494:	3f09c9b4 	svccc	0x0009c9b4
   20498:	3f099f4d 	svccc	0x00099f4d
   2049c:	3f0974e6 	svccc	0x000974e6
   204a0:	3f094a80 	svccc	0x00094a80
   204a4:	3f092008 	svccc	0x00092008
   204a8:	3f08f5a1 	svccc	0x0008f5a1
   204ac:	3f08cb19 	svccc	0x0008cb19
   204b0:	3f08a0a1 	svccc	0x0008a0a1
   204b4:	3f087619 	svccc	0x00087619
   204b8:	3f084b90 	svccc	0x00084b90
   204bc:	3f082108 	svccc	0x00082108
   204c0:	3f07f66f 	svccc	0x0007f66f
   204c4:	3f07cbd5 	svccc	0x0007cbd5
   204c8:	3f07a13c 	svccc	0x0007a13c
   204cc:	3f077692 	svccc	0x00077692
   204d0:	3f074be8 	svccc	0x00074be8
   204d4:	3f07213e 	svccc	0x0007213e
   204d8:	3f06f683 	svccc	0x0006f683
   204dc:	3f06cbc9 	svccc	0x0006cbc9
   204e0:	3f06a10e 	svccc	0x0006a10e
   204e4:	3f067653 	svccc	0x00067653
   204e8:	3f064b88 	svccc	0x00064b88
   204ec:	3f0620bc 	svccc	0x000620bc
   204f0:	3f05f5e0 	svccc	0x0005f5e0
   204f4:	3f05cb04 	svccc	0x0005cb04
   204f8:	3f05a027 	svccc	0x0005a027
   204fc:	3f05754b 	svccc	0x0005754b
   20500:	3f054a5e 	svccc	0x00054a5e
   20504:	3f051f71 	svccc	0x00051f71
   20508:	3f04f484 	svccc	0x0004f484
   2050c:	3f04c986 	svccc	0x0004c986
   20510:	3f049e99 	svccc	0x00049e99
   20514:	3f04738a 	svccc	0x0004738a
   20518:	3f04488c 	svccc	0x0004488c
   2051c:	3f041d7e 	svccc	0x00041d7e
   20520:	3f03f26f 	svccc	0x0003f26f
   20524:	3f03c750 	svccc	0x0003c750
   20528:	3f039c41 	svccc	0x00039c41
   2052c:	3f037122 	svccc	0x00037122
   20530:	3f0345f1 	svccc	0x000345f1
   20534:	3f031ad2 	svccc	0x00031ad2
   20538:	3f02efa2 	svccc	0x0002efa2
   2053c:	3f02c472 	svccc	0x0002c472
   20540:	3f029931 	svccc	0x00029931
   20544:	3f026df0 	svccc	0x00026df0
   20548:	3f0242af 	svccc	0x000242af
   2054c:	3f02176e 	svccc	0x0002176e
   20550:	3f01ec1c 	svccc	0x0001ec1c
   20554:	3f01c0ca 	svccc	0x0001c0ca
   20558:	3f019579 	svccc	0x00019579
   2055c:	3f016a16 	svccc	0x00016a16
   20560:	3f013eb4 	svccc	0x00013eb4
   20564:	3f011351 	svccc	0x00011351
   20568:	3f00e7de 	svccc	0x0000e7de
   2056c:	3f00bc7b 	svccc	0x0000bc7b
   20570:	3f0090f7 	svccc	0x000090f7
   20574:	3f006584 	svccc	0x00006584
   20578:	3f003a00 	svccc	0x00003a00
   2057c:	3f000e7c 	svccc	0x00000e7c
   20580:	3effc5ef 	cdpcc	5, 15, cr12, cr15, cr15, {7}
   20584:	3eff6ee7 	cdpcc	14, 15, cr6, cr15, cr7, {7}
   20588:	3eff17be 	mrccc	7, 7, r1, cr15, cr14, {5}
   2058c:	3efec094 	mrccc	0, 7, ip, cr14, cr4, {4}
   20590:	3efe6949 	cdpcc	9, 15, cr6, cr14, cr9, {2}
   20594:	3efe11fd 	mrccc	1, 7, r1, cr14, cr13, {7}
   20598:	3efdbab2 	mrccc	10, 7, fp, cr13, cr2, {5}
   2059c:	3efd6367 	cdpcc	3, 15, cr6, cr13, cr7, {3}
   205a0:	3efd0bfa 	vmovcc.u8	r0, d29[7]
   205a4:	3efcb48d 	cdpcc	4, 15, cr11, cr12, cr13, {4}
   205a8:	3efc5d20 	cdpcc	13, 15, cr5, cr12, cr0, {1}
   205ac:	3efc05b4 	mrccc	5, 7, r0, cr12, cr4, {5}
   205b0:	3efbae25 	cdpcc	14, 15, cr10, cr11, cr5, {1}
   205b4:	3efb5697 	mrccc	6, 7, r5, cr11, cr7, {4}
   205b8:	3efafee7 	cdpcc	14, 15, cr15, cr10, cr7, {7}
   205bc:	3efaa759 	mrccc	7, 7, sl, cr10, cr9, {2}
   205c0:	3efa4fa9 	cdpcc	15, 15, cr4, cr10, cr9, {5}
   205c4:	3ef9f7f9 	mrccc	7, 7, APSR_nzcv, cr9, cr9, {7}
   205c8:	3ef9a027 	cdpcc	0, 15, cr10, cr9, cr7, {1}
   205cc:	3ef94856 	mrccc	8, 7, r4, cr9, cr6, {2}
   205d0:	3ef8f084 	cdpcc	0, 15, cr15, cr8, cr4, {4}
   205d4:	3ef898b3 	mrccc	8, 7, r9, cr8, cr3, {5}
   205d8:	3ef840c0 	cdpcc	0, 15, cr4, cr8, cr0, {6}
   205dc:	3ef7e8cd 	cdpcc	8, 15, cr14, cr7, cr13, {6}
   205e0:	3ef790da 	mrccc	0, 7, r9, cr7, cr10, {6}
   205e4:	3ef738e7 	cdpcc	8, 15, cr3, cr7, cr7, {7}
   205e8:	3ef6e0d2 	mrccc	0, 7, lr, cr6, cr2, {6}
   205ec:	3ef688be 	mrccc	8, 7, r8, cr6, cr14, {5}
   205f0:	3ef63088 	cdpcc	0, 15, cr3, cr6, cr8, {4}
   205f4:	3ef5d873 	mrccc	8, 7, sp, cr5, cr3, {3}
   205f8:	3ef5803d 	mrccc	0, 7, r8, cr5, cr13, {1}
   205fc:	3ef52807 	cdpcc	8, 15, cr2, cr5, cr7, {0}
   20600:	3ef4cfaf 	cdpcc	15, 15, cr12, cr4, cr15, {5}
   20604:	3ef47757 	mrccc	7, 7, r7, cr4, cr7, {2}
   20608:	3ef41f00 	cdpcc	15, 15, cr1, cr4, cr0, {0}
   2060c:	3ef3c6a8 	cdpcc	6, 15, cr12, cr3, cr8, {5}
   20610:	3ef36e2f 	cdpcc	14, 15, cr6, cr3, cr15, {1}
   20614:	3ef315b5 	mrccc	5, 7, r1, cr3, cr5, {5}
   20618:	3ef2bd3c 	mrccc	13, 7, fp, cr2, cr12, {1}
   2061c:	3ef264c3 	cdpcc	4, 15, cr6, cr2, cr3, {6}
   20620:	3ef20c28 	cdpcc	12, 15, cr0, cr2, cr8, {1}
   20624:	3ef1b38d 	cdpcc	3, 15, cr11, cr1, cr13, {4}
   20628:	3ef15af3 	mrccc	10, 7, r5, cr1, cr3, {7}
   2062c:	3ef10236 	mrccc	2, 7, r0, cr1, cr6, {1}
   20630:	3ef0a97a 	mrccc	9, 7, sl, cr0, cr10, {3}
   20634:	3ef050be 	mrccc	0, 7, r5, cr0, cr14, {5}
   20638:	3eeff801 	cdpcc	8, 14, cr15, cr15, cr1, {0}
   2063c:	3eef9f23 	cdpcc	15, 14, cr9, cr15, cr3, {1}
   20640:	3eef4645 	cdpcc	6, 14, cr4, cr15, cr5, {2}
   20644:	3eeeed67 	cdpcc	13, 14, cr14, cr14, cr7, {3}
   20648:	3eee9468 	cdpcc	4, 14, cr9, cr14, cr8, {3}
   2064c:	3eee3b8a 	vfmacc.f64	d19, d30, d10
   20650:	3eede28b 	cdpcc	2, 14, cr14, cr13, cr11, {4}
   20654:	3eed896a 	cdpcc	9, 14, cr8, cr13, cr10, {3}
   20658:	3eed306a 	cdpcc	0, 14, cr3, cr13, cr10, {3}
   2065c:	3eecd749 	cdpcc	7, 14, cr13, cr12, cr9, {2}
   20660:	3eec7e28 	cdpcc	14, 14, cr7, cr12, cr8, {1}
   20664:	3eec24e6 	cdpcc	4, 14, cr2, cr12, cr6, {7}
   20668:	3eebcbc5 	vfmscc.f64	d28, d27, d5
   2066c:	3eeb7282 	cdpcc	2, 14, cr7, cr11, cr2, {4}
   20670:	3eeb193f 	mcrcc	9, 7, r1, cr11, cr15, {1}
   20674:	3eeabfdb 	mcrcc	15, 7, fp, cr10, cr11, {6}
   20678:	3eea6677 	mcrcc	6, 7, r6, cr10, cr7, {3}
   2067c:	3eea0d13 	mcrcc	13, 7, r0, cr10, cr3, {0}
   20680:	3ee9b3af 	cdpcc	3, 14, cr11, cr9, cr15, {5}
   20684:	3ee95a29 	vfmacc.f32	s11, s18, s19
   20688:	3ee900c5 	cdpcc	0, 14, cr0, cr9, cr5, {6}
   2068c:	3ee8a71e 	mcrcc	7, 7, sl, cr8, cr14, {0}
   20690:	3ee84d98 	mcrcc	13, 7, r4, cr8, cr8, {4}
   20694:	3ee7f3f1 	mcrcc	3, 7, pc, cr7, cr1, {7}	; <UNPREDICTABLE>
   20698:	3ee79a6b 	vfmscc.f32	s19, s14, s23
   2069c:	3ee740a3 	cdpcc	0, 14, cr4, cr7, cr3, {5}
   206a0:	3ee6e6fb 	mcrcc	6, 7, lr, cr6, cr11, {7}
   206a4:	3ee68d33 	mcrcc	13, 7, r8, cr6, cr3, {1}
   206a8:	3ee6336a 	cdpcc	3, 14, cr3, cr6, cr10, {3}
   206ac:	3ee5d9a1 	cdpcc	9, 14, cr13, cr5, cr1, {5}
   206b0:	3ee57fd8 	mcrcc	15, 7, r7, cr5, cr8, {6}
   206b4:	3ee525ee 	cdpcc	5, 14, cr2, cr5, cr14, {7}
   206b8:	3ee4cc03 	cdpcc	12, 14, cr12, cr4, cr3, {0}
   206bc:	3ee47219 	mcrcc	2, 7, r7, cr4, cr9, {0}
   206c0:	3ee4180d 	cdpcc	8, 14, cr1, cr4, cr13, {0}
   206c4:	3ee3be01 	cdpcc	14, 14, cr11, cr3, cr1, {0}
   206c8:	3ee363f5 	mcrcc	3, 7, r6, cr3, cr5, {7}
   206cc:	3ee309ea 	cdpcc	9, 14, cr0, cr3, cr10, {7}
   206d0:	3ee2afbc 	mcrcc	15, 7, sl, cr2, cr12, {5}
   206d4:	3ee2558f 	cdpcc	5, 14, cr5, cr2, cr15, {4}
   206d8:	3ee1fb61 	vfmscc.f64	d31, d1, d17
   206dc:	3ee1a134 	mcrcc	1, 7, sl, cr1, cr4, {1}
   206e0:	3ee146e5 	cdpcc	6, 14, cr4, cr1, cr5, {7}
   206e4:	3ee0ec96 	mcrcc	12, 7, lr, cr0, cr6, {4}
   206e8:	3ee09247 	cdpcc	2, 14, cr9, cr0, cr7, {2}
   206ec:	3ee037f8 	mcrcc	7, 7, r3, cr0, cr8, {7}
   206f0:	3edfdd87 	cdpcc	13, 13, cr13, cr15, cr7, {4}
   206f4:	3edf8317 	mrccc	3, 6, r8, cr15, cr7, {0}
   206f8:	3edf28a6 	cdpcc	8, 13, cr2, cr15, cr6, {5}
   206fc:	3edece36 	mrccc	14, 6, ip, cr14, cr6, {1}
   20700:	3ede73a3 	cdpcc	3, 13, cr7, cr14, cr3, {5}
   20704:	3ede1911 	mrccc	9, 6, r1, cr14, cr1, {0}
   20708:	3eddbe7f 	mrccc	14, 6, fp, cr13, cr15, {3}
   2070c:	3edd63cc 	cdpcc	3, 13, cr6, cr13, cr12, {6}
   20710:	3edd0939 	mrccc	9, 6, r0, cr13, cr9, {1}
   20714:	3edcae86 	cdpcc	14, 13, cr10, cr12, cr6, {4}
   20718:	3edc53b1 	mrccc	3, 6, r5, cr12, cr1, {5}
   2071c:	3edbf8fd 	mrccc	8, 6, APSR_nzcv, cr11, cr13, {7}
   20720:	3edb9e28 	cdpcc	14, 13, cr9, cr11, cr8, {1}
   20724:	3edb4352 	mrccc	3, 6, r4, cr11, cr2, {2}
   20728:	3edae87d 	mrccc	8, 6, lr, cr10, cr13, {3}
   2072c:	3eda8da8 	cdpcc	13, 13, cr8, cr10, cr8, {5}
   20730:	3eda32b1 	mrccc	2, 6, r3, cr10, cr1, {5}
   20734:	3ed9d7ba 	mrccc	7, 6, sp, cr9, cr10, {5}
   20738:	3ed97cc4 	cdpcc	12, 13, cr7, cr9, cr4, {6}
   2073c:	3ed921ab 	cdpcc	1, 13, cr2, cr9, cr11, {5}
   20740:	3ed8c693 	mrccc	6, 6, ip, cr8, cr3, {4}
   20744:	3ed86b7b 	vmovcc.u8	r6, d8[3]
   20748:	3ed81062 	cdpcc	0, 13, cr1, cr8, cr2, {3}
   2074c:	3ed7b54a 	cdpcc	5, 13, cr11, cr7, cr10, {2}
   20750:	3ed75a10 	mrccc	10, 6, r5, cr7, cr0, {0}
   20754:	3ed6fed6 	mrccc	14, 6, APSR_nzcv, cr6, cr6, {6}
   20758:	3ed6a39c 	mrccc	3, 6, sl, cr6, cr12, {4}
   2075c:	3ed64841 	cdpcc	8, 13, cr4, cr6, cr1, {2}
   20760:	3ed5ed07 	cdpcc	13, 13, cr14, cr5, cr7, {0}
   20764:	3ed591ac 	atnccdp	f1, #4.0
   20768:	3ed53650 	mrccc	6, 6, r3, cr5, cr0, {2}
   2076c:	3ed4dad3 	mrccc	10, 6, sp, cr4, cr3, {6}
   20770:	3ed47f56 	mrccc	15, 6, r7, cr4, cr6, {2}
   20774:	3ed423d9 	mrccc	3, 6, r2, cr4, cr9, {6}
   20778:	3ed3c85c 	mrccc	8, 6, ip, cr3, cr12, {2}
   2077c:	3ed36cdf 	mrccc	12, 6, r6, cr3, cr15, {6}
   20780:	3ed31141 	cdpcc	1, 13, cr1, cr3, cr1, {2}
   20784:	3ed2b5a2 	cdpcc	5, 13, cr11, cr2, cr2, {5}
   20788:	3ed25a04 	vfnmscc.f32	s11, s4, s8
   2078c:	3ed1fe65 	cdpcc	14, 13, cr15, cr1, cr5, {3}
   20790:	3ed1a2a5 	cdpcc	2, 13, cr10, cr1, cr5, {5}
   20794:	3ed146e5 	cdpcc	6, 13, cr4, cr1, cr5, {7}
   20798:	3ed0eb25 	vfnmscc.f64	d30, d0, d21
   2079c:	3ed08f65 	cdpcc	15, 13, cr8, cr0, cr5, {3}
   207a0:	3ed03383 	cdpcc	3, 13, cr3, cr0, cr3, {4}
   207a4:	3ecfd7a1 	cdpcc	7, 12, cr13, cr15, cr1, {5}
   207a8:	3ecf7bc0 	cdpcc	11, 12, cr7, cr15, cr0, {6}
   207ac:	3ecf1fde 	mcrcc	15, 6, r1, cr15, cr14, {6}
   207b0:	3ecec3db 	mcrcc	3, 6, ip, cr14, cr11, {6}
   207b4:	3ece67f9 	mcrcc	7, 6, r6, cr14, cr9, {7}
   207b8:	3ece0bf6 	mcrcc	11, 6, r0, cr14, cr6, {7}
   207bc:	3ecdafd1 	mcrcc	15, 6, sl, cr13, cr1, {6}
   207c0:	3ecd53ce 	cdpcc	3, 12, cr5, cr13, cr14, {6}
   207c4:	3eccf7a9 	cdpcc	7, 12, cr15, cr12, cr9, {5}
   207c8:	3ecc9b84 	vdivcc.f64	d25, d28, d4
   207cc:	3ecc3f60 	cdpcc	15, 12, cr3, cr12, cr0, {3}
   207d0:	3ecbe33b 	mcrcc	3, 6, lr, cr11, cr11, {1}
   207d4:	3ecb86f4 	mcrcc	6, 6, r8, cr11, cr4, {7}
   207d8:	3ecb2aae 	vdivcc.f32	s5, s23, s29
   207dc:	3ecace68 	cdpcc	14, 12, cr12, cr10, cr8, {3}
   207e0:	3eca7200 	cdpcc	2, 12, cr7, cr10, cr0, {0}
   207e4:	3eca15ba 	mcrcc	5, 6, r1, cr10, cr10, {5}
   207e8:	3ec9b952 	mcrcc	9, 6, fp, cr9, cr2, {2}
   207ec:	3ec95cea 	cdpcc	12, 12, cr5, cr9, cr10, {7}
   207f0:	3ec90082 	cdpcc	0, 12, cr0, cr9, cr2, {4}
   207f4:	3ec8a3f9 	mcrcc	3, 6, sl, cr8, cr9, {7}
   207f8:	3ec8476f 	cdpcc	7, 12, cr4, cr8, cr15, {3}
   207fc:	3ec7eae6 	cdpcc	10, 12, cr14, cr7, cr6, {7}
   20800:	3ec78e5c 	mcrcc	14, 6, r8, cr7, cr12, {2}
   20804:	3ec731d3 	mcrcc	1, 6, r3, cr7, cr3, {6}
   20808:	3ec6d528 	cdpcc	5, 12, cr13, cr6, cr8, {1}
   2080c:	3ec6787d 	mcrcc	8, 6, r7, cr6, cr13, {3}
   20810:	3ec61bd2 	mcrcc	11, 6, r1, cr6, cr2, {6}
   20814:	3ec5bf27 	cdpcc	15, 12, cr11, cr5, cr7, {1}
   20818:	3ec5625a 	mcrcc	2, 6, r6, cr5, cr10, {2}
   2081c:	3ec5058e 	cdpcc	5, 12, cr0, cr5, cr14, {4}
   20820:	3ec4a8c1 	cdpcc	8, 12, cr10, cr4, cr1, {6}
   20824:	3ec44bf5 	mcrcc	11, 6, r4, cr4, cr5, {7}
   20828:	3ec3ef07 	cdpcc	15, 12, cr14, cr3, cr7, {0}
   2082c:	3ec3923a 	mcrcc	2, 6, r9, cr3, cr10, {1}
   20830:	3ec3354c 	cdpcc	5, 12, cr3, cr3, cr12, {2}
   20834:	3ec2d85e 	mcrcc	8, 6, sp, cr2, cr14, {2}
   20838:	3ec27b4e 	cdpcc	11, 12, cr7, cr2, cr14, {2}
   2083c:	3ec21e60 	cdpcc	14, 12, cr1, cr2, cr0, {3}
   20840:	3ec1c151 	mcrcc	1, 6, ip, cr1, cr1, {2}
   20844:	3ec16441 	cdpcc	4, 12, cr6, cr1, cr1, {2}
   20848:	3ec10710 	mcrcc	7, 6, r0, cr1, cr0, {0}
   2084c:	3ec0aa00 	vdivcc.f32	s21, s0, s0
   20850:	3ec04ccf 	cdpcc	12, 12, cr4, cr0, cr15, {6}
   20854:	3ebfef9e 	mrccc	15, 5, lr, cr15, cr14, {4}
   20858:	3ebf926c 	cdpcc	2, 11, cr9, cr15, cr12, {3}
   2085c:	3ebf353b 	mrccc	5, 5, r3, cr15, cr11, {1}
   20860:	3ebed7e9 	cdpcc	7, 11, cr13, cr14, cr9, {7}
   20864:	3ebe7a96 	mrccc	10, 5, r7, cr14, cr6, {4}
   20868:	3ebe1d43 	cdpcc	13, 11, cr1, cr14, cr3, {2}
   2086c:	3ebdbff0 	mrccc	15, 5, fp, cr13, cr0, {7}
   20870:	3ebd627c 	mrccc	2, 5, r6, cr13, cr12, {3}
   20874:	3ebd0529 	cdpcc	5, 11, cr0, cr13, cr9, {1}
   20878:	3ebca7b5 	mrccc	7, 5, sl, cr12, cr5, {5}
   2087c:	3ebc4a41 	vcvtrcc.u32.f32	s8, s2
   20880:	3ebbecab 	cdpcc	12, 11, cr14, cr11, cr11, {5}
   20884:	3ebb8f36 	mrccc	15, 5, r8, cr11, cr6, {1}
   20888:	3ebb31a1 	frdcc<illegal precision>p	f3, f3, f1
   2088c:	3ebad40b 	cdpcc	4, 11, cr13, cr10, cr11, {0}
   20890:	3eba7675 	mrccc	6, 5, r7, cr10, cr5, {3}
   20894:	3eba18bd 	mrccc	8, 5, r1, cr10, cr13, {5}
   20898:	3eb9bb28 	cdpcc	11, 11, cr11, cr9, cr8, {1}
   2089c:	3eb95d70 	mrccc	13, 5, r5, cr9, cr0, {3}
   208a0:	3eb8ffb9 	mrccc	15, 5, APSR_nzcv, cr8, cr9, {5}
   208a4:	3eb8a201 	cdpcc	2, 11, cr10, cr8, cr1, {0}
   208a8:	3eb84428 	cdpcc	4, 11, cr4, cr8, cr8, {1}
   208ac:	3eb7e64f 	cdpcc	6, 11, cr14, cr7, cr15, {2}
   208b0:	3eb78876 	mrccc	8, 5, r8, cr7, cr6, {3}
   208b4:	3eb72a9d 	mrccc	10, 5, r2, cr7, cr13, {4}
   208b8:	3eb6ccc4 	cdpcc	12, 11, cr12, cr6, cr4, {6}
   208bc:	3eb66eca 	cdpcc	14, 11, cr6, cr6, cr10, {6}
   208c0:	3eb610f1 	mrccc	0, 5, r1, cr6, cr1, {7}
   208c4:	3eb5b2f6 	mrccc	2, 5, fp, cr5, cr6, {7}
   208c8:	3eb554fc 	mrccc	4, 5, r5, cr5, cr12, {7}
   208cc:	3eb4f6e0 	cdpcc	6, 11, cr15, cr4, cr0, {7}
   208d0:	3eb498e5 	cdpcc	8, 11, cr9, cr4, cr5, {7}
   208d4:	3eb43ac9 	vcmpecc.f32	s6, s18
   208d8:	3eb3dcad 	cdpcc	12, 11, cr13, cr3, cr13, {5}
   208dc:	3eb37e91 	mrccc	14, 5, r7, cr3, cr1, {4}
   208e0:	3eb32053 	mrccc	0, 5, r2, cr3, cr3, {2}
   208e4:	3eb2c237 	mrccc	2, 5, ip, cr2, cr7, {1}
   208e8:	3eb263fa 	mrccc	3, 5, r6, cr2, cr10, {7}
   208ec:	3eb205bc 	mrccc	5, 5, r0, cr2, cr12, {5}
   208f0:	3eb1a75d 	mrccc	7, 5, sl, cr1, cr13, {2}
   208f4:	3eb1491f 	mrccc	9, 5, r4, cr1, cr15, {0}
   208f8:	3eb0eac0 	vabscc.f32	s28, s0
   208fc:	3eb08c61 	cdpcc	12, 11, cr8, cr0, cr1, {3}
   20900:	3eb02e02 	cdpcc	14, 11, cr2, cr0, cr2, {0}
   20904:	3eafcfa2 	cdpcc	15, 10, cr12, cr15, cr2, {5}
   20908:	3eaf7143 	fdvccem	f7, f7, f3
   2090c:	3eaf12c2 	cdpcc	2, 10, cr1, cr15, cr2, {6}
   20910:	3eaeb442 	cdpcc	4, 10, cr11, cr14, cr2, {2}
   20914:	3eae55c1 	cdpcc	5, 10, cr5, cr14, cr1, {6}
   20918:	3eadf740 	cdpcc	7, 10, cr15, cr13, cr0, {2}
   2091c:	3ead989e 	mcrcc	8, 5, r9, cr13, cr14, {4}
   20920:	3ead3a1d 	mcrcc	10, 5, r3, cr13, cr13, {0}
   20924:	3eacdb7b 	mcrcc	11, 5, sp, cr12, cr11, {3}
   20928:	3eac7cd9 	mcrcc	12, 5, r7, cr12, cr9, {6}
   2092c:	3eac1e36 	mcrcc	14, 5, r1, cr12, cr6, {1}
   20930:	3eabbf72 	mcrcc	15, 5, fp, cr11, cr2, {3}
   20934:	3eab60af 	cdpcc	0, 10, cr6, cr11, cr15, {5}
   20938:	3eab020c 	cdpcc	2, 10, cr0, cr11, cr12, {0}
   2093c:	3eaaa348 	cdpcc	3, 10, cr10, cr10, cr8, {2}
   20940:	3eaa4463 	cdpcc	4, 10, cr4, cr10, cr3, {3}
   20944:	3ea9e59f 	mcrcc	5, 5, lr, cr9, cr15, {4}
   20948:	3ea986ba 	mcrcc	6, 5, r8, cr9, cr10, {5}
   2094c:	3ea927d4 	mcrcc	7, 5, r2, cr9, cr4, {6}
   20950:	3ea8c8ef 	cdpcc	8, 10, cr12, cr8, cr15, {7}
   20954:	3ea86a0a 	vfmacc.f32	s12, s16, s20
   20958:	3ea80b24 	vfmacc.f64	d0, d8, d20
   2095c:	3ea7ac1d 	mcrcc	12, 5, sl, cr7, cr13, {0}
   20960:	3ea74d16 	mcrcc	13, 5, r4, cr7, cr6, {0}
   20964:	3ea6ee0f 	cdpcc	14, 10, cr14, cr6, cr15, {0}
   20968:	3ea68f08 	cdpcc	15, 10, cr8, cr6, cr8, {0}
   2096c:	3ea63001 	cdpcc	0, 10, cr3, cr6, cr1, {0}
   20970:	3ea5d0d9 	mcrcc	0, 5, sp, cr5, cr9, {6}
   20974:	3ea571d2 	mcrcc	1, 5, r7, cr5, cr2, {6}
   20978:	3ea512a9 	cdpcc	2, 10, cr1, cr5, cr9, {5}
   2097c:	3ea4b381 	cdpcc	3, 10, cr11, cr4, cr1, {4}
   20980:	3ea45437 	mcrcc	4, 5, r5, cr4, cr7, {1}
   20984:	3ea3f50e 	cdpcc	5, 10, cr15, cr3, cr14, {0}
   20988:	3ea395c4 	cdpcc	5, 10, cr9, cr3, cr4, {6}
   2098c:	3ea3367a 	mcrcc	6, 5, r3, cr3, cr10, {3}
   20990:	3ea2d730 	mcrcc	7, 5, sp, cr2, cr0, {1}
   20994:	3ea277e6 	cdpcc	7, 10, cr7, cr2, cr6, {7}
   20998:	3ea2187a 	mcrcc	8, 5, r1, cr2, cr10, {3}
   2099c:	3ea1b930 	mcrcc	9, 5, fp, cr1, cr0, {1}
   209a0:	3ea159c5 	cdpcc	9, 10, cr5, cr1, cr5, {6}
   209a4:	3ea0fa59 	mcrcc	10, 5, pc, cr0, cr9, {2}	; <UNPREDICTABLE>
   209a8:	3ea09aed 	vfmscc.f32	s18, s1, s27
   209ac:	3ea03b60 	vfmscc.f64	d3, d0, d16
   209b0:	3e9fdbf5 	vmovcc.u16	sp, d31[1]
   209b4:	3e9f7c67 	cdpcc	12, 9, cr7, cr15, cr7, {3}
   209b8:	3e9f1cda 	mrccc	12, 4, r1, cr15, cr10, {6}
   209bc:	3e9ebd4d 	cdpcc	13, 9, cr11, cr14, cr13, {2}
   209c0:	3e9e5dc0 	cdpcc	13, 9, cr5, cr14, cr0, {6}
   209c4:	3e9dfe11 	mrccc	14, 4, APSR_nzcv, cr13, cr1, {0}
   209c8:	3e9d9e84 	cdpcc	14, 9, cr9, cr13, cr4, {4}
   209cc:	3e9d3ed5 	mrccc	14, 4, r3, cr13, cr5, {6}
   209d0:	3e9cdf26 	cdpcc	15, 9, cr13, cr12, cr6, {1}
   209d4:	3e9c7f78 	mrccc	15, 4, r7, cr12, cr8, {3}
   209d8:	3e9c1fa7 	cdpcc	15, 9, cr1, cr12, cr7, {5}
   209dc:	3e9bbff9 	mrccc	15, 4, fp, cr11, cr9, {7}
   209e0:	3e9b6028 	cdpcc	0, 9, cr6, cr11, cr8, {1}
   209e4:	3e9b0058 	mrccc	0, 4, r0, cr11, cr8, {2}
   209e8:	3e9aa088 	cdpcc	0, 9, cr10, cr10, cr8, {4}
   209ec:	3e9a40b8 	mrccc	0, 4, r4, cr10, cr8, {5}
   209f0:	3e99e0c6 	cdpcc	0, 9, cr14, cr9, cr6, {6}
   209f4:	3e9980f5 	mrccc	0, 4, r8, cr9, cr5, {7}
   209f8:	3e992104 	fmlcce	f2, f1, f4
   209fc:	3e98c112 	mrccc	1, 4, ip, cr8, cr2, {0}
   20a00:	3e986120 	fmlccep	f6, f0, f0
   20a04:	3e98010c 	fmlcce	f0, f0, #4.0
   20a08:	3e97a11b 	mrccc	1, 4, sl, cr7, cr11, {0}
   20a0c:	3e974107 	fmlccs	f4, f7, f7
   20a10:	3e96e0f4 	mrccc	0, 4, lr, cr6, cr4, {7}
   20a14:	3e9680e0 	cdpcc	0, 9, cr8, cr6, cr0, {7}
   20a18:	3e9620cd 	cdpcc	0, 9, cr2, cr6, cr13, {6}
   20a1c:	3e95c0ba 	mrccc	0, 4, ip, cr5, cr10, {5}
   20a20:	3e956085 	cdpcc	0, 9, cr6, cr5, cr5, {4}
   20a24:	3e950071 	mrccc	0, 4, r0, cr5, cr1, {3}
   20a28:	3e94a03c 	mrccc	0, 4, sl, cr4, cr12, {1}
   20a2c:	3e944007 	cdpcc	0, 9, cr4, cr4, cr7, {0}
   20a30:	3e93dfb1 	mrccc	15, 4, sp, cr3, cr1, {5}
   20a34:	3e937f7c 	mrccc	15, 4, r7, cr3, cr12, {3}
   20a38:	3e931f25 	cdpcc	15, 9, cr1, cr3, cr5, {1}
   20a3c:	3e92bef0 	mrccc	14, 4, fp, cr2, cr0, {7}
   20a40:	3e925e9a 	mrccc	14, 4, r5, cr2, cr10, {4}
   20a44:	3e91fe43 	cdpcc	14, 9, cr15, cr1, cr3, {2}
   20a48:	3e919ded 	cdpcc	13, 9, cr9, cr1, cr13, {7}
   20a4c:	3e913d75 	mrccc	13, 4, r3, cr1, cr5, {3}
   20a50:	3e90dd1e 	mrccc	13, 4, sp, cr0, cr14, {0}
   20a54:	3e907ca6 	cdpcc	12, 9, cr7, cr0, cr6, {5}
   20a58:	3e901c2e 	cdpcc	12, 9, cr1, cr0, cr14, {1}
   20a5c:	3e8fbbb6 	vdupcc.16	d31, fp
   20a60:	3e8f5b3e 	vdupcc.16	d15, r5
   20a64:	3e8efaa4 	vdivcc.f32	s30, s29, s9
   20a68:	3e8e9a2c 	vdivcc.f32	s18, s28, s25
   20a6c:	3e8e3993 	mcrcc	9, 4, r3, cr14, cr3, {4}
   20a70:	3e8dd8f9 	mcrcc	8, 4, sp, cr13, cr9, {7}
   20a74:	3e8d7860 	cdpcc	8, 8, cr7, cr13, cr0, {3}
   20a78:	3e8d17c6 	cdpcc	7, 8, cr1, cr13, cr6, {6}
   20a7c:	3e8cb70b 	cdpcc	7, 8, cr11, cr12, cr11, {0}
   20a80:	3e8c5671 	mcrcc	6, 4, r5, cr12, cr1, {3}
   20a84:	3e8bf5b6 	mcrcc	5, 4, pc, cr11, cr6, {5}	; <UNPREDICTABLE>
   20a88:	3e8b94fb 	mcrcc	4, 4, r9, cr11, cr11, {7}
   20a8c:	3e8b3440 	cdpcc	4, 8, cr3, cr11, cr0, {2}
   20a90:	3e8ad384 	cdpcc	3, 8, cr13, cr10, cr4, {4}
   20a94:	3e8a72c9 	cdpcc	2, 8, cr7, cr10, cr9, {6}
   20a98:	3e8a11ed 	rmfcc<illegal precision>z	f1, f2, #5.0
   20a9c:	3e89b131 	mcrcc	1, 4, fp, cr9, cr1, {1}
   20aa0:	3e895055 	mcrcc	0, 4, r5, cr9, cr5, {2}
   20aa4:	3e88ef78 	mcrcc	15, 4, lr, cr8, cr8, {3}
   20aa8:	3e888e9b 	mcrcc	14, 4, r8, cr8, cr11, {4}
   20aac:	3e882d9d 	mcrcc	13, 4, r2, cr8, cr13, {4}
   20ab0:	3e87ccc0 	cdpcc	12, 8, cr12, cr7, cr0, {6}
   20ab4:	3e876bc2 	cdpcc	11, 8, cr6, cr7, cr2, {6}
   20ab8:	3e870ae5 	cdpcc	10, 8, cr0, cr7, cr5, {7}
   20abc:	3e86a9e7 	cdpcc	9, 8, cr10, cr6, cr7, {7}
   20ac0:	3e8648e9 	cdpcc	8, 8, cr4, cr6, cr9, {7}
   20ac4:	3e85e7c9 	cdpcc	7, 8, cr14, cr5, cr9, {6}
   20ac8:	3e8586cb 	cdpcc	6, 8, cr8, cr5, cr11, {6}
   20acc:	3e8525cc 	cdpcc	5, 8, cr2, cr5, cr12, {6}
   20ad0:	3e84c4ac 	cdpcc	4, 8, cr12, cr4, cr12, {5}
   20ad4:	3e84638d 	cdpcc	3, 8, cr6, cr4, cr13, {4}
   20ad8:	3e84026d 	cdpcc	2, 8, cr0, cr4, cr13, {3}
   20adc:	3e83a14d 	sinccsm	f2, #5.0
   20ae0:	3e83402d 	cdpcc	0, 8, cr4, cr3, cr13, {1}
   20ae4:	3e82deec 	cdpcc	14, 8, cr13, cr2, cr12, {7}
   20ae8:	3e827dcc 	cdpcc	13, 8, cr7, cr2, cr12, {6}
   20aec:	3e821c8a 	cdpcc	12, 8, cr1, cr2, cr10, {4}
   20af0:	3e81bb49 	cdpcc	11, 8, cr11, cr1, cr9, {2}
   20af4:	3e815a08 	vdivcc.f32	s10, s2, s16
   20af8:	3e80f8c6 	cdpcc	8, 8, cr15, cr0, cr6, {6}
   20afc:	3e809763 	cdpcc	7, 8, cr9, cr0, cr3, {3}
   20b00:	3e803622 	cdpcc	6, 8, cr3, cr0, cr2, {1}
   20b04:	3e7fa97e 	mrccc	9, 3, sl, cr15, cr14, {3}
   20b08:	3e7ee6fb 	mrccc	6, 3, lr, cr14, cr11, {7}
   20b0c:	3e7e2435 	mrccc	4, 3, r2, cr14, cr5, {1}
   20b10:	3e7d6170 	mrccc	1, 3, r6, cr13, cr0, {3}
   20b14:	3e7c9e67 	cdpcc	14, 7, cr9, cr12, cr7, {3}
   20b18:	3e7bdba1 	vaddcc.f64	d29, d27, d17
   20b1c:	3e7b18db 	mrccc	8, 3, r1, cr11, cr11, {6}
   20b20:	3e7a55d2 	mrccc	5, 3, r5, cr10, cr2, {6}
   20b24:	3e7992c9 	cdpcc	2, 7, cr9, cr9, cr9, {6}
   20b28:	3e78cfc0 	cdpcc	15, 7, cr12, cr8, cr0, {6}
   20b2c:	3e780cb7 	mrccc	12, 3, r0, cr8, cr7, {5}
   20b30:	3e7749ae 	cdpcc	9, 7, cr4, cr7, cr14, {5}
   20b34:	3e7686a5 	cdpcc	6, 7, cr8, cr6, cr5, {5}
   20b38:	3e75c359 	mrccc	3, 3, ip, cr5, cr9, {2}
   20b3c:	3e75000d 	cdpcc	0, 7, cr0, cr5, cr13, {0}
   20b40:	3e743d04 	cdpcc	13, 7, cr3, cr4, cr4, {0}
   20b44:	3e7379b7 	mrccc	9, 3, r7, cr3, cr7, {5}
   20b48:	3e72b66b 	cdpcc	6, 7, cr11, cr2, cr11, {3}
   20b4c:	3e71f2dc 	mrccc	2, 3, APSR_nzcv, cr1, cr12, {6}
   20b50:	3e712f90 	mrccc	15, 3, r2, cr1, cr0, {4}
   20b54:	3e706c44 	cdpcc	12, 7, cr6, cr0, cr4, {2}
   20b58:	3e6fa8b5 	mcrcc	8, 3, sl, cr15, cr5, {5}
   20b5c:	3e6ee526 	cdpcc	5, 6, cr14, cr14, cr6, {1}
   20b60:	3e6e2196 	mcrcc	1, 3, r2, cr14, cr6, {4}
   20b64:	3e6d5e07 	cdpcc	14, 6, cr5, cr13, cr7, {0}
   20b68:	3e6c9a78 	mcrcc	10, 3, r9, cr12, cr8, {3}
   20b6c:	3e6bd6e9 	cdpcc	6, 6, cr13, cr11, cr9, {7}
   20b70:	3e6b1316 	mcrcc	3, 3, r1, cr11, cr6, {0}
   20b74:	3e6a4f87 	cdpcc	15, 6, cr4, cr10, cr7, {4}
   20b78:	3e698bb5 	vmovcc.8	d25[5], r8
   20b7c:	3e68c7e3 	cdpcc	7, 6, cr12, cr8, cr3, {7}
   20b80:	3e680410 	mcrcc	4, 3, r0, cr8, cr0, {0}
   20b84:	3e67403e 	mcrcc	0, 3, r4, cr7, cr14, {1}
   20b88:	3e667c6c 	cdpcc	12, 6, cr7, cr6, cr12, {3}
   20b8c:	3e65b899 	mcrcc	8, 3, fp, cr5, cr9, {4}
   20b90:	3e64f484 	cdpcc	4, 6, cr15, cr4, cr4, {4}
   20b94:	3e64306e 	cdpcc	0, 6, cr3, cr4, cr14, {3}
   20b98:	3e636c9c 	mcrcc	12, 3, r6, cr3, cr12, {4}
   20b9c:	3e62a887 	cdpcc	8, 6, cr10, cr2, cr7, {4}
   20ba0:	3e61e471 	mcrcc	4, 3, lr, cr1, cr1, {3}
   20ba4:	3e61205c 	mcrcc	0, 3, r2, cr1, cr12, {2}
   20ba8:	3e605c03 	cdpcc	12, 6, cr5, cr0, cr3, {0}
   20bac:	3e5f97ee 	cdpcc	7, 5, cr9, cr15, cr14, {7}
   20bb0:	3e5ed395 	mrccc	3, 2, sp, cr14, cr5, {4}
   20bb4:	3e5e0f80 	cdpcc	15, 5, cr0, cr14, cr0, {4}
   20bb8:	3e5d4b27 	vnmlscc.f64	d20, d13, d23
   20bbc:	3e5c86cf 	cdpcc	6, 5, cr8, cr12, cr15, {6}
   20bc0:	3e5bc276 	mrccc	2, 2, ip, cr11, cr6, {3}
   20bc4:	3e5afe1e 	mrccc	14, 2, APSR_nzcv, cr10, cr14, {0}
   20bc8:	3e5a3982 	cdpcc	9, 5, cr3, cr10, cr2, {4}
   20bcc:	3e597529 	cdpcc	5, 5, cr7, cr9, cr9, {1}
   20bd0:	3e58b08e 	cdpcc	0, 5, cr11, cr8, cr14, {4}
   20bd4:	3e57ec35 	mrccc	12, 2, lr, cr7, cr5, {1}
   20bd8:	3e57279a 	mrccc	7, 2, r2, cr7, cr10, {4}
   20bdc:	3e5662fe 	mrccc	2, 2, r6, cr6, cr14, {7}
   20be0:	3e559e62 	cdpcc	14, 5, cr9, cr5, cr2, {3}
   20be4:	3e54d9c7 	cdpcc	9, 5, cr13, cr4, cr7, {6}
   20be8:	3e5414e8 	cdpcc	4, 5, cr1, cr4, cr8, {7}
   20bec:	3e53504c 	cdpcc	0, 5, cr5, cr3, cr12, {2}
   20bf0:	3e528b6e 	vnmlacc.f64	d24, d2, d30
   20bf4:	3e51c6d2 	mrccc	6, 2, ip, cr1, cr2, {6}
   20bf8:	3e5101f3 	mrccc	1, 2, r0, cr1, cr3, {7}
   20bfc:	3e503d14 	mrccc	13, 2, r3, cr0, cr4, {0}
   20c00:	3e4f7836 	mcrcc	8, 2, r7, cr15, cr6, {1}
   20c04:	3e4eb357 	mcrcc	3, 2, fp, cr14, cr7, {2}
   20c08:	3e4dee78 	mcrcc	14, 2, lr, cr13, cr8, {3}
   20c0c:	3e4d2956 	mcrcc	9, 2, r2, cr13, cr6, {2}
   20c10:	3e4c6477 	mcrcc	4, 2, r6, cr12, cr7, {3}
   20c14:	3e4b9f56 	mcrcc	15, 2, r9, cr11, cr6, {2}
   20c18:	3e4ada34 	mcrcc	10, 2, sp, cr10, cr4, {1}
   20c1c:	3e4a1555 	mcrcc	5, 2, r1, cr10, cr5, {2}
   20c20:	3e495033 	mcrcc	0, 2, r5, cr9, cr3, {1}
   20c24:	3e488b11 	vmovcc.8	d8[0], r8
   20c28:	3e47c5ac 	cdpcc	5, 4, cr12, cr7, cr12, {5}
   20c2c:	3e47008a 	cdpcc	0, 4, cr0, cr7, cr10, {4}
   20c30:	3e463b69 	vmlscc.f64	d19, d6, d25
   20c34:	3e457604 	cdpcc	6, 4, cr7, cr5, cr4, {0}
   20c38:	3e44b09f 	mcrcc	0, 2, fp, cr4, cr15, {4}
   20c3c:	3e43eb7d 	vmovcc.8	d3[3], lr
   20c40:	3e432618 	mcrcc	6, 2, r2, cr3, cr8, {0}
   20c44:	3e4260b3 	mcrcc	0, 2, r6, cr2, cr3, {5}
   20c48:	3e419b4e 	vmlscc.f64	d25, d1, d14
   20c4c:	3e40d5a6 	cdpcc	5, 4, cr13, cr0, cr6, {5}
   20c50:	3e401041 	cdpcc	0, 4, cr1, cr0, cr1, {2}
   20c54:	3e3f4adc 	mrccc	10, 1, r4, cr15, cr12, {6}
   20c58:	3e3e8534 	mrccc	5, 1, r8, cr14, cr4, {1}
   20c5c:	3e3dbf8c 	cdpcc	15, 3, cr11, cr13, cr12, {4}
   20c60:	3e3cfa27 	vaddcc.f32	s30, s24, s15
   20c64:	3e3c347f 	mrccc	4, 1, r3, cr12, cr15, {3}
   20c68:	3e3b6ed6 	mrccc	14, 1, r6, cr11, cr6, {6}
   20c6c:	3e3aa92e 	cdpcc	9, 3, cr10, cr10, cr14, {1}
   20c70:	3e39e386 	cdpcc	3, 3, cr14, cr9, cr6, {4}
   20c74:	3e391d9b 	mrccc	13, 1, r1, cr9, cr11, {4}
   20c78:	3e3857f3 	mrccc	7, 1, r5, cr8, cr3, {7}
   20c7c:	3e379208 	cdpcc	2, 3, cr9, cr7, cr8, {0}
   20c80:	3e36cc60 	cdpcc	12, 3, cr12, cr6, cr0, {3}
   20c84:	3e360675 	mrccc	6, 1, r0, cr6, cr5, {3}
   20c88:	3e354089 	cdpcc	0, 3, cr4, cr5, cr9, {4}
   20c8c:	3e347a9e 	mrccc	10, 1, r7, cr4, cr14, {4}
   20c90:	3e33b4b3 	mrccc	4, 1, fp, cr3, cr3, {5}
   20c94:	3e32eec8 	cdpcc	14, 3, cr14, cr2, cr8, {6}
   20c98:	3e3228dd 	mrccc	8, 1, r2, cr2, cr13, {6}
   20c9c:	3e3162f1 	mrccc	2, 1, r6, cr1, cr1, {7}
   20ca0:	3e309cc3 	cdpcc	12, 3, cr9, cr0, cr3, {6}
   20ca4:	3e2fd6d8 	mcrcc	6, 1, sp, cr15, cr8, {6}
   20ca8:	3e2f10aa 	cdpcc	0, 2, cr1, cr15, cr10, {5}
   20cac:	3e2e4a7b 	mcrcc	10, 1, r4, cr14, cr11, {3}
   20cb0:	3e2d844d 	cdpcc	4, 2, cr8, cr13, cr13, {2}
   20cb4:	3e2cbe1f 	mcrcc	14, 1, fp, cr12, cr15, {0}
   20cb8:	3e2bf7f0 	mcrcc	7, 1, pc, cr11, cr0, {7}	; <UNPREDICTABLE>
   20cbc:	3e2b31c2 	sufcc<illegal precision>m	f3, f3, f2
   20cc0:	3e2a6b94 	vmovcc.32	d26[1], r6
   20cc4:	3e29a565 	cfsh64cc	mvdx10, mvdx9, #53
   20cc8:	3e28def4 	mcrcc	14, 1, sp, cr8, cr4, {7}
   20ccc:	3e2818c6 	cdpcc	8, 2, cr1, cr8, cr6, {6}
   20cd0:	3e275254 	mcrcc	2, 1, r5, cr7, cr4, {2}
   20cd4:	3e268be3 	vnmulcc.f64	d8, d22, d19
   20cd8:	3e25c572 	mcrcc	5, 1, ip, cr5, cr2, {3}
   20cdc:	3e24ff00 	cdpcc	15, 2, cr15, cr4, cr0, {0}
   20ce0:	3e24388f 	cdpcc	8, 2, cr3, cr4, cr15, {4}
   20ce4:	3e23721d 	mcrcc	2, 1, r7, cr3, cr13, {0}
   20ce8:	3e22abac 	vmulcc.f64	d10, d18, d28
   20cec:	3e21e53b 	mcrcc	5, 1, lr, cr1, cr11, {1}
   20cf0:	3e211e86 	cdpcc	14, 2, cr1, cr1, cr6, {4}
   20cf4:	3e205815 	mcrcc	8, 1, r5, cr0, cr5, {0}
   20cf8:	3e1f9160 	mnfccez	f1, f0
   20cfc:	3e1ecaef 	vnmlacc.f32	s24, s29, s31
   20d00:	3e1e043a 	mrccc	4, 0, r0, cr14, cr10, {1}
   20d04:	3e1d3d86 	cdpcc	13, 1, cr3, cr13, cr6, {4}
   20d08:	3e1c76d1 	mrccc	6, 0, r7, cr12, cr1, {6}
   20d0c:	3e1bb01d 	mrccc	0, 0, fp, cr11, cr13, {0}
   20d10:	3e1ae968 	cdpcc	9, 1, cr14, cr10, cr8, {3}
   20d14:	3e1a22b4 	mrccc	2, 0, r2, cr10, cr4, {5}
   20d18:	3e195bff 	vmovcc.s16	r5, d25[1]
   20d1c:	3e189507 	cfmul32cc	mvfx9, mvfx8, mvfx7
   20d20:	3e17ce53 	mrccc	14, 0, ip, cr7, cr3, {2}
   20d24:	3e17075b 	mrccc	7, 0, r0, cr7, cr11, {2}
   20d28:	3e164064 	cdpcc	0, 1, cr4, cr6, cr4, {3}
   20d2c:	3e1579af 	cdpcc	9, 1, cr7, cr5, cr15, {5}
   20d30:	3e14b2b7 	mrccc	2, 0, fp, cr4, cr7, {5}
   20d34:	3e13ebc0 	vnmlacc.f64	d14, d19, d0
   20d38:	3e1324c8 	cdpcc	4, 1, cr2, cr3, cr8, {6}
   20d3c:	3e125dd1 	mrccc	13, 0, r5, cr2, cr1, {6}
   20d40:	3e1196d9 	mrccc	6, 0, r9, cr1, cr9, {6}
   20d44:	3e10cfe1 	cdpcc	15, 1, cr12, cr0, cr1, {7}
   20d48:	3e1008a7 	cdpcc	8, 1, cr0, cr0, cr7, {5}
   20d4c:	3e0f41af 	adfcc<illegal precision>p	f4, f7, #10.0
   20d50:	3e0e7a74 	mcrcc	10, 0, r7, cr14, cr4, {3}
   20d54:	3e0db37d 	mcrcc	3, 0, fp, cr13, cr13, {3}
   20d58:	3e0cec42 	cdpcc	12, 0, cr14, cr12, cr2, {2}
   20d5c:	3e0c2507 	cfsh32cc	mvfx2, mvfx12, #7
   20d60:	3e0b5e0f 	cdpcc	14, 0, cr5, cr11, cr15, {0}
   20d64:	3e0a96d5 	mcrcc	6, 0, r9, cr10, cr5, {6}
   20d68:	3e09cf9a 	mcrcc	15, 0, ip, cr9, cr10, {4}
   20d6c:	3e09085f 	mcrcc	8, 0, r0, cr9, cr15, {2}
   20d70:	3e084125 	adfccep	f4, f0, f5
   20d74:	3e0779a7 	cdpcc	9, 0, cr7, cr7, cr7, {5}
   20d78:	3e06b26c 	cdpcc	2, 0, cr11, cr6, cr12, {3}
   20d7c:	3e05eb31 	vmovcc.16	d5[0], lr
   20d80:	3e0523b3 	mcrcc	3, 0, r2, cr5, cr3, {5}
   20d84:	3e045c79 	mcrcc	12, 0, r5, cr4, cr9, {3}
   20d88:	3e0394fb 	mcrcc	4, 0, r9, cr3, cr11, {7}
   20d8c:	3e02cd7d 	mcrcc	13, 0, ip, cr2, cr13, {3}
   20d90:	3e020642 	cfmadd32cc	mvax2, mvfx0, mvfx2, mvfx2
   20d94:	3e013ec4 	cdpcc	14, 0, cr3, cr1, cr4, {6}
   20d98:	3e007747 	cdpcc	7, 0, cr7, cr0, cr7, {2}
   20d9c:	3dff5f91 	ldclcc	15, cr5, [pc, #580]!	; 20fe8 <fsintable+0x3fc0>
   20da0:	3dfdd096 	ldclcc	0, cr13, [sp, #600]!	; 0x258
   20da4:	3dfc419a 	ldfcce	f4, [ip, #616]!	; 0x268
   20da8:	3dfab29e 	lfmcc	f3, 3, [sl, #632]!	; 0x278
   20dac:	3df9231c 	ldclcc	3, cr2, [r9, #112]!	; 0x70
   20db0:	3df79421 	cfldrdcc	mvd9, [r7, #132]!	; 0x84
   20db4:	3df60525 	cfldr64cc	mvdx0, [r6, #148]!	; 0x94
   20db8:	3df475a3 	cfldr64cc	mvdx7, [r4, #652]!	; 0x28c
   20dbc:	3df2e6a7 	ldclcc	6, cr14, [r2, #668]!	; 0x29c
   20dc0:	3df15726 	ldclcc	7, cr5, [r1, #152]!	; 0x98
   20dc4:	3defc7a4 	stclcc	7, cr12, [pc, #656]!	; 2105c <fsintable+0x4034>
   20dc8:	3dee38a8 	stclcc	8, cr3, [lr, #672]!	; 0x2a0
   20dcc:	3deca926 	stclcc	9, cr10, [ip, #152]!	; 0x98
   20dd0:	3deb19a4 	stclcc	9, cr1, [fp, #656]!	; 0x290
   20dd4:	3de98a22 	stclcc	10, cr8, [r9, #136]!	; 0x88
   20dd8:	3de7faa0 	stclcc	10, cr15, [r7, #640]!	; 0x280
   20ddc:	3de66b1e 	stclcc	11, cr6, [r6, #120]!	; 0x78
   20de0:	3de4db9c 	stclcc	11, cr13, [r4, #624]!	; 0x270
   20de4:	3de34b94 	stclcc	11, cr4, [r3, #592]!	; 0x250
   20de8:	3de1bc12 	stclcc	12, cr11, [r1, #72]!	; 0x48
   20dec:	3de02c91 	stclcc	12, cr2, [r0, #580]!	; 0x244
   20df0:	3dde9c88 	ldclcc	12, cr9, [lr, #544]	; 0x220
   20df4:	3ddd0d06 	ldclcc	13, cr0, [sp, #24]
   20df8:	3ddb7cfe 	ldclcc	12, cr7, [fp, #1016]	; 0x3f8
   20dfc:	3dd9ed7c 	ldclcc	13, cr14, [r9, #496]	; 0x1f0
   20e00:	3dd85d74 	ldclcc	13, cr5, [r8, #464]	; 0x1d0
   20e04:	3dd6cd6c 	ldclcc	13, cr12, [r6, #432]	; 0x1b0
   20e08:	3dd53dea 	ldclcc	13, cr3, [r5, #936]	; 0x3a8
   20e0c:	3dd3ade2 	ldclcc	13, cr10, [r3, #904]	; 0x388
   20e10:	3dd21dda 	ldclcc	13, cr1, [r2, #872]	; 0x368
   20e14:	3dd08dd2 	ldclcc	13, cr8, [r0, #840]	; 0x348
   20e18:	3dcefdca 	stclcc	13, cr15, [lr, #808]	; 0x328
   20e1c:	3dcd6dc2 	stclcc	13, cr6, [sp, #776]	; 0x308
   20e20:	3dcbddba 	stclcc	13, cr13, [fp, #744]	; 0x2e8
   20e24:	3dca4d2b 	stclcc	13, cr4, [sl, #172]	; 0xac
   20e28:	3dc8bd23 	stclcc	13, cr11, [r8, #140]	; 0x8c
   20e2c:	3dc72d1b 	stclcc	13, cr2, [r7, #108]	; 0x6c
   20e30:	3dc59c8d 	stclcc	12, cr9, [r5, #564]	; 0x234
   20e34:	3dc40c84 	stclcc	12, cr0, [r4, #528]	; 0x210
   20e38:	3dc27bf6 	vstrcc	d23, [r2, #984]	; 0x3d8
   20e3c:	3dc0ebee 	vstrcc	d30, [r0, #952]	; 0x3b8
   20e40:	3dbf5b60 	ldccc	11, cr5, [pc, #384]!	; 20fc8 <fsintable+0x3fa0>
   20e44:	3dbdcb58 	ldccc	11, cr12, [sp, #352]!	; 0x160
   20e48:	3dbc3ac9 	ldccc	10, cr3, [ip, #804]!	; 0x324
   20e4c:	3dbaaa3b 	ldccc	10, cr10, [sl, #236]!	; 0xec
   20e50:	3db919ac 	ldccc	9, cr1, [r9, #688]!	; 0x2b0
   20e54:	3db7891e 	ldccc	9, cr8, [r7, #120]!	; 0x78
   20e58:	3db5f916 	ldccc	9, cr15, [r5, #88]!	; 0x58
   20e5c:	3db46888 	ldccc	8, cr6, [r4, #544]!	; 0x220
   20e60:	3db2d7f9 	ldccc	7, cr13, [r2, #996]!	; 0x3e4
   20e64:	3db146e5 	ldccc	6, cr4, [r1, #916]!	; 0x394
   20e68:	3dafb656 	stccc	6, cr11, [pc, #344]!	; 20fc8 <fsintable+0x3fa0>
   20e6c:	3dae25c8 	cfstr32cc	mvfx2, [lr, #800]!	; 0x320
   20e70:	3dac953a 	cfstr32cc	mvfx9, [ip, #232]!	; 0xe8
   20e74:	3dab04ab 	cfstrscc	mvf0, [fp, #684]!	; 0x2ac
   20e78:	3da97397 	stccc	3, cr7, [r9, #604]!	; 0x25c
   20e7c:	3da7e308 	stccc	3, cr14, [r7, #32]!
   20e80:	3da651f4 	stfccs	f5, [r6, #976]!	; 0x3d0
   20e84:	3da4c166 	stfccd	f4, [r4, #408]!	; 0x198
   20e88:	3da33051 	stccc	0, cr3, [r3, #324]!	; 0x144
   20e8c:	3da19fc3 	stccc	15, cr9, [r1, #780]!	; 0x30c
   20e90:	3da00eae 	stccc	14, cr0, [r0, #696]!	; 0x2b8
   20e94:	3d9e7e20 	ldccc	14, cr7, [lr, #128]	; 0x80
   20e98:	3d9ced0b 	ldccc	13, cr14, [ip, #44]	; 0x2c
   20e9c:	3d9b5bf7 	vldrcc	d5, [fp, #988]	; 0x3dc
   20ea0:	3d99cae2 	vldrcc	s24, [r9, #904]	; 0x388
   20ea4:	3d9839ce 	ldccc	9, cr3, [r8, #824]	; 0x338
   20ea8:	3d96a93f 	ldccc	9, cr10, [r6, #252]	; 0xfc
   20eac:	3d95182b 	ldccc	8, cr1, [r5, #172]	; 0xac
   20eb0:	3d938716 	ldccc	7, cr8, [r3, #88]	; 0x58
   20eb4:	3d91f601 	ldccc	6, cr15, [r1, #4]
   20eb8:	3d9064ed 	cfldrscc	mvf6, [r0, #948]	; 0x3b4
   20ebc:	3d8ed352 	stccc	3, cr13, [lr, #328]	; 0x148
   20ec0:	3d8d423e 	sfmcc	f4, 4, [sp, #248]	; 0xf8
   20ec4:	3d8bb129 	stfccd	f3, [fp, #164]	; 0xa4
   20ec8:	3d8a2014 	stccc	0, cr2, [sl, #80]	; 0x50
   20ecc:	3d888f00 	stccc	15, cr8, [r8]
   20ed0:	3d86fd65 	stccc	13, cr15, [r6, #404]	; 0x194
   20ed4:	3d856c51 	stccc	12, cr6, [r5, #324]	; 0x144
   20ed8:	3d83db3c 	vstrcc	d13, [r3, #240]	; 0xf0
   20edc:	3d8249a1 	stccc	9, cr4, [r2, #644]	; 0x284
   20ee0:	3d80b88d 	stccc	8, cr11, [r0, #564]	; 0x234
   20ee4:	3d7e4de4 	ldclcc	13, cr4, [lr, #-912]!	; 0xfffffc70
   20ee8:	3d7b2bbb 	fldmdbxcc	fp!, {d18-d110}	;@ Deprecated
   20eec:	3d780885 	ldclcc	8, cr0, [r8, #-532]!	; 0xfffffdec
   20ef0:	3d74e65c 	ldclcc	6, cr14, [r4, #-368]!	; 0xfffffe90
   20ef4:	3d71c326 	ldclcc	3, cr12, [r1, #-152]!	; 0xffffff68
   20ef8:	3d6e9ff1 	stclcc	15, cr9, [lr, #-964]!	; 0xfffffc3c
   20efc:	3d6b7dc8 	stclcc	13, cr7, [fp, #-800]!	; 0xfffffce0
   20f00:	3d685a92 	vstmdbcc	r8!, {s11-s156}
   20f04:	3d65375d 	stclcc	7, cr3, [r5, #-372]!	; 0xfffffe8c
   20f08:	3d621427 	cfstrdcc	mvd1, [r2, #-156]!	; 0xffffff64
   20f0c:	3d5ef0f1 	ldclcc	0, cr15, [lr, #-964]	; 0xfffffc3c
   20f10:	3d5bcec8 	ldclcc	14, cr12, [fp, #-800]	; 0xfffffce0
   20f14:	3d58ab93 	vldrcc	d26, [r8, #-588]	; 0xfffffdb4
   20f18:	3d55885d 	ldclcc	8, cr8, [r5, #-372]	; 0xfffffe8c
   20f1c:	3d526528 	cfldr64cc	mvdx6, [r2, #-160]	; 0xffffff60
   20f20:	3d4f41f2 	stfcce	f4, [pc, #-968]	; 20b60 <fsintable+0x3b38>
   20f24:	3d4c1ebd 	stclcc	14, cr1, [ip, #-756]	; 0xfffffd0c
   20f28:	3d48fb87 	vstrcc	d31, [r8, #-540]	; 0xfffffde4
   20f2c:	3d45d851 	stclcc	8, cr13, [r5, #-324]	; 0xfffffebc
   20f30:	3d42b40f 	cfstrdcc	mvd11, [r2, #-60]	; 0xffffffc4
   20f34:	3d3f90da 	ldccc	0, cr9, [pc, #-872]!	; 20bd4 <fsintable+0x3bac>
   20f38:	3d3c6da4 	ldccc	13, cr6, [ip, #-656]!	; 0xfffffd70
   20f3c:	3d394a6f 	vldmdbcc	r9!, {s8-s118}
   20f40:	3d362739 	ldccc	7, cr2, [r6, #-228]!	; 0xffffff1c
   20f44:	3d330404 	cfldrscc	mvf0, [r3, #-16]!
   20f48:	3d2fdfc2 	stccc	15, cr13, [pc, #-776]!	; 20c48 <fsintable+0x3c20>
   20f4c:	3d2cbc8c 	stccc	12, cr11, [ip, #-560]!	; 0xfffffdd0
   20f50:	3d299956 	stccc	9, cr9, [r9, #-344]!	; 0xfffffea8
   20f54:	3d267514 	cfstr32cc	mvfx7, [r6, #-80]!	; 0xffffffb0
   20f58:	3d2351df 	stfccs	f5, [r3, #-892]!	; 0xfffffc84
   20f5c:	3d202ea9 	stccc	14, cr2, [r0, #-676]!	; 0xfffffd5c
   20f60:	3d1d0a67 	vldrcc	s0, [sp, #-412]	; 0xfffffe64
   20f64:	3d19e732 	ldccc	7, cr14, [r9, #-200]	; 0xffffff38
   20f68:	3d16c2f0 	lfmcc	f4, 1, [r6, #-960]	; 0xfffffc40
   20f6c:	3d139fba 	ldccc	15, cr9, [r3, #-744]	; 0xfffffd18
   20f70:	3d107b78 	vldrcc	d7, [r0, #-480]	; 0xfffffe20
   20f74:	3d0d5843 	stccc	8, cr5, [sp, #-268]	; 0xfffffef4
   20f78:	3d0a3401 	cfstrscc	mvf3, [sl, #-4]
   20f7c:	3d0710cb 	stccc	0, cr1, [r7, #-812]	; 0xfffffcd4
   20f80:	3d03ec89 	stccc	12, cr14, [r3, #-548]	; 0xfffffddc
   20f84:	3d00c847 	stccc	8, cr12, [r0, #-284]	; 0xfffffee4
   20f88:	3cfb4a23 	vldmiacc	fp!, {s9-s43}
   20f8c:	3cf5019f 	ldfcce	f0, [r5], #636	; 0x27c
   20f90:	3ceebb34 	vstmiacc	lr!, {d27-<overflow reg d52>}
   20f94:	3ce872b0 	sfmcc	f7, 2, [r8], #704	; 0x2c0
   20f98:	3ce22a2c 	vstmiacc	r2!, {s5-s48}
   20f9c:	3cdbe1a8 	ldfccp	f6, [fp], {168}	; 0xa8
   20fa0:	3cd59b3d 	fldmiaxcc	r5, {d25-d54}	;@ Deprecated
   20fa4:	3ccf52b9 	sfmcc	f5, 2, [pc], {185}	; 0xb9
   20fa8:	3cc90a35 	vstmiacc	r9, {s1-s53}
   20fac:	3cc2c1b1 	stfccp	f4, [r2], {177}	; 0xb1
   20fb0:	3cbc7b46 	vldmiacc	ip!, {d7-<overflow reg d41>}
   20fb4:	3cb632c2 	lfmcc	f3, 4, [r6], #776	; 0x308
   20fb8:	3cafea3e 	vstmiacc	pc!, {s28-s89}
   20fbc:	3ca9a1ba 	stfccd	f2, [r9], #744	; 0x2e8
   20fc0:	3ca35936 	stccc	9, cr5, [r3], #216	; 0xd8
   20fc4:	3c9d12cb 	lfmcc	f1, 4, [sp], {203}	; 0xcb
   20fc8:	3c96ca47 	vldmiacc	r6, {s24-s94}
   20fcc:	3c9081c3 	ldfccd	f0, [r0], {195}	; 0xc3
   20fd0:	3c8a393f 	stccc	9, cr3, [sl], {63}	; 0x3f
   20fd4:	3c83f0bb 	stccc	0, cr15, [r3], {187}	; 0xbb
   20fd8:	3c7b506e 	ldclcc	0, cr5, [fp], #-440	; 0xfffffe48
   20fdc:	3c6ebf66 	stclcc	15, cr11, [lr], #-408	; 0xfffffe68
   20fe0:	3c622e5e 	stclcc	14, cr2, [r2], #-376	; 0xfffffe88
   20fe4:	3c559d56 	mrrccc	13, 5, r9, r5, cr6
   20fe8:	3c491080 	mcrrcc	0, 8, r1, r9, cr0
   20fec:	3c3c7f78 	ldccc	15, cr7, [ip], #-480	; 0xfffffe20
   20ff0:	3c2fee70 	stccc	14, cr14, [pc], #-448	; 20e38 <fsintable+0x3e10>
   20ff4:	3c235d68 	stccc	13, cr5, [r3], #-416	; 0xfffffe60
   20ff8:	3c16cc60 	ldccc	12, cr12, [r6], {96}	; 0x60
   20ffc:	3c0a3b58 	stccc	11, cr3, [sl], {88}	; 0x58
   21000:	3bfb54a0 	blcc	ffef6288 <__bss_end+0xffe8d288>
   21004:	3be23290 	blcc	ff8ada4c <__bss_end+0xff844a4c>
   21008:	3bc91080 	blcc	ff265210 <__bss_end+0xff1fc210>
   2100c:	3bafee70 	blcc	fec1c9d4 <__bss_end+0xfebb39d4>
   21010:	3b96cc60 	blcc	fe5d4198 <__bss_end+0xfe56b198>
   21014:	3b7b54a0 	blcc	1ef629c <__bss_end+0x1e8d29c>
   21018:	3b491080 	blcc	1265220 <__bss_end+0x11fc220>
   2101c:	3b16cc60 	blcc	5d41a4 <__bss_end+0x56b1a4>
   21020:	3ac91080 	bcc	ff265228 <__bss_end+0xff1fc228>
   21024:	3a491080 	bcc	126522c <__bss_end+0x11fc22c>
   21028:	00000000 	andeq	r0, r0, r0
   2102c:	ba491080 	blt	1265234 <__bss_end+0x11fc234>
   21030:	bac91080 	blt	ff265238 <__bss_end+0xff1fc238>
   21034:	bb16cc60 	bllt	5d41bc <__bss_end+0x56b1bc>
   21038:	bb491080 	bllt	1265240 <__bss_end+0x11fc240>
   2103c:	bb7b54a0 	bllt	1ef62c4 <__bss_end+0x1e8d2c4>
   21040:	bb96cc60 	bllt	fe5d41c8 <__bss_end+0xfe56b1c8>
   21044:	bbafee70 	bllt	fec1ca0c <__bss_end+0xfebb3a0c>
   21048:	bbc91080 	bllt	ff265250 <__bss_end+0xff1fc250>
   2104c:	bbe23290 	bllt	ff8ada94 <__bss_end+0xff844a94>
   21050:	bbfb54a0 	bllt	ffef62d8 <__bss_end+0xffe8d2d8>
   21054:	bc0a3b58 	stclt	11, cr3, [sl], {88}	; 0x58
   21058:	bc16cc60 	ldclt	12, cr12, [r6], {96}	; 0x60
   2105c:	bc235d68 	stclt	13, cr5, [r3], #-416	; 0xfffffe60
   21060:	bc2fee70 	stclt	14, cr14, [pc], #-448	; 20ea8 <fsintable+0x3e80>
   21064:	bc3c7f78 	ldclt	15, cr7, [ip], #-480	; 0xfffffe20
   21068:	bc491080 	mcrrlt	0, 8, r1, r9, cr0
   2106c:	bc559d56 	mrrclt	13, 5, r9, r5, cr6
   21070:	bc622e5e 	stcllt	14, cr2, [r2], #-376	; 0xfffffe88
   21074:	bc6ebf66 	stcllt	15, cr11, [lr], #-408	; 0xfffffe68
   21078:	bc7b506e 	ldcllt	0, cr5, [fp], #-440	; 0xfffffe48
   2107c:	bc83f0bb 	stclt	0, cr15, [r3], {187}	; 0xbb
   21080:	bc8a393f 	stclt	9, cr3, [sl], {63}	; 0x3f
   21084:	bc9081c3 	ldfltd	f0, [r0], {195}	; 0xc3
   21088:	bc96ca47 	vldmialt	r6, {s24-s94}
   2108c:	bc9d12cb 	lfmlt	f1, 4, [sp], {203}	; 0xcb
   21090:	bca35936 	stclt	9, cr5, [r3], #216	; 0xd8
   21094:	bca9a1ba 	stfltd	f2, [r9], #744	; 0x2e8
   21098:	bcafea3e 	vstmialt	pc!, {s28-s89}
   2109c:	bcb632c2 	lfmlt	f3, 4, [r6], #776	; 0x308
   210a0:	bcbc7b46 	vldmialt	ip!, {d7-<overflow reg d41>}
   210a4:	bcc2c1b1 	stfltp	f4, [r2], {177}	; 0xb1
   210a8:	bcc90a35 	vstmialt	r9, {s1-s53}
   210ac:	bccf52b9 	sfmlt	f5, 2, [pc], {185}	; 0xb9
   210b0:	bcd59b3d 	fldmiaxlt	r5, {d25-d54}	;@ Deprecated
   210b4:	bcdbe1a8 	ldfltp	f6, [fp], {168}	; 0xa8
   210b8:	bce22a2c 	vstmialt	r2!, {s5-s48}
   210bc:	bce872b0 	sfmlt	f7, 2, [r8], #704	; 0x2c0
   210c0:	bceebb34 	vstmialt	lr!, {d27-<overflow reg d52>}
   210c4:	bcf5019f 	ldflte	f0, [r5], #636	; 0x27c
   210c8:	bcfb4a23 	vldmialt	fp!, {s9-s43}
   210cc:	bd00c847 	stclt	8, cr12, [r0, #-284]	; 0xfffffee4
   210d0:	bd03ec89 	stclt	12, cr14, [r3, #-548]	; 0xfffffddc
   210d4:	bd0710cb 	stclt	0, cr1, [r7, #-812]	; 0xfffffcd4
   210d8:	bd0a3401 	cfstrslt	mvf3, [sl, #-4]
   210dc:	bd0d5843 	stclt	8, cr5, [sp, #-268]	; 0xfffffef4
   210e0:	bd107b78 	vldrlt	d7, [r0, #-480]	; 0xfffffe20
   210e4:	bd139fba 	ldclt	15, cr9, [r3, #-744]	; 0xfffffd18
   210e8:	bd16c2f0 	lfmlt	f4, 1, [r6, #-960]	; 0xfffffc40
   210ec:	bd19e732 	ldclt	7, cr14, [r9, #-200]	; 0xffffff38
   210f0:	bd1d0a67 	vldrlt	s0, [sp, #-412]	; 0xfffffe64
   210f4:	bd202ea9 	stclt	14, cr2, [r0, #-676]!	; 0xfffffd5c
   210f8:	bd2351df 	stflts	f5, [r3, #-892]!	; 0xfffffc84
   210fc:	bd267514 	cfstr32lt	mvfx7, [r6, #-80]!	; 0xffffffb0
   21100:	bd299956 	stclt	9, cr9, [r9, #-344]!	; 0xfffffea8
   21104:	bd2cbc8c 	stclt	12, cr11, [ip, #-560]!	; 0xfffffdd0
   21108:	bd2fdfc2 	stclt	15, cr13, [pc, #-776]!	; 20e08 <fsintable+0x3de0>
   2110c:	bd330404 	cfldrslt	mvf0, [r3, #-16]!
   21110:	bd362739 	ldclt	7, cr2, [r6, #-228]!	; 0xffffff1c
   21114:	bd394a6f 	vldmdblt	r9!, {s8-s118}
   21118:	bd3c6da4 	ldclt	13, cr6, [ip, #-656]!	; 0xfffffd70
   2111c:	bd3f90da 	ldclt	0, cr9, [pc, #-872]!	; 20dbc <fsintable+0x3d94>
   21120:	bd42b40f 	cfstrdlt	mvd11, [r2, #-60]	; 0xffffffc4
   21124:	bd45d851 	stcllt	8, cr13, [r5, #-324]	; 0xfffffebc
   21128:	bd48fb87 	vstrlt	d31, [r8, #-540]	; 0xfffffde4
   2112c:	bd4c1ebd 	stcllt	14, cr1, [ip, #-756]	; 0xfffffd0c
   21130:	bd4f41f2 	stflte	f4, [pc, #-968]	; 20d70 <fsintable+0x3d48>
   21134:	bd526528 	cfldr64lt	mvdx6, [r2, #-160]	; 0xffffff60
   21138:	bd55885d 	ldcllt	8, cr8, [r5, #-372]	; 0xfffffe8c
   2113c:	bd58ab93 	vldrlt	d26, [r8, #-588]	; 0xfffffdb4
   21140:	bd5bcec8 	ldcllt	14, cr12, [fp, #-800]	; 0xfffffce0
   21144:	bd5ef0f1 	ldcllt	0, cr15, [lr, #-964]	; 0xfffffc3c
   21148:	bd621427 	cfstrdlt	mvd1, [r2, #-156]!	; 0xffffff64
   2114c:	bd65375d 	stcllt	7, cr3, [r5, #-372]!	; 0xfffffe8c
   21150:	bd685a92 	vstmdblt	r8!, {s11-s156}
   21154:	bd6b7dc8 	stcllt	13, cr7, [fp, #-800]!	; 0xfffffce0
   21158:	bd6e9ff1 	stcllt	15, cr9, [lr, #-964]!	; 0xfffffc3c
   2115c:	bd71c326 	ldcllt	3, cr12, [r1, #-152]!	; 0xffffff68
   21160:	bd74e65c 	ldcllt	6, cr14, [r4, #-368]!	; 0xfffffe90
   21164:	bd780885 	ldcllt	8, cr0, [r8, #-532]!	; 0xfffffdec
   21168:	bd7b2bbb 	fldmdbxlt	fp!, {d18-d110}	;@ Deprecated
   2116c:	bd7e4de4 	ldcllt	13, cr4, [lr, #-912]!	; 0xfffffc70
   21170:	bd80b88d 	stclt	8, cr11, [r0, #564]	; 0x234
   21174:	bd8249a1 	stclt	9, cr4, [r2, #644]	; 0x284
   21178:	bd83db3c 	vstrlt	d13, [r3, #240]	; 0xf0
   2117c:	bd856c51 	stclt	12, cr6, [r5, #324]	; 0x144
   21180:	bd86fd65 	stclt	13, cr15, [r6, #404]	; 0x194
   21184:	bd888f00 	stclt	15, cr8, [r8]
   21188:	bd8a2014 	stclt	0, cr2, [sl, #80]	; 0x50
   2118c:	bd8bb129 	stfltd	f3, [fp, #164]	; 0xa4
   21190:	bd8d423e 	sfmlt	f4, 4, [sp, #248]	; 0xf8
   21194:	bd8ed352 	stclt	3, cr13, [lr, #328]	; 0x148
   21198:	bd9064ed 	cfldrslt	mvf6, [r0, #948]	; 0x3b4
   2119c:	bd91f601 	ldclt	6, cr15, [r1, #4]
   211a0:	bd938716 	ldclt	7, cr8, [r3, #88]	; 0x58
   211a4:	bd95182b 	ldclt	8, cr1, [r5, #172]	; 0xac
   211a8:	bd96a93f 	ldclt	9, cr10, [r6, #252]	; 0xfc
   211ac:	bd9839ce 	ldclt	9, cr3, [r8, #824]	; 0x338
   211b0:	bd99cae2 	vldrlt	s24, [r9, #904]	; 0x388
   211b4:	bd9b5bf7 	vldrlt	d5, [fp, #988]	; 0x3dc
   211b8:	bd9ced0b 	ldclt	13, cr14, [ip, #44]	; 0x2c
   211bc:	bd9e7e20 	ldclt	14, cr7, [lr, #128]	; 0x80
   211c0:	bda00eae 	stclt	14, cr0, [r0, #696]!	; 0x2b8
   211c4:	bda19fc3 	stclt	15, cr9, [r1, #780]!	; 0x30c
   211c8:	bda33051 	stclt	0, cr3, [r3, #324]!	; 0x144
   211cc:	bda4c166 	stfltd	f4, [r4, #408]!	; 0x198
   211d0:	bda651f4 	stflts	f5, [r6, #976]!	; 0x3d0
   211d4:	bda7e308 	stclt	3, cr14, [r7, #32]!
   211d8:	bda97397 	stclt	3, cr7, [r9, #604]!	; 0x25c
   211dc:	bdab04ab 	cfstrslt	mvf0, [fp, #684]!	; 0x2ac
   211e0:	bdac953a 	cfstr32lt	mvfx9, [ip, #232]!	; 0xe8
   211e4:	bdae25c8 	cfstr32lt	mvfx2, [lr, #800]!	; 0x320
   211e8:	bdafb656 	stclt	6, cr11, [pc, #344]!	; 21348 <fsintable+0x4320>
   211ec:	bdb146e5 	ldclt	6, cr4, [r1, #916]!	; 0x394
   211f0:	bdb2d7f9 	ldclt	7, cr13, [r2, #996]!	; 0x3e4
   211f4:	bdb46888 	ldclt	8, cr6, [r4, #544]!	; 0x220
   211f8:	bdb5f916 	ldclt	9, cr15, [r5, #88]!	; 0x58
   211fc:	bdb7891e 	ldclt	9, cr8, [r7, #120]!	; 0x78
   21200:	bdb919ac 	ldclt	9, cr1, [r9, #688]!	; 0x2b0
   21204:	bdbaaa3b 	ldclt	10, cr10, [sl, #236]!	; 0xec
   21208:	bdbc3ac9 	ldclt	10, cr3, [ip, #804]!	; 0x324
   2120c:	bdbdcb58 	ldclt	11, cr12, [sp, #352]!	; 0x160
   21210:	bdbf5b60 	ldclt	11, cr5, [pc, #384]!	; 21398 <fsintable+0x4370>
   21214:	bdc0ebee 	vstrlt	d30, [r0, #952]	; 0x3b8
   21218:	bdc27bf6 	vstrlt	d23, [r2, #984]	; 0x3d8
   2121c:	bdc40c84 	stcllt	12, cr0, [r4, #528]	; 0x210
   21220:	bdc59c8d 	stcllt	12, cr9, [r5, #564]	; 0x234
   21224:	bdc72d1b 	stcllt	13, cr2, [r7, #108]	; 0x6c
   21228:	bdc8bd23 	stcllt	13, cr11, [r8, #140]	; 0x8c
   2122c:	bdca4d2b 	stcllt	13, cr4, [sl, #172]	; 0xac
   21230:	bdcbddba 	stcllt	13, cr13, [fp, #744]	; 0x2e8
   21234:	bdcd6dc2 	stcllt	13, cr6, [sp, #776]	; 0x308
   21238:	bdcefdca 	stcllt	13, cr15, [lr, #808]	; 0x328
   2123c:	bdd08dd2 	ldcllt	13, cr8, [r0, #840]	; 0x348
   21240:	bdd21dda 	ldcllt	13, cr1, [r2, #872]	; 0x368
   21244:	bdd3ade2 	ldcllt	13, cr10, [r3, #904]	; 0x388
   21248:	bdd53dea 	ldcllt	13, cr3, [r5, #936]	; 0x3a8
   2124c:	bdd6cd6c 	ldcllt	13, cr12, [r6, #432]	; 0x1b0
   21250:	bdd85d74 	ldcllt	13, cr5, [r8, #464]	; 0x1d0
   21254:	bdd9ed7c 	ldcllt	13, cr14, [r9, #496]	; 0x1f0
   21258:	bddb7cfe 	ldcllt	12, cr7, [fp, #1016]	; 0x3f8
   2125c:	bddd0d06 	ldcllt	13, cr0, [sp, #24]
   21260:	bdde9c88 	ldcllt	12, cr9, [lr, #544]	; 0x220
   21264:	bde02c91 	stcllt	12, cr2, [r0, #580]!	; 0x244
   21268:	bde1bc12 	stcllt	12, cr11, [r1, #72]!	; 0x48
   2126c:	bde34b94 	stcllt	11, cr4, [r3, #592]!	; 0x250
   21270:	bde4db9c 	stcllt	11, cr13, [r4, #624]!	; 0x270
   21274:	bde66b1e 	stcllt	11, cr6, [r6, #120]!	; 0x78
   21278:	bde7faa0 	stcllt	10, cr15, [r7, #640]!	; 0x280
   2127c:	bde98a22 	stcllt	10, cr8, [r9, #136]!	; 0x88
   21280:	bdeb19a4 	stcllt	9, cr1, [fp, #656]!	; 0x290
   21284:	bdeca926 	stcllt	9, cr10, [ip, #152]!	; 0x98
   21288:	bdee38a8 	stcllt	8, cr3, [lr, #672]!	; 0x2a0
   2128c:	bdefc7a4 	stcllt	7, cr12, [pc, #656]!	; 21524 <fsintable+0x44fc>
   21290:	bdf15726 	ldcllt	7, cr5, [r1, #152]!	; 0x98
   21294:	bdf2e6a7 	ldcllt	6, cr14, [r2, #668]!	; 0x29c
   21298:	bdf475a3 	cfldr64lt	mvdx7, [r4, #652]!	; 0x28c
   2129c:	bdf60525 	cfldr64lt	mvdx0, [r6, #148]!	; 0x94
   212a0:	bdf79421 	cfldrdlt	mvd9, [r7, #132]!	; 0x84
   212a4:	bdf9231c 	ldcllt	3, cr2, [r9, #112]!	; 0x70
   212a8:	bdfab29e 	lfmlt	f3, 3, [sl, #632]!	; 0x278
   212ac:	bdfc419a 	ldflte	f4, [ip, #616]!	; 0x268
   212b0:	bdfdd096 	ldcllt	0, cr13, [sp, #600]!	; 0x258
   212b4:	bdff5f91 	ldcllt	15, cr5, [pc, #580]!	; 21500 <fsintable+0x44d8>
   212b8:	be007747 	cdplt	7, 0, cr7, cr0, cr7, {2}
   212bc:	be013ec4 	cdplt	14, 0, cr3, cr1, cr4, {6}
   212c0:	be020642 	cfmadd32lt	mvax2, mvfx0, mvfx2, mvfx2
   212c4:	be02cd7d 	mcrlt	13, 0, ip, cr2, cr13, {3}
   212c8:	be0394fb 	mcrlt	4, 0, r9, cr3, cr11, {7}
   212cc:	be045c79 	mcrlt	12, 0, r5, cr4, cr9, {3}
   212d0:	be0523b3 	mcrlt	3, 0, r2, cr5, cr3, {5}
   212d4:	be05eb31 	vmovlt.16	d5[0], lr
   212d8:	be06b26c 	cdplt	2, 0, cr11, cr6, cr12, {3}
   212dc:	be0779a7 	cdplt	9, 0, cr7, cr7, cr7, {5}
   212e0:	be084125 	adfltep	f4, f0, f5
   212e4:	be09085f 	mcrlt	8, 0, r0, cr9, cr15, {2}
   212e8:	be09cf9a 	mcrlt	15, 0, ip, cr9, cr10, {4}
   212ec:	be0a96d5 	mcrlt	6, 0, r9, cr10, cr5, {6}
   212f0:	be0b5e0f 	cdplt	14, 0, cr5, cr11, cr15, {0}
   212f4:	be0c2507 	cfsh32lt	mvfx2, mvfx12, #7
   212f8:	be0cec42 	cdplt	12, 0, cr14, cr12, cr2, {2}
   212fc:	be0db37d 	mcrlt	3, 0, fp, cr13, cr13, {3}
   21300:	be0e7a74 	mcrlt	10, 0, r7, cr14, cr4, {3}
   21304:	be0f41af 	adflt<illegal precision>p	f4, f7, #10.0
   21308:	be1008a7 	cdplt	8, 1, cr0, cr0, cr7, {5}
   2130c:	be10cfe1 	cdplt	15, 1, cr12, cr0, cr1, {7}
   21310:	be1196d9 	mrclt	6, 0, r9, cr1, cr9, {6}
   21314:	be125dd1 	mrclt	13, 0, r5, cr2, cr1, {6}
   21318:	be1324c8 	cdplt	4, 1, cr2, cr3, cr8, {6}
   2131c:	be13ebc0 	vnmlalt.f64	d14, d19, d0
   21320:	be14b2b7 	mrclt	2, 0, fp, cr4, cr7, {5}
   21324:	be1579af 	cdplt	9, 1, cr7, cr5, cr15, {5}
   21328:	be164064 	cdplt	0, 1, cr4, cr6, cr4, {3}
   2132c:	be17075b 	mrclt	7, 0, r0, cr7, cr11, {2}
   21330:	be17ce53 	mrclt	14, 0, ip, cr7, cr3, {2}
   21334:	be189507 	cfmul32lt	mvfx9, mvfx8, mvfx7
   21338:	be195bff 	vmovlt.s16	r5, d25[1]
   2133c:	be1a22b4 	mrclt	2, 0, r2, cr10, cr4, {5}
   21340:	be1ae968 	cdplt	9, 1, cr14, cr10, cr8, {3}
   21344:	be1bb01d 	mrclt	0, 0, fp, cr11, cr13, {0}
   21348:	be1c76d1 	mrclt	6, 0, r7, cr12, cr1, {6}
   2134c:	be1d3d86 	cdplt	13, 1, cr3, cr13, cr6, {4}
   21350:	be1e043a 	mrclt	4, 0, r0, cr14, cr10, {1}
   21354:	be1ecaef 	vnmlalt.f32	s24, s29, s31
   21358:	be1f9160 	mnfltez	f1, f0
   2135c:	be205815 	mcrlt	8, 1, r5, cr0, cr5, {0}
   21360:	be211e86 	cdplt	14, 2, cr1, cr1, cr6, {4}
   21364:	be21e53b 	mcrlt	5, 1, lr, cr1, cr11, {1}
   21368:	be22abac 	vmullt.f64	d10, d18, d28
   2136c:	be23721d 	mcrlt	2, 1, r7, cr3, cr13, {0}
   21370:	be24388f 	cdplt	8, 2, cr3, cr4, cr15, {4}
   21374:	be24ff00 	cdplt	15, 2, cr15, cr4, cr0, {0}
   21378:	be25c572 	mcrlt	5, 1, ip, cr5, cr2, {3}
   2137c:	be268be3 	vnmullt.f64	d8, d22, d19
   21380:	be275254 	mcrlt	2, 1, r5, cr7, cr4, {2}
   21384:	be2818c6 	cdplt	8, 2, cr1, cr8, cr6, {6}
   21388:	be28def4 	mcrlt	14, 1, sp, cr8, cr4, {7}
   2138c:	be29a565 	cfsh64lt	mvdx10, mvdx9, #53
   21390:	be2a6b94 	vmovlt.32	d26[1], r6
   21394:	be2b31c2 	suflt<illegal precision>m	f3, f3, f2
   21398:	be2bf7f0 	mcrlt	7, 1, pc, cr11, cr0, {7}	; <UNPREDICTABLE>
   2139c:	be2cbe1f 	mcrlt	14, 1, fp, cr12, cr15, {0}
   213a0:	be2d844d 	cdplt	4, 2, cr8, cr13, cr13, {2}
   213a4:	be2e4a7b 	mcrlt	10, 1, r4, cr14, cr11, {3}
   213a8:	be2f10aa 	cdplt	0, 2, cr1, cr15, cr10, {5}
   213ac:	be2fd6d8 	mcrlt	6, 1, sp, cr15, cr8, {6}
   213b0:	be309cc3 	cdplt	12, 3, cr9, cr0, cr3, {6}
   213b4:	be3162f1 	mrclt	2, 1, r6, cr1, cr1, {7}
   213b8:	be3228dd 	mrclt	8, 1, r2, cr2, cr13, {6}
   213bc:	be32eec8 	cdplt	14, 3, cr14, cr2, cr8, {6}
   213c0:	be33b4b3 	mrclt	4, 1, fp, cr3, cr3, {5}
   213c4:	be347a9e 	mrclt	10, 1, r7, cr4, cr14, {4}
   213c8:	be354089 	cdplt	0, 3, cr4, cr5, cr9, {4}
   213cc:	be360675 	mrclt	6, 1, r0, cr6, cr5, {3}
   213d0:	be36cc60 	cdplt	12, 3, cr12, cr6, cr0, {3}
   213d4:	be379208 	cdplt	2, 3, cr9, cr7, cr8, {0}
   213d8:	be3857f3 	mrclt	7, 1, r5, cr8, cr3, {7}
   213dc:	be391d9b 	mrclt	13, 1, r1, cr9, cr11, {4}
   213e0:	be39e386 	cdplt	3, 3, cr14, cr9, cr6, {4}
   213e4:	be3aa92e 	cdplt	9, 3, cr10, cr10, cr14, {1}
   213e8:	be3b6ed6 	mrclt	14, 1, r6, cr11, cr6, {6}
   213ec:	be3c347f 	mrclt	4, 1, r3, cr12, cr15, {3}
   213f0:	be3cfa27 	vaddlt.f32	s30, s24, s15
   213f4:	be3dbf8c 	cdplt	15, 3, cr11, cr13, cr12, {4}
   213f8:	be3e8534 	mrclt	5, 1, r8, cr14, cr4, {1}
   213fc:	be3f4adc 	mrclt	10, 1, r4, cr15, cr12, {6}
   21400:	be401041 	cdplt	0, 4, cr1, cr0, cr1, {2}
   21404:	be40d5a6 	cdplt	5, 4, cr13, cr0, cr6, {5}
   21408:	be419b4e 	vmlslt.f64	d25, d1, d14
   2140c:	be4260b3 	mcrlt	0, 2, r6, cr2, cr3, {5}
   21410:	be432618 	mcrlt	6, 2, r2, cr3, cr8, {0}
   21414:	be43eb7d 	vmovlt.8	d3[3], lr
   21418:	be44b09f 	mcrlt	0, 2, fp, cr4, cr15, {4}
   2141c:	be457604 	cdplt	6, 4, cr7, cr5, cr4, {0}
   21420:	be463b69 	vmlslt.f64	d19, d6, d25
   21424:	be47008a 	cdplt	0, 4, cr0, cr7, cr10, {4}
   21428:	be47c5ac 	cdplt	5, 4, cr12, cr7, cr12, {5}
   2142c:	be488b11 	vmovlt.8	d8[0], r8
   21430:	be495033 	mcrlt	0, 2, r5, cr9, cr3, {1}
   21434:	be4a1555 	mcrlt	5, 2, r1, cr10, cr5, {2}
   21438:	be4ada34 	mcrlt	10, 2, sp, cr10, cr4, {1}
   2143c:	be4b9f56 	mcrlt	15, 2, r9, cr11, cr6, {2}
   21440:	be4c6477 	mcrlt	4, 2, r6, cr12, cr7, {3}
   21444:	be4d2956 	mcrlt	9, 2, r2, cr13, cr6, {2}
   21448:	be4dee78 	mcrlt	14, 2, lr, cr13, cr8, {3}
   2144c:	be4eb357 	mcrlt	3, 2, fp, cr14, cr7, {2}
   21450:	be4f7836 	mcrlt	8, 2, r7, cr15, cr6, {1}
   21454:	be503d14 	mrclt	13, 2, r3, cr0, cr4, {0}
   21458:	be5101f3 	mrclt	1, 2, r0, cr1, cr3, {7}
   2145c:	be51c6d2 	mrclt	6, 2, ip, cr1, cr2, {6}
   21460:	be528b6e 	vnmlalt.f64	d24, d2, d30
   21464:	be53504c 	cdplt	0, 5, cr5, cr3, cr12, {2}
   21468:	be5414e8 	cdplt	4, 5, cr1, cr4, cr8, {7}
   2146c:	be54d9c7 	cdplt	9, 5, cr13, cr4, cr7, {6}
   21470:	be559e62 	cdplt	14, 5, cr9, cr5, cr2, {3}
   21474:	be5662fe 	mrclt	2, 2, r6, cr6, cr14, {7}
   21478:	be57279a 	mrclt	7, 2, r2, cr7, cr10, {4}
   2147c:	be57ec35 	mrclt	12, 2, lr, cr7, cr5, {1}
   21480:	be58b08e 	cdplt	0, 5, cr11, cr8, cr14, {4}
   21484:	be597529 	cdplt	5, 5, cr7, cr9, cr9, {1}
   21488:	be5a3982 	cdplt	9, 5, cr3, cr10, cr2, {4}
   2148c:	be5afe1e 	mrclt	14, 2, APSR_nzcv, cr10, cr14, {0}
   21490:	be5bc276 	mrclt	2, 2, ip, cr11, cr6, {3}
   21494:	be5c86cf 	cdplt	6, 5, cr8, cr12, cr15, {6}
   21498:	be5d4b27 	vnmlslt.f64	d20, d13, d23
   2149c:	be5e0f80 	cdplt	15, 5, cr0, cr14, cr0, {4}
   214a0:	be5ed395 	mrclt	3, 2, sp, cr14, cr5, {4}
   214a4:	be5f97ee 	cdplt	7, 5, cr9, cr15, cr14, {7}
   214a8:	be605c03 	cdplt	12, 6, cr5, cr0, cr3, {0}
   214ac:	be61205c 	mcrlt	0, 3, r2, cr1, cr12, {2}
   214b0:	be61e471 	mcrlt	4, 3, lr, cr1, cr1, {3}
   214b4:	be62a887 	cdplt	8, 6, cr10, cr2, cr7, {4}
   214b8:	be636c9c 	mcrlt	12, 3, r6, cr3, cr12, {4}
   214bc:	be64306e 	cdplt	0, 6, cr3, cr4, cr14, {3}
   214c0:	be64f484 	cdplt	4, 6, cr15, cr4, cr4, {4}
   214c4:	be65b899 	mcrlt	8, 3, fp, cr5, cr9, {4}
   214c8:	be667c6c 	cdplt	12, 6, cr7, cr6, cr12, {3}
   214cc:	be67403e 	mcrlt	0, 3, r4, cr7, cr14, {1}
   214d0:	be680410 	mcrlt	4, 3, r0, cr8, cr0, {0}
   214d4:	be68c7e3 	cdplt	7, 6, cr12, cr8, cr3, {7}
   214d8:	be698bb5 	vmovlt.8	d25[5], r8
   214dc:	be6a4f87 	cdplt	15, 6, cr4, cr10, cr7, {4}
   214e0:	be6b1316 	mcrlt	3, 3, r1, cr11, cr6, {0}
   214e4:	be6bd6e9 	cdplt	6, 6, cr13, cr11, cr9, {7}
   214e8:	be6c9a78 	mcrlt	10, 3, r9, cr12, cr8, {3}
   214ec:	be6d5e07 	cdplt	14, 6, cr5, cr13, cr7, {0}
   214f0:	be6e2196 	mcrlt	1, 3, r2, cr14, cr6, {4}
   214f4:	be6ee526 	cdplt	5, 6, cr14, cr14, cr6, {1}
   214f8:	be6fa8b5 	mcrlt	8, 3, sl, cr15, cr5, {5}
   214fc:	be706c44 	cdplt	12, 7, cr6, cr0, cr4, {2}
   21500:	be712f90 	mrclt	15, 3, r2, cr1, cr0, {4}
   21504:	be71f2dc 	mrclt	2, 3, APSR_nzcv, cr1, cr12, {6}
   21508:	be72b66b 	cdplt	6, 7, cr11, cr2, cr11, {3}
   2150c:	be7379b7 	mrclt	9, 3, r7, cr3, cr7, {5}
   21510:	be743d04 	cdplt	13, 7, cr3, cr4, cr4, {0}
   21514:	be75000d 	cdplt	0, 7, cr0, cr5, cr13, {0}
   21518:	be75c359 	mrclt	3, 3, ip, cr5, cr9, {2}
   2151c:	be7686a5 	cdplt	6, 7, cr8, cr6, cr5, {5}
   21520:	be7749ae 	cdplt	9, 7, cr4, cr7, cr14, {5}
   21524:	be780cb7 	mrclt	12, 3, r0, cr8, cr7, {5}
   21528:	be78cfc0 	cdplt	15, 7, cr12, cr8, cr0, {6}
   2152c:	be7992c9 	cdplt	2, 7, cr9, cr9, cr9, {6}
   21530:	be7a55d2 	mrclt	5, 3, r5, cr10, cr2, {6}
   21534:	be7b18db 	mrclt	8, 3, r1, cr11, cr11, {6}
   21538:	be7bdba1 	vaddlt.f64	d29, d27, d17
   2153c:	be7c9e67 	cdplt	14, 7, cr9, cr12, cr7, {3}
   21540:	be7d6170 	mrclt	1, 3, r6, cr13, cr0, {3}
   21544:	be7e2435 	mrclt	4, 3, r2, cr14, cr5, {1}
   21548:	be7ee6fb 	mrclt	6, 3, lr, cr14, cr11, {7}
   2154c:	be7fa97e 	mrclt	9, 3, sl, cr15, cr14, {3}
   21550:	be803622 	cdplt	6, 8, cr3, cr0, cr2, {1}
   21554:	be809763 	cdplt	7, 8, cr9, cr0, cr3, {3}
   21558:	be80f8c6 	cdplt	8, 8, cr15, cr0, cr6, {6}
   2155c:	be815a08 	vdivlt.f32	s10, s2, s16
   21560:	be81bb49 	cdplt	11, 8, cr11, cr1, cr9, {2}
   21564:	be821c8a 	cdplt	12, 8, cr1, cr2, cr10, {4}
   21568:	be827dcc 	cdplt	13, 8, cr7, cr2, cr12, {6}
   2156c:	be82deec 	cdplt	14, 8, cr13, cr2, cr12, {7}
   21570:	be83402d 	cdplt	0, 8, cr4, cr3, cr13, {1}
   21574:	be83a14d 	sinltsm	f2, #5.0
   21578:	be84026d 	cdplt	2, 8, cr0, cr4, cr13, {3}
   2157c:	be84638d 	cdplt	3, 8, cr6, cr4, cr13, {4}
   21580:	be84c4ac 	cdplt	4, 8, cr12, cr4, cr12, {5}
   21584:	be8525cc 	cdplt	5, 8, cr2, cr5, cr12, {6}
   21588:	be8586cb 	cdplt	6, 8, cr8, cr5, cr11, {6}
   2158c:	be85e7c9 	cdplt	7, 8, cr14, cr5, cr9, {6}
   21590:	be8648e9 	cdplt	8, 8, cr4, cr6, cr9, {7}
   21594:	be86a9e7 	cdplt	9, 8, cr10, cr6, cr7, {7}
   21598:	be870ae5 	cdplt	10, 8, cr0, cr7, cr5, {7}
   2159c:	be876bc2 	cdplt	11, 8, cr6, cr7, cr2, {6}
   215a0:	be87ccc0 	cdplt	12, 8, cr12, cr7, cr0, {6}
   215a4:	be882d9d 	mcrlt	13, 4, r2, cr8, cr13, {4}
   215a8:	be888e9b 	mcrlt	14, 4, r8, cr8, cr11, {4}
   215ac:	be88ef78 	mcrlt	15, 4, lr, cr8, cr8, {3}
   215b0:	be895055 	mcrlt	0, 4, r5, cr9, cr5, {2}
   215b4:	be89b131 	mcrlt	1, 4, fp, cr9, cr1, {1}
   215b8:	be8a11ed 	rmflt<illegal precision>z	f1, f2, #5.0
   215bc:	be8a72c9 	cdplt	2, 8, cr7, cr10, cr9, {6}
   215c0:	be8ad384 	cdplt	3, 8, cr13, cr10, cr4, {4}
   215c4:	be8b3440 	cdplt	4, 8, cr3, cr11, cr0, {2}
   215c8:	be8b94fb 	mcrlt	4, 4, r9, cr11, cr11, {7}
   215cc:	be8bf5b6 	mcrlt	5, 4, pc, cr11, cr6, {5}	; <UNPREDICTABLE>
   215d0:	be8c5671 	mcrlt	6, 4, r5, cr12, cr1, {3}
   215d4:	be8cb70b 	cdplt	7, 8, cr11, cr12, cr11, {0}
   215d8:	be8d17c6 	cdplt	7, 8, cr1, cr13, cr6, {6}
   215dc:	be8d7860 	cdplt	8, 8, cr7, cr13, cr0, {3}
   215e0:	be8dd8f9 	mcrlt	8, 4, sp, cr13, cr9, {7}
   215e4:	be8e3993 	mcrlt	9, 4, r3, cr14, cr3, {4}
   215e8:	be8e9a2c 	vdivlt.f32	s18, s28, s25
   215ec:	be8efaa4 	vdivlt.f32	s30, s29, s9
   215f0:	be8f5b3e 	vduplt.16	d15, r5
   215f4:	be8fbbb6 	vduplt.16	d31, fp
   215f8:	be901c2e 	cdplt	12, 9, cr1, cr0, cr14, {1}
   215fc:	be907ca6 	cdplt	12, 9, cr7, cr0, cr6, {5}
   21600:	be90dd1e 	mrclt	13, 4, sp, cr0, cr14, {0}
   21604:	be913d75 	mrclt	13, 4, r3, cr1, cr5, {3}
   21608:	be919ded 	cdplt	13, 9, cr9, cr1, cr13, {7}
   2160c:	be91fe43 	cdplt	14, 9, cr15, cr1, cr3, {2}
   21610:	be925e9a 	mrclt	14, 4, r5, cr2, cr10, {4}
   21614:	be92bef0 	mrclt	14, 4, fp, cr2, cr0, {7}
   21618:	be931f25 	cdplt	15, 9, cr1, cr3, cr5, {1}
   2161c:	be937f7c 	mrclt	15, 4, r7, cr3, cr12, {3}
   21620:	be93dfb1 	mrclt	15, 4, sp, cr3, cr1, {5}
   21624:	be944007 	cdplt	0, 9, cr4, cr4, cr7, {0}
   21628:	be94a03c 	mrclt	0, 4, sl, cr4, cr12, {1}
   2162c:	be950071 	mrclt	0, 4, r0, cr5, cr1, {3}
   21630:	be956085 	cdplt	0, 9, cr6, cr5, cr5, {4}
   21634:	be95c0ba 	mrclt	0, 4, ip, cr5, cr10, {5}
   21638:	be9620cd 	cdplt	0, 9, cr2, cr6, cr13, {6}
   2163c:	be9680e0 	cdplt	0, 9, cr8, cr6, cr0, {7}
   21640:	be96e0f4 	mrclt	0, 4, lr, cr6, cr4, {7}
   21644:	be974107 	fmllts	f4, f7, f7
   21648:	be97a11b 	mrclt	1, 4, sl, cr7, cr11, {0}
   2164c:	be98010c 	fmllte	f0, f0, #4.0
   21650:	be986120 	fmlltep	f6, f0, f0
   21654:	be98c112 	mrclt	1, 4, ip, cr8, cr2, {0}
   21658:	be992104 	fmllte	f2, f1, f4
   2165c:	be9980f5 	mrclt	0, 4, r8, cr9, cr5, {7}
   21660:	be99e0c6 	cdplt	0, 9, cr14, cr9, cr6, {6}
   21664:	be9a40b8 	mrclt	0, 4, r4, cr10, cr8, {5}
   21668:	be9aa088 	cdplt	0, 9, cr10, cr10, cr8, {4}
   2166c:	be9b0058 	mrclt	0, 4, r0, cr11, cr8, {2}
   21670:	be9b6028 	cdplt	0, 9, cr6, cr11, cr8, {1}
   21674:	be9bbff9 	mrclt	15, 4, fp, cr11, cr9, {7}
   21678:	be9c1fa7 	cdplt	15, 9, cr1, cr12, cr7, {5}
   2167c:	be9c7f78 	mrclt	15, 4, r7, cr12, cr8, {3}
   21680:	be9cdf26 	cdplt	15, 9, cr13, cr12, cr6, {1}
   21684:	be9d3ed5 	mrclt	14, 4, r3, cr13, cr5, {6}
   21688:	be9d9e84 	cdplt	14, 9, cr9, cr13, cr4, {4}
   2168c:	be9dfe11 	mrclt	14, 4, APSR_nzcv, cr13, cr1, {0}
   21690:	be9e5dc0 	cdplt	13, 9, cr5, cr14, cr0, {6}
   21694:	be9ebd4d 	cdplt	13, 9, cr11, cr14, cr13, {2}
   21698:	be9f1cda 	mrclt	12, 4, r1, cr15, cr10, {6}
   2169c:	be9f7c67 	cdplt	12, 9, cr7, cr15, cr7, {3}
   216a0:	be9fdbf5 	vmovlt.u16	sp, d31[1]
   216a4:	bea03b60 	vfmslt.f64	d3, d0, d16
   216a8:	bea09aed 	vfmslt.f32	s18, s1, s27
   216ac:	bea0fa59 	mcrlt	10, 5, pc, cr0, cr9, {2}	; <UNPREDICTABLE>
   216b0:	bea159c5 	cdplt	9, 10, cr5, cr1, cr5, {6}
   216b4:	bea1b930 	mcrlt	9, 5, fp, cr1, cr0, {1}
   216b8:	bea2187a 	mcrlt	8, 5, r1, cr2, cr10, {3}
   216bc:	bea277e6 	cdplt	7, 10, cr7, cr2, cr6, {7}
   216c0:	bea2d730 	mcrlt	7, 5, sp, cr2, cr0, {1}
   216c4:	bea3367a 	mcrlt	6, 5, r3, cr3, cr10, {3}
   216c8:	bea395c4 	cdplt	5, 10, cr9, cr3, cr4, {6}
   216cc:	bea3f50e 	cdplt	5, 10, cr15, cr3, cr14, {0}
   216d0:	bea45437 	mcrlt	4, 5, r5, cr4, cr7, {1}
   216d4:	bea4b381 	cdplt	3, 10, cr11, cr4, cr1, {4}
   216d8:	bea512a9 	cdplt	2, 10, cr1, cr5, cr9, {5}
   216dc:	bea571d2 	mcrlt	1, 5, r7, cr5, cr2, {6}
   216e0:	bea5d0d9 	mcrlt	0, 5, sp, cr5, cr9, {6}
   216e4:	bea63001 	cdplt	0, 10, cr3, cr6, cr1, {0}
   216e8:	bea68f08 	cdplt	15, 10, cr8, cr6, cr8, {0}
   216ec:	bea6ee0f 	cdplt	14, 10, cr14, cr6, cr15, {0}
   216f0:	bea74d16 	mcrlt	13, 5, r4, cr7, cr6, {0}
   216f4:	bea7ac1d 	mcrlt	12, 5, sl, cr7, cr13, {0}
   216f8:	bea80b24 	vfmalt.f64	d0, d8, d20
   216fc:	bea86a0a 	vfmalt.f32	s12, s16, s20
   21700:	bea8c8ef 	cdplt	8, 10, cr12, cr8, cr15, {7}
   21704:	bea927d4 	mcrlt	7, 5, r2, cr9, cr4, {6}
   21708:	bea986ba 	mcrlt	6, 5, r8, cr9, cr10, {5}
   2170c:	bea9e59f 	mcrlt	5, 5, lr, cr9, cr15, {4}
   21710:	beaa4463 	cdplt	4, 10, cr4, cr10, cr3, {3}
   21714:	beaaa348 	cdplt	3, 10, cr10, cr10, cr8, {2}
   21718:	beab020c 	cdplt	2, 10, cr0, cr11, cr12, {0}
   2171c:	beab60af 	cdplt	0, 10, cr6, cr11, cr15, {5}
   21720:	beabbf72 	mcrlt	15, 5, fp, cr11, cr2, {3}
   21724:	beac1e36 	mcrlt	14, 5, r1, cr12, cr6, {1}
   21728:	beac7cd9 	mcrlt	12, 5, r7, cr12, cr9, {6}
   2172c:	beacdb7b 	mcrlt	11, 5, sp, cr12, cr11, {3}
   21730:	bead3a1d 	mcrlt	10, 5, r3, cr13, cr13, {0}
   21734:	bead989e 	mcrlt	8, 5, r9, cr13, cr14, {4}
   21738:	beadf740 	cdplt	7, 10, cr15, cr13, cr0, {2}
   2173c:	beae55c1 	cdplt	5, 10, cr5, cr14, cr1, {6}
   21740:	beaeb442 	cdplt	4, 10, cr11, cr14, cr2, {2}
   21744:	beaf12c2 	cdplt	2, 10, cr1, cr15, cr2, {6}
   21748:	beaf7143 	fdvltem	f7, f7, f3
   2174c:	beafcfa2 	cdplt	15, 10, cr12, cr15, cr2, {5}
   21750:	beb02e02 	cdplt	14, 11, cr2, cr0, cr2, {0}
   21754:	beb08c61 	cdplt	12, 11, cr8, cr0, cr1, {3}
   21758:	beb0eac0 	vabslt.f32	s28, s0
   2175c:	beb1491f 	mrclt	9, 5, r4, cr1, cr15, {0}
   21760:	beb1a75d 	mrclt	7, 5, sl, cr1, cr13, {2}
   21764:	beb205bc 	mrclt	5, 5, r0, cr2, cr12, {5}
   21768:	beb263fa 	mrclt	3, 5, r6, cr2, cr10, {7}
   2176c:	beb2c237 	mrclt	2, 5, ip, cr2, cr7, {1}
   21770:	beb32053 	mrclt	0, 5, r2, cr3, cr3, {2}
   21774:	beb37e91 	mrclt	14, 5, r7, cr3, cr1, {4}
   21778:	beb3dcad 	cdplt	12, 11, cr13, cr3, cr13, {5}
   2177c:	beb43ac9 	vcmpelt.f32	s6, s18
   21780:	beb498e5 	cdplt	8, 11, cr9, cr4, cr5, {7}
   21784:	beb4f6e0 	cdplt	6, 11, cr15, cr4, cr0, {7}
   21788:	beb554fc 	mrclt	4, 5, r5, cr5, cr12, {7}
   2178c:	beb5b2f6 	mrclt	2, 5, fp, cr5, cr6, {7}
   21790:	beb610f1 	mrclt	0, 5, r1, cr6, cr1, {7}
   21794:	beb66eca 	cdplt	14, 11, cr6, cr6, cr10, {6}
   21798:	beb6ccc4 	cdplt	12, 11, cr12, cr6, cr4, {6}
   2179c:	beb72a9d 	mrclt	10, 5, r2, cr7, cr13, {4}
   217a0:	beb78876 	mrclt	8, 5, r8, cr7, cr6, {3}
   217a4:	beb7e64f 	cdplt	6, 11, cr14, cr7, cr15, {2}
   217a8:	beb84428 	cdplt	4, 11, cr4, cr8, cr8, {1}
   217ac:	beb8a201 	cdplt	2, 11, cr10, cr8, cr1, {0}
   217b0:	beb8ffb9 	mrclt	15, 5, APSR_nzcv, cr8, cr9, {5}
   217b4:	beb95d70 	mrclt	13, 5, r5, cr9, cr0, {3}
   217b8:	beb9bb28 	cdplt	11, 11, cr11, cr9, cr8, {1}
   217bc:	beba18bd 	mrclt	8, 5, r1, cr10, cr13, {5}
   217c0:	beba7675 	mrclt	6, 5, r7, cr10, cr5, {3}
   217c4:	bebad40b 	cdplt	4, 11, cr13, cr10, cr11, {0}
   217c8:	bebb31a1 	frdlt<illegal precision>p	f3, f3, f1
   217cc:	bebb8f36 	mrclt	15, 5, r8, cr11, cr6, {1}
   217d0:	bebbecab 	cdplt	12, 11, cr14, cr11, cr11, {5}
   217d4:	bebc4a41 	vcvtrlt.u32.f32	s8, s2
   217d8:	bebca7b5 	mrclt	7, 5, sl, cr12, cr5, {5}
   217dc:	bebd0529 	cdplt	5, 11, cr0, cr13, cr9, {1}
   217e0:	bebd627c 	mrclt	2, 5, r6, cr13, cr12, {3}
   217e4:	bebdbff0 	mrclt	15, 5, fp, cr13, cr0, {7}
   217e8:	bebe1d43 	cdplt	13, 11, cr1, cr14, cr3, {2}
   217ec:	bebe7a96 	mrclt	10, 5, r7, cr14, cr6, {4}
   217f0:	bebed7e9 	cdplt	7, 11, cr13, cr14, cr9, {7}
   217f4:	bebf353b 	mrclt	5, 5, r3, cr15, cr11, {1}
   217f8:	bebf926c 	cdplt	2, 11, cr9, cr15, cr12, {3}
   217fc:	bebfef9e 	mrclt	15, 5, lr, cr15, cr14, {4}
   21800:	bec04ccf 	cdplt	12, 12, cr4, cr0, cr15, {6}
   21804:	bec0aa00 	vdivlt.f32	s21, s0, s0
   21808:	bec10710 	mcrlt	7, 6, r0, cr1, cr0, {0}
   2180c:	bec16441 	cdplt	4, 12, cr6, cr1, cr1, {2}
   21810:	bec1c151 	mcrlt	1, 6, ip, cr1, cr1, {2}
   21814:	bec21e60 	cdplt	14, 12, cr1, cr2, cr0, {3}
   21818:	bec27b4e 	cdplt	11, 12, cr7, cr2, cr14, {2}
   2181c:	bec2d85e 	mcrlt	8, 6, sp, cr2, cr14, {2}
   21820:	bec3354c 	cdplt	5, 12, cr3, cr3, cr12, {2}
   21824:	bec3923a 	mcrlt	2, 6, r9, cr3, cr10, {1}
   21828:	bec3ef07 	cdplt	15, 12, cr14, cr3, cr7, {0}
   2182c:	bec44bf5 	mcrlt	11, 6, r4, cr4, cr5, {7}
   21830:	bec4a8c1 	cdplt	8, 12, cr10, cr4, cr1, {6}
   21834:	bec5058e 	cdplt	5, 12, cr0, cr5, cr14, {4}
   21838:	bec5625a 	mcrlt	2, 6, r6, cr5, cr10, {2}
   2183c:	bec5bf27 	cdplt	15, 12, cr11, cr5, cr7, {1}
   21840:	bec61bd2 	mcrlt	11, 6, r1, cr6, cr2, {6}
   21844:	bec6787d 	mcrlt	8, 6, r7, cr6, cr13, {3}
   21848:	bec6d528 	cdplt	5, 12, cr13, cr6, cr8, {1}
   2184c:	bec731d3 	mcrlt	1, 6, r3, cr7, cr3, {6}
   21850:	bec78e5c 	mcrlt	14, 6, r8, cr7, cr12, {2}
   21854:	bec7eae6 	cdplt	10, 12, cr14, cr7, cr6, {7}
   21858:	bec8476f 	cdplt	7, 12, cr4, cr8, cr15, {3}
   2185c:	bec8a3f9 	mcrlt	3, 6, sl, cr8, cr9, {7}
   21860:	bec90082 	cdplt	0, 12, cr0, cr9, cr2, {4}
   21864:	bec95cea 	cdplt	12, 12, cr5, cr9, cr10, {7}
   21868:	bec9b952 	mcrlt	9, 6, fp, cr9, cr2, {2}
   2186c:	beca15ba 	mcrlt	5, 6, r1, cr10, cr10, {5}
   21870:	beca7200 	cdplt	2, 12, cr7, cr10, cr0, {0}
   21874:	becace68 	cdplt	14, 12, cr12, cr10, cr8, {3}
   21878:	becb2aae 	vdivlt.f32	s5, s23, s29
   2187c:	becb86f4 	mcrlt	6, 6, r8, cr11, cr4, {7}
   21880:	becbe33b 	mcrlt	3, 6, lr, cr11, cr11, {1}
   21884:	becc3f60 	cdplt	15, 12, cr3, cr12, cr0, {3}
   21888:	becc9b84 	vdivlt.f64	d25, d28, d4
   2188c:	beccf7a9 	cdplt	7, 12, cr15, cr12, cr9, {5}
   21890:	becd53ce 	cdplt	3, 12, cr5, cr13, cr14, {6}
   21894:	becdafd1 	mcrlt	15, 6, sl, cr13, cr1, {6}
   21898:	bece0bf6 	mcrlt	11, 6, r0, cr14, cr6, {7}
   2189c:	bece67f9 	mcrlt	7, 6, r6, cr14, cr9, {7}
   218a0:	becec3db 	mcrlt	3, 6, ip, cr14, cr11, {6}
   218a4:	becf1fde 	mcrlt	15, 6, r1, cr15, cr14, {6}
   218a8:	becf7bc0 	cdplt	11, 12, cr7, cr15, cr0, {6}
   218ac:	becfd7a1 	cdplt	7, 12, cr13, cr15, cr1, {5}
   218b0:	bed03383 	cdplt	3, 13, cr3, cr0, cr3, {4}
   218b4:	bed08f65 	cdplt	15, 13, cr8, cr0, cr5, {3}
   218b8:	bed0eb25 	vfnmslt.f64	d30, d0, d21
   218bc:	bed146e5 	cdplt	6, 13, cr4, cr1, cr5, {7}
   218c0:	bed1a2a5 	cdplt	2, 13, cr10, cr1, cr5, {5}
   218c4:	bed1fe65 	cdplt	14, 13, cr15, cr1, cr5, {3}
   218c8:	bed25a04 	vfnmslt.f32	s11, s4, s8
   218cc:	bed2b5a2 	cdplt	5, 13, cr11, cr2, cr2, {5}
   218d0:	bed31141 	cdplt	1, 13, cr1, cr3, cr1, {2}
   218d4:	bed36cdf 	mrclt	12, 6, r6, cr3, cr15, {6}
   218d8:	bed3c85c 	mrclt	8, 6, ip, cr3, cr12, {2}
   218dc:	bed423d9 	mrclt	3, 6, r2, cr4, cr9, {6}
   218e0:	bed47f56 	mrclt	15, 6, r7, cr4, cr6, {2}
   218e4:	bed4dad3 	mrclt	10, 6, sp, cr4, cr3, {6}
   218e8:	bed53650 	mrclt	6, 6, r3, cr5, cr0, {2}
   218ec:	bed591ac 	atnltdp	f1, #4.0
   218f0:	bed5ed07 	cdplt	13, 13, cr14, cr5, cr7, {0}
   218f4:	bed64841 	cdplt	8, 13, cr4, cr6, cr1, {2}
   218f8:	bed6a39c 	mrclt	3, 6, sl, cr6, cr12, {4}
   218fc:	bed6fed6 	mrclt	14, 6, APSR_nzcv, cr6, cr6, {6}
   21900:	bed75a10 	mrclt	10, 6, r5, cr7, cr0, {0}
   21904:	bed7b54a 	cdplt	5, 13, cr11, cr7, cr10, {2}
   21908:	bed81062 	cdplt	0, 13, cr1, cr8, cr2, {3}
   2190c:	bed86b7b 	vmovlt.u8	r6, d8[3]
   21910:	bed8c693 	mrclt	6, 6, ip, cr8, cr3, {4}
   21914:	bed921ab 	cdplt	1, 13, cr2, cr9, cr11, {5}
   21918:	bed97cc4 	cdplt	12, 13, cr7, cr9, cr4, {6}
   2191c:	bed9d7ba 	mrclt	7, 6, sp, cr9, cr10, {5}
   21920:	beda32b1 	mrclt	2, 6, r3, cr10, cr1, {5}
   21924:	beda8da8 	cdplt	13, 13, cr8, cr10, cr8, {5}
   21928:	bedae87d 	mrclt	8, 6, lr, cr10, cr13, {3}
   2192c:	bedb4352 	mrclt	3, 6, r4, cr11, cr2, {2}
   21930:	bedb9e28 	cdplt	14, 13, cr9, cr11, cr8, {1}
   21934:	bedbf8fd 	mrclt	8, 6, APSR_nzcv, cr11, cr13, {7}
   21938:	bedc53b1 	mrclt	3, 6, r5, cr12, cr1, {5}
   2193c:	bedcae86 	cdplt	14, 13, cr10, cr12, cr6, {4}
   21940:	bedd0939 	mrclt	9, 6, r0, cr13, cr9, {1}
   21944:	bedd63cc 	cdplt	3, 13, cr6, cr13, cr12, {6}
   21948:	beddbe7f 	mrclt	14, 6, fp, cr13, cr15, {3}
   2194c:	bede1911 	mrclt	9, 6, r1, cr14, cr1, {0}
   21950:	bede73a3 	cdplt	3, 13, cr7, cr14, cr3, {5}
   21954:	bedece36 	mrclt	14, 6, ip, cr14, cr6, {1}
   21958:	bedf28a6 	cdplt	8, 13, cr2, cr15, cr6, {5}
   2195c:	bedf8317 	mrclt	3, 6, r8, cr15, cr7, {0}
   21960:	bedfdd87 	cdplt	13, 13, cr13, cr15, cr7, {4}
   21964:	bee037f8 	mcrlt	7, 7, r3, cr0, cr8, {7}
   21968:	bee09247 	cdplt	2, 14, cr9, cr0, cr7, {2}
   2196c:	bee0ec96 	mcrlt	12, 7, lr, cr0, cr6, {4}
   21970:	bee146e5 	cdplt	6, 14, cr4, cr1, cr5, {7}
   21974:	bee1a134 	mcrlt	1, 7, sl, cr1, cr4, {1}
   21978:	bee1fb61 	vfmslt.f64	d31, d1, d17
   2197c:	bee2558f 	cdplt	5, 14, cr5, cr2, cr15, {4}
   21980:	bee2afbc 	mcrlt	15, 7, sl, cr2, cr12, {5}
   21984:	bee309ea 	cdplt	9, 14, cr0, cr3, cr10, {7}
   21988:	bee363f5 	mcrlt	3, 7, r6, cr3, cr5, {7}
   2198c:	bee3be01 	cdplt	14, 14, cr11, cr3, cr1, {0}
   21990:	bee4180d 	cdplt	8, 14, cr1, cr4, cr13, {0}
   21994:	bee47219 	mcrlt	2, 7, r7, cr4, cr9, {0}
   21998:	bee4cc03 	cdplt	12, 14, cr12, cr4, cr3, {0}
   2199c:	bee525ee 	cdplt	5, 14, cr2, cr5, cr14, {7}
   219a0:	bee57fd8 	mcrlt	15, 7, r7, cr5, cr8, {6}
   219a4:	bee5d9a1 	cdplt	9, 14, cr13, cr5, cr1, {5}
   219a8:	bee6336a 	cdplt	3, 14, cr3, cr6, cr10, {3}
   219ac:	bee68d33 	mcrlt	13, 7, r8, cr6, cr3, {1}
   219b0:	bee6e6fb 	mcrlt	6, 7, lr, cr6, cr11, {7}
   219b4:	bee740a3 	cdplt	0, 14, cr4, cr7, cr3, {5}
   219b8:	bee79a6b 	vfmslt.f32	s19, s14, s23
   219bc:	bee7f3f1 	mcrlt	3, 7, pc, cr7, cr1, {7}	; <UNPREDICTABLE>
   219c0:	bee84d98 	mcrlt	13, 7, r4, cr8, cr8, {4}
   219c4:	bee8a71e 	mcrlt	7, 7, sl, cr8, cr14, {0}
   219c8:	bee900c5 	cdplt	0, 14, cr0, cr9, cr5, {6}
   219cc:	bee95a29 	vfmalt.f32	s11, s18, s19
   219d0:	bee9b3af 	cdplt	3, 14, cr11, cr9, cr15, {5}
   219d4:	beea0d13 	mcrlt	13, 7, r0, cr10, cr3, {0}
   219d8:	beea6677 	mcrlt	6, 7, r6, cr10, cr7, {3}
   219dc:	beeabfdb 	mcrlt	15, 7, fp, cr10, cr11, {6}
   219e0:	beeb193f 	mcrlt	9, 7, r1, cr11, cr15, {1}
   219e4:	beeb7282 	cdplt	2, 14, cr7, cr11, cr2, {4}
   219e8:	beebcbc5 	vfmslt.f64	d28, d27, d5
   219ec:	beec24e6 	cdplt	4, 14, cr2, cr12, cr6, {7}
   219f0:	beec7e28 	cdplt	14, 14, cr7, cr12, cr8, {1}
   219f4:	beecd749 	cdplt	7, 14, cr13, cr12, cr9, {2}
   219f8:	beed306a 	cdplt	0, 14, cr3, cr13, cr10, {3}
   219fc:	beed896a 	cdplt	9, 14, cr8, cr13, cr10, {3}
   21a00:	beede28b 	cdplt	2, 14, cr14, cr13, cr11, {4}
   21a04:	beee3b8a 	vfmalt.f64	d19, d30, d10
   21a08:	beee9468 	cdplt	4, 14, cr9, cr14, cr8, {3}
   21a0c:	beeeed67 	cdplt	13, 14, cr14, cr14, cr7, {3}
   21a10:	beef4645 	cdplt	6, 14, cr4, cr15, cr5, {2}
   21a14:	beef9f23 	cdplt	15, 14, cr9, cr15, cr3, {1}
   21a18:	beeff801 	cdplt	8, 14, cr15, cr15, cr1, {0}
   21a1c:	bef050be 	mrclt	0, 7, r5, cr0, cr14, {5}
   21a20:	bef0a97a 	mrclt	9, 7, sl, cr0, cr10, {3}
   21a24:	bef10236 	mrclt	2, 7, r0, cr1, cr6, {1}
   21a28:	bef15af3 	mrclt	10, 7, r5, cr1, cr3, {7}
   21a2c:	bef1b38d 	cdplt	3, 15, cr11, cr1, cr13, {4}
   21a30:	bef20c28 	cdplt	12, 15, cr0, cr2, cr8, {1}
   21a34:	bef264c3 	cdplt	4, 15, cr6, cr2, cr3, {6}
   21a38:	bef2bd3c 	mrclt	13, 7, fp, cr2, cr12, {1}
   21a3c:	bef315b5 	mrclt	5, 7, r1, cr3, cr5, {5}
   21a40:	bef36e2f 	cdplt	14, 15, cr6, cr3, cr15, {1}
   21a44:	bef3c6a8 	cdplt	6, 15, cr12, cr3, cr8, {5}
   21a48:	bef41f00 	cdplt	15, 15, cr1, cr4, cr0, {0}
   21a4c:	bef47757 	mrclt	7, 7, r7, cr4, cr7, {2}
   21a50:	bef4cfaf 	cdplt	15, 15, cr12, cr4, cr15, {5}
   21a54:	bef52807 	cdplt	8, 15, cr2, cr5, cr7, {0}
   21a58:	bef5803d 	mrclt	0, 7, r8, cr5, cr13, {1}
   21a5c:	bef5d873 	mrclt	8, 7, sp, cr5, cr3, {3}
   21a60:	bef63088 	cdplt	0, 15, cr3, cr6, cr8, {4}
   21a64:	bef688be 	mrclt	8, 7, r8, cr6, cr14, {5}
   21a68:	bef6e0d2 	mrclt	0, 7, lr, cr6, cr2, {6}
   21a6c:	bef738e7 	cdplt	8, 15, cr3, cr7, cr7, {7}
   21a70:	bef790da 	mrclt	0, 7, r9, cr7, cr10, {6}
   21a74:	bef7e8cd 	cdplt	8, 15, cr14, cr7, cr13, {6}
   21a78:	bef840c0 	cdplt	0, 15, cr4, cr8, cr0, {6}
   21a7c:	bef898b3 	mrclt	8, 7, r9, cr8, cr3, {5}
   21a80:	bef8f084 	cdplt	0, 15, cr15, cr8, cr4, {4}
   21a84:	bef94856 	mrclt	8, 7, r4, cr9, cr6, {2}
   21a88:	bef9a027 	cdplt	0, 15, cr10, cr9, cr7, {1}
   21a8c:	bef9f7f9 	mrclt	7, 7, APSR_nzcv, cr9, cr9, {7}
   21a90:	befa4fa9 	cdplt	15, 15, cr4, cr10, cr9, {5}
   21a94:	befaa759 	mrclt	7, 7, sl, cr10, cr9, {2}
   21a98:	befafee7 	cdplt	14, 15, cr15, cr10, cr7, {7}
   21a9c:	befb5697 	mrclt	6, 7, r5, cr11, cr7, {4}
   21aa0:	befbae25 	cdplt	14, 15, cr10, cr11, cr5, {1}
   21aa4:	befc05b4 	mrclt	5, 7, r0, cr12, cr4, {5}
   21aa8:	befc5d20 	cdplt	13, 15, cr5, cr12, cr0, {1}
   21aac:	befcb48d 	cdplt	4, 15, cr11, cr12, cr13, {4}
   21ab0:	befd0bfa 	vmovlt.u8	r0, d29[7]
   21ab4:	befd6367 	cdplt	3, 15, cr6, cr13, cr7, {3}
   21ab8:	befdbab2 	mrclt	10, 7, fp, cr13, cr2, {5}
   21abc:	befe11fd 	mrclt	1, 7, r1, cr14, cr13, {7}
   21ac0:	befe6949 	cdplt	9, 15, cr6, cr14, cr9, {2}
   21ac4:	befec094 	mrclt	0, 7, ip, cr14, cr4, {4}
   21ac8:	beff17be 	mrclt	7, 7, r1, cr15, cr14, {5}
   21acc:	beff6ee7 	cdplt	14, 15, cr6, cr15, cr7, {7}
   21ad0:	beffc5ef 	cdplt	5, 15, cr12, cr15, cr15, {7}
   21ad4:	bf000e7c 	svclt	0x00000e7c
   21ad8:	bf003a00 	svclt	0x00003a00
   21adc:	bf006584 	svclt	0x00006584
   21ae0:	bf0090f7 	svclt	0x000090f7
   21ae4:	bf00bc7b 	svclt	0x0000bc7b
   21ae8:	bf00e7de 	svclt	0x0000e7de
   21aec:	bf011351 	svclt	0x00011351
   21af0:	bf013eb4 	svclt	0x00013eb4
   21af4:	bf016a16 	svclt	0x00016a16
   21af8:	bf019579 	svclt	0x00019579
   21afc:	bf01c0ca 	svclt	0x0001c0ca
   21b00:	bf01ec1c 	svclt	0x0001ec1c
   21b04:	bf02176e 	svclt	0x0002176e
   21b08:	bf0242af 	svclt	0x000242af
   21b0c:	bf026df0 	svclt	0x00026df0
   21b10:	bf029931 	svclt	0x00029931
   21b14:	bf02c472 	svclt	0x0002c472
   21b18:	bf02efa2 	svclt	0x0002efa2
   21b1c:	bf031ad2 	svclt	0x00031ad2
   21b20:	bf0345f1 	svclt	0x000345f1
   21b24:	bf037122 	svclt	0x00037122
   21b28:	bf039c41 	svclt	0x00039c41
   21b2c:	bf03c750 	svclt	0x0003c750
   21b30:	bf03f26f 	svclt	0x0003f26f
   21b34:	bf041d7e 	svclt	0x00041d7e
   21b38:	bf04488c 	svclt	0x0004488c
   21b3c:	bf04738a 	svclt	0x0004738a
   21b40:	bf049e99 	svclt	0x00049e99
   21b44:	bf04c986 	svclt	0x0004c986
   21b48:	bf04f484 	svclt	0x0004f484
   21b4c:	bf051f71 	svclt	0x00051f71
   21b50:	bf054a5e 	svclt	0x00054a5e
   21b54:	bf05754b 	svclt	0x0005754b
   21b58:	bf05a027 	svclt	0x0005a027
   21b5c:	bf05cb04 	svclt	0x0005cb04
   21b60:	bf05f5e0 	svclt	0x0005f5e0
   21b64:	bf0620bc 	svclt	0x000620bc
   21b68:	bf064b88 	svclt	0x00064b88
   21b6c:	bf067653 	svclt	0x00067653
   21b70:	bf06a10e 	svclt	0x0006a10e
   21b74:	bf06cbc9 	svclt	0x0006cbc9
   21b78:	bf06f683 	svclt	0x0006f683
   21b7c:	bf07213e 	svclt	0x0007213e
   21b80:	bf074be8 	svclt	0x00074be8
   21b84:	bf077692 	svclt	0x00077692
   21b88:	bf07a13c 	svclt	0x0007a13c
   21b8c:	bf07cbd5 	svclt	0x0007cbd5
   21b90:	bf07f66f 	svclt	0x0007f66f
   21b94:	bf082108 	svclt	0x00082108
   21b98:	bf084b90 	svclt	0x00084b90
   21b9c:	bf087619 	svclt	0x00087619
   21ba0:	bf08a0a1 	svclt	0x0008a0a1
   21ba4:	bf08cb19 	svclt	0x0008cb19
   21ba8:	bf08f5a1 	svclt	0x0008f5a1
   21bac:	bf092008 	svclt	0x00092008
   21bb0:	bf094a80 	svclt	0x00094a80
   21bb4:	bf0974e6 	svclt	0x000974e6
   21bb8:	bf099f4d 	svclt	0x00099f4d
   21bbc:	bf09c9b4 	svclt	0x0009c9b4
   21bc0:	bf09f40a 	svclt	0x0009f40a
   21bc4:	bf0a1e60 	svclt	0x000a1e60
   21bc8:	bf0a48a6 	svclt	0x000a48a6
   21bcc:	bf0a72fc 	svclt	0x000a72fc
   21bd0:	bf0a9d41 	svclt	0x000a9d41
   21bd4:	bf0ac775 	svclt	0x000ac775
   21bd8:	bf0af1bb 	svclt	0x000af1bb
   21bdc:	bf0b1bef 	svclt	0x000b1bef
   21be0:	bf0b4624 	svclt	0x000b4624
   21be4:	bf0b7048 	svclt	0x000b7048
   21be8:	bf0b9a6b 	svclt	0x000b9a6b
   21bec:	bf0bc48f 	svclt	0x000bc48f
   21bf0:	bf0beea2 	svclt	0x000beea2
   21bf4:	bf0c18b5 	svclt	0x000c18b5
   21bf8:	bf0c42c8 	svclt	0x000c42c8
   21bfc:	bf0c6cdb 	svclt	0x000c6cdb
   21c00:	bf0c96dd 	svclt	0x000c96dd
   21c04:	bf0cc0cf 	svclt	0x000cc0cf
   21c08:	bf0cead1 	svclt	0x000cead1
   21c0c:	bf0d14c2 	svclt	0x000d14c2
   21c10:	bf0d3eb4 	svclt	0x000d3eb4
   21c14:	bf0d68a5 	svclt	0x000d68a5
   21c18:	bf0d9286 	svclt	0x000d9286
   21c1c:	bf0dbc66 	svclt	0x000dbc66
   21c20:	bf0de636 	svclt	0x000de636
   21c24:	bf0e1006 	svclt	0x000e1006
   21c28:	bf0e39d6 	svclt	0x000e39d6
   21c2c:	bf0e63a6 	svclt	0x000e63a6
   21c30:	bf0e8d65 	svclt	0x000e8d65
   21c34:	bf0eb724 	svclt	0x000eb724
   21c38:	bf0ee0e3 	svclt	0x000ee0e3
   21c3c:	bf0f0a91 	svclt	0x000f0a91
   21c40:	bf0f3440 	svclt	0x000f3440
   21c44:	bf0f5ddd 	svclt	0x000f5ddd
   21c48:	bf0f878b 	svclt	0x000f878b
   21c4c:	bf0fb129 	svclt	0x000fb129
   21c50:	bf0fdab6 	svclt	0x000fdab6
   21c54:	bf100443 	svclt	0x00100443
   21c58:	bf102dcf 	svclt	0x00102dcf
   21c5c:	bf10575c 	svclt	0x0010575c
   21c60:	bf1080d8 	svclt	0x001080d8
   21c64:	bf10aa54 	svclt	0x0010aa54
   21c68:	bf10d3d0 	svclt	0x0010d3d0
   21c6c:	bf10fd3b 	svclt	0x0010fd3b
   21c70:	bf1126a6 	svclt	0x001126a6
   21c74:	bf115012 	svclt	0x00115012
   21c78:	bf11796c 	svclt	0x0011796c
   21c7c:	bf11a2c6 	svclt	0x0011a2c6
   21c80:	bf11cc21 	svclt	0x0011cc21
   21c84:	bf11f56a 	svclt	0x0011f56a
   21c88:	bf121eb4 	svclt	0x00121eb4
   21c8c:	bf1247ed 	svclt	0x001247ed
   21c90:	bf127137 	svclt	0x00127137
   21c94:	bf129a70 	svclt	0x00129a70
   21c98:	bf12c398 	svclt	0x0012c398
   21c9c:	bf12ecc0 	svclt	0x0012ecc0
   21ca0:	bf1315e8 	svclt	0x001315e8
   21ca4:	bf133f10 	svclt	0x00133f10
   21ca8:	bf136827 	svclt	0x00136827
   21cac:	bf13913f 	svclt	0x0013913f
   21cb0:	bf13ba56 	svclt	0x0013ba56
   21cb4:	bf13e35c 	svclt	0x0013e35c
   21cb8:	bf140c63 	svclt	0x00140c63
   21cbc:	bf143559 	svclt	0x00143559
   21cc0:	bf145e5f 	svclt	0x00145e5f
   21cc4:	bf148744 	svclt	0x00148744
   21cc8:	bf14b03a 	svclt	0x0014b03a
   21ccc:	bf14d91f 	svclt	0x0014d91f
   21cd0:	bf150204 	svclt	0x00150204
   21cd4:	bf152ad8 	svclt	0x00152ad8
   21cd8:	bf1553bd 	svclt	0x001553bd
   21cdc:	bf157c81 	svclt	0x00157c81
   21ce0:	bf15a555 	svclt	0x0015a555
   21ce4:	bf15ce18 	svclt	0x0015ce18
   21ce8:	bf15f6dc 	svclt	0x0015f6dc
   21cec:	bf161f8e 	svclt	0x00161f8e
   21cf0:	bf164841 	svclt	0x00164841
   21cf4:	bf1670f4 	svclt	0x001670f4
   21cf8:	bf1699a6 	svclt	0x001699a6
   21cfc:	bf16c248 	svclt	0x0016c248
   21d00:	bf16ead9 	svclt	0x0016ead9
   21d04:	bf17137b 	svclt	0x0017137b
   21d08:	bf173c0c 	svclt	0x00173c0c
   21d0c:	bf17648c 	svclt	0x0017648c
   21d10:	bf178d1e 	svclt	0x00178d1e
   21d14:	bf17b59e 	svclt	0x0017b59e
   21d18:	bf17de0d 	svclt	0x0017de0d
   21d1c:	bf18068e 	svclt	0x0018068e
   21d20:	bf182eec 	svclt	0x00182eec
   21d24:	bf18575c 	svclt	0x0018575c
   21d28:	bf187fbb 	svclt	0x00187fbb
   21d2c:	bf18a81a 	svclt	0x0018a81a
   21d30:	bf18d078 	svclt	0x0018d078
   21d34:	bf18f8c6 	svclt	0x0018f8c6
   21d38:	bf192114 	svclt	0x00192114
   21d3c:	bf194952 	svclt	0x00194952
   21d40:	bf19718f 	svclt	0x0019718f
   21d44:	bf1999cc 	svclt	0x001999cc
   21d48:	bf19c1f8 	svclt	0x0019c1f8
   21d4c:	bf19ea36 	svclt	0x0019ea36
   21d50:	bf1a1251 	svclt	0x001a1251
   21d54:	bf1a3a7e 	svclt	0x001a3a7e
   21d58:	bf1a6299 	svclt	0x001a6299
   21d5c:	bf1a8aa4 	svclt	0x001a8aa4
   21d60:	bf1ab2c0 	svclt	0x001ab2c0
   21d64:	bf1adaba 	svclt	0x001adaba
   21d68:	bf1b02c5 	svclt	0x001b02c5
   21d6c:	bf1b2abf 	svclt	0x001b2abf
   21d70:	bf1b52b9 	svclt	0x001b52b9
   21d74:	bf1b7ab3 	svclt	0x001b7ab3
   21d78:	bf1ba29c 	svclt	0x001ba29c
   21d7c:	bf1bca86 	svclt	0x001bca86
   21d80:	bf1bf25e 	svclt	0x001bf25e
   21d84:	bf1c1a37 	svclt	0x001c1a37
   21d88:	bf1c420f 	svclt	0x001c420f
   21d8c:	bf1c69d7 	svclt	0x001c69d7
   21d90:	bf1c919f 	svclt	0x001c919f
   21d94:	bf1cb967 	svclt	0x001cb967
   21d98:	bf1ce11e 	svclt	0x001ce11e
   21d9c:	bf1d08d5 	svclt	0x001d08d5
   21da0:	bf1d308c 	svclt	0x001d308c
   21da4:	bf1d5832 	svclt	0x001d5832
   21da8:	bf1d7fd8 	svclt	0x001d7fd8
   21dac:	bf1da76e 	svclt	0x001da76e
   21db0:	bf1dcf03 	svclt	0x001dcf03
   21db4:	bf1df698 	svclt	0x001df698
   21db8:	bf1e1e1d 	svclt	0x001e1e1d
   21dbc:	bf1e45a2 	svclt	0x001e45a2
   21dc0:	bf1e6d26 	svclt	0x001e6d26
   21dc4:	bf1e949a 	svclt	0x001e949a
   21dc8:	bf1ebc0e 	svclt	0x001ebc0e
   21dcc:	bf1ee382 	svclt	0x001ee382
   21dd0:	bf1f0ae5 	svclt	0x001f0ae5
   21dd4:	bf1f3248 	svclt	0x001f3248
   21dd8:	bf1f599b 	svclt	0x001f599b
   21ddc:	bf1f80ed 	svclt	0x001f80ed
   21de0:	bf1fa83f 	svclt	0x001fa83f
   21de4:	bf1fcf81 	svclt	0x001fcf81
   21de8:	bf1ff6c2 	svclt	0x001ff6c2
   21dec:	bf201e04 	svclt	0x00201e04
   21df0:	bf204535 	svclt	0x00204535
   21df4:	bf206c66 	svclt	0x00206c66
   21df8:	bf209396 	svclt	0x00209396
   21dfc:	bf20bab6 	svclt	0x0020bab6
   21e00:	bf20e1d6 	svclt	0x0020e1d6
   21e04:	bf2108e6 	svclt	0x002108e6
   21e08:	bf212ff5 	svclt	0x00212ff5
   21e0c:	bf215704 	svclt	0x00215704
   21e10:	bf217e02 	svclt	0x00217e02
   21e14:	bf21a501 	svclt	0x0021a501
   21e18:	bf21cbff 	svclt	0x0021cbff
   21e1c:	bf21f2ed 	svclt	0x0021f2ed
   21e20:	bf2219db 	svclt	0x002219db
   21e24:	bf2240b8 	svclt	0x002240b8
   21e28:	bf226794 	svclt	0x00226794
   21e2c:	bf228e71 	svclt	0x00228e71
   21e30:	bf22b53d 	svclt	0x0022b53d
   21e34:	bf22dc0a 	svclt	0x0022dc0a
   21e38:	bf2302d6 	svclt	0x002302d6
   21e3c:	bf232991 	svclt	0x00232991
   21e40:	bf23504c 	svclt	0x0023504c
   21e44:	bf2376f7 	svclt	0x002376f7
   21e48:	bf239da1 	svclt	0x00239da1
   21e4c:	bf23c44c 	svclt	0x0023c44c
   21e50:	bf23eae6 	svclt	0x0023eae6
   21e54:	bf241180 	svclt	0x00241180
   21e58:	bf243819 	svclt	0x00243819
   21e5c:	bf245ea2 	svclt	0x00245ea2
   21e60:	bf24852b 	svclt	0x0024852b
   21e64:	bf24aba4 	svclt	0x0024aba4
   21e68:	bf24d22d 	svclt	0x0024d22d
   21e6c:	bf24f894 	svclt	0x0024f894
   21e70:	bf251f0c 	svclt	0x00251f0c
   21e74:	bf254563 	svclt	0x00254563
   21e78:	bf256bca 	svclt	0x00256bca
   21e7c:	bf259221 	svclt	0x00259221
   21e80:	bf25b878 	svclt	0x0025b878
   21e84:	bf25debe 	svclt	0x0025debe
   21e88:	bf260503 	svclt	0x00260503
   21e8c:	bf262b49 	svclt	0x00262b49
   21e90:	bf26517e 	svclt	0x0026517e
   21e94:	bf2677b4 	svclt	0x002677b4
   21e98:	bf269de9 	svclt	0x00269de9
   21e9c:	bf26c40d 	svclt	0x0026c40d
   21ea0:	bf26ea31 	svclt	0x0026ea31
   21ea4:	bf271045 	svclt	0x00271045
   21ea8:	bf273659 	svclt	0x00273659
   21eac:	bf275c5b 	svclt	0x00275c5b
   21eb0:	bf27826f 	svclt	0x0027826f
   21eb4:	bf27a861 	svclt	0x0027a861
   21eb8:	bf27ce64 	svclt	0x0027ce64
   21ebc:	bf27f456 	svclt	0x0027f456
   21ec0:	bf281a48 	svclt	0x00281a48
   21ec4:	bf284029 	svclt	0x00284029
   21ec8:	bf28660a 	svclt	0x0028660a
   21ecc:	bf288bdb 	svclt	0x00288bdb
   21ed0:	bf28b1ab 	svclt	0x0028b1ab
   21ed4:	bf28d77b 	svclt	0x0028d77b
   21ed8:	bf28fd3b 	svclt	0x0028fd3b
   21edc:	bf2922fb 	svclt	0x002922fb
   21ee0:	bf2948bb 	svclt	0x002948bb
   21ee4:	bf296e69 	svclt	0x00296e69
   21ee8:	bf299418 	svclt	0x00299418
   21eec:	bf29b9b6 	svclt	0x0029b9b6
   21ef0:	bf29df55 	svclt	0x0029df55
   21ef4:	bf2a04f3 	svclt	0x002a04f3
   21ef8:	bf2a2a80 	svclt	0x002a2a80
   21efc:	bf2a500d 	svclt	0x002a500d
   21f00:	bf2a758a 	svclt	0x002a758a
   21f04:	bf2a9b07 	svclt	0x002a9b07
   21f08:	bf2ac083 	svclt	0x002ac083
   21f0c:	bf2ae5ef 	svclt	0x002ae5ef
   21f10:	bf2b0b5b 	svclt	0x002b0b5b
   21f14:	bf2b30c6 	svclt	0x002b30c6
   21f18:	bf2b5621 	svclt	0x002b5621
   21f1c:	bf2b7b6c 	svclt	0x002b7b6c
   21f20:	bf2ba0c7 	svclt	0x002ba0c7
   21f24:	bf2bc600 	svclt	0x002bc600
   21f28:	bf2beb4a 	svclt	0x002beb4a
   21f2c:	bf2c1084 	svclt	0x002c1084
   21f30:	bf2c35bd 	svclt	0x002c35bd
   21f34:	bf2c5ae6 	svclt	0x002c5ae6
   21f38:	bf2c800f 	svclt	0x002c800f
   21f3c:	bf2ca537 	svclt	0x002ca537
   21f40:	bf2cca4f 	svclt	0x002cca4f
   21f44:	bf2cef56 	svclt	0x002cef56
   21f48:	bf2d146e 	svclt	0x002d146e
   21f4c:	bf2d3975 	svclt	0x002d3975
   21f50:	bf2d5e6c 	svclt	0x002d5e6c
   21f54:	bf2d8362 	svclt	0x002d8362
   21f58:	bf2da858 	svclt	0x002da858
   21f5c:	bf2dcd3e 	svclt	0x002dcd3e
   21f60:	bf2df224 	svclt	0x002df224
   21f64:	bf2e1709 	svclt	0x002e1709
   21f68:	bf2e3bde 	svclt	0x002e3bde
   21f6c:	bf2e60b3 	svclt	0x002e60b3
   21f70:	bf2e8577 	svclt	0x002e8577
   21f74:	bf2eaa3b 	svclt	0x002eaa3b
   21f78:	bf2eceff 	svclt	0x002eceff
   21f7c:	bf2ef3b2 	svclt	0x002ef3b2
   21f80:	bf2f1855 	svclt	0x002f1855
   21f84:	bf2f3d08 	svclt	0x002f3d08
   21f88:	bf2f61aa 	svclt	0x002f61aa
   21f8c:	bf2f863c 	svclt	0x002f863c
   21f90:	bf2faace 	svclt	0x002faace
   21f94:	bf2fcf5f 	svclt	0x002fcf5f
   21f98:	bf2ff3e0 	svclt	0x002ff3e0
   21f9c:	bf301861 	svclt	0x00301861
   21fa0:	bf303ce2 	svclt	0x00303ce2
   21fa4:	bf306152 	svclt	0x00306152
   21fa8:	bf3085c2 	svclt	0x003085c2
   21fac:	bf30aa22 	svclt	0x0030aa22
   21fb0:	bf30ce81 	svclt	0x0030ce81
   21fb4:	bf30f2d0 	svclt	0x0030f2d0
   21fb8:	bf31171e 	svclt	0x0031171e
   21fbc:	bf313b6d 	svclt	0x00313b6d
   21fc0:	bf315fab 	svclt	0x00315fab
   21fc4:	bf3183e8 	svclt	0x003183e8
   21fc8:	bf31a815 	svclt	0x0031a815
   21fcc:	bf31cc42 	svclt	0x0031cc42
   21fd0:	bf31f06f 	svclt	0x0031f06f
   21fd4:	bf32148c 	svclt	0x0032148c
   21fd8:	bf3238a8 	svclt	0x003238a8
   21fdc:	bf325cc4 	svclt	0x00325cc4
   21fe0:	bf3280d0 	svclt	0x003280d0
   21fe4:	bf32a4ca 	svclt	0x0032a4ca
   21fe8:	bf32c8c5 	svclt	0x0032c8c5
   21fec:	bf32ecc0 	svclt	0x0032ecc0
   21ff0:	bf3310aa 	svclt	0x003310aa
   21ff4:	bf333494 	svclt	0x00333494
   21ff8:	bf33587d 	svclt	0x0033587d
   21ffc:	bf337c57 	svclt	0x00337c57
   22000:	bf33a030 	svclt	0x0033a030
   22004:	bf33c3f8 	svclt	0x0033c3f8
   22008:	bf33e7c0 	svclt	0x0033e7c0
   2200c:	bf340b78 	svclt	0x00340b78
   22010:	bf342f30 	svclt	0x00342f30
   22014:	bf3452e7 	svclt	0x003452e7
   22018:	bf34768e 	svclt	0x0034768e
   2201c:	bf349a35 	svclt	0x00349a35
   22020:	bf34bdcb 	svclt	0x0034bdcb
   22024:	bf34e161 	svclt	0x0034e161
   22028:	bf3504f7 	svclt	0x003504f7
   2202c:	bf35287c 	svclt	0x0035287c
   22030:	bf354c01 	svclt	0x00354c01
   22034:	bf356f76 	svclt	0x00356f76
   22038:	bf3592ea 	svclt	0x003592ea
   2203c:	bf35b64e 	svclt	0x0035b64e
   22040:	bf35d9b2 	svclt	0x0035d9b2
   22044:	bf35fd15 	svclt	0x0035fd15
   22048:	bf362068 	svclt	0x00362068
   2204c:	bf3643bb 	svclt	0x003643bb
   22050:	bf3666fd 	svclt	0x003666fd
   22054:	bf368a40 	svclt	0x00368a40
   22058:	bf36ad82 	svclt	0x0036ad82
   2205c:	bf36d0b3 	svclt	0x0036d0b3
   22060:	bf36f3e4 	svclt	0x0036f3e4
   22064:	bf371705 	svclt	0x00371705
   22068:	bf373a26 	svclt	0x00373a26
   2206c:	bf375d35 	svclt	0x00375d35
   22070:	bf378045 	svclt	0x00378045
   22074:	bf37a355 	svclt	0x0037a355
   22078:	bf37c654 	svclt	0x0037c654
   2207c:	bf37e953 	svclt	0x0037e953
   22080:	bf380c41 	svclt	0x00380c41
   22084:	bf382f30 	svclt	0x00382f30
   22088:	bf38521e 	svclt	0x0038521e
   2208c:	bf3874fb 	svclt	0x003874fb
   22090:	bf3897c8 	svclt	0x003897c8
   22094:	bf38ba95 	svclt	0x0038ba95
   22098:	bf38dd61 	svclt	0x0038dd61
   2209c:	bf39002e 	svclt	0x0039002e
   220a0:	bf3922d9 	svclt	0x003922d9
   220a4:	bf394595 	svclt	0x00394595
   220a8:	bf396840 	svclt	0x00396840
   220ac:	bf398aec 	svclt	0x00398aec
   220b0:	bf39ad86 	svclt	0x0039ad86
   220b4:	bf39d020 	svclt	0x0039d020
   220b8:	bf39f2aa 	svclt	0x0039f2aa
   220bc:	bf3a1533 	svclt	0x003a1533
   220c0:	bf3a37bd 	svclt	0x003a37bd
   220c4:	bf3a5a36 	svclt	0x003a5a36
   220c8:	bf3a7c9e 	svclt	0x003a7c9e
   220cc:	bf3a9f17 	svclt	0x003a9f17
   220d0:	bf3ac16e 	svclt	0x003ac16e
   220d4:	bf3ae3d6 	svclt	0x003ae3d6
   220d8:	bf3b062d 	svclt	0x003b062d
   220dc:	bf3b2874 	svclt	0x003b2874
   220e0:	bf3b4aba 	svclt	0x003b4aba
   220e4:	bf3b6d01 	svclt	0x003b6d01
   220e8:	bf3b8f36 	svclt	0x003b8f36
   220ec:	bf3bb16c 	svclt	0x003bb16c
   220f0:	bf3bd391 	svclt	0x003bd391
   220f4:	bf3bf5b6 	svclt	0x003bf5b6
   220f8:	bf3c17db 	svclt	0x003c17db
   220fc:	bf3c39ef 	svclt	0x003c39ef
   22100:	bf3c5c03 	svclt	0x003c5c03
   22104:	bf3c7e07 	svclt	0x003c7e07
   22108:	bf3ca00a 	svclt	0x003ca00a
   2210c:	bf3cc1fd 	svclt	0x003cc1fd
   22110:	bf3ce3ef 	svclt	0x003ce3ef
   22114:	bf3d05d1 	svclt	0x003d05d1
   22118:	bf3d27b3 	svclt	0x003d27b3
   2211c:	bf3d4995 	svclt	0x003d4995
   22120:	bf3d6b66 	svclt	0x003d6b66
   22124:	bf3d8d37 	svclt	0x003d8d37
   22128:	bf3daef7 	svclt	0x003daef7
   2212c:	bf3dd0b7 	svclt	0x003dd0b7
   22130:	bf3df267 	svclt	0x003df267
   22134:	bf3e1416 	svclt	0x003e1416
   22138:	bf3e35c6 	svclt	0x003e35c6
   2213c:	bf3e5764 	svclt	0x003e5764
   22140:	bf3e7903 	svclt	0x003e7903
   22144:	bf3e9a91 	svclt	0x003e9a91
   22148:	bf3ebc1f 	svclt	0x003ebc1f
   2214c:	bf3edd9c 	svclt	0x003edd9c
   22150:	bf3eff19 	svclt	0x003eff19
   22154:	bf3f2096 	svclt	0x003f2096
   22158:	bf3f4203 	svclt	0x003f4203
   2215c:	bf3f635e 	svclt	0x003f635e
   22160:	bf3f84ba 	svclt	0x003f84ba
   22164:	bf3fa616 	svclt	0x003fa616
   22168:	bf3fc760 	svclt	0x003fc760
   2216c:	bf3fe8ab 	svclt	0x003fe8ab
   22170:	bf4009f6 	svclt	0x004009f6
   22174:	bf402b30 	svclt	0x00402b30
   22178:	bf404c59 	svclt	0x00404c59
   2217c:	bf406d83 	svclt	0x00406d83
   22180:	bf408eac 	svclt	0x00408eac
   22184:	bf40afc4 	svclt	0x0040afc4
   22188:	bf40d0dd 	svclt	0x0040d0dd
   2218c:	bf40f1e5 	svclt	0x0040f1e5
   22190:	bf4112ec 	svclt	0x004112ec
   22194:	bf4133e3 	svclt	0x004133e3
   22198:	bf4154da 	svclt	0x004154da
   2219c:	bf4175d1 	svclt	0x004175d1
   221a0:	bf4196b7 	svclt	0x004196b7
   221a4:	bf41b79e 	svclt	0x0041b79e
   221a8:	bf41d873 	svclt	0x0041d873
   221ac:	bf41f948 	svclt	0x0041f948
   221b0:	bf421a0d 	svclt	0x00421a0d
   221b4:	bf423ad2 	svclt	0x00423ad2
   221b8:	bf425b85 	svclt	0x00425b85
   221bc:	bf427c39 	svclt	0x00427c39
   221c0:	bf429ced 	svclt	0x00429ced
   221c4:	bf42bd90 	svclt	0x0042bd90
   221c8:	bf42de22 	svclt	0x0042de22
   221cc:	bf42fec5 	svclt	0x0042fec5
   221d0:	bf431f47 	svclt	0x00431f47
   221d4:	bf433fd9 	svclt	0x00433fd9
   221d8:	bf43604a 	svclt	0x0043604a
   221dc:	bf4380cb 	svclt	0x004380cb
   221e0:	bf43a13c 	svclt	0x0043a13c
   221e4:	bf43c19c 	svclt	0x0043c19c
   221e8:	bf43e1fc 	svclt	0x0043e1fc
   221ec:	bf44025c 	svclt	0x0044025c
   221f0:	bf4422ab 	svclt	0x004422ab
   221f4:	bf4442fa 	svclt	0x004442fa
   221f8:	bf446339 	svclt	0x00446339
   221fc:	bf448377 	svclt	0x00448377
   22200:	bf44a3a5 	svclt	0x0044a3a5
   22204:	bf44c3d2 	svclt	0x0044c3d2
   22208:	bf44e3ef 	svclt	0x0044e3ef
   2220c:	bf45040c 	svclt	0x0045040c
   22210:	bf452429 	svclt	0x00452429
   22214:	bf454435 	svclt	0x00454435
   22218:	bf456441 	svclt	0x00456441
   2221c:	bf45843c 	svclt	0x0045843c
   22220:	bf45a427 	svclt	0x0045a427
   22224:	bf45c422 	svclt	0x0045c422
   22228:	bf45e3fc 	svclt	0x0045e3fc
   2222c:	bf4603e6 	svclt	0x004603e6
   22230:	bf4623c0 	svclt	0x004623c0
   22234:	bf464389 	svclt	0x00464389
   22238:	bf466352 	svclt	0x00466352
   2223c:	bf46831b 	svclt	0x0046831b
   22240:	bf46a2d3 	svclt	0x0046a2d3
   22244:	bf46c27a 	svclt	0x0046c27a
   22248:	bf46e222 	svclt	0x0046e222
   2224c:	bf4701c9 	svclt	0x004701c9
   22250:	bf472160 	svclt	0x00472160
   22254:	bf4740f6 	svclt	0x004740f6
   22258:	bf47608d 	svclt	0x0047608d
   2225c:	bf478002 	svclt	0x00478002
   22260:	bf479f88 	svclt	0x00479f88
   22264:	bf47befd 	svclt	0x0047befd
   22268:	bf47de61 	svclt	0x0047de61
   2226c:	bf47fdc6 	svclt	0x0047fdc6
   22270:	bf481d2a 	svclt	0x00481d2a
   22274:	bf483c7d 	svclt	0x00483c7d
   22278:	bf485bd1 	svclt	0x00485bd1
   2227c:	bf487b14 	svclt	0x00487b14
   22280:	bf489a56 	svclt	0x00489a56
   22284:	bf48b988 	svclt	0x0048b988
   22288:	bf48d8ba 	svclt	0x0048d8ba
   2228c:	bf48f7db 	svclt	0x0048f7db
   22290:	bf4916fd 	svclt	0x004916fd
   22294:	bf49360d 	svclt	0x0049360d
   22298:	bf49551d 	svclt	0x0049551d
   2229c:	bf49742e 	svclt	0x0049742e
   222a0:	bf49932d 	svclt	0x0049932d
   222a4:	bf49b21c 	svclt	0x0049b21c
   222a8:	bf49d10b 	svclt	0x0049d10b
   222ac:	bf49effa 	svclt	0x0049effa
   222b0:	bf4a0ed8 	svclt	0x004a0ed8
   222b4:	bf4a2db6 	svclt	0x004a2db6
   222b8:	bf4a4c83 	svclt	0x004a4c83
   222bc:	bf4a6b51 	svclt	0x004a6b51
   222c0:	bf4a8a0d 	svclt	0x004a8a0d
   222c4:	bf4aa8ca 	svclt	0x004aa8ca
   222c8:	bf4ac786 	svclt	0x004ac786
   222cc:	bf4ae632 	svclt	0x004ae632
   222d0:	bf4b04cd 	svclt	0x004b04cd
   222d4:	bf4b2368 	svclt	0x004b2368
   222d8:	bf4b41f2 	svclt	0x004b41f2
   222dc:	bf4b608d 	svclt	0x004b608d
   222e0:	bf4b7f06 	svclt	0x004b7f06
   222e4:	bf4b9d80 	svclt	0x004b9d80
   222e8:	bf4bbbf9 	svclt	0x004bbbf9
   222ec:	bf4bda62 	svclt	0x004bda62
   222f0:	bf4bf8cb 	svclt	0x004bf8cb
   222f4:	bf4c1722 	svclt	0x004c1722
   222f8:	bf4c357a 	svclt	0x004c357a
   222fc:	bf4c53c1 	svclt	0x004c53c1
   22300:	bf4c7208 	svclt	0x004c7208
   22304:	bf4c903f 	svclt	0x004c903f
   22308:	bf4cae75 	svclt	0x004cae75
   2230c:	bf4cccab 	svclt	0x004cccab
   22310:	bf4cead1 	svclt	0x004cead1
   22314:	bf4d08e6 	svclt	0x004d08e6
   22318:	bf4d26fa 	svclt	0x004d26fa
   2231c:	bf4d450f 	svclt	0x004d450f
   22320:	bf4d6313 	svclt	0x004d6313
   22324:	bf4d8106 	svclt	0x004d8106
   22328:	bf4d9f0a 	svclt	0x004d9f0a
   2232c:	bf4dbced 	svclt	0x004dbced
   22330:	bf4ddacf 	svclt	0x004ddacf
   22334:	bf4df8b1 	svclt	0x004df8b1
   22338:	bf4e1683 	svclt	0x004e1683
   2233c:	bf4e3455 	svclt	0x004e3455
   22340:	bf4e5215 	svclt	0x004e5215
   22344:	bf4e6fd6 	svclt	0x004e6fd6
   22348:	bf4e8d97 	svclt	0x004e8d97
   2234c:	bf4eab36 	svclt	0x004eab36
   22350:	bf4ec8e7 	svclt	0x004ec8e7
   22354:	bf4ee686 	svclt	0x004ee686
   22358:	bf4f0414 	svclt	0x004f0414
   2235c:	bf4f21a3 	svclt	0x004f21a3
   22360:	bf4f3f31 	svclt	0x004f3f31
   22364:	bf4f5caf 	svclt	0x004f5caf
   22368:	bf4f7a1c 	svclt	0x004f7a1c
   2236c:	bf4f9789 	svclt	0x004f9789
   22370:	bf4fb4f6 	svclt	0x004fb4f6
   22374:	bf4fd252 	svclt	0x004fd252
   22378:	bf4fefae 	svclt	0x004fefae
   2237c:	bf500cfa 	svclt	0x00500cfa
   22380:	bf502a35 	svclt	0x00502a35
   22384:	bf504780 	svclt	0x00504780
   22388:	bf5064aa 	svclt	0x005064aa
   2238c:	bf5081e4 	svclt	0x005081e4
   22390:	bf509efe 	svclt	0x00509efe
   22394:	bf50bc27 	svclt	0x0050bc27
   22398:	bf50d930 	svclt	0x0050d930
   2239c:	bf50f649 	svclt	0x0050f649
   223a0:	bf511351 	svclt	0x00511351
   223a4:	bf513049 	svclt	0x00513049
   223a8:	bf514d40 	svclt	0x00514d40
   223ac:	bf516a27 	svclt	0x00516a27
   223b0:	bf51870e 	svclt	0x0051870e
   223b4:	bf51a3f4 	svclt	0x0051a3f4
   223b8:	bf51c0ca 	svclt	0x0051c0ca
   223bc:	bf51dd90 	svclt	0x0051dd90
   223c0:	bf51fa55 	svclt	0x0051fa55
   223c4:	bf521709 	svclt	0x00521709
   223c8:	bf5233ce 	svclt	0x005233ce
   223cc:	bf525072 	svclt	0x00525072
   223d0:	bf526d16 	svclt	0x00526d16
   223d4:	bf5289b9 	svclt	0x005289b9
   223d8:	bf52a64c 	svclt	0x0052a64c
   223dc:	bf52c2ce 	svclt	0x0052c2ce
   223e0:	bf52df61 	svclt	0x0052df61
   223e4:	bf52fbd2 	svclt	0x0052fbd2
   223e8:	bf531844 	svclt	0x00531844
   223ec:	bf5334b5 	svclt	0x005334b5
   223f0:	bf535116 	svclt	0x00535116
   223f4:	bf536d76 	svclt	0x00536d76
   223f8:	bf5389c6 	svclt	0x005389c6
   223fc:	bf53a616 	svclt	0x0053a616
   22400:	bf53c255 	svclt	0x0053c255
   22404:	bf53de94 	svclt	0x0053de94
   22408:	bf53fac2 	svclt	0x0053fac2
   2240c:	bf5416f0 	svclt	0x005416f0
   22410:	bf54330d 	svclt	0x0054330d
   22414:	bf544f2b 	svclt	0x00544f2b
   22418:	bf546b38 	svclt	0x00546b38
   2241c:	bf548744 	svclt	0x00548744
   22420:	bf54a340 	svclt	0x0054a340
   22424:	bf54bf3c 	svclt	0x0054bf3c
   22428:	bf54db38 	svclt	0x0054db38
   2242c:	bf54f712 	svclt	0x0054f712
   22430:	bf5512fd 	svclt	0x005512fd
   22434:	bf552ed8 	svclt	0x00552ed8
   22438:	bf554aa1 	svclt	0x00554aa1
   2243c:	bf55666b 	svclt	0x0055666b
   22440:	bf558234 	svclt	0x00558234
   22444:	bf559ddc 	svclt	0x00559ddc
   22448:	bf55b995 	svclt	0x0055b995
   2244c:	bf55d53d 	svclt	0x0055d53d
   22450:	bf55f0d4 	svclt	0x0055f0d4
   22454:	bf560c6b 	svclt	0x00560c6b
   22458:	bf562802 	svclt	0x00562802
   2245c:	bf564389 	svclt	0x00564389
   22460:	bf565eff 	svclt	0x00565eff
   22464:	bf567a74 	svclt	0x00567a74
   22468:	bf5695ea 	svclt	0x005695ea
   2246c:	bf56b14f 	svclt	0x0056b14f
   22470:	bf56cca3 	svclt	0x0056cca3
   22474:	bf56e7f7 	svclt	0x0056e7f7
   22478:	bf57034b 	svclt	0x0057034b
   2247c:	bf571e8e 	svclt	0x00571e8e
   22480:	bf5739c1 	svclt	0x005739c1
   22484:	bf5754f3 	svclt	0x005754f3
   22488:	bf577026 	svclt	0x00577026
   2248c:	bf578b48 	svclt	0x00578b48
   22490:	bf57a66a 	svclt	0x0057a66a
   22494:	bf57c17b 	svclt	0x0057c17b
   22498:	bf57dc7b 	svclt	0x0057dc7b
   2249c:	bf57f77b 	svclt	0x0057f77b
   224a0:	bf58127b 	svclt	0x0058127b
   224a4:	bf582d6b 	svclt	0x00582d6b
   224a8:	bf58485a 	svclt	0x0058485a
   224ac:	bf586339 	svclt	0x00586339
   224b0:	bf587e07 	svclt	0x00587e07
   224b4:	bf5898d4 	svclt	0x005898d4
   224b8:	bf58b3a2 	svclt	0x0058b3a2
   224bc:	bf58ce5f 	svclt	0x0058ce5f
   224c0:	bf58e91d 	svclt	0x0058e91d
   224c4:	bf5903c9 	svclt	0x005903c9
   224c8:	bf591e64 	svclt	0x00591e64
   224cc:	bf593900 	svclt	0x00593900
   224d0:	bf59539c 	svclt	0x0059539c
   224d4:	bf596e26 	svclt	0x00596e26
   224d8:	bf5988b1 	svclt	0x005988b1
   224dc:	bf59a32b 	svclt	0x0059a32b
   224e0:	bf59bd94 	svclt	0x0059bd94
   224e4:	bf59d80e 	svclt	0x0059d80e
   224e8:	bf59f267 	svclt	0x0059f267
   224ec:	bf5a0cbf 	svclt	0x005a0cbf
   224f0:	bf5a2718 	svclt	0x005a2718
   224f4:	bf5a415f 	svclt	0x005a415f
   224f8:	bf5a5ba7 	svclt	0x005a5ba7
   224fc:	bf5a75de 	svclt	0x005a75de
   22500:	bf5a9004 	svclt	0x005a9004
   22504:	bf5aaa2a 	svclt	0x005aaa2a
   22508:	bf5ac450 	svclt	0x005ac450
   2250c:	bf5ade65 	svclt	0x005ade65
   22510:	bf5af87b 	svclt	0x005af87b
   22514:	bf5b127f 	svclt	0x005b127f
   22518:	bf5b2c73 	svclt	0x005b2c73
   2251c:	bf5b4667 	svclt	0x005b4667
   22520:	bf5b605b 	svclt	0x005b605b
   22524:	bf5b7a3e 	svclt	0x005b7a3e
   22528:	bf5b9421 	svclt	0x005b9421
   2252c:	bf5badf3 	svclt	0x005badf3
   22530:	bf5bc7b4 	svclt	0x005bc7b4
   22534:	bf5be176 	svclt	0x005be176
   22538:	bf5bfb37 	svclt	0x005bfb37
   2253c:	bf5c14e8 	svclt	0x005c14e8
   22540:	bf5c2e88 	svclt	0x005c2e88
   22544:	bf5c4828 	svclt	0x005c4828
   22548:	bf5c61c8 	svclt	0x005c61c8
   2254c:	bf5c7b57 	svclt	0x005c7b57
   22550:	bf5c94d5 	svclt	0x005c94d5
   22554:	bf5cae53 	svclt	0x005cae53
   22558:	bf5cc7d2 	svclt	0x005cc7d2
   2255c:	bf5ce13f 	svclt	0x005ce13f
   22560:	bf5cfa9c 	svclt	0x005cfa9c
   22564:	bf5d13f9 	svclt	0x005d13f9
   22568:	bf5d2d56 	svclt	0x005d2d56
   2256c:	bf5d46a2 	svclt	0x005d46a2
   22570:	bf5d5fdd 	svclt	0x005d5fdd
   22574:	bf5d7918 	svclt	0x005d7918
   22578:	bf5d9253 	svclt	0x005d9253
   2257c:	bf5dab7e 	svclt	0x005dab7e
   22580:	bf5dc497 	svclt	0x005dc497
   22584:	bf5dddb1 	svclt	0x005dddb1
   22588:	bf5df6ba 	svclt	0x005df6ba
   2258c:	bf5e0fc3 	svclt	0x005e0fc3
   22590:	bf5e28bb 	svclt	0x005e28bb
   22594:	bf5e41b3 	svclt	0x005e41b3
   22598:	bf5e5aab 	svclt	0x005e5aab
   2259c:	bf5e7393 	svclt	0x005e7393
   225a0:	bf5e8c69 	svclt	0x005e8c69
   225a4:	bf5ea540 	svclt	0x005ea540
   225a8:	bf5ebe06 	svclt	0x005ebe06
   225ac:	bf5ed6cb 	svclt	0x005ed6cb
   225b0:	bf5eef80 	svclt	0x005eef80
   225b4:	bf5f0835 	svclt	0x005f0835
   225b8:	bf5f20da 	svclt	0x005f20da
   225bc:	bf5f397e 	svclt	0x005f397e
   225c0:	bf5f5211 	svclt	0x005f5211
   225c4:	bf5f6aa5 	svclt	0x005f6aa5
   225c8:	bf5f8327 	svclt	0x005f8327
   225cc:	bf5f9baa 	svclt	0x005f9baa
   225d0:	bf5fb41c 	svclt	0x005fb41c
   225d4:	bf5fcc8e 	svclt	0x005fcc8e
   225d8:	bf5fe4ef 	svclt	0x005fe4ef
   225dc:	bf5ffd3f 	svclt	0x005ffd3f
   225e0:	bf601590 	svclt	0x00601590
   225e4:	bf602de0 	svclt	0x00602de0
   225e8:	bf604620 	svclt	0x00604620
   225ec:	bf605e5f 	svclt	0x00605e5f
   225f0:	bf60768e 	svclt	0x0060768e
   225f4:	bf608eac 	svclt	0x00608eac
   225f8:	bf60a6ca 	svclt	0x0060a6ca
   225fc:	bf60bee8 	svclt	0x0060bee8
   22600:	bf60d6f5 	svclt	0x0060d6f5
   22604:	bf60eef2 	svclt	0x0060eef2
   22608:	bf6106ee 	svclt	0x006106ee
   2260c:	bf611eeb 	svclt	0x00611eeb
   22610:	bf6136d6 	svclt	0x006136d6
   22614:	bf614eb1 	svclt	0x00614eb1
   22618:	bf61668c 	svclt	0x0061668c
   2261c:	bf617e56 	svclt	0x00617e56
   22620:	bf619620 	svclt	0x00619620
   22624:	bf61adda 	svclt	0x0061adda
   22628:	bf61c593 	svclt	0x0061c593
   2262c:	bf61dd4c 	svclt	0x0061dd4c
   22630:	bf61f4e4 	svclt	0x0061f4e4
   22634:	bf620c8d 	svclt	0x00620c8d
   22638:	bf622414 	svclt	0x00622414
   2263c:	bf623bac 	svclt	0x00623bac
   22640:	bf625322 	svclt	0x00625322
   22644:	bf626a98 	svclt	0x00626a98
   22648:	bf62820e 	svclt	0x0062820e
   2264c:	bf629974 	svclt	0x00629974
   22650:	bf62b0d9 	svclt	0x0062b0d9
   22654:	bf62c82e 	svclt	0x0062c82e
   22658:	bf62df83 	svclt	0x0062df83
   2265c:	bf62f6c7 	svclt	0x0062f6c7
   22660:	bf630dfa 	svclt	0x00630dfa
   22664:	bf63252d 	svclt	0x0063252d
   22668:	bf633c60 	svclt	0x00633c60
   2266c:	bf635382 	svclt	0x00635382
   22670:	bf636a94 	svclt	0x00636a94
   22674:	bf6381a6 	svclt	0x006381a6
   22678:	bf6398a6 	svclt	0x006398a6
   2267c:	bf63afa7 	svclt	0x0063afa7
   22680:	bf63c6a8 	svclt	0x0063c6a8
   22684:	bf63dd87 	svclt	0x0063dd87
   22688:	bf63f477 	svclt	0x0063f477
   2268c:	bf640b56 	svclt	0x00640b56
   22690:	bf642225 	svclt	0x00642225
   22694:	bf6438e3 	svclt	0x006438e3
   22698:	bf644fb1 	svclt	0x00644fb1
   2269c:	bf64665e 	svclt	0x0064665e
   226a0:	bf647d1c 	svclt	0x00647d1c
   226a4:	bf6493b8 	svclt	0x006493b8
   226a8:	bf64aa54 	svclt	0x0064aa54
   226ac:	bf64c0f0 	svclt	0x0064c0f0
   226b0:	bf64d77b 	svclt	0x0064d77b
   226b4:	bf64edf6 	svclt	0x0064edf6
   226b8:	bf650471 	svclt	0x00650471
   226bc:	bf651aeb 	svclt	0x00651aeb
   226c0:	bf653155 	svclt	0x00653155
   226c4:	bf6547ae 	svclt	0x006547ae
   226c8:	bf655e07 	svclt	0x00655e07
   226cc:	bf657460 	svclt	0x00657460
   226d0:	bf658a98 	svclt	0x00658a98
   226d4:	bf65a0e0 	svclt	0x0065a0e0
   226d8:	bf65b717 	svclt	0x0065b717
   226dc:	bf65cd3e 	svclt	0x0065cd3e
   226e0:	bf65e365 	svclt	0x0065e365
   226e4:	bf65f97b 	svclt	0x0065f97b
   226e8:	bf660f80 	svclt	0x00660f80
   226ec:	bf662596 	svclt	0x00662596
   226f0:	bf663b8a 	svclt	0x00663b8a
   226f4:	bf66517e 	svclt	0x0066517e
   226f8:	bf666773 	svclt	0x00666773
   226fc:	bf667d56 	svclt	0x00667d56
   22700:	bf669329 	svclt	0x00669329
   22704:	bf66a8fc 	svclt	0x0066a8fc
   22708:	bf66becf 	svclt	0x0066becf
   2270c:	bf66d491 	svclt	0x0066d491
   22710:	bf66ea42 	svclt	0x0066ea42
   22714:	bf66fff3 	svclt	0x0066fff3
   22718:	bf671594 	svclt	0x00671594
   2271c:	bf672b34 	svclt	0x00672b34
   22720:	bf6740c4 	svclt	0x006740c4
   22724:	bf675654 	svclt	0x00675654
   22728:	bf676bd3 	svclt	0x00676bd3
   2272c:	bf678152 	svclt	0x00678152
   22730:	bf6796c0 	svclt	0x006796c0
   22734:	bf67ac2e 	svclt	0x0067ac2e
   22738:	bf67c18b 	svclt	0x0067c18b
   2273c:	bf67d6d8 	svclt	0x0067d6d8
   22740:	bf67ec25 	svclt	0x0067ec25
   22744:	bf680171 	svclt	0x00680171
   22748:	bf6816ad 	svclt	0x006816ad
   2274c:	bf682bd8 	svclt	0x00682bd8
   22750:	bf684103 	svclt	0x00684103
   22754:	bf68561d 	svclt	0x0068561d
   22758:	bf686b38 	svclt	0x00686b38
   2275c:	bf688041 	svclt	0x00688041
   22760:	bf68954a 	svclt	0x0068954a
   22764:	bf68aa43 	svclt	0x0068aa43
   22768:	bf68bf3c 	svclt	0x0068bf3c
   2276c:	bf68d424 	svclt	0x0068d424
   22770:	bf68e90c 	svclt	0x0068e90c
   22774:	bf68fde3 	svclt	0x0068fde3
   22778:	bf6912a9 	svclt	0x006912a9
   2277c:	bf692770 	svclt	0x00692770
   22780:	bf693c36 	svclt	0x00693c36
   22784:	bf6950ec 	svclt	0x006950ec
   22788:	bf696590 	svclt	0x00696590
   2278c:	bf697a35 	svclt	0x00697a35
   22790:	bf698ec9 	svclt	0x00698ec9
   22794:	bf69a35d 	svclt	0x0069a35d
   22798:	bf69b7e1 	svclt	0x0069b7e1
   2279c:	bf69cc64 	svclt	0x0069cc64
   227a0:	bf69e0d6 	svclt	0x0069e0d6
   227a4:	bf69f549 	svclt	0x0069f549
   227a8:	bf6a09ab 	svclt	0x006a09ab
   227ac:	bf6a1dfc 	svclt	0x006a1dfc
   227b0:	bf6a324d 	svclt	0x006a324d
   227b4:	bf6a469d 	svclt	0x006a469d
   227b8:	bf6a5ade 	svclt	0x006a5ade
   227bc:	bf6a6f0d 	svclt	0x006a6f0d
   227c0:	bf6a833c 	svclt	0x006a833c
   227c4:	bf6a975b 	svclt	0x006a975b
   227c8:	bf6aab7a 	svclt	0x006aab7a
   227cc:	bf6abf87 	svclt	0x006abf87
   227d0:	bf6ad395 	svclt	0x006ad395
   227d4:	bf6ae792 	svclt	0x006ae792
   227d8:	bf6afb8f 	svclt	0x006afb8f
   227dc:	bf6b0f7c 	svclt	0x006b0f7c
   227e0:	bf6b2357 	svclt	0x006b2357
   227e4:	bf6b3733 	svclt	0x006b3733
   227e8:	bf6b4b0e 	svclt	0x006b4b0e
   227ec:	bf6b5ed9 	svclt	0x006b5ed9
   227f0:	bf6b7293 	svclt	0x006b7293
   227f4:	bf6b864d 	svclt	0x006b864d
   227f8:	bf6b99f6 	svclt	0x006b99f6
   227fc:	bf6bad9f 	svclt	0x006bad9f
   22800:	bf6bc137 	svclt	0x006bc137
   22804:	bf6bd4d0 	svclt	0x006bd4d0
   22808:	bf6be857 	svclt	0x006be857
   2280c:	bf6bfbdf 	svclt	0x006bfbdf
   22810:	bf6c0f56 	svclt	0x006c0f56
   22814:	bf6c22bc 	svclt	0x006c22bc
   22818:	bf6c3622 	svclt	0x006c3622
   2281c:	bf6c4988 	svclt	0x006c4988
   22820:	bf6c5ccd 	svclt	0x006c5ccd
   22824:	bf6c7022 	svclt	0x006c7022
   22828:	bf6c8366 	svclt	0x006c8366
   2282c:	bf6c969a 	svclt	0x006c969a
   22830:	bf6ca9bd 	svclt	0x006ca9bd
   22834:	bf6cbcf1 	svclt	0x006cbcf1
   22838:	bf6cd003 	svclt	0x006cd003
   2283c:	bf6ce315 	svclt	0x006ce315
   22840:	bf6cf627 	svclt	0x006cf627
   22844:	bf6d0929 	svclt	0x006d0929
   22848:	bf6d1c19 	svclt	0x006d1c19
   2284c:	bf6d2f0a 	svclt	0x006d2f0a
   22850:	bf6d41ea 	svclt	0x006d41ea
   22854:	bf6d54ca 	svclt	0x006d54ca
   22858:	bf6d67a9 	svclt	0x006d67a9
   2285c:	bf6d7a68 	svclt	0x006d7a68
   22860:	bf6d8d26 	svclt	0x006d8d26
   22864:	bf6d9fe4 	svclt	0x006d9fe4
   22868:	bf6db292 	svclt	0x006db292
   2286c:	bf6dc53f 	svclt	0x006dc53f
   22870:	bf6dd7dc 	svclt	0x006dd7dc
   22874:	bf6dea68 	svclt	0x006dea68
   22878:	bf6dfcf4 	svclt	0x006dfcf4
   2287c:	bf6e0f6f 	svclt	0x006e0f6f
   22880:	bf6e21ea 	svclt	0x006e21ea
   22884:	bf6e3455 	svclt	0x006e3455
   22888:	bf6e46bf 	svclt	0x006e46bf
   2288c:	bf6e5919 	svclt	0x006e5919
   22890:	bf6e6b72 	svclt	0x006e6b72
   22894:	bf6e7dbb 	svclt	0x006e7dbb
   22898:	bf6e8ff3 	svclt	0x006e8ff3
   2289c:	bf6ea22b 	svclt	0x006ea22b
   228a0:	bf6eb463 	svclt	0x006eb463
   228a4:	bf6ec67a 	svclt	0x006ec67a
   228a8:	bf6ed8a1 	svclt	0x006ed8a1
   228ac:	bf6eeab8 	svclt	0x006eeab8
   228b0:	bf6efcbd 	svclt	0x006efcbd
   228b4:	bf6f0eb2 	svclt	0x006f0eb2
   228b8:	bf6f20b8 	svclt	0x006f20b8
   228bc:	bf6f329c 	svclt	0x006f329c
   228c0:	bf6f4480 	svclt	0x006f4480
   228c4:	bf6f5665 	svclt	0x006f5665
   228c8:	bf6f6838 	svclt	0x006f6838
   228cc:	bf6f79fb 	svclt	0x006f79fb
   228d0:	bf6f8bbd 	svclt	0x006f8bbd
   228d4:	bf6f9d6f 	svclt	0x006f9d6f
   228d8:	bf6faf21 	svclt	0x006faf21
   228dc:	bf6fc0c2 	svclt	0x006fc0c2
   228e0:	bf6fd252 	svclt	0x006fd252
   228e4:	bf6fe3f3 	svclt	0x006fe3f3
   228e8:	bf6ff573 	svclt	0x006ff573
   228ec:	bf7006f2 	svclt	0x007006f2
   228f0:	bf701861 	svclt	0x00701861
   228f4:	bf7029d0 	svclt	0x007029d0
   228f8:	bf703b3f 	svclt	0x00703b3f
   228fc:	bf704c8c 	svclt	0x00704c8c
   22900:	bf705dd9 	svclt	0x00705dd9
   22904:	bf706f26 	svclt	0x00706f26
   22908:	bf708063 	svclt	0x00708063
   2290c:	bf70919f 	svclt	0x0070919f
   22910:	bf70a2cb 	svclt	0x0070a2cb
   22914:	bf70b3e5 	svclt	0x0070b3e5
   22918:	bf70c500 	svclt	0x0070c500
   2291c:	bf70d60a 	svclt	0x0070d60a
   22920:	bf70e714 	svclt	0x0070e714
   22924:	bf70f80e 	svclt	0x0070f80e
   22928:	bf710907 	svclt	0x00710907
   2292c:	bf7119f0 	svclt	0x007119f0
   22930:	bf712ad8 	svclt	0x00712ad8
   22934:	bf713bb0 	svclt	0x00713bb0
   22938:	bf714c77 	svclt	0x00714c77
   2293c:	bf715d3e 	svclt	0x00715d3e
   22940:	bf716df4 	svclt	0x00716df4
   22944:	bf717eaa 	svclt	0x00717eaa
   22948:	bf718f50 	svclt	0x00718f50
   2294c:	bf719ff5 	svclt	0x00719ff5
   22950:	bf71b08a 	svclt	0x0071b08a
   22954:	bf71c11e 	svclt	0x0071c11e
   22958:	bf71d1a2 	svclt	0x0071d1a2
   2295c:	bf71e215 	svclt	0x0071e215
   22960:	bf71f288 	svclt	0x0071f288
   22964:	bf7202fb 	svclt	0x007202fb
   22968:	bf72134d 	svclt	0x0072134d
   2296c:	bf7223af 	svclt	0x007223af
   22970:	bf7233f0 	svclt	0x007233f0
   22974:	bf724431 	svclt	0x00724431
   22978:	bf725471 	svclt	0x00725471
   2297c:	bf7264a1 	svclt	0x007264a1
   22980:	bf7274c1 	svclt	0x007274c1
   22984:	bf7284e0 	svclt	0x007284e0
   22988:	bf7294ff 	svclt	0x007294ff
   2298c:	bf72a4fd 	svclt	0x0072a4fd
   22990:	bf72b50b 	svclt	0x0072b50b
   22994:	bf72c4f8 	svclt	0x0072c4f8
   22998:	bf72d4e5 	svclt	0x0072d4e5
   2299c:	bf72e4d2 	svclt	0x0072e4d2
   229a0:	bf72f4ae 	svclt	0x0072f4ae
   229a4:	bf730479 	svclt	0x00730479
   229a8:	bf731444 	svclt	0x00731444
   229ac:	bf7323ff 	svclt	0x007323ff
   229b0:	bf7333b9 	svclt	0x007333b9
   229b4:	bf734363 	svclt	0x00734363
   229b8:	bf73530d 	svclt	0x0073530d
   229bc:	bf7362a6 	svclt	0x007362a6
   229c0:	bf73723f 	svclt	0x0073723f
   229c4:	bf7381c7 	svclt	0x007381c7
   229c8:	bf73913f 	svclt	0x0073913f
   229cc:	bf73a0b6 	svclt	0x0073a0b6
   229d0:	bf73b01d 	svclt	0x0073b01d
   229d4:	bf73bf83 	svclt	0x0073bf83
   229d8:	bf73ced9 	svclt	0x0073ced9
   229dc:	bf73de2f 	svclt	0x0073de2f
   229e0:	bf73ed74 	svclt	0x0073ed74
   229e4:	bf73fca8 	svclt	0x0073fca8
   229e8:	bf740bdd 	svclt	0x00740bdd
   229ec:	bf741b00 	svclt	0x00741b00
   229f0:	bf742a24 	svclt	0x00742a24
   229f4:	bf743937 	svclt	0x00743937
   229f8:	bf744849 	svclt	0x00744849
   229fc:	bf74574b 	svclt	0x0074574b
   22a00:	bf74664d 	svclt	0x0074664d
   22a04:	bf74753e 	svclt	0x0074753e
   22a08:	bf74841f 	svclt	0x0074841f
   22a0c:	bf7492ff 	svclt	0x007492ff
   22a10:	bf74a1cf 	svclt	0x0074a1cf
   22a14:	bf74b09f 	svclt	0x0074b09f
   22a18:	bf74bf5d 	svclt	0x0074bf5d
   22a1c:	bf74ce1c 	svclt	0x0074ce1c
   22a20:	bf74dcca 	svclt	0x0074dcca
   22a24:	bf74eb68 	svclt	0x0074eb68
   22a28:	bf74fa05 	svclt	0x0074fa05
   22a2c:	bf7508a2 	svclt	0x007508a2
   22a30:	bf75172f 	svclt	0x0075172f
   22a34:	bf7525ab 	svclt	0x007525ab
   22a38:	bf753416 	svclt	0x00753416
   22a3c:	bf754291 	svclt	0x00754291
   22a40:	bf7550ec 	svclt	0x007550ec
   22a44:	bf755f46 	svclt	0x00755f46
   22a48:	bf756d8f 	svclt	0x00756d8f
   22a4c:	bf757bd9 	svclt	0x00757bd9
   22a50:	bf758a22 	svclt	0x00758a22
   22a54:	bf75984a 	svclt	0x0075984a
   22a58:	bf75a683 	svclt	0x0075a683
   22a5c:	bf75b49a 	svclt	0x0075b49a
   22a60:	bf75c2b1 	svclt	0x0075c2b1
   22a64:	bf75d0c8 	svclt	0x0075d0c8
   22a68:	bf75dece 	svclt	0x0075dece
   22a6c:	bf75ecc4 	svclt	0x0075ecc4
   22a70:	bf75fab9 	svclt	0x0075fab9
   22a74:	bf76089e 	svclt	0x0076089e
   22a78:	bf761672 	svclt	0x00761672
   22a7c:	bf762457 	svclt	0x00762457
   22a80:	bf76321a 	svclt	0x0076321a
   22a84:	bf763fdd 	svclt	0x00763fdd
   22a88:	bf764d90 	svclt	0x00764d90
   22a8c:	bf765b42 	svclt	0x00765b42
   22a90:	bf7668e4 	svclt	0x007668e4
   22a94:	bf767686 	svclt	0x00767686
   22a98:	bf768416 	svclt	0x00768416
   22a9c:	bf7691a7 	svclt	0x007691a7
   22aa0:	bf769f27 	svclt	0x00769f27
   22aa4:	bf76ac97 	svclt	0x0076ac97
   22aa8:	bf76ba06 	svclt	0x0076ba06
   22aac:	bf76c765 	svclt	0x0076c765
   22ab0:	bf76d4c3 	svclt	0x0076d4c3
   22ab4:	bf76e211 	svclt	0x0076e211
   22ab8:	bf76ef5f 	svclt	0x0076ef5f
   22abc:	bf76fc9c 	svclt	0x0076fc9c
   22ac0:	bf7709c8 	svclt	0x007709c8
   22ac4:	bf7716f4 	svclt	0x007716f4
   22ac8:	bf772410 	svclt	0x00772410
   22acc:	bf77312b 	svclt	0x0077312b
   22ad0:	bf773e36 	svclt	0x00773e36
   22ad4:	bf774b40 	svclt	0x00774b40
   22ad8:	bf77583a 	svclt	0x0077583a
   22adc:	bf776523 	svclt	0x00776523
   22ae0:	bf77720d 	svclt	0x0077720d
   22ae4:	bf777ef6 	svclt	0x00777ef6
   22ae8:	bf778bbd 	svclt	0x00778bbd
   22aec:	bf779896 	svclt	0x00779896
   22af0:	bf77a54c 	svclt	0x0077a54c
   22af4:	bf77b203 	svclt	0x0077b203
   22af8:	bf77beba 	svclt	0x0077beba
   22afc:	bf77cb60 	svclt	0x0077cb60
   22b00:	bf77d7f5 	svclt	0x0077d7f5
   22b04:	bf77e48a 	svclt	0x0077e48a
   22b08:	bf77f10f 	svclt	0x0077f10f
   22b0c:	bf77fd93 	svclt	0x0077fd93
   22b10:	bf780a07 	svclt	0x00780a07
   22b14:	bf78166a 	svclt	0x0078166a
   22b18:	bf7822cd 	svclt	0x007822cd
   22b1c:	bf782f30 	svclt	0x00782f30
   22b20:	bf783b71 	svclt	0x00783b71
   22b24:	bf7847c3 	svclt	0x007847c3
   22b28:	bf7853f4 	svclt	0x007853f4
   22b2c:	bf786024 	svclt	0x00786024
   22b30:	bf786c55 	svclt	0x00786c55
   22b34:	bf787875 	svclt	0x00787875
   22b38:	bf788484 	svclt	0x00788484
   22b3c:	bf789093 	svclt	0x00789093
   22b40:	bf789c91 	svclt	0x00789c91
   22b44:	bf78a88f 	svclt	0x0078a88f
   22b48:	bf78b47c 	svclt	0x0078b47c
   22b4c:	bf78c059 	svclt	0x0078c059
   22b50:	bf78cc36 	svclt	0x0078cc36
   22b54:	bf78d812 	svclt	0x0078d812
   22b58:	bf78e3ce 	svclt	0x0078e3ce
   22b5c:	bf78ef9a 	svclt	0x0078ef9a
   22b60:	bf78fb44 	svclt	0x0078fb44
   22b64:	bf7906ee 	svclt	0x007906ee
   22b68:	bf791299 	svclt	0x00791299
   22b6c:	bf791e32 	svclt	0x00791e32
   22b70:	bf7929bb 	svclt	0x007929bb
   22b74:	bf793544 	svclt	0x00793544
   22b78:	bf7940bc 	svclt	0x007940bc
   22b7c:	bf794c34 	svclt	0x00794c34
   22b80:	bf79579b 	svclt	0x0079579b
   22b84:	bf7962f1 	svclt	0x007962f1
   22b88:	bf796e48 	svclt	0x00796e48
   22b8c:	bf79799e 	svclt	0x0079799e
   22b90:	bf7984e4 	svclt	0x007984e4
   22b94:	bf799019 	svclt	0x00799019
   22b98:	bf799b3d 	svclt	0x00799b3d
   22b9c:	bf79a661 	svclt	0x0079a661
   22ba0:	bf79b185 	svclt	0x0079b185
   22ba4:	bf79bc99 	svclt	0x0079bc99
   22ba8:	bf79c79b 	svclt	0x0079c79b
   22bac:	bf79d29e 	svclt	0x0079d29e
   22bb0:	bf79dd90 	svclt	0x0079dd90
   22bb4:	bf79e881 	svclt	0x0079e881
   22bb8:	bf79f362 	svclt	0x0079f362
   22bbc:	bf79fe33 	svclt	0x0079fe33
   22bc0:	bf7a0903 	svclt	0x007a0903
   22bc4:	bf7a13c2 	svclt	0x007a13c2
   22bc8:	bf7a1e82 	svclt	0x007a1e82
   22bcc:	bf7a2930 	svclt	0x007a2930
   22bd0:	bf7a33df 	svclt	0x007a33df
   22bd4:	bf7a3e7d 	svclt	0x007a3e7d
   22bd8:	bf7a490a 	svclt	0x007a490a
   22bdc:	bf7a5397 	svclt	0x007a5397
   22be0:	bf7a5e24 	svclt	0x007a5e24
   22be4:	bf7a6890 	svclt	0x007a6890
   22be8:	bf7a72fc 	svclt	0x007a72fc
   22bec:	bf7a7d67 	svclt	0x007a7d67
   22bf0:	bf7a87c2 	svclt	0x007a87c2
   22bf4:	bf7a920c 	svclt	0x007a920c
   22bf8:	bf7a9c56 	svclt	0x007a9c56
   22bfc:	bf7aa68f 	svclt	0x007aa68f
   22c00:	bf7ab0c9 	svclt	0x007ab0c9
   22c04:	bf7abaf1 	svclt	0x007abaf1
   22c08:	bf7ac519 	svclt	0x007ac519
   22c0c:	bf7acf31 	svclt	0x007acf31
   22c10:	bf7ad938 	svclt	0x007ad938
   22c14:	bf7ae33f 	svclt	0x007ae33f
   22c18:	bf7aed35 	svclt	0x007aed35
   22c1c:	bf7af72b 	svclt	0x007af72b
   22c20:	bf7b0111 	svclt	0x007b0111
   22c24:	bf7b0ae5 	svclt	0x007b0ae5
   22c28:	bf7b14ba 	svclt	0x007b14ba
   22c2c:	bf7b1e8e 	svclt	0x007b1e8e
   22c30:	bf7b2841 	svclt	0x007b2841
   22c34:	bf7b3205 	svclt	0x007b3205
   22c38:	bf7b3ba7 	svclt	0x007b3ba7
   22c3c:	bf7b454a 	svclt	0x007b454a
   22c40:	bf7b4eec 	svclt	0x007b4eec
   22c44:	bf7b587d 	svclt	0x007b587d
   22c48:	bf7b61fe 	svclt	0x007b61fe
   22c4c:	bf7b6b7f 	svclt	0x007b6b7f
   22c50:	bf7b74ef 	svclt	0x007b74ef
   22c54:	bf7b7e4e 	svclt	0x007b7e4e
   22c58:	bf7b87ad 	svclt	0x007b87ad
   22c5c:	bf7b910c 	svclt	0x007b910c
   22c60:	bf7b9a5b 	svclt	0x007b9a5b
   22c64:	bf7ba398 	svclt	0x007ba398
   22c68:	bf7bacc5 	svclt	0x007bacc5
   22c6c:	bf7bb603 	svclt	0x007bb603
   22c70:	bf7bbf1f 	svclt	0x007bbf1f
   22c74:	bf7bc83b 	svclt	0x007bc83b
   22c78:	bf7bd146 	svclt	0x007bd146
   22c7c:	bf7bda51 	svclt	0x007bda51
   22c80:	bf7be34c 	svclt	0x007be34c
   22c84:	bf7bec46 	svclt	0x007bec46
   22c88:	bf7bf530 	svclt	0x007bf530
   22c8c:	bf7bfe19 	svclt	0x007bfe19
   22c90:	bf7c06e2 	svclt	0x007c06e2
   22c94:	bf7c0fbb 	svclt	0x007c0fbb
   22c98:	bf7c1883 	svclt	0x007c1883
   22c9c:	bf7c213a 	svclt	0x007c213a
   22ca0:	bf7c29e1 	svclt	0x007c29e1
   22ca4:	bf7c3287 	svclt	0x007c3287
   22ca8:	bf7c3b2e 	svclt	0x007c3b2e
   22cac:	bf7c43b3 	svclt	0x007c43b3
   22cb0:	bf7c4c49 	svclt	0x007c4c49
   22cb4:	bf7c54bd 	svclt	0x007c54bd
   22cb8:	bf7c5d42 	svclt	0x007c5d42
   22cbc:	bf7c65a5 	svclt	0x007c65a5
   22cc0:	bf7c6e09 	svclt	0x007c6e09
   22cc4:	bf7c765c 	svclt	0x007c765c
   22cc8:	bf7c7eae 	svclt	0x007c7eae
   22ccc:	bf7c86f0 	svclt	0x007c86f0
   22cd0:	bf7c8f32 	svclt	0x007c8f32
   22cd4:	bf7c9763 	svclt	0x007c9763
   22cd8:	bf7c9f84 	svclt	0x007c9f84
   22cdc:	bf7ca7a4 	svclt	0x007ca7a4
   22ce0:	bf7cafc4 	svclt	0x007cafc4
   22ce4:	bf7cb7c3 	svclt	0x007cb7c3
   22ce8:	bf7cbfc2 	svclt	0x007cbfc2
   22cec:	bf7cc7c1 	svclt	0x007cc7c1
   22cf0:	bf7ccfaf 	svclt	0x007ccfaf
   22cf4:	bf7cd78c 	svclt	0x007cd78c
   22cf8:	bf7cdf6a 	svclt	0x007cdf6a
   22cfc:	bf7ce736 	svclt	0x007ce736
   22d00:	bf7cef03 	svclt	0x007cef03
   22d04:	bf7cf6be 	svclt	0x007cf6be
   22d08:	bf7cfe7a 	svclt	0x007cfe7a
   22d0c:	bf7d0614 	svclt	0x007d0614
   22d10:	bf7d0dbf 	svclt	0x007d0dbf
   22d14:	bf7d1559 	svclt	0x007d1559
   22d18:	bf7d1ce3 	svclt	0x007d1ce3
   22d1c:	bf7d245b 	svclt	0x007d245b
   22d20:	bf7d2bd4 	svclt	0x007d2bd4
   22d24:	bf7d334c 	svclt	0x007d334c
   22d28:	bf7d3ab4 	svclt	0x007d3ab4
   22d2c:	bf7d420b 	svclt	0x007d420b
   22d30:	bf7d4952 	svclt	0x007d4952
   22d34:	bf7d50a9 	svclt	0x007d50a9
   22d38:	bf7d57de 	svclt	0x007d57de
   22d3c:	bf7d5f14 	svclt	0x007d5f14
   22d40:	bf7d6638 	svclt	0x007d6638
   22d44:	bf7d6d5d 	svclt	0x007d6d5d
   22d48:	bf7d7471 	svclt	0x007d7471
   22d4c:	bf7d7b85 	svclt	0x007d7b85
   22d50:	bf7d8288 	svclt	0x007d8288
   22d54:	bf7d897a 	svclt	0x007d897a
   22d58:	bf7d906d 	svclt	0x007d906d
   22d5c:	bf7d974e 	svclt	0x007d974e
   22d60:	bf7d9e30 	svclt	0x007d9e30
   22d64:	bf7da501 	svclt	0x007da501
   22d68:	bf7dabd2 	svclt	0x007dabd2
   22d6c:	bf7db292 	svclt	0x007db292
   22d70:	bf7db941 	svclt	0x007db941
   22d74:	bf7dbff0 	svclt	0x007dbff0
   22d78:	bf7dc68f 	svclt	0x007dc68f
   22d7c:	bf7dcd1c 	svclt	0x007dcd1c
   22d80:	bf7dd3aa 	svclt	0x007dd3aa
   22d84:	bf7dda38 	svclt	0x007dda38
   22d88:	bf7de0b5 	svclt	0x007de0b5
   22d8c:	bf7de721 	svclt	0x007de721
   22d90:	bf7ded8d 	svclt	0x007ded8d
   22d94:	bf7df3e9 	svclt	0x007df3e9
   22d98:	bf7dfa33 	svclt	0x007dfa33
   22d9c:	bf7e007e 	svclt	0x007e007e
   22da0:	bf7e06c8 	svclt	0x007e06c8
   22da4:	bf7e0cf2 	svclt	0x007e0cf2
   22da8:	bf7e132b 	svclt	0x007e132b
   22dac:	bf7e1944 	svclt	0x007e1944
   22db0:	bf7e1f5c 	svclt	0x007e1f5c
   22db4:	bf7e2574 	svclt	0x007e2574
   22db8:	bf7e2b6b 	svclt	0x007e2b6b
   22dbc:	bf7e3172 	svclt	0x007e3172
   22dc0:	bf7e3758 	svclt	0x007e3758
   22dc4:	bf7e3d3e 	svclt	0x007e3d3e
   22dc8:	bf7e4324 	svclt	0x007e4324
   22dcc:	bf7e48f9 	svclt	0x007e48f9
   22dd0:	bf7e4ebe 	svclt	0x007e4ebe
   22dd4:	bf7e5482 	svclt	0x007e5482
   22dd8:	bf7e5a36 	svclt	0x007e5a36
   22ddc:	bf7e5fe9 	svclt	0x007e5fe9
   22de0:	bf7e658c 	svclt	0x007e658c
   22de4:	bf7e6b1e 	svclt	0x007e6b1e
   22de8:	bf7e70b0 	svclt	0x007e70b0
   22dec:	bf7e7632 	svclt	0x007e7632
   22df0:	bf7e7bb3 	svclt	0x007e7bb3
   22df4:	bf7e8124 	svclt	0x007e8124
   22df8:	bf7e8683 	svclt	0x007e8683
   22dfc:	bf7e8be3 	svclt	0x007e8be3
   22e00:	bf7e9143 	svclt	0x007e9143
   22e04:	bf7e9681 	svclt	0x007e9681
   22e08:	bf7e9bd0 	svclt	0x007e9bd0
   22e0c:	bf7ea0fd 	svclt	0x007ea0fd
   22e10:	bf7ea62b 	svclt	0x007ea62b
   22e14:	bf7eab58 	svclt	0x007eab58
   22e18:	bf7eb064 	svclt	0x007eb064
   22e1c:	bf7eb580 	svclt	0x007eb580
   22e20:	bf7eba7c 	svclt	0x007eba7c
   22e24:	bf7ebf77 	svclt	0x007ebf77
   22e28:	bf7ec472 	svclt	0x007ec472
   22e2c:	bf7ec95c 	svclt	0x007ec95c
   22e30:	bf7ece36 	svclt	0x007ece36
   22e34:	bf7ed30f 	svclt	0x007ed30f
   22e38:	bf7ed7d8 	svclt	0x007ed7d8
   22e3c:	bf7edc90 	svclt	0x007edc90
   22e40:	bf7ee148 	svclt	0x007ee148
   22e44:	bf7ee600 	svclt	0x007ee600
   22e48:	bf7eea96 	svclt	0x007eea96
   22e4c:	bf7eef3d 	svclt	0x007eef3d
   22e50:	bf7ef3c3 	svclt	0x007ef3c3
   22e54:	bf7ef848 	svclt	0x007ef848
   22e58:	bf7efcce 	svclt	0x007efcce
   22e5c:	bf7f0143 	svclt	0x007f0143
   22e60:	bf7f05a7 	svclt	0x007f05a7
   22e64:	bf7f0a0b 	svclt	0x007f0a0b
   22e68:	bf7f0e5e 	svclt	0x007f0e5e
   22e6c:	bf7f12a1 	svclt	0x007f12a1
   22e70:	bf7f16e3 	svclt	0x007f16e3
   22e74:	bf7f1b15 	svclt	0x007f1b15
   22e78:	bf7f1f47 	svclt	0x007f1f47
   22e7c:	bf7f2368 	svclt	0x007f2368
   22e80:	bf7f2789 	svclt	0x007f2789
   22e84:	bf7f2b99 	svclt	0x007f2b99
   22e88:	bf7f2f98 	svclt	0x007f2f98
   22e8c:	bf7f3398 	svclt	0x007f3398
   22e90:	bf7f3786 	svclt	0x007f3786
   22e94:	bf7f3b75 	svclt	0x007f3b75
   22e98:	bf7f3f53 	svclt	0x007f3f53
   22e9c:	bf7f4331 	svclt	0x007f4331
   22ea0:	bf7f46ed 	svclt	0x007f46ed
   22ea4:	bf7f4aba 	svclt	0x007f4aba
   22ea8:	bf7f4e66 	svclt	0x007f4e66
   22eac:	bf7f5222 	svclt	0x007f5222
   22eb0:	bf7f55bd 	svclt	0x007f55bd
   22eb4:	bf7f5958 	svclt	0x007f5958
   22eb8:	bf7f5ce2 	svclt	0x007f5ce2
   22ebc:	bf7f606b 	svclt	0x007f606b
   22ec0:	bf7f63e5 	svclt	0x007f63e5
   22ec4:	bf7f675e 	svclt	0x007f675e
   22ec8:	bf7f6ac6 	svclt	0x007f6ac6
   22ecc:	bf7f6e2f 	svclt	0x007f6e2f
   22ed0:	bf7f7176 	svclt	0x007f7176
   22ed4:	bf7f74cd 	svclt	0x007f74cd
   22ed8:	bf7f7803 	svclt	0x007f7803
   22edc:	bf7f7b39 	svclt	0x007f7b39
   22ee0:	bf7f7e6f 	svclt	0x007f7e6f
   22ee4:	bf7f8195 	svclt	0x007f8195
   22ee8:	bf7f84a9 	svclt	0x007f84a9
   22eec:	bf7f87be 	svclt	0x007f87be
   22ef0:	bf7f8ac2 	svclt	0x007f8ac2
   22ef4:	bf7f8dc5 	svclt	0x007f8dc5
   22ef8:	bf7f90b8 	svclt	0x007f90b8
   22efc:	bf7f939a 	svclt	0x007f939a
   22f00:	bf7f967d 	svclt	0x007f967d
   22f04:	bf7f994e 	svclt	0x007f994e
   22f08:	bf7f9c20 	svclt	0x007f9c20
   22f0c:	bf7f9ee0 	svclt	0x007f9ee0
   22f10:	bf7fa190 	svclt	0x007fa190
   22f14:	bf7fa440 	svclt	0x007fa440
   22f18:	bf7fa6df 	svclt	0x007fa6df
   22f1c:	bf7fa97e 	svclt	0x007fa97e
   22f20:	bf7fac0c 	svclt	0x007fac0c
   22f24:	bf7fae9b 	svclt	0x007fae9b
   22f28:	bf7fb107 	svclt	0x007fb107
   22f2c:	bf7fb385 	svclt	0x007fb385
   22f30:	bf7fb5f2 	svclt	0x007fb5f2
   22f34:	bf7fb84e 	svclt	0x007fb84e
   22f38:	bf7fba99 	svclt	0x007fba99
   22f3c:	bf7fbce4 	svclt	0x007fbce4
   22f40:	bf7fbf2f 	svclt	0x007fbf2f
   22f44:	bf7fc16a 	svclt	0x007fc16a
   22f48:	bf7fc393 	svclt	0x007fc393
   22f4c:	bf7fc5ac 	svclt	0x007fc5ac
   22f50:	bf7fc7c5 	svclt	0x007fc7c5
   22f54:	bf7fc9de 	svclt	0x007fc9de
   22f58:	bf7fcbe6 	svclt	0x007fcbe6
   22f5c:	bf7fcddd 	svclt	0x007fcddd
   22f60:	bf7fcfd5 	svclt	0x007fcfd5
   22f64:	bf7fd1bb 	svclt	0x007fd1bb
   22f68:	bf7fd391 	svclt	0x007fd391
   22f6c:	bf7fd567 	svclt	0x007fd567
   22f70:	bf7fd73d 	svclt	0x007fd73d
   22f74:	bf7fd8f1 	svclt	0x007fd8f1
   22f78:	bf7fdab6 	svclt	0x007fdab6
   22f7c:	bf7fdc59 	svclt	0x007fdc59
   22f80:	bf7fddfd 	svclt	0x007fddfd
   22f84:	bf7fdfa0 	svclt	0x007fdfa0
   22f88:	bf7fe122 	svclt	0x007fe122
   22f8c:	bf7fe2b5 	svclt	0x007fe2b5
   22f90:	bf7fe426 	svclt	0x007fe426
   22f94:	bf7fe597 	svclt	0x007fe597
   22f98:	bf7fe708 	svclt	0x007fe708
   22f9c:	bf7fe868 	svclt	0x007fe868
   22fa0:	bf7fe9b8 	svclt	0x007fe9b8
   22fa4:	bf7feb07 	svclt	0x007feb07
   22fa8:	bf7fec46 	svclt	0x007fec46
   22fac:	bf7fed74 	svclt	0x007fed74
   22fb0:	bf7feea2 	svclt	0x007feea2
   22fb4:	bf7fefd0 	svclt	0x007fefd0
   22fb8:	bf7ff0dc 	svclt	0x007ff0dc
   22fbc:	bf7ff1fa 	svclt	0x007ff1fa
   22fc0:	bf7ff2f5 	svclt	0x007ff2f5
   22fc4:	bf7ff3f1 	svclt	0x007ff3f1
   22fc8:	bf7ff4ed 	svclt	0x007ff4ed
   22fcc:	bf7ff5c7 	svclt	0x007ff5c7
   22fd0:	bf7ff6b2 	svclt	0x007ff6b2
   22fd4:	bf7ff77b 	svclt	0x007ff77b
   22fd8:	bf7ff844 	svclt	0x007ff844
   22fdc:	bf7ff90e 	svclt	0x007ff90e
   22fe0:	bf7ff9c6 	svclt	0x007ff9c6
   22fe4:	bf7ffa6e 	svclt	0x007ffa6e
   22fe8:	bf7ffb16 	svclt	0x007ffb16
   22fec:	bf7ffbad 	svclt	0x007ffbad
   22ff0:	bf7ffc33 	svclt	0x007ffc33
   22ff4:	bf7ffcb9 	svclt	0x007ffcb9
   22ff8:	bf7ffd3f 	svclt	0x007ffd3f
   22ffc:	bf7ffda4 	svclt	0x007ffda4
   23000:	bf7ffe19 	svclt	0x007ffe19
   23004:	bf7ffe6d 	svclt	0x007ffe6d
   23008:	bf7ffec1 	svclt	0x007ffec1
   2300c:	bf7fff15 	svclt	0x007fff15
   23010:	bf7fff47 	svclt	0x007fff47
   23014:	bf7fff8b 	svclt	0x007fff8b
   23018:	bf7fffac 	svclt	0x007fffac
   2301c:	bf7fffce 	svclt	0x007fffce
   23020:	bf7fffef 	svclt	0x007fffef
   23024:	bf800000 	svclt	0x00800000
   23028:	bf800000 	svclt	0x00800000
   2302c:	bf800000 	svclt	0x00800000
   23030:	bf7fffef 	svclt	0x007fffef
   23034:	bf7fffce 	svclt	0x007fffce
   23038:	bf7fffac 	svclt	0x007fffac
   2303c:	bf7fff8b 	svclt	0x007fff8b
   23040:	bf7fff47 	svclt	0x007fff47
   23044:	bf7fff15 	svclt	0x007fff15
   23048:	bf7ffec1 	svclt	0x007ffec1
   2304c:	bf7ffe6d 	svclt	0x007ffe6d
   23050:	bf7ffe19 	svclt	0x007ffe19
   23054:	bf7ffda4 	svclt	0x007ffda4
   23058:	bf7ffd3f 	svclt	0x007ffd3f
   2305c:	bf7ffcb9 	svclt	0x007ffcb9
   23060:	bf7ffc33 	svclt	0x007ffc33
   23064:	bf7ffbad 	svclt	0x007ffbad
   23068:	bf7ffb16 	svclt	0x007ffb16
   2306c:	bf7ffa6e 	svclt	0x007ffa6e
   23070:	bf7ff9c6 	svclt	0x007ff9c6
   23074:	bf7ff90e 	svclt	0x007ff90e
   23078:	bf7ff844 	svclt	0x007ff844
   2307c:	bf7ff77b 	svclt	0x007ff77b
   23080:	bf7ff6b2 	svclt	0x007ff6b2
   23084:	bf7ff5c7 	svclt	0x007ff5c7
   23088:	bf7ff4ed 	svclt	0x007ff4ed
   2308c:	bf7ff3f1 	svclt	0x007ff3f1
   23090:	bf7ff2f5 	svclt	0x007ff2f5
   23094:	bf7ff1fa 	svclt	0x007ff1fa
   23098:	bf7ff0dc 	svclt	0x007ff0dc
   2309c:	bf7fefd0 	svclt	0x007fefd0
   230a0:	bf7feea2 	svclt	0x007feea2
   230a4:	bf7fed74 	svclt	0x007fed74
   230a8:	bf7fec46 	svclt	0x007fec46
   230ac:	bf7feb07 	svclt	0x007feb07
   230b0:	bf7fe9b8 	svclt	0x007fe9b8
   230b4:	bf7fe868 	svclt	0x007fe868
   230b8:	bf7fe708 	svclt	0x007fe708
   230bc:	bf7fe597 	svclt	0x007fe597
   230c0:	bf7fe426 	svclt	0x007fe426
   230c4:	bf7fe2b5 	svclt	0x007fe2b5
   230c8:	bf7fe122 	svclt	0x007fe122
   230cc:	bf7fdfa0 	svclt	0x007fdfa0
   230d0:	bf7fddfd 	svclt	0x007fddfd
   230d4:	bf7fdc59 	svclt	0x007fdc59
   230d8:	bf7fdab6 	svclt	0x007fdab6
   230dc:	bf7fd8f1 	svclt	0x007fd8f1
   230e0:	bf7fd73d 	svclt	0x007fd73d
   230e4:	bf7fd567 	svclt	0x007fd567
   230e8:	bf7fd391 	svclt	0x007fd391
   230ec:	bf7fd1bb 	svclt	0x007fd1bb
   230f0:	bf7fcfd5 	svclt	0x007fcfd5
   230f4:	bf7fcddd 	svclt	0x007fcddd
   230f8:	bf7fcbe6 	svclt	0x007fcbe6
   230fc:	bf7fc9de 	svclt	0x007fc9de
   23100:	bf7fc7c5 	svclt	0x007fc7c5
   23104:	bf7fc5ac 	svclt	0x007fc5ac
   23108:	bf7fc393 	svclt	0x007fc393
   2310c:	bf7fc16a 	svclt	0x007fc16a
   23110:	bf7fbf2f 	svclt	0x007fbf2f
   23114:	bf7fbce4 	svclt	0x007fbce4
   23118:	bf7fba99 	svclt	0x007fba99
   2311c:	bf7fb84e 	svclt	0x007fb84e
   23120:	bf7fb5f2 	svclt	0x007fb5f2
   23124:	bf7fb385 	svclt	0x007fb385
   23128:	bf7fb107 	svclt	0x007fb107
   2312c:	bf7fae9b 	svclt	0x007fae9b
   23130:	bf7fac0c 	svclt	0x007fac0c
   23134:	bf7fa97e 	svclt	0x007fa97e
   23138:	bf7fa6df 	svclt	0x007fa6df
   2313c:	bf7fa440 	svclt	0x007fa440
   23140:	bf7fa190 	svclt	0x007fa190
   23144:	bf7f9ee0 	svclt	0x007f9ee0
   23148:	bf7f9c20 	svclt	0x007f9c20
   2314c:	bf7f994e 	svclt	0x007f994e
   23150:	bf7f967d 	svclt	0x007f967d
   23154:	bf7f939a 	svclt	0x007f939a
   23158:	bf7f90b8 	svclt	0x007f90b8
   2315c:	bf7f8dc5 	svclt	0x007f8dc5
   23160:	bf7f8ac2 	svclt	0x007f8ac2
   23164:	bf7f87be 	svclt	0x007f87be
   23168:	bf7f84a9 	svclt	0x007f84a9
   2316c:	bf7f8195 	svclt	0x007f8195
   23170:	bf7f7e6f 	svclt	0x007f7e6f
   23174:	bf7f7b39 	svclt	0x007f7b39
   23178:	bf7f7803 	svclt	0x007f7803
   2317c:	bf7f74cd 	svclt	0x007f74cd
   23180:	bf7f7176 	svclt	0x007f7176
   23184:	bf7f6e2f 	svclt	0x007f6e2f
   23188:	bf7f6ac6 	svclt	0x007f6ac6
   2318c:	bf7f675e 	svclt	0x007f675e
   23190:	bf7f63e5 	svclt	0x007f63e5
   23194:	bf7f606b 	svclt	0x007f606b
   23198:	bf7f5ce2 	svclt	0x007f5ce2
   2319c:	bf7f5958 	svclt	0x007f5958
   231a0:	bf7f55bd 	svclt	0x007f55bd
   231a4:	bf7f5222 	svclt	0x007f5222
   231a8:	bf7f4e66 	svclt	0x007f4e66
   231ac:	bf7f4aba 	svclt	0x007f4aba
   231b0:	bf7f46ed 	svclt	0x007f46ed
   231b4:	bf7f4331 	svclt	0x007f4331
   231b8:	bf7f3f53 	svclt	0x007f3f53
   231bc:	bf7f3b75 	svclt	0x007f3b75
   231c0:	bf7f3786 	svclt	0x007f3786
   231c4:	bf7f3398 	svclt	0x007f3398
   231c8:	bf7f2f98 	svclt	0x007f2f98
   231cc:	bf7f2b99 	svclt	0x007f2b99
   231d0:	bf7f2789 	svclt	0x007f2789
   231d4:	bf7f2368 	svclt	0x007f2368
   231d8:	bf7f1f47 	svclt	0x007f1f47
   231dc:	bf7f1b15 	svclt	0x007f1b15
   231e0:	bf7f16e3 	svclt	0x007f16e3
   231e4:	bf7f12a1 	svclt	0x007f12a1
   231e8:	bf7f0e5e 	svclt	0x007f0e5e
   231ec:	bf7f0a0b 	svclt	0x007f0a0b
   231f0:	bf7f05a7 	svclt	0x007f05a7
   231f4:	bf7f0143 	svclt	0x007f0143
   231f8:	bf7efcce 	svclt	0x007efcce
   231fc:	bf7ef848 	svclt	0x007ef848
   23200:	bf7ef3c3 	svclt	0x007ef3c3
   23204:	bf7eef3d 	svclt	0x007eef3d
   23208:	bf7eea96 	svclt	0x007eea96
   2320c:	bf7ee600 	svclt	0x007ee600
   23210:	bf7ee148 	svclt	0x007ee148
   23214:	bf7edc90 	svclt	0x007edc90
   23218:	bf7ed7d8 	svclt	0x007ed7d8
   2321c:	bf7ed30f 	svclt	0x007ed30f
   23220:	bf7ece36 	svclt	0x007ece36
   23224:	bf7ec95c 	svclt	0x007ec95c
   23228:	bf7ec472 	svclt	0x007ec472
   2322c:	bf7ebf77 	svclt	0x007ebf77
   23230:	bf7eba7c 	svclt	0x007eba7c
   23234:	bf7eb580 	svclt	0x007eb580
   23238:	bf7eb064 	svclt	0x007eb064
   2323c:	bf7eab58 	svclt	0x007eab58
   23240:	bf7ea62b 	svclt	0x007ea62b
   23244:	bf7ea0fd 	svclt	0x007ea0fd
   23248:	bf7e9bd0 	svclt	0x007e9bd0
   2324c:	bf7e9681 	svclt	0x007e9681
   23250:	bf7e9143 	svclt	0x007e9143
   23254:	bf7e8be3 	svclt	0x007e8be3
   23258:	bf7e8683 	svclt	0x007e8683
   2325c:	bf7e8124 	svclt	0x007e8124
   23260:	bf7e7bb3 	svclt	0x007e7bb3
   23264:	bf7e7632 	svclt	0x007e7632
   23268:	bf7e70b0 	svclt	0x007e70b0
   2326c:	bf7e6b1e 	svclt	0x007e6b1e
   23270:	bf7e658c 	svclt	0x007e658c
   23274:	bf7e5fe9 	svclt	0x007e5fe9
   23278:	bf7e5a36 	svclt	0x007e5a36
   2327c:	bf7e5482 	svclt	0x007e5482
   23280:	bf7e4ebe 	svclt	0x007e4ebe
   23284:	bf7e48f9 	svclt	0x007e48f9
   23288:	bf7e4324 	svclt	0x007e4324
   2328c:	bf7e3d3e 	svclt	0x007e3d3e
   23290:	bf7e3758 	svclt	0x007e3758
   23294:	bf7e3172 	svclt	0x007e3172
   23298:	bf7e2b6b 	svclt	0x007e2b6b
   2329c:	bf7e2574 	svclt	0x007e2574
   232a0:	bf7e1f5c 	svclt	0x007e1f5c
   232a4:	bf7e1944 	svclt	0x007e1944
   232a8:	bf7e132b 	svclt	0x007e132b
   232ac:	bf7e0cf2 	svclt	0x007e0cf2
   232b0:	bf7e06c8 	svclt	0x007e06c8
   232b4:	bf7e007e 	svclt	0x007e007e
   232b8:	bf7dfa33 	svclt	0x007dfa33
   232bc:	bf7df3e9 	svclt	0x007df3e9
   232c0:	bf7ded8d 	svclt	0x007ded8d
   232c4:	bf7de721 	svclt	0x007de721
   232c8:	bf7de0b5 	svclt	0x007de0b5
   232cc:	bf7dda38 	svclt	0x007dda38
   232d0:	bf7dd3aa 	svclt	0x007dd3aa
   232d4:	bf7dcd1c 	svclt	0x007dcd1c
   232d8:	bf7dc68f 	svclt	0x007dc68f
   232dc:	bf7dbff0 	svclt	0x007dbff0
   232e0:	bf7db941 	svclt	0x007db941
   232e4:	bf7db292 	svclt	0x007db292
   232e8:	bf7dabd2 	svclt	0x007dabd2
   232ec:	bf7da501 	svclt	0x007da501
   232f0:	bf7d9e30 	svclt	0x007d9e30
   232f4:	bf7d974e 	svclt	0x007d974e
   232f8:	bf7d906d 	svclt	0x007d906d
   232fc:	bf7d897a 	svclt	0x007d897a
   23300:	bf7d8288 	svclt	0x007d8288
   23304:	bf7d7b85 	svclt	0x007d7b85
   23308:	bf7d7471 	svclt	0x007d7471
   2330c:	bf7d6d5d 	svclt	0x007d6d5d
   23310:	bf7d6638 	svclt	0x007d6638
   23314:	bf7d5f14 	svclt	0x007d5f14
   23318:	bf7d57de 	svclt	0x007d57de
   2331c:	bf7d50a9 	svclt	0x007d50a9
   23320:	bf7d4952 	svclt	0x007d4952
   23324:	bf7d420b 	svclt	0x007d420b
   23328:	bf7d3ab4 	svclt	0x007d3ab4
   2332c:	bf7d334c 	svclt	0x007d334c
   23330:	bf7d2bd4 	svclt	0x007d2bd4
   23334:	bf7d245b 	svclt	0x007d245b
   23338:	bf7d1ce3 	svclt	0x007d1ce3
   2333c:	bf7d1559 	svclt	0x007d1559
   23340:	bf7d0dbf 	svclt	0x007d0dbf
   23344:	bf7d0614 	svclt	0x007d0614
   23348:	bf7cfe7a 	svclt	0x007cfe7a
   2334c:	bf7cf6be 	svclt	0x007cf6be
   23350:	bf7cef03 	svclt	0x007cef03
   23354:	bf7ce736 	svclt	0x007ce736
   23358:	bf7cdf6a 	svclt	0x007cdf6a
   2335c:	bf7cd78c 	svclt	0x007cd78c
   23360:	bf7ccfaf 	svclt	0x007ccfaf
   23364:	bf7cc7c1 	svclt	0x007cc7c1
   23368:	bf7cbfc2 	svclt	0x007cbfc2
   2336c:	bf7cb7c3 	svclt	0x007cb7c3
   23370:	bf7cafc4 	svclt	0x007cafc4
   23374:	bf7ca7a4 	svclt	0x007ca7a4
   23378:	bf7c9f84 	svclt	0x007c9f84
   2337c:	bf7c9763 	svclt	0x007c9763
   23380:	bf7c8f32 	svclt	0x007c8f32
   23384:	bf7c86f0 	svclt	0x007c86f0
   23388:	bf7c7eae 	svclt	0x007c7eae
   2338c:	bf7c765c 	svclt	0x007c765c
   23390:	bf7c6e09 	svclt	0x007c6e09
   23394:	bf7c65a5 	svclt	0x007c65a5
   23398:	bf7c5d42 	svclt	0x007c5d42
   2339c:	bf7c54bd 	svclt	0x007c54bd
   233a0:	bf7c4c49 	svclt	0x007c4c49
   233a4:	bf7c43b3 	svclt	0x007c43b3
   233a8:	bf7c3b2e 	svclt	0x007c3b2e
   233ac:	bf7c3287 	svclt	0x007c3287
   233b0:	bf7c29e1 	svclt	0x007c29e1
   233b4:	bf7c213a 	svclt	0x007c213a
   233b8:	bf7c1883 	svclt	0x007c1883
   233bc:	bf7c0fbb 	svclt	0x007c0fbb
   233c0:	bf7c06e2 	svclt	0x007c06e2
   233c4:	bf7bfe19 	svclt	0x007bfe19
   233c8:	bf7bf530 	svclt	0x007bf530
   233cc:	bf7bec46 	svclt	0x007bec46
   233d0:	bf7be34c 	svclt	0x007be34c
   233d4:	bf7bda51 	svclt	0x007bda51
   233d8:	bf7bd146 	svclt	0x007bd146
   233dc:	bf7bc83b 	svclt	0x007bc83b
   233e0:	bf7bbf1f 	svclt	0x007bbf1f
   233e4:	bf7bb603 	svclt	0x007bb603
   233e8:	bf7bacc5 	svclt	0x007bacc5
   233ec:	bf7ba398 	svclt	0x007ba398
   233f0:	bf7b9a5b 	svclt	0x007b9a5b
   233f4:	bf7b910c 	svclt	0x007b910c
   233f8:	bf7b87ad 	svclt	0x007b87ad
   233fc:	bf7b7e4e 	svclt	0x007b7e4e
   23400:	bf7b74ef 	svclt	0x007b74ef
   23404:	bf7b6b7f 	svclt	0x007b6b7f
   23408:	bf7b61fe 	svclt	0x007b61fe
   2340c:	bf7b587d 	svclt	0x007b587d
   23410:	bf7b4eec 	svclt	0x007b4eec
   23414:	bf7b454a 	svclt	0x007b454a
   23418:	bf7b3ba7 	svclt	0x007b3ba7
   2341c:	bf7b3205 	svclt	0x007b3205
   23420:	bf7b2841 	svclt	0x007b2841
   23424:	bf7b1e8e 	svclt	0x007b1e8e
   23428:	bf7b14ba 	svclt	0x007b14ba
   2342c:	bf7b0ae5 	svclt	0x007b0ae5
   23430:	bf7b0111 	svclt	0x007b0111
   23434:	bf7af72b 	svclt	0x007af72b
   23438:	bf7aed35 	svclt	0x007aed35
   2343c:	bf7ae33f 	svclt	0x007ae33f
   23440:	bf7ad938 	svclt	0x007ad938
   23444:	bf7acf31 	svclt	0x007acf31
   23448:	bf7ac519 	svclt	0x007ac519
   2344c:	bf7abaf1 	svclt	0x007abaf1
   23450:	bf7ab0c9 	svclt	0x007ab0c9
   23454:	bf7aa68f 	svclt	0x007aa68f
   23458:	bf7a9c56 	svclt	0x007a9c56
   2345c:	bf7a920c 	svclt	0x007a920c
   23460:	bf7a87c2 	svclt	0x007a87c2
   23464:	bf7a7d67 	svclt	0x007a7d67
   23468:	bf7a72fc 	svclt	0x007a72fc
   2346c:	bf7a6890 	svclt	0x007a6890
   23470:	bf7a5e24 	svclt	0x007a5e24
   23474:	bf7a5397 	svclt	0x007a5397
   23478:	bf7a490a 	svclt	0x007a490a
   2347c:	bf7a3e7d 	svclt	0x007a3e7d
   23480:	bf7a33df 	svclt	0x007a33df
   23484:	bf7a2930 	svclt	0x007a2930
   23488:	bf7a1e82 	svclt	0x007a1e82
   2348c:	bf7a13c2 	svclt	0x007a13c2
   23490:	bf7a0903 	svclt	0x007a0903
   23494:	bf79fe33 	svclt	0x0079fe33
   23498:	bf79f362 	svclt	0x0079f362
   2349c:	bf79e881 	svclt	0x0079e881
   234a0:	bf79dd90 	svclt	0x0079dd90
   234a4:	bf79d29e 	svclt	0x0079d29e
   234a8:	bf79c79b 	svclt	0x0079c79b
   234ac:	bf79bc99 	svclt	0x0079bc99
   234b0:	bf79b185 	svclt	0x0079b185
   234b4:	bf79a661 	svclt	0x0079a661
   234b8:	bf799b3d 	svclt	0x00799b3d
   234bc:	bf799019 	svclt	0x00799019
   234c0:	bf7984e4 	svclt	0x007984e4
   234c4:	bf79799e 	svclt	0x0079799e
   234c8:	bf796e48 	svclt	0x00796e48
   234cc:	bf7962f1 	svclt	0x007962f1
   234d0:	bf79579b 	svclt	0x0079579b
   234d4:	bf794c34 	svclt	0x00794c34
   234d8:	bf7940bc 	svclt	0x007940bc
   234dc:	bf793544 	svclt	0x00793544
   234e0:	bf7929bb 	svclt	0x007929bb
   234e4:	bf791e32 	svclt	0x00791e32
   234e8:	bf791299 	svclt	0x00791299
   234ec:	bf7906ee 	svclt	0x007906ee
   234f0:	bf78fb44 	svclt	0x0078fb44
   234f4:	bf78ef9a 	svclt	0x0078ef9a
   234f8:	bf78e3ce 	svclt	0x0078e3ce
   234fc:	bf78d812 	svclt	0x0078d812
   23500:	bf78cc36 	svclt	0x0078cc36
   23504:	bf78c059 	svclt	0x0078c059
   23508:	bf78b47c 	svclt	0x0078b47c
   2350c:	bf78a88f 	svclt	0x0078a88f
   23510:	bf789c91 	svclt	0x00789c91
   23514:	bf789093 	svclt	0x00789093
   23518:	bf788484 	svclt	0x00788484
   2351c:	bf787875 	svclt	0x00787875
   23520:	bf786c55 	svclt	0x00786c55
   23524:	bf786024 	svclt	0x00786024
   23528:	bf7853f4 	svclt	0x007853f4
   2352c:	bf7847c3 	svclt	0x007847c3
   23530:	bf783b71 	svclt	0x00783b71
   23534:	bf782f30 	svclt	0x00782f30
   23538:	bf7822cd 	svclt	0x007822cd
   2353c:	bf78166a 	svclt	0x0078166a
   23540:	bf780a07 	svclt	0x00780a07
   23544:	bf77fd93 	svclt	0x0077fd93
   23548:	bf77f10f 	svclt	0x0077f10f
   2354c:	bf77e48a 	svclt	0x0077e48a
   23550:	bf77d7f5 	svclt	0x0077d7f5
   23554:	bf77cb60 	svclt	0x0077cb60
   23558:	bf77beba 	svclt	0x0077beba
   2355c:	bf77b203 	svclt	0x0077b203
   23560:	bf77a54c 	svclt	0x0077a54c
   23564:	bf779896 	svclt	0x00779896
   23568:	bf778bbd 	svclt	0x00778bbd
   2356c:	bf777ef6 	svclt	0x00777ef6
   23570:	bf77720d 	svclt	0x0077720d
   23574:	bf776523 	svclt	0x00776523
   23578:	bf77583a 	svclt	0x0077583a
   2357c:	bf774b40 	svclt	0x00774b40
   23580:	bf773e36 	svclt	0x00773e36
   23584:	bf77312b 	svclt	0x0077312b
   23588:	bf772410 	svclt	0x00772410
   2358c:	bf7716f4 	svclt	0x007716f4
   23590:	bf7709c8 	svclt	0x007709c8
   23594:	bf76fc9c 	svclt	0x0076fc9c
   23598:	bf76ef5f 	svclt	0x0076ef5f
   2359c:	bf76e211 	svclt	0x0076e211
   235a0:	bf76d4c3 	svclt	0x0076d4c3
   235a4:	bf76c765 	svclt	0x0076c765
   235a8:	bf76ba06 	svclt	0x0076ba06
   235ac:	bf76ac97 	svclt	0x0076ac97
   235b0:	bf769f27 	svclt	0x00769f27
   235b4:	bf7691a7 	svclt	0x007691a7
   235b8:	bf768416 	svclt	0x00768416
   235bc:	bf767686 	svclt	0x00767686
   235c0:	bf7668e4 	svclt	0x007668e4
   235c4:	bf765b42 	svclt	0x00765b42
   235c8:	bf764d90 	svclt	0x00764d90
   235cc:	bf763fdd 	svclt	0x00763fdd
   235d0:	bf76321a 	svclt	0x0076321a
   235d4:	bf762457 	svclt	0x00762457
   235d8:	bf761672 	svclt	0x00761672
   235dc:	bf76089e 	svclt	0x0076089e
   235e0:	bf75fab9 	svclt	0x0075fab9
   235e4:	bf75ecc4 	svclt	0x0075ecc4
   235e8:	bf75dece 	svclt	0x0075dece
   235ec:	bf75d0c8 	svclt	0x0075d0c8
   235f0:	bf75c2b1 	svclt	0x0075c2b1
   235f4:	bf75b49a 	svclt	0x0075b49a
   235f8:	bf75a683 	svclt	0x0075a683
   235fc:	bf75984a 	svclt	0x0075984a
   23600:	bf758a22 	svclt	0x00758a22
   23604:	bf757bd9 	svclt	0x00757bd9
   23608:	bf756d8f 	svclt	0x00756d8f
   2360c:	bf755f46 	svclt	0x00755f46
   23610:	bf7550ec 	svclt	0x007550ec
   23614:	bf754291 	svclt	0x00754291
   23618:	bf753416 	svclt	0x00753416
   2361c:	bf7525ab 	svclt	0x007525ab
   23620:	bf75172f 	svclt	0x0075172f
   23624:	bf7508a2 	svclt	0x007508a2
   23628:	bf74fa05 	svclt	0x0074fa05
   2362c:	bf74eb68 	svclt	0x0074eb68
   23630:	bf74dcca 	svclt	0x0074dcca
   23634:	bf74ce1c 	svclt	0x0074ce1c
   23638:	bf74bf5d 	svclt	0x0074bf5d
   2363c:	bf74b09f 	svclt	0x0074b09f
   23640:	bf74a1cf 	svclt	0x0074a1cf
   23644:	bf7492ff 	svclt	0x007492ff
   23648:	bf74841f 	svclt	0x0074841f
   2364c:	bf74753e 	svclt	0x0074753e
   23650:	bf74664d 	svclt	0x0074664d
   23654:	bf74574b 	svclt	0x0074574b
   23658:	bf744849 	svclt	0x00744849
   2365c:	bf743937 	svclt	0x00743937
   23660:	bf742a24 	svclt	0x00742a24
   23664:	bf741b00 	svclt	0x00741b00
   23668:	bf740bdd 	svclt	0x00740bdd
   2366c:	bf73fca8 	svclt	0x0073fca8
   23670:	bf73ed74 	svclt	0x0073ed74
   23674:	bf73de2f 	svclt	0x0073de2f
   23678:	bf73ced9 	svclt	0x0073ced9
   2367c:	bf73bf83 	svclt	0x0073bf83
   23680:	bf73b01d 	svclt	0x0073b01d
   23684:	bf73a0b6 	svclt	0x0073a0b6
   23688:	bf73913f 	svclt	0x0073913f
   2368c:	bf7381c7 	svclt	0x007381c7
   23690:	bf73723f 	svclt	0x0073723f
   23694:	bf7362a6 	svclt	0x007362a6
   23698:	bf73530d 	svclt	0x0073530d
   2369c:	bf734363 	svclt	0x00734363
   236a0:	bf7333b9 	svclt	0x007333b9
   236a4:	bf7323ff 	svclt	0x007323ff
   236a8:	bf731444 	svclt	0x00731444
   236ac:	bf730479 	svclt	0x00730479
   236b0:	bf72f4ae 	svclt	0x0072f4ae
   236b4:	bf72e4d2 	svclt	0x0072e4d2
   236b8:	bf72d4e5 	svclt	0x0072d4e5
   236bc:	bf72c4f8 	svclt	0x0072c4f8
   236c0:	bf72b50b 	svclt	0x0072b50b
   236c4:	bf72a4fd 	svclt	0x0072a4fd
   236c8:	bf7294ff 	svclt	0x007294ff
   236cc:	bf7284e0 	svclt	0x007284e0
   236d0:	bf7274c1 	svclt	0x007274c1
   236d4:	bf7264a1 	svclt	0x007264a1
   236d8:	bf725471 	svclt	0x00725471
   236dc:	bf724431 	svclt	0x00724431
   236e0:	bf7233f0 	svclt	0x007233f0
   236e4:	bf7223af 	svclt	0x007223af
   236e8:	bf72134d 	svclt	0x0072134d
   236ec:	bf7202fb 	svclt	0x007202fb
   236f0:	bf71f288 	svclt	0x0071f288
   236f4:	bf71e215 	svclt	0x0071e215
   236f8:	bf71d1a2 	svclt	0x0071d1a2
   236fc:	bf71c11e 	svclt	0x0071c11e
   23700:	bf71b08a 	svclt	0x0071b08a
   23704:	bf719ff5 	svclt	0x00719ff5
   23708:	bf718f50 	svclt	0x00718f50
   2370c:	bf717eaa 	svclt	0x00717eaa
   23710:	bf716df4 	svclt	0x00716df4
   23714:	bf715d3e 	svclt	0x00715d3e
   23718:	bf714c77 	svclt	0x00714c77
   2371c:	bf713bb0 	svclt	0x00713bb0
   23720:	bf712ad8 	svclt	0x00712ad8
   23724:	bf7119f0 	svclt	0x007119f0
   23728:	bf710907 	svclt	0x00710907
   2372c:	bf70f80e 	svclt	0x0070f80e
   23730:	bf70e714 	svclt	0x0070e714
   23734:	bf70d60a 	svclt	0x0070d60a
   23738:	bf70c500 	svclt	0x0070c500
   2373c:	bf70b3e5 	svclt	0x0070b3e5
   23740:	bf70a2cb 	svclt	0x0070a2cb
   23744:	bf70919f 	svclt	0x0070919f
   23748:	bf708063 	svclt	0x00708063
   2374c:	bf706f26 	svclt	0x00706f26
   23750:	bf705dd9 	svclt	0x00705dd9
   23754:	bf704c8c 	svclt	0x00704c8c
   23758:	bf703b3f 	svclt	0x00703b3f
   2375c:	bf7029d0 	svclt	0x007029d0
   23760:	bf701861 	svclt	0x00701861
   23764:	bf7006f2 	svclt	0x007006f2
   23768:	bf6ff573 	svclt	0x006ff573
   2376c:	bf6fe3f3 	svclt	0x006fe3f3
   23770:	bf6fd252 	svclt	0x006fd252
   23774:	bf6fc0c2 	svclt	0x006fc0c2
   23778:	bf6faf21 	svclt	0x006faf21
   2377c:	bf6f9d6f 	svclt	0x006f9d6f
   23780:	bf6f8bbd 	svclt	0x006f8bbd
   23784:	bf6f79fb 	svclt	0x006f79fb
   23788:	bf6f6838 	svclt	0x006f6838
   2378c:	bf6f5665 	svclt	0x006f5665
   23790:	bf6f4480 	svclt	0x006f4480
   23794:	bf6f329c 	svclt	0x006f329c
   23798:	bf6f20b8 	svclt	0x006f20b8
   2379c:	bf6f0eb2 	svclt	0x006f0eb2
   237a0:	bf6efcbd 	svclt	0x006efcbd
   237a4:	bf6eeab8 	svclt	0x006eeab8
   237a8:	bf6ed8a1 	svclt	0x006ed8a1
   237ac:	bf6ec67a 	svclt	0x006ec67a
   237b0:	bf6eb463 	svclt	0x006eb463
   237b4:	bf6ea22b 	svclt	0x006ea22b
   237b8:	bf6e8ff3 	svclt	0x006e8ff3
   237bc:	bf6e7dbb 	svclt	0x006e7dbb
   237c0:	bf6e6b72 	svclt	0x006e6b72
   237c4:	bf6e5919 	svclt	0x006e5919
   237c8:	bf6e46bf 	svclt	0x006e46bf
   237cc:	bf6e3455 	svclt	0x006e3455
   237d0:	bf6e21ea 	svclt	0x006e21ea
   237d4:	bf6e0f6f 	svclt	0x006e0f6f
   237d8:	bf6dfcf4 	svclt	0x006dfcf4
   237dc:	bf6dea68 	svclt	0x006dea68
   237e0:	bf6dd7dc 	svclt	0x006dd7dc
   237e4:	bf6dc53f 	svclt	0x006dc53f
   237e8:	bf6db292 	svclt	0x006db292
   237ec:	bf6d9fe4 	svclt	0x006d9fe4
   237f0:	bf6d8d26 	svclt	0x006d8d26
   237f4:	bf6d7a68 	svclt	0x006d7a68
   237f8:	bf6d67a9 	svclt	0x006d67a9
   237fc:	bf6d54ca 	svclt	0x006d54ca
   23800:	bf6d41ea 	svclt	0x006d41ea
   23804:	bf6d2f0a 	svclt	0x006d2f0a
   23808:	bf6d1c19 	svclt	0x006d1c19
   2380c:	bf6d0929 	svclt	0x006d0929
   23810:	bf6cf627 	svclt	0x006cf627
   23814:	bf6ce315 	svclt	0x006ce315
   23818:	bf6cd003 	svclt	0x006cd003
   2381c:	bf6cbcf1 	svclt	0x006cbcf1
   23820:	bf6ca9bd 	svclt	0x006ca9bd
   23824:	bf6c969a 	svclt	0x006c969a
   23828:	bf6c8366 	svclt	0x006c8366
   2382c:	bf6c7022 	svclt	0x006c7022
   23830:	bf6c5ccd 	svclt	0x006c5ccd
   23834:	bf6c4988 	svclt	0x006c4988
   23838:	bf6c3622 	svclt	0x006c3622
   2383c:	bf6c22bc 	svclt	0x006c22bc
   23840:	bf6c0f56 	svclt	0x006c0f56
   23844:	bf6bfbdf 	svclt	0x006bfbdf
   23848:	bf6be857 	svclt	0x006be857
   2384c:	bf6bd4d0 	svclt	0x006bd4d0
   23850:	bf6bc137 	svclt	0x006bc137
   23854:	bf6bad9f 	svclt	0x006bad9f
   23858:	bf6b99f6 	svclt	0x006b99f6
   2385c:	bf6b864d 	svclt	0x006b864d
   23860:	bf6b7293 	svclt	0x006b7293
   23864:	bf6b5ed9 	svclt	0x006b5ed9
   23868:	bf6b4b0e 	svclt	0x006b4b0e
   2386c:	bf6b3733 	svclt	0x006b3733
   23870:	bf6b2357 	svclt	0x006b2357
   23874:	bf6b0f7c 	svclt	0x006b0f7c
   23878:	bf6afb8f 	svclt	0x006afb8f
   2387c:	bf6ae792 	svclt	0x006ae792
   23880:	bf6ad395 	svclt	0x006ad395
   23884:	bf6abf87 	svclt	0x006abf87
   23888:	bf6aab7a 	svclt	0x006aab7a
   2388c:	bf6a975b 	svclt	0x006a975b
   23890:	bf6a833c 	svclt	0x006a833c
   23894:	bf6a6f0d 	svclt	0x006a6f0d
   23898:	bf6a5ade 	svclt	0x006a5ade
   2389c:	bf6a469d 	svclt	0x006a469d
   238a0:	bf6a324d 	svclt	0x006a324d
   238a4:	bf6a1dfc 	svclt	0x006a1dfc
   238a8:	bf6a09ab 	svclt	0x006a09ab
   238ac:	bf69f549 	svclt	0x0069f549
   238b0:	bf69e0d6 	svclt	0x0069e0d6
   238b4:	bf69cc64 	svclt	0x0069cc64
   238b8:	bf69b7e1 	svclt	0x0069b7e1
   238bc:	bf69a35d 	svclt	0x0069a35d
   238c0:	bf698ec9 	svclt	0x00698ec9
   238c4:	bf697a35 	svclt	0x00697a35
   238c8:	bf696590 	svclt	0x00696590
   238cc:	bf6950ec 	svclt	0x006950ec
   238d0:	bf693c36 	svclt	0x00693c36
   238d4:	bf692770 	svclt	0x00692770
   238d8:	bf6912a9 	svclt	0x006912a9
   238dc:	bf68fde3 	svclt	0x0068fde3
   238e0:	bf68e90c 	svclt	0x0068e90c
   238e4:	bf68d424 	svclt	0x0068d424
   238e8:	bf68bf3c 	svclt	0x0068bf3c
   238ec:	bf68aa43 	svclt	0x0068aa43
   238f0:	bf68954a 	svclt	0x0068954a
   238f4:	bf688041 	svclt	0x00688041
   238f8:	bf686b38 	svclt	0x00686b38
   238fc:	bf68561d 	svclt	0x0068561d
   23900:	bf684103 	svclt	0x00684103
   23904:	bf682bd8 	svclt	0x00682bd8
   23908:	bf6816ad 	svclt	0x006816ad
   2390c:	bf680171 	svclt	0x00680171
   23910:	bf67ec25 	svclt	0x0067ec25
   23914:	bf67d6d8 	svclt	0x0067d6d8
   23918:	bf67c18b 	svclt	0x0067c18b
   2391c:	bf67ac2e 	svclt	0x0067ac2e
   23920:	bf6796c0 	svclt	0x006796c0
   23924:	bf678152 	svclt	0x00678152
   23928:	bf676bd3 	svclt	0x00676bd3
   2392c:	bf675654 	svclt	0x00675654
   23930:	bf6740c4 	svclt	0x006740c4
   23934:	bf672b34 	svclt	0x00672b34
   23938:	bf671594 	svclt	0x00671594
   2393c:	bf66fff3 	svclt	0x0066fff3
   23940:	bf66ea42 	svclt	0x0066ea42
   23944:	bf66d491 	svclt	0x0066d491
   23948:	bf66becf 	svclt	0x0066becf
   2394c:	bf66a8fc 	svclt	0x0066a8fc
   23950:	bf669329 	svclt	0x00669329
   23954:	bf667d56 	svclt	0x00667d56
   23958:	bf666773 	svclt	0x00666773
   2395c:	bf66517e 	svclt	0x0066517e
   23960:	bf663b8a 	svclt	0x00663b8a
   23964:	bf662596 	svclt	0x00662596
   23968:	bf660f80 	svclt	0x00660f80
   2396c:	bf65f97b 	svclt	0x0065f97b
   23970:	bf65e365 	svclt	0x0065e365
   23974:	bf65cd3e 	svclt	0x0065cd3e
   23978:	bf65b717 	svclt	0x0065b717
   2397c:	bf65a0e0 	svclt	0x0065a0e0
   23980:	bf658a98 	svclt	0x00658a98
   23984:	bf657460 	svclt	0x00657460
   23988:	bf655e07 	svclt	0x00655e07
   2398c:	bf6547ae 	svclt	0x006547ae
   23990:	bf653155 	svclt	0x00653155
   23994:	bf651aeb 	svclt	0x00651aeb
   23998:	bf650471 	svclt	0x00650471
   2399c:	bf64edf6 	svclt	0x0064edf6
   239a0:	bf64d77b 	svclt	0x0064d77b
   239a4:	bf64c0f0 	svclt	0x0064c0f0
   239a8:	bf64aa54 	svclt	0x0064aa54
   239ac:	bf6493b8 	svclt	0x006493b8
   239b0:	bf647d1c 	svclt	0x00647d1c
   239b4:	bf64665e 	svclt	0x0064665e
   239b8:	bf644fb1 	svclt	0x00644fb1
   239bc:	bf6438e3 	svclt	0x006438e3
   239c0:	bf642225 	svclt	0x00642225
   239c4:	bf640b56 	svclt	0x00640b56
   239c8:	bf63f477 	svclt	0x0063f477
   239cc:	bf63dd87 	svclt	0x0063dd87
   239d0:	bf63c6a8 	svclt	0x0063c6a8
   239d4:	bf63afa7 	svclt	0x0063afa7
   239d8:	bf6398a6 	svclt	0x006398a6
   239dc:	bf6381a6 	svclt	0x006381a6
   239e0:	bf636a94 	svclt	0x00636a94
   239e4:	bf635382 	svclt	0x00635382
   239e8:	bf633c60 	svclt	0x00633c60
   239ec:	bf63252d 	svclt	0x0063252d
   239f0:	bf630dfa 	svclt	0x00630dfa
   239f4:	bf62f6c7 	svclt	0x0062f6c7
   239f8:	bf62df83 	svclt	0x0062df83
   239fc:	bf62c82e 	svclt	0x0062c82e
   23a00:	bf62b0d9 	svclt	0x0062b0d9
   23a04:	bf629974 	svclt	0x00629974
   23a08:	bf62820e 	svclt	0x0062820e
   23a0c:	bf626a98 	svclt	0x00626a98
   23a10:	bf625322 	svclt	0x00625322
   23a14:	bf623bac 	svclt	0x00623bac
   23a18:	bf622414 	svclt	0x00622414
   23a1c:	bf620c8d 	svclt	0x00620c8d
   23a20:	bf61f4e4 	svclt	0x0061f4e4
   23a24:	bf61dd4c 	svclt	0x0061dd4c
   23a28:	bf61c593 	svclt	0x0061c593
   23a2c:	bf61adda 	svclt	0x0061adda
   23a30:	bf619620 	svclt	0x00619620
   23a34:	bf617e56 	svclt	0x00617e56
   23a38:	bf61668c 	svclt	0x0061668c
   23a3c:	bf614eb1 	svclt	0x00614eb1
   23a40:	bf6136d6 	svclt	0x006136d6
   23a44:	bf611eeb 	svclt	0x00611eeb
   23a48:	bf6106ee 	svclt	0x006106ee
   23a4c:	bf60eef2 	svclt	0x0060eef2
   23a50:	bf60d6f5 	svclt	0x0060d6f5
   23a54:	bf60bee8 	svclt	0x0060bee8
   23a58:	bf60a6ca 	svclt	0x0060a6ca
   23a5c:	bf608eac 	svclt	0x00608eac
   23a60:	bf60768e 	svclt	0x0060768e
   23a64:	bf605e5f 	svclt	0x00605e5f
   23a68:	bf604620 	svclt	0x00604620
   23a6c:	bf602de0 	svclt	0x00602de0
   23a70:	bf601590 	svclt	0x00601590
   23a74:	bf5ffd3f 	svclt	0x005ffd3f
   23a78:	bf5fe4ef 	svclt	0x005fe4ef
   23a7c:	bf5fcc8e 	svclt	0x005fcc8e
   23a80:	bf5fb41c 	svclt	0x005fb41c
   23a84:	bf5f9baa 	svclt	0x005f9baa
   23a88:	bf5f8327 	svclt	0x005f8327
   23a8c:	bf5f6aa5 	svclt	0x005f6aa5
   23a90:	bf5f5211 	svclt	0x005f5211
   23a94:	bf5f397e 	svclt	0x005f397e
   23a98:	bf5f20da 	svclt	0x005f20da
   23a9c:	bf5f0835 	svclt	0x005f0835
   23aa0:	bf5eef80 	svclt	0x005eef80
   23aa4:	bf5ed6cb 	svclt	0x005ed6cb
   23aa8:	bf5ebe06 	svclt	0x005ebe06
   23aac:	bf5ea540 	svclt	0x005ea540
   23ab0:	bf5e8c69 	svclt	0x005e8c69
   23ab4:	bf5e7393 	svclt	0x005e7393
   23ab8:	bf5e5aab 	svclt	0x005e5aab
   23abc:	bf5e41b3 	svclt	0x005e41b3
   23ac0:	bf5e28bb 	svclt	0x005e28bb
   23ac4:	bf5e0fc3 	svclt	0x005e0fc3
   23ac8:	bf5df6ba 	svclt	0x005df6ba
   23acc:	bf5dddb1 	svclt	0x005dddb1
   23ad0:	bf5dc497 	svclt	0x005dc497
   23ad4:	bf5dab7e 	svclt	0x005dab7e
   23ad8:	bf5d9253 	svclt	0x005d9253
   23adc:	bf5d7918 	svclt	0x005d7918
   23ae0:	bf5d5fdd 	svclt	0x005d5fdd
   23ae4:	bf5d46a2 	svclt	0x005d46a2
   23ae8:	bf5d2d56 	svclt	0x005d2d56
   23aec:	bf5d13f9 	svclt	0x005d13f9
   23af0:	bf5cfa9c 	svclt	0x005cfa9c
   23af4:	bf5ce13f 	svclt	0x005ce13f
   23af8:	bf5cc7d2 	svclt	0x005cc7d2
   23afc:	bf5cae53 	svclt	0x005cae53
   23b00:	bf5c94d5 	svclt	0x005c94d5
   23b04:	bf5c7b57 	svclt	0x005c7b57
   23b08:	bf5c61c8 	svclt	0x005c61c8
   23b0c:	bf5c4828 	svclt	0x005c4828
   23b10:	bf5c2e88 	svclt	0x005c2e88
   23b14:	bf5c14e8 	svclt	0x005c14e8
   23b18:	bf5bfb37 	svclt	0x005bfb37
   23b1c:	bf5be176 	svclt	0x005be176
   23b20:	bf5bc7b4 	svclt	0x005bc7b4
   23b24:	bf5badf3 	svclt	0x005badf3
   23b28:	bf5b9421 	svclt	0x005b9421
   23b2c:	bf5b7a3e 	svclt	0x005b7a3e
   23b30:	bf5b605b 	svclt	0x005b605b
   23b34:	bf5b4667 	svclt	0x005b4667
   23b38:	bf5b2c73 	svclt	0x005b2c73
   23b3c:	bf5b127f 	svclt	0x005b127f
   23b40:	bf5af87b 	svclt	0x005af87b
   23b44:	bf5ade65 	svclt	0x005ade65
   23b48:	bf5ac450 	svclt	0x005ac450
   23b4c:	bf5aaa2a 	svclt	0x005aaa2a
   23b50:	bf5a9004 	svclt	0x005a9004
   23b54:	bf5a75de 	svclt	0x005a75de
   23b58:	bf5a5ba7 	svclt	0x005a5ba7
   23b5c:	bf5a415f 	svclt	0x005a415f
   23b60:	bf5a2718 	svclt	0x005a2718
   23b64:	bf5a0cbf 	svclt	0x005a0cbf
   23b68:	bf59f267 	svclt	0x0059f267
   23b6c:	bf59d80e 	svclt	0x0059d80e
   23b70:	bf59bd94 	svclt	0x0059bd94
   23b74:	bf59a32b 	svclt	0x0059a32b
   23b78:	bf5988b1 	svclt	0x005988b1
   23b7c:	bf596e26 	svclt	0x00596e26
   23b80:	bf59539c 	svclt	0x0059539c
   23b84:	bf593900 	svclt	0x00593900
   23b88:	bf591e64 	svclt	0x00591e64
   23b8c:	bf5903c9 	svclt	0x005903c9
   23b90:	bf58e91d 	svclt	0x0058e91d
   23b94:	bf58ce5f 	svclt	0x0058ce5f
   23b98:	bf58b3a2 	svclt	0x0058b3a2
   23b9c:	bf5898d4 	svclt	0x005898d4
   23ba0:	bf587e07 	svclt	0x00587e07
   23ba4:	bf586339 	svclt	0x00586339
   23ba8:	bf58485a 	svclt	0x0058485a
   23bac:	bf582d6b 	svclt	0x00582d6b
   23bb0:	bf58127b 	svclt	0x0058127b
   23bb4:	bf57f77b 	svclt	0x0057f77b
   23bb8:	bf57dc7b 	svclt	0x0057dc7b
   23bbc:	bf57c17b 	svclt	0x0057c17b
   23bc0:	bf57a66a 	svclt	0x0057a66a
   23bc4:	bf578b48 	svclt	0x00578b48
   23bc8:	bf577026 	svclt	0x00577026
   23bcc:	bf5754f3 	svclt	0x005754f3
   23bd0:	bf5739c1 	svclt	0x005739c1
   23bd4:	bf571e8e 	svclt	0x00571e8e
   23bd8:	bf57034b 	svclt	0x0057034b
   23bdc:	bf56e7f7 	svclt	0x0056e7f7
   23be0:	bf56cca3 	svclt	0x0056cca3
   23be4:	bf56b14f 	svclt	0x0056b14f
   23be8:	bf5695ea 	svclt	0x005695ea
   23bec:	bf567a74 	svclt	0x00567a74
   23bf0:	bf565eff 	svclt	0x00565eff
   23bf4:	bf564389 	svclt	0x00564389
   23bf8:	bf562802 	svclt	0x00562802
   23bfc:	bf560c6b 	svclt	0x00560c6b
   23c00:	bf55f0d4 	svclt	0x0055f0d4
   23c04:	bf55d53d 	svclt	0x0055d53d
   23c08:	bf55b995 	svclt	0x0055b995
   23c0c:	bf559ddc 	svclt	0x00559ddc
   23c10:	bf558234 	svclt	0x00558234
   23c14:	bf55666b 	svclt	0x0055666b
   23c18:	bf554aa1 	svclt	0x00554aa1
   23c1c:	bf552ed8 	svclt	0x00552ed8
   23c20:	bf5512fd 	svclt	0x005512fd
   23c24:	bf54f712 	svclt	0x0054f712
   23c28:	bf54db38 	svclt	0x0054db38
   23c2c:	bf54bf3c 	svclt	0x0054bf3c
   23c30:	bf54a340 	svclt	0x0054a340
   23c34:	bf548744 	svclt	0x00548744
   23c38:	bf546b38 	svclt	0x00546b38
   23c3c:	bf544f2b 	svclt	0x00544f2b
   23c40:	bf54330d 	svclt	0x0054330d
   23c44:	bf5416f0 	svclt	0x005416f0
   23c48:	bf53fac2 	svclt	0x0053fac2
   23c4c:	bf53de94 	svclt	0x0053de94
   23c50:	bf53c255 	svclt	0x0053c255
   23c54:	bf53a616 	svclt	0x0053a616
   23c58:	bf5389c6 	svclt	0x005389c6
   23c5c:	bf536d76 	svclt	0x00536d76
   23c60:	bf535116 	svclt	0x00535116
   23c64:	bf5334b5 	svclt	0x005334b5
   23c68:	bf531844 	svclt	0x00531844
   23c6c:	bf52fbd2 	svclt	0x0052fbd2
   23c70:	bf52df61 	svclt	0x0052df61
   23c74:	bf52c2ce 	svclt	0x0052c2ce
   23c78:	bf52a64c 	svclt	0x0052a64c
   23c7c:	bf5289b9 	svclt	0x005289b9
   23c80:	bf526d16 	svclt	0x00526d16
   23c84:	bf525072 	svclt	0x00525072
   23c88:	bf5233ce 	svclt	0x005233ce
   23c8c:	bf521709 	svclt	0x00521709
   23c90:	bf51fa55 	svclt	0x0051fa55
   23c94:	bf51dd90 	svclt	0x0051dd90
   23c98:	bf51c0ca 	svclt	0x0051c0ca
   23c9c:	bf51a3f4 	svclt	0x0051a3f4
   23ca0:	bf51870e 	svclt	0x0051870e
   23ca4:	bf516a27 	svclt	0x00516a27
   23ca8:	bf514d40 	svclt	0x00514d40
   23cac:	bf513049 	svclt	0x00513049
   23cb0:	bf511351 	svclt	0x00511351
   23cb4:	bf50f649 	svclt	0x0050f649
   23cb8:	bf50d930 	svclt	0x0050d930
   23cbc:	bf50bc27 	svclt	0x0050bc27
   23cc0:	bf509efe 	svclt	0x00509efe
   23cc4:	bf5081e4 	svclt	0x005081e4
   23cc8:	bf5064aa 	svclt	0x005064aa
   23ccc:	bf504780 	svclt	0x00504780
   23cd0:	bf502a35 	svclt	0x00502a35
   23cd4:	bf500cfa 	svclt	0x00500cfa
   23cd8:	bf4fefae 	svclt	0x004fefae
   23cdc:	bf4fd252 	svclt	0x004fd252
   23ce0:	bf4fb4f6 	svclt	0x004fb4f6
   23ce4:	bf4f9789 	svclt	0x004f9789
   23ce8:	bf4f7a1c 	svclt	0x004f7a1c
   23cec:	bf4f5caf 	svclt	0x004f5caf
   23cf0:	bf4f3f31 	svclt	0x004f3f31
   23cf4:	bf4f21a3 	svclt	0x004f21a3
   23cf8:	bf4f0414 	svclt	0x004f0414
   23cfc:	bf4ee686 	svclt	0x004ee686
   23d00:	bf4ec8e7 	svclt	0x004ec8e7
   23d04:	bf4eab36 	svclt	0x004eab36
   23d08:	bf4e8d97 	svclt	0x004e8d97
   23d0c:	bf4e6fd6 	svclt	0x004e6fd6
   23d10:	bf4e5215 	svclt	0x004e5215
   23d14:	bf4e3455 	svclt	0x004e3455
   23d18:	bf4e1683 	svclt	0x004e1683
   23d1c:	bf4df8b1 	svclt	0x004df8b1
   23d20:	bf4ddacf 	svclt	0x004ddacf
   23d24:	bf4dbced 	svclt	0x004dbced
   23d28:	bf4d9f0a 	svclt	0x004d9f0a
   23d2c:	bf4d8106 	svclt	0x004d8106
   23d30:	bf4d6313 	svclt	0x004d6313
   23d34:	bf4d450f 	svclt	0x004d450f
   23d38:	bf4d26fa 	svclt	0x004d26fa
   23d3c:	bf4d08e6 	svclt	0x004d08e6
   23d40:	bf4cead1 	svclt	0x004cead1
   23d44:	bf4cccab 	svclt	0x004cccab
   23d48:	bf4cae75 	svclt	0x004cae75
   23d4c:	bf4c903f 	svclt	0x004c903f
   23d50:	bf4c7208 	svclt	0x004c7208
   23d54:	bf4c53c1 	svclt	0x004c53c1
   23d58:	bf4c357a 	svclt	0x004c357a
   23d5c:	bf4c1722 	svclt	0x004c1722
   23d60:	bf4bf8cb 	svclt	0x004bf8cb
   23d64:	bf4bda62 	svclt	0x004bda62
   23d68:	bf4bbbf9 	svclt	0x004bbbf9
   23d6c:	bf4b9d80 	svclt	0x004b9d80
   23d70:	bf4b7f06 	svclt	0x004b7f06
   23d74:	bf4b608d 	svclt	0x004b608d
   23d78:	bf4b41f2 	svclt	0x004b41f2
   23d7c:	bf4b2368 	svclt	0x004b2368
   23d80:	bf4b04cd 	svclt	0x004b04cd
   23d84:	bf4ae632 	svclt	0x004ae632
   23d88:	bf4ac786 	svclt	0x004ac786
   23d8c:	bf4aa8ca 	svclt	0x004aa8ca
   23d90:	bf4a8a0d 	svclt	0x004a8a0d
   23d94:	bf4a6b51 	svclt	0x004a6b51
   23d98:	bf4a4c83 	svclt	0x004a4c83
   23d9c:	bf4a2db6 	svclt	0x004a2db6
   23da0:	bf4a0ed8 	svclt	0x004a0ed8
   23da4:	bf49effa 	svclt	0x0049effa
   23da8:	bf49d10b 	svclt	0x0049d10b
   23dac:	bf49b21c 	svclt	0x0049b21c
   23db0:	bf49932d 	svclt	0x0049932d
   23db4:	bf49742e 	svclt	0x0049742e
   23db8:	bf49551d 	svclt	0x0049551d
   23dbc:	bf49360d 	svclt	0x0049360d
   23dc0:	bf4916fd 	svclt	0x004916fd
   23dc4:	bf48f7db 	svclt	0x0048f7db
   23dc8:	bf48d8ba 	svclt	0x0048d8ba
   23dcc:	bf48b988 	svclt	0x0048b988
   23dd0:	bf489a56 	svclt	0x00489a56
   23dd4:	bf487b14 	svclt	0x00487b14
   23dd8:	bf485bd1 	svclt	0x00485bd1
   23ddc:	bf483c7d 	svclt	0x00483c7d
   23de0:	bf481d2a 	svclt	0x00481d2a
   23de4:	bf47fdc6 	svclt	0x0047fdc6
   23de8:	bf47de61 	svclt	0x0047de61
   23dec:	bf47befd 	svclt	0x0047befd
   23df0:	bf479f88 	svclt	0x00479f88
   23df4:	bf478002 	svclt	0x00478002
   23df8:	bf47608d 	svclt	0x0047608d
   23dfc:	bf4740f6 	svclt	0x004740f6
   23e00:	bf472160 	svclt	0x00472160
   23e04:	bf4701c9 	svclt	0x004701c9
   23e08:	bf46e222 	svclt	0x0046e222
   23e0c:	bf46c27a 	svclt	0x0046c27a
   23e10:	bf46a2d3 	svclt	0x0046a2d3
   23e14:	bf46831b 	svclt	0x0046831b
   23e18:	bf466352 	svclt	0x00466352
   23e1c:	bf464389 	svclt	0x00464389
   23e20:	bf4623c0 	svclt	0x004623c0
   23e24:	bf4603e6 	svclt	0x004603e6
   23e28:	bf45e3fc 	svclt	0x0045e3fc
   23e2c:	bf45c422 	svclt	0x0045c422
   23e30:	bf45a427 	svclt	0x0045a427
   23e34:	bf45843c 	svclt	0x0045843c
   23e38:	bf456441 	svclt	0x00456441
   23e3c:	bf454435 	svclt	0x00454435
   23e40:	bf452429 	svclt	0x00452429
   23e44:	bf45040c 	svclt	0x0045040c
   23e48:	bf44e3ef 	svclt	0x0044e3ef
   23e4c:	bf44c3d2 	svclt	0x0044c3d2
   23e50:	bf44a3a5 	svclt	0x0044a3a5
   23e54:	bf448377 	svclt	0x00448377
   23e58:	bf446339 	svclt	0x00446339
   23e5c:	bf4442fa 	svclt	0x004442fa
   23e60:	bf4422ab 	svclt	0x004422ab
   23e64:	bf44025c 	svclt	0x0044025c
   23e68:	bf43e1fc 	svclt	0x0043e1fc
   23e6c:	bf43c19c 	svclt	0x0043c19c
   23e70:	bf43a13c 	svclt	0x0043a13c
   23e74:	bf4380cb 	svclt	0x004380cb
   23e78:	bf43604a 	svclt	0x0043604a
   23e7c:	bf433fd9 	svclt	0x00433fd9
   23e80:	bf431f47 	svclt	0x00431f47
   23e84:	bf42fec5 	svclt	0x0042fec5
   23e88:	bf42de22 	svclt	0x0042de22
   23e8c:	bf42bd90 	svclt	0x0042bd90
   23e90:	bf429ced 	svclt	0x00429ced
   23e94:	bf427c39 	svclt	0x00427c39
   23e98:	bf425b85 	svclt	0x00425b85
   23e9c:	bf423ad2 	svclt	0x00423ad2
   23ea0:	bf421a0d 	svclt	0x00421a0d
   23ea4:	bf41f948 	svclt	0x0041f948
   23ea8:	bf41d873 	svclt	0x0041d873
   23eac:	bf41b79e 	svclt	0x0041b79e
   23eb0:	bf4196b7 	svclt	0x004196b7
   23eb4:	bf4175d1 	svclt	0x004175d1
   23eb8:	bf4154da 	svclt	0x004154da
   23ebc:	bf4133e3 	svclt	0x004133e3
   23ec0:	bf4112ec 	svclt	0x004112ec
   23ec4:	bf40f1e5 	svclt	0x0040f1e5
   23ec8:	bf40d0dd 	svclt	0x0040d0dd
   23ecc:	bf40afc4 	svclt	0x0040afc4
   23ed0:	bf408eac 	svclt	0x00408eac
   23ed4:	bf406d83 	svclt	0x00406d83
   23ed8:	bf404c59 	svclt	0x00404c59
   23edc:	bf402b30 	svclt	0x00402b30
   23ee0:	bf4009f6 	svclt	0x004009f6
   23ee4:	bf3fe8ab 	svclt	0x003fe8ab
   23ee8:	bf3fc760 	svclt	0x003fc760
   23eec:	bf3fa616 	svclt	0x003fa616
   23ef0:	bf3f84ba 	svclt	0x003f84ba
   23ef4:	bf3f635e 	svclt	0x003f635e
   23ef8:	bf3f4203 	svclt	0x003f4203
   23efc:	bf3f2096 	svclt	0x003f2096
   23f00:	bf3eff19 	svclt	0x003eff19
   23f04:	bf3edd9c 	svclt	0x003edd9c
   23f08:	bf3ebc1f 	svclt	0x003ebc1f
   23f0c:	bf3e9a91 	svclt	0x003e9a91
   23f10:	bf3e7903 	svclt	0x003e7903
   23f14:	bf3e5764 	svclt	0x003e5764
   23f18:	bf3e35c6 	svclt	0x003e35c6
   23f1c:	bf3e1416 	svclt	0x003e1416
   23f20:	bf3df267 	svclt	0x003df267
   23f24:	bf3dd0b7 	svclt	0x003dd0b7
   23f28:	bf3daef7 	svclt	0x003daef7
   23f2c:	bf3d8d37 	svclt	0x003d8d37
   23f30:	bf3d6b66 	svclt	0x003d6b66
   23f34:	bf3d4995 	svclt	0x003d4995
   23f38:	bf3d27b3 	svclt	0x003d27b3
   23f3c:	bf3d05d1 	svclt	0x003d05d1
   23f40:	bf3ce3ef 	svclt	0x003ce3ef
   23f44:	bf3cc1fd 	svclt	0x003cc1fd
   23f48:	bf3ca00a 	svclt	0x003ca00a
   23f4c:	bf3c7e07 	svclt	0x003c7e07
   23f50:	bf3c5c03 	svclt	0x003c5c03
   23f54:	bf3c39ef 	svclt	0x003c39ef
   23f58:	bf3c17db 	svclt	0x003c17db
   23f5c:	bf3bf5b6 	svclt	0x003bf5b6
   23f60:	bf3bd391 	svclt	0x003bd391
   23f64:	bf3bb16c 	svclt	0x003bb16c
   23f68:	bf3b8f36 	svclt	0x003b8f36
   23f6c:	bf3b6d01 	svclt	0x003b6d01
   23f70:	bf3b4aba 	svclt	0x003b4aba
   23f74:	bf3b2874 	svclt	0x003b2874
   23f78:	bf3b062d 	svclt	0x003b062d
   23f7c:	bf3ae3d6 	svclt	0x003ae3d6
   23f80:	bf3ac16e 	svclt	0x003ac16e
   23f84:	bf3a9f17 	svclt	0x003a9f17
   23f88:	bf3a7c9e 	svclt	0x003a7c9e
   23f8c:	bf3a5a36 	svclt	0x003a5a36
   23f90:	bf3a37bd 	svclt	0x003a37bd
   23f94:	bf3a1533 	svclt	0x003a1533
   23f98:	bf39f2aa 	svclt	0x0039f2aa
   23f9c:	bf39d020 	svclt	0x0039d020
   23fa0:	bf39ad86 	svclt	0x0039ad86
   23fa4:	bf398aec 	svclt	0x00398aec
   23fa8:	bf396840 	svclt	0x00396840
   23fac:	bf394595 	svclt	0x00394595
   23fb0:	bf3922d9 	svclt	0x003922d9
   23fb4:	bf39002e 	svclt	0x0039002e
   23fb8:	bf38dd61 	svclt	0x0038dd61
   23fbc:	bf38ba95 	svclt	0x0038ba95
   23fc0:	bf3897c8 	svclt	0x003897c8
   23fc4:	bf3874fb 	svclt	0x003874fb
   23fc8:	bf38521e 	svclt	0x0038521e
   23fcc:	bf382f30 	svclt	0x00382f30
   23fd0:	bf380c41 	svclt	0x00380c41
   23fd4:	bf37e953 	svclt	0x0037e953
   23fd8:	bf37c654 	svclt	0x0037c654
   23fdc:	bf37a355 	svclt	0x0037a355
   23fe0:	bf378045 	svclt	0x00378045
   23fe4:	bf375d35 	svclt	0x00375d35
   23fe8:	bf373a26 	svclt	0x00373a26
   23fec:	bf371705 	svclt	0x00371705
   23ff0:	bf36f3e4 	svclt	0x0036f3e4
   23ff4:	bf36d0b3 	svclt	0x0036d0b3
   23ff8:	bf36ad82 	svclt	0x0036ad82
   23ffc:	bf368a40 	svclt	0x00368a40
   24000:	bf3666fd 	svclt	0x003666fd
   24004:	bf3643bb 	svclt	0x003643bb
   24008:	bf362068 	svclt	0x00362068
   2400c:	bf35fd15 	svclt	0x0035fd15
   24010:	bf35d9b2 	svclt	0x0035d9b2
   24014:	bf35b64e 	svclt	0x0035b64e
   24018:	bf3592ea 	svclt	0x003592ea
   2401c:	bf356f76 	svclt	0x00356f76
   24020:	bf354c01 	svclt	0x00354c01
   24024:	bf35287c 	svclt	0x0035287c
   24028:	bf3504f7 	svclt	0x003504f7
   2402c:	bf34e161 	svclt	0x0034e161
   24030:	bf34bdcb 	svclt	0x0034bdcb
   24034:	bf349a35 	svclt	0x00349a35
   24038:	bf34768e 	svclt	0x0034768e
   2403c:	bf3452e7 	svclt	0x003452e7
   24040:	bf342f30 	svclt	0x00342f30
   24044:	bf340b78 	svclt	0x00340b78
   24048:	bf33e7c0 	svclt	0x0033e7c0
   2404c:	bf33c3f8 	svclt	0x0033c3f8
   24050:	bf33a030 	svclt	0x0033a030
   24054:	bf337c57 	svclt	0x00337c57
   24058:	bf33587d 	svclt	0x0033587d
   2405c:	bf333494 	svclt	0x00333494
   24060:	bf3310aa 	svclt	0x003310aa
   24064:	bf32ecc0 	svclt	0x0032ecc0
   24068:	bf32c8c5 	svclt	0x0032c8c5
   2406c:	bf32a4ca 	svclt	0x0032a4ca
   24070:	bf3280d0 	svclt	0x003280d0
   24074:	bf325cc4 	svclt	0x00325cc4
   24078:	bf3238a8 	svclt	0x003238a8
   2407c:	bf32148c 	svclt	0x0032148c
   24080:	bf31f06f 	svclt	0x0031f06f
   24084:	bf31cc42 	svclt	0x0031cc42
   24088:	bf31a815 	svclt	0x0031a815
   2408c:	bf3183e8 	svclt	0x003183e8
   24090:	bf315fab 	svclt	0x00315fab
   24094:	bf313b6d 	svclt	0x00313b6d
   24098:	bf31171e 	svclt	0x0031171e
   2409c:	bf30f2d0 	svclt	0x0030f2d0
   240a0:	bf30ce81 	svclt	0x0030ce81
   240a4:	bf30aa22 	svclt	0x0030aa22
   240a8:	bf3085c2 	svclt	0x003085c2
   240ac:	bf306152 	svclt	0x00306152
   240b0:	bf303ce2 	svclt	0x00303ce2
   240b4:	bf301861 	svclt	0x00301861
   240b8:	bf2ff3e0 	svclt	0x002ff3e0
   240bc:	bf2fcf5f 	svclt	0x002fcf5f
   240c0:	bf2faace 	svclt	0x002faace
   240c4:	bf2f863c 	svclt	0x002f863c
   240c8:	bf2f61aa 	svclt	0x002f61aa
   240cc:	bf2f3d08 	svclt	0x002f3d08
   240d0:	bf2f1855 	svclt	0x002f1855
   240d4:	bf2ef3b2 	svclt	0x002ef3b2
   240d8:	bf2eceff 	svclt	0x002eceff
   240dc:	bf2eaa3b 	svclt	0x002eaa3b
   240e0:	bf2e8577 	svclt	0x002e8577
   240e4:	bf2e60b3 	svclt	0x002e60b3
   240e8:	bf2e3bde 	svclt	0x002e3bde
   240ec:	bf2e1709 	svclt	0x002e1709
   240f0:	bf2df224 	svclt	0x002df224
   240f4:	bf2dcd3e 	svclt	0x002dcd3e
   240f8:	bf2da858 	svclt	0x002da858
   240fc:	bf2d8362 	svclt	0x002d8362
   24100:	bf2d5e6c 	svclt	0x002d5e6c
   24104:	bf2d3975 	svclt	0x002d3975
   24108:	bf2d146e 	svclt	0x002d146e
   2410c:	bf2cef56 	svclt	0x002cef56
   24110:	bf2cca4f 	svclt	0x002cca4f
   24114:	bf2ca537 	svclt	0x002ca537
   24118:	bf2c800f 	svclt	0x002c800f
   2411c:	bf2c5ae6 	svclt	0x002c5ae6
   24120:	bf2c35bd 	svclt	0x002c35bd
   24124:	bf2c1084 	svclt	0x002c1084
   24128:	bf2beb4a 	svclt	0x002beb4a
   2412c:	bf2bc600 	svclt	0x002bc600
   24130:	bf2ba0c7 	svclt	0x002ba0c7
   24134:	bf2b7b6c 	svclt	0x002b7b6c
   24138:	bf2b5621 	svclt	0x002b5621
   2413c:	bf2b30c6 	svclt	0x002b30c6
   24140:	bf2b0b5b 	svclt	0x002b0b5b
   24144:	bf2ae5ef 	svclt	0x002ae5ef
   24148:	bf2ac083 	svclt	0x002ac083
   2414c:	bf2a9b07 	svclt	0x002a9b07
   24150:	bf2a758a 	svclt	0x002a758a
   24154:	bf2a500d 	svclt	0x002a500d
   24158:	bf2a2a80 	svclt	0x002a2a80
   2415c:	bf2a04f3 	svclt	0x002a04f3
   24160:	bf29df55 	svclt	0x0029df55
   24164:	bf29b9b6 	svclt	0x0029b9b6
   24168:	bf299418 	svclt	0x00299418
   2416c:	bf296e69 	svclt	0x00296e69
   24170:	bf2948bb 	svclt	0x002948bb
   24174:	bf2922fb 	svclt	0x002922fb
   24178:	bf28fd3b 	svclt	0x0028fd3b
   2417c:	bf28d77b 	svclt	0x0028d77b
   24180:	bf28b1ab 	svclt	0x0028b1ab
   24184:	bf288bdb 	svclt	0x00288bdb
   24188:	bf28660a 	svclt	0x0028660a
   2418c:	bf284029 	svclt	0x00284029
   24190:	bf281a48 	svclt	0x00281a48
   24194:	bf27f456 	svclt	0x0027f456
   24198:	bf27ce64 	svclt	0x0027ce64
   2419c:	bf27a861 	svclt	0x0027a861
   241a0:	bf27826f 	svclt	0x0027826f
   241a4:	bf275c5b 	svclt	0x00275c5b
   241a8:	bf273659 	svclt	0x00273659
   241ac:	bf271045 	svclt	0x00271045
   241b0:	bf26ea31 	svclt	0x0026ea31
   241b4:	bf26c40d 	svclt	0x0026c40d
   241b8:	bf269de9 	svclt	0x00269de9
   241bc:	bf2677b4 	svclt	0x002677b4
   241c0:	bf26517e 	svclt	0x0026517e
   241c4:	bf262b49 	svclt	0x00262b49
   241c8:	bf260503 	svclt	0x00260503
   241cc:	bf25debe 	svclt	0x0025debe
   241d0:	bf25b878 	svclt	0x0025b878
   241d4:	bf259221 	svclt	0x00259221
   241d8:	bf256bca 	svclt	0x00256bca
   241dc:	bf254563 	svclt	0x00254563
   241e0:	bf251f0c 	svclt	0x00251f0c
   241e4:	bf24f894 	svclt	0x0024f894
   241e8:	bf24d22d 	svclt	0x0024d22d
   241ec:	bf24aba4 	svclt	0x0024aba4
   241f0:	bf24852b 	svclt	0x0024852b
   241f4:	bf245ea2 	svclt	0x00245ea2
   241f8:	bf243819 	svclt	0x00243819
   241fc:	bf241180 	svclt	0x00241180
   24200:	bf23eae6 	svclt	0x0023eae6
   24204:	bf23c44c 	svclt	0x0023c44c
   24208:	bf239da1 	svclt	0x00239da1
   2420c:	bf2376f7 	svclt	0x002376f7
   24210:	bf23504c 	svclt	0x0023504c
   24214:	bf232991 	svclt	0x00232991
   24218:	bf2302d6 	svclt	0x002302d6
   2421c:	bf22dc0a 	svclt	0x0022dc0a
   24220:	bf22b53d 	svclt	0x0022b53d
   24224:	bf228e71 	svclt	0x00228e71
   24228:	bf226794 	svclt	0x00226794
   2422c:	bf2240b8 	svclt	0x002240b8
   24230:	bf2219db 	svclt	0x002219db
   24234:	bf21f2ed 	svclt	0x0021f2ed
   24238:	bf21cbff 	svclt	0x0021cbff
   2423c:	bf21a501 	svclt	0x0021a501
   24240:	bf217e02 	svclt	0x00217e02
   24244:	bf215704 	svclt	0x00215704
   24248:	bf212ff5 	svclt	0x00212ff5
   2424c:	bf2108e6 	svclt	0x002108e6
   24250:	bf20e1d6 	svclt	0x0020e1d6
   24254:	bf20bab6 	svclt	0x0020bab6
   24258:	bf209396 	svclt	0x00209396
   2425c:	bf206c66 	svclt	0x00206c66
   24260:	bf204535 	svclt	0x00204535
   24264:	bf201e04 	svclt	0x00201e04
   24268:	bf1ff6c2 	svclt	0x001ff6c2
   2426c:	bf1fcf81 	svclt	0x001fcf81
   24270:	bf1fa83f 	svclt	0x001fa83f
   24274:	bf1f80ed 	svclt	0x001f80ed
   24278:	bf1f599b 	svclt	0x001f599b
   2427c:	bf1f3248 	svclt	0x001f3248
   24280:	bf1f0ae5 	svclt	0x001f0ae5
   24284:	bf1ee382 	svclt	0x001ee382
   24288:	bf1ebc0e 	svclt	0x001ebc0e
   2428c:	bf1e949a 	svclt	0x001e949a
   24290:	bf1e6d26 	svclt	0x001e6d26
   24294:	bf1e45a2 	svclt	0x001e45a2
   24298:	bf1e1e1d 	svclt	0x001e1e1d
   2429c:	bf1df698 	svclt	0x001df698
   242a0:	bf1dcf03 	svclt	0x001dcf03
   242a4:	bf1da76e 	svclt	0x001da76e
   242a8:	bf1d7fd8 	svclt	0x001d7fd8
   242ac:	bf1d5832 	svclt	0x001d5832
   242b0:	bf1d308c 	svclt	0x001d308c
   242b4:	bf1d08d5 	svclt	0x001d08d5
   242b8:	bf1ce11e 	svclt	0x001ce11e
   242bc:	bf1cb967 	svclt	0x001cb967
   242c0:	bf1c919f 	svclt	0x001c919f
   242c4:	bf1c69d7 	svclt	0x001c69d7
   242c8:	bf1c420f 	svclt	0x001c420f
   242cc:	bf1c1a37 	svclt	0x001c1a37
   242d0:	bf1bf25e 	svclt	0x001bf25e
   242d4:	bf1bca86 	svclt	0x001bca86
   242d8:	bf1ba29c 	svclt	0x001ba29c
   242dc:	bf1b7ab3 	svclt	0x001b7ab3
   242e0:	bf1b52b9 	svclt	0x001b52b9
   242e4:	bf1b2abf 	svclt	0x001b2abf
   242e8:	bf1b02c5 	svclt	0x001b02c5
   242ec:	bf1adaba 	svclt	0x001adaba
   242f0:	bf1ab2c0 	svclt	0x001ab2c0
   242f4:	bf1a8aa4 	svclt	0x001a8aa4
   242f8:	bf1a6299 	svclt	0x001a6299
   242fc:	bf1a3a7e 	svclt	0x001a3a7e
   24300:	bf1a1251 	svclt	0x001a1251
   24304:	bf19ea36 	svclt	0x0019ea36
   24308:	bf19c1f8 	svclt	0x0019c1f8
   2430c:	bf1999cc 	svclt	0x001999cc
   24310:	bf19718f 	svclt	0x0019718f
   24314:	bf194952 	svclt	0x00194952
   24318:	bf192114 	svclt	0x00192114
   2431c:	bf18f8c6 	svclt	0x0018f8c6
   24320:	bf18d078 	svclt	0x0018d078
   24324:	bf18a81a 	svclt	0x0018a81a
   24328:	bf187fbb 	svclt	0x00187fbb
   2432c:	bf18575c 	svclt	0x0018575c
   24330:	bf182eec 	svclt	0x00182eec
   24334:	bf18068e 	svclt	0x0018068e
   24338:	bf17de0d 	svclt	0x0017de0d
   2433c:	bf17b59e 	svclt	0x0017b59e
   24340:	bf178d1e 	svclt	0x00178d1e
   24344:	bf17648c 	svclt	0x0017648c
   24348:	bf173c0c 	svclt	0x00173c0c
   2434c:	bf17137b 	svclt	0x0017137b
   24350:	bf16ead9 	svclt	0x0016ead9
   24354:	bf16c248 	svclt	0x0016c248
   24358:	bf1699a6 	svclt	0x001699a6
   2435c:	bf1670f4 	svclt	0x001670f4
   24360:	bf164841 	svclt	0x00164841
   24364:	bf161f8e 	svclt	0x00161f8e
   24368:	bf15f6dc 	svclt	0x0015f6dc
   2436c:	bf15ce18 	svclt	0x0015ce18
   24370:	bf15a555 	svclt	0x0015a555
   24374:	bf157c81 	svclt	0x00157c81
   24378:	bf1553bd 	svclt	0x001553bd
   2437c:	bf152ad8 	svclt	0x00152ad8
   24380:	bf150204 	svclt	0x00150204
   24384:	bf14d91f 	svclt	0x0014d91f
   24388:	bf14b03a 	svclt	0x0014b03a
   2438c:	bf148744 	svclt	0x00148744
   24390:	bf145e5f 	svclt	0x00145e5f
   24394:	bf143559 	svclt	0x00143559
   24398:	bf140c63 	svclt	0x00140c63
   2439c:	bf13e35c 	svclt	0x0013e35c
   243a0:	bf13ba56 	svclt	0x0013ba56
   243a4:	bf13913f 	svclt	0x0013913f
   243a8:	bf136827 	svclt	0x00136827
   243ac:	bf133f10 	svclt	0x00133f10
   243b0:	bf1315e8 	svclt	0x001315e8
   243b4:	bf12ecc0 	svclt	0x0012ecc0
   243b8:	bf12c398 	svclt	0x0012c398
   243bc:	bf129a70 	svclt	0x00129a70
   243c0:	bf127137 	svclt	0x00127137
   243c4:	bf1247ed 	svclt	0x001247ed
   243c8:	bf121eb4 	svclt	0x00121eb4
   243cc:	bf11f56a 	svclt	0x0011f56a
   243d0:	bf11cc21 	svclt	0x0011cc21
   243d4:	bf11a2c6 	svclt	0x0011a2c6
   243d8:	bf11796c 	svclt	0x0011796c
   243dc:	bf115012 	svclt	0x00115012
   243e0:	bf1126a6 	svclt	0x001126a6
   243e4:	bf10fd3b 	svclt	0x0010fd3b
   243e8:	bf10d3d0 	svclt	0x0010d3d0
   243ec:	bf10aa54 	svclt	0x0010aa54
   243f0:	bf1080d8 	svclt	0x001080d8
   243f4:	bf10575c 	svclt	0x0010575c
   243f8:	bf102dcf 	svclt	0x00102dcf
   243fc:	bf100443 	svclt	0x00100443
   24400:	bf0fdab6 	svclt	0x000fdab6
   24404:	bf0fb129 	svclt	0x000fb129
   24408:	bf0f878b 	svclt	0x000f878b
   2440c:	bf0f5ddd 	svclt	0x000f5ddd
   24410:	bf0f3440 	svclt	0x000f3440
   24414:	bf0f0a91 	svclt	0x000f0a91
   24418:	bf0ee0e3 	svclt	0x000ee0e3
   2441c:	bf0eb724 	svclt	0x000eb724
   24420:	bf0e8d65 	svclt	0x000e8d65
   24424:	bf0e63a6 	svclt	0x000e63a6
   24428:	bf0e39d6 	svclt	0x000e39d6
   2442c:	bf0e1006 	svclt	0x000e1006
   24430:	bf0de636 	svclt	0x000de636
   24434:	bf0dbc66 	svclt	0x000dbc66
   24438:	bf0d9286 	svclt	0x000d9286
   2443c:	bf0d68a5 	svclt	0x000d68a5
   24440:	bf0d3eb4 	svclt	0x000d3eb4
   24444:	bf0d14c2 	svclt	0x000d14c2
   24448:	bf0cead1 	svclt	0x000cead1
   2444c:	bf0cc0cf 	svclt	0x000cc0cf
   24450:	bf0c96dd 	svclt	0x000c96dd
   24454:	bf0c6cdb 	svclt	0x000c6cdb
   24458:	bf0c42c8 	svclt	0x000c42c8
   2445c:	bf0c18b5 	svclt	0x000c18b5
   24460:	bf0beea2 	svclt	0x000beea2
   24464:	bf0bc48f 	svclt	0x000bc48f
   24468:	bf0b9a6b 	svclt	0x000b9a6b
   2446c:	bf0b7048 	svclt	0x000b7048
   24470:	bf0b4624 	svclt	0x000b4624
   24474:	bf0b1bef 	svclt	0x000b1bef
   24478:	bf0af1bb 	svclt	0x000af1bb
   2447c:	bf0ac775 	svclt	0x000ac775
   24480:	bf0a9d41 	svclt	0x000a9d41
   24484:	bf0a72fc 	svclt	0x000a72fc
   24488:	bf0a48a6 	svclt	0x000a48a6
   2448c:	bf0a1e60 	svclt	0x000a1e60
   24490:	bf09f40a 	svclt	0x0009f40a
   24494:	bf09c9b4 	svclt	0x0009c9b4
   24498:	bf099f4d 	svclt	0x00099f4d
   2449c:	bf0974e6 	svclt	0x000974e6
   244a0:	bf094a80 	svclt	0x00094a80
   244a4:	bf092008 	svclt	0x00092008
   244a8:	bf08f5a1 	svclt	0x0008f5a1
   244ac:	bf08cb19 	svclt	0x0008cb19
   244b0:	bf08a0a1 	svclt	0x0008a0a1
   244b4:	bf087619 	svclt	0x00087619
   244b8:	bf084b90 	svclt	0x00084b90
   244bc:	bf082108 	svclt	0x00082108
   244c0:	bf07f66f 	svclt	0x0007f66f
   244c4:	bf07cbd5 	svclt	0x0007cbd5
   244c8:	bf07a13c 	svclt	0x0007a13c
   244cc:	bf077692 	svclt	0x00077692
   244d0:	bf074be8 	svclt	0x00074be8
   244d4:	bf07213e 	svclt	0x0007213e
   244d8:	bf06f683 	svclt	0x0006f683
   244dc:	bf06cbc9 	svclt	0x0006cbc9
   244e0:	bf06a10e 	svclt	0x0006a10e
   244e4:	bf067653 	svclt	0x00067653
   244e8:	bf064b88 	svclt	0x00064b88
   244ec:	bf0620bc 	svclt	0x000620bc
   244f0:	bf05f5e0 	svclt	0x0005f5e0
   244f4:	bf05cb04 	svclt	0x0005cb04
   244f8:	bf05a027 	svclt	0x0005a027
   244fc:	bf05754b 	svclt	0x0005754b
   24500:	bf054a5e 	svclt	0x00054a5e
   24504:	bf051f71 	svclt	0x00051f71
   24508:	bf04f484 	svclt	0x0004f484
   2450c:	bf04c986 	svclt	0x0004c986
   24510:	bf049e99 	svclt	0x00049e99
   24514:	bf04738a 	svclt	0x0004738a
   24518:	bf04488c 	svclt	0x0004488c
   2451c:	bf041d7e 	svclt	0x00041d7e
   24520:	bf03f26f 	svclt	0x0003f26f
   24524:	bf03c750 	svclt	0x0003c750
   24528:	bf039c41 	svclt	0x00039c41
   2452c:	bf037122 	svclt	0x00037122
   24530:	bf0345f1 	svclt	0x000345f1
   24534:	bf031ad2 	svclt	0x00031ad2
   24538:	bf02efa2 	svclt	0x0002efa2
   2453c:	bf02c472 	svclt	0x0002c472
   24540:	bf029931 	svclt	0x00029931
   24544:	bf026df0 	svclt	0x00026df0
   24548:	bf0242af 	svclt	0x000242af
   2454c:	bf02176e 	svclt	0x0002176e
   24550:	bf01ec1c 	svclt	0x0001ec1c
   24554:	bf01c0ca 	svclt	0x0001c0ca
   24558:	bf019579 	svclt	0x00019579
   2455c:	bf016a16 	svclt	0x00016a16
   24560:	bf013eb4 	svclt	0x00013eb4
   24564:	bf011351 	svclt	0x00011351
   24568:	bf00e7de 	svclt	0x0000e7de
   2456c:	bf00bc7b 	svclt	0x0000bc7b
   24570:	bf0090f7 	svclt	0x000090f7
   24574:	bf006584 	svclt	0x00006584
   24578:	bf003a00 	svclt	0x00003a00
   2457c:	bf000e7c 	svclt	0x00000e7c
   24580:	beffc5ef 	cdplt	5, 15, cr12, cr15, cr15, {7}
   24584:	beff6ee7 	cdplt	14, 15, cr6, cr15, cr7, {7}
   24588:	beff17be 	mrclt	7, 7, r1, cr15, cr14, {5}
   2458c:	befec094 	mrclt	0, 7, ip, cr14, cr4, {4}
   24590:	befe6949 	cdplt	9, 15, cr6, cr14, cr9, {2}
   24594:	befe11fd 	mrclt	1, 7, r1, cr14, cr13, {7}
   24598:	befdbab2 	mrclt	10, 7, fp, cr13, cr2, {5}
   2459c:	befd6367 	cdplt	3, 15, cr6, cr13, cr7, {3}
   245a0:	befd0bfa 	vmovlt.u8	r0, d29[7]
   245a4:	befcb48d 	cdplt	4, 15, cr11, cr12, cr13, {4}
   245a8:	befc5d20 	cdplt	13, 15, cr5, cr12, cr0, {1}
   245ac:	befc05b4 	mrclt	5, 7, r0, cr12, cr4, {5}
   245b0:	befbae25 	cdplt	14, 15, cr10, cr11, cr5, {1}
   245b4:	befb5697 	mrclt	6, 7, r5, cr11, cr7, {4}
   245b8:	befafee7 	cdplt	14, 15, cr15, cr10, cr7, {7}
   245bc:	befaa759 	mrclt	7, 7, sl, cr10, cr9, {2}
   245c0:	befa4fa9 	cdplt	15, 15, cr4, cr10, cr9, {5}
   245c4:	bef9f7f9 	mrclt	7, 7, APSR_nzcv, cr9, cr9, {7}
   245c8:	bef9a027 	cdplt	0, 15, cr10, cr9, cr7, {1}
   245cc:	bef94856 	mrclt	8, 7, r4, cr9, cr6, {2}
   245d0:	bef8f084 	cdplt	0, 15, cr15, cr8, cr4, {4}
   245d4:	bef898b3 	mrclt	8, 7, r9, cr8, cr3, {5}
   245d8:	bef840c0 	cdplt	0, 15, cr4, cr8, cr0, {6}
   245dc:	bef7e8cd 	cdplt	8, 15, cr14, cr7, cr13, {6}
   245e0:	bef790da 	mrclt	0, 7, r9, cr7, cr10, {6}
   245e4:	bef738e7 	cdplt	8, 15, cr3, cr7, cr7, {7}
   245e8:	bef6e0d2 	mrclt	0, 7, lr, cr6, cr2, {6}
   245ec:	bef688be 	mrclt	8, 7, r8, cr6, cr14, {5}
   245f0:	bef63088 	cdplt	0, 15, cr3, cr6, cr8, {4}
   245f4:	bef5d873 	mrclt	8, 7, sp, cr5, cr3, {3}
   245f8:	bef5803d 	mrclt	0, 7, r8, cr5, cr13, {1}
   245fc:	bef52807 	cdplt	8, 15, cr2, cr5, cr7, {0}
   24600:	bef4cfaf 	cdplt	15, 15, cr12, cr4, cr15, {5}
   24604:	bef47757 	mrclt	7, 7, r7, cr4, cr7, {2}
   24608:	bef41f00 	cdplt	15, 15, cr1, cr4, cr0, {0}
   2460c:	bef3c6a8 	cdplt	6, 15, cr12, cr3, cr8, {5}
   24610:	bef36e2f 	cdplt	14, 15, cr6, cr3, cr15, {1}
   24614:	bef315b5 	mrclt	5, 7, r1, cr3, cr5, {5}
   24618:	bef2bd3c 	mrclt	13, 7, fp, cr2, cr12, {1}
   2461c:	bef264c3 	cdplt	4, 15, cr6, cr2, cr3, {6}
   24620:	bef20c28 	cdplt	12, 15, cr0, cr2, cr8, {1}
   24624:	bef1b38d 	cdplt	3, 15, cr11, cr1, cr13, {4}
   24628:	bef15af3 	mrclt	10, 7, r5, cr1, cr3, {7}
   2462c:	bef10236 	mrclt	2, 7, r0, cr1, cr6, {1}
   24630:	bef0a97a 	mrclt	9, 7, sl, cr0, cr10, {3}
   24634:	bef050be 	mrclt	0, 7, r5, cr0, cr14, {5}
   24638:	beeff801 	cdplt	8, 14, cr15, cr15, cr1, {0}
   2463c:	beef9f23 	cdplt	15, 14, cr9, cr15, cr3, {1}
   24640:	beef4645 	cdplt	6, 14, cr4, cr15, cr5, {2}
   24644:	beeeed67 	cdplt	13, 14, cr14, cr14, cr7, {3}
   24648:	beee9468 	cdplt	4, 14, cr9, cr14, cr8, {3}
   2464c:	beee3b8a 	vfmalt.f64	d19, d30, d10
   24650:	beede28b 	cdplt	2, 14, cr14, cr13, cr11, {4}
   24654:	beed896a 	cdplt	9, 14, cr8, cr13, cr10, {3}
   24658:	beed306a 	cdplt	0, 14, cr3, cr13, cr10, {3}
   2465c:	beecd749 	cdplt	7, 14, cr13, cr12, cr9, {2}
   24660:	beec7e28 	cdplt	14, 14, cr7, cr12, cr8, {1}
   24664:	beec24e6 	cdplt	4, 14, cr2, cr12, cr6, {7}
   24668:	beebcbc5 	vfmslt.f64	d28, d27, d5
   2466c:	beeb7282 	cdplt	2, 14, cr7, cr11, cr2, {4}
   24670:	beeb193f 	mcrlt	9, 7, r1, cr11, cr15, {1}
   24674:	beeabfdb 	mcrlt	15, 7, fp, cr10, cr11, {6}
   24678:	beea6677 	mcrlt	6, 7, r6, cr10, cr7, {3}
   2467c:	beea0d13 	mcrlt	13, 7, r0, cr10, cr3, {0}
   24680:	bee9b3af 	cdplt	3, 14, cr11, cr9, cr15, {5}
   24684:	bee95a29 	vfmalt.f32	s11, s18, s19
   24688:	bee900c5 	cdplt	0, 14, cr0, cr9, cr5, {6}
   2468c:	bee8a71e 	mcrlt	7, 7, sl, cr8, cr14, {0}
   24690:	bee84d98 	mcrlt	13, 7, r4, cr8, cr8, {4}
   24694:	bee7f3f1 	mcrlt	3, 7, pc, cr7, cr1, {7}	; <UNPREDICTABLE>
   24698:	bee79a6b 	vfmslt.f32	s19, s14, s23
   2469c:	bee740a3 	cdplt	0, 14, cr4, cr7, cr3, {5}
   246a0:	bee6e6fb 	mcrlt	6, 7, lr, cr6, cr11, {7}
   246a4:	bee68d33 	mcrlt	13, 7, r8, cr6, cr3, {1}
   246a8:	bee6336a 	cdplt	3, 14, cr3, cr6, cr10, {3}
   246ac:	bee5d9a1 	cdplt	9, 14, cr13, cr5, cr1, {5}
   246b0:	bee57fd8 	mcrlt	15, 7, r7, cr5, cr8, {6}
   246b4:	bee525ee 	cdplt	5, 14, cr2, cr5, cr14, {7}
   246b8:	bee4cc03 	cdplt	12, 14, cr12, cr4, cr3, {0}
   246bc:	bee47219 	mcrlt	2, 7, r7, cr4, cr9, {0}
   246c0:	bee4180d 	cdplt	8, 14, cr1, cr4, cr13, {0}
   246c4:	bee3be01 	cdplt	14, 14, cr11, cr3, cr1, {0}
   246c8:	bee363f5 	mcrlt	3, 7, r6, cr3, cr5, {7}
   246cc:	bee309ea 	cdplt	9, 14, cr0, cr3, cr10, {7}
   246d0:	bee2afbc 	mcrlt	15, 7, sl, cr2, cr12, {5}
   246d4:	bee2558f 	cdplt	5, 14, cr5, cr2, cr15, {4}
   246d8:	bee1fb61 	vfmslt.f64	d31, d1, d17
   246dc:	bee1a134 	mcrlt	1, 7, sl, cr1, cr4, {1}
   246e0:	bee146e5 	cdplt	6, 14, cr4, cr1, cr5, {7}
   246e4:	bee0ec96 	mcrlt	12, 7, lr, cr0, cr6, {4}
   246e8:	bee09247 	cdplt	2, 14, cr9, cr0, cr7, {2}
   246ec:	bee037f8 	mcrlt	7, 7, r3, cr0, cr8, {7}
   246f0:	bedfdd87 	cdplt	13, 13, cr13, cr15, cr7, {4}
   246f4:	bedf8317 	mrclt	3, 6, r8, cr15, cr7, {0}
   246f8:	bedf28a6 	cdplt	8, 13, cr2, cr15, cr6, {5}
   246fc:	bedece36 	mrclt	14, 6, ip, cr14, cr6, {1}
   24700:	bede73a3 	cdplt	3, 13, cr7, cr14, cr3, {5}
   24704:	bede1911 	mrclt	9, 6, r1, cr14, cr1, {0}
   24708:	beddbe7f 	mrclt	14, 6, fp, cr13, cr15, {3}
   2470c:	bedd63cc 	cdplt	3, 13, cr6, cr13, cr12, {6}
   24710:	bedd0939 	mrclt	9, 6, r0, cr13, cr9, {1}
   24714:	bedcae86 	cdplt	14, 13, cr10, cr12, cr6, {4}
   24718:	bedc53b1 	mrclt	3, 6, r5, cr12, cr1, {5}
   2471c:	bedbf8fd 	mrclt	8, 6, APSR_nzcv, cr11, cr13, {7}
   24720:	bedb9e28 	cdplt	14, 13, cr9, cr11, cr8, {1}
   24724:	bedb4352 	mrclt	3, 6, r4, cr11, cr2, {2}
   24728:	bedae87d 	mrclt	8, 6, lr, cr10, cr13, {3}
   2472c:	beda8da8 	cdplt	13, 13, cr8, cr10, cr8, {5}
   24730:	beda32b1 	mrclt	2, 6, r3, cr10, cr1, {5}
   24734:	bed9d7ba 	mrclt	7, 6, sp, cr9, cr10, {5}
   24738:	bed97cc4 	cdplt	12, 13, cr7, cr9, cr4, {6}
   2473c:	bed921ab 	cdplt	1, 13, cr2, cr9, cr11, {5}
   24740:	bed8c693 	mrclt	6, 6, ip, cr8, cr3, {4}
   24744:	bed86b7b 	vmovlt.u8	r6, d8[3]
   24748:	bed81062 	cdplt	0, 13, cr1, cr8, cr2, {3}
   2474c:	bed7b54a 	cdplt	5, 13, cr11, cr7, cr10, {2}
   24750:	bed75a10 	mrclt	10, 6, r5, cr7, cr0, {0}
   24754:	bed6fed6 	mrclt	14, 6, APSR_nzcv, cr6, cr6, {6}
   24758:	bed6a39c 	mrclt	3, 6, sl, cr6, cr12, {4}
   2475c:	bed64841 	cdplt	8, 13, cr4, cr6, cr1, {2}
   24760:	bed5ed07 	cdplt	13, 13, cr14, cr5, cr7, {0}
   24764:	bed591ac 	atnltdp	f1, #4.0
   24768:	bed53650 	mrclt	6, 6, r3, cr5, cr0, {2}
   2476c:	bed4dad3 	mrclt	10, 6, sp, cr4, cr3, {6}
   24770:	bed47f56 	mrclt	15, 6, r7, cr4, cr6, {2}
   24774:	bed423d9 	mrclt	3, 6, r2, cr4, cr9, {6}
   24778:	bed3c85c 	mrclt	8, 6, ip, cr3, cr12, {2}
   2477c:	bed36cdf 	mrclt	12, 6, r6, cr3, cr15, {6}
   24780:	bed31141 	cdplt	1, 13, cr1, cr3, cr1, {2}
   24784:	bed2b5a2 	cdplt	5, 13, cr11, cr2, cr2, {5}
   24788:	bed25a04 	vfnmslt.f32	s11, s4, s8
   2478c:	bed1fe65 	cdplt	14, 13, cr15, cr1, cr5, {3}
   24790:	bed1a2a5 	cdplt	2, 13, cr10, cr1, cr5, {5}
   24794:	bed146e5 	cdplt	6, 13, cr4, cr1, cr5, {7}
   24798:	bed0eb25 	vfnmslt.f64	d30, d0, d21
   2479c:	bed08f65 	cdplt	15, 13, cr8, cr0, cr5, {3}
   247a0:	bed03383 	cdplt	3, 13, cr3, cr0, cr3, {4}
   247a4:	becfd7a1 	cdplt	7, 12, cr13, cr15, cr1, {5}
   247a8:	becf7bc0 	cdplt	11, 12, cr7, cr15, cr0, {6}
   247ac:	becf1fde 	mcrlt	15, 6, r1, cr15, cr14, {6}
   247b0:	becec3db 	mcrlt	3, 6, ip, cr14, cr11, {6}
   247b4:	bece67f9 	mcrlt	7, 6, r6, cr14, cr9, {7}
   247b8:	bece0bf6 	mcrlt	11, 6, r0, cr14, cr6, {7}
   247bc:	becdafd1 	mcrlt	15, 6, sl, cr13, cr1, {6}
   247c0:	becd53ce 	cdplt	3, 12, cr5, cr13, cr14, {6}
   247c4:	beccf7a9 	cdplt	7, 12, cr15, cr12, cr9, {5}
   247c8:	becc9b84 	vdivlt.f64	d25, d28, d4
   247cc:	becc3f60 	cdplt	15, 12, cr3, cr12, cr0, {3}
   247d0:	becbe33b 	mcrlt	3, 6, lr, cr11, cr11, {1}
   247d4:	becb86f4 	mcrlt	6, 6, r8, cr11, cr4, {7}
   247d8:	becb2aae 	vdivlt.f32	s5, s23, s29
   247dc:	becace68 	cdplt	14, 12, cr12, cr10, cr8, {3}
   247e0:	beca7200 	cdplt	2, 12, cr7, cr10, cr0, {0}
   247e4:	beca15ba 	mcrlt	5, 6, r1, cr10, cr10, {5}
   247e8:	bec9b952 	mcrlt	9, 6, fp, cr9, cr2, {2}
   247ec:	bec95cea 	cdplt	12, 12, cr5, cr9, cr10, {7}
   247f0:	bec90082 	cdplt	0, 12, cr0, cr9, cr2, {4}
   247f4:	bec8a3f9 	mcrlt	3, 6, sl, cr8, cr9, {7}
   247f8:	bec8476f 	cdplt	7, 12, cr4, cr8, cr15, {3}
   247fc:	bec7eae6 	cdplt	10, 12, cr14, cr7, cr6, {7}
   24800:	bec78e5c 	mcrlt	14, 6, r8, cr7, cr12, {2}
   24804:	bec731d3 	mcrlt	1, 6, r3, cr7, cr3, {6}
   24808:	bec6d528 	cdplt	5, 12, cr13, cr6, cr8, {1}
   2480c:	bec6787d 	mcrlt	8, 6, r7, cr6, cr13, {3}
   24810:	bec61bd2 	mcrlt	11, 6, r1, cr6, cr2, {6}
   24814:	bec5bf27 	cdplt	15, 12, cr11, cr5, cr7, {1}
   24818:	bec5625a 	mcrlt	2, 6, r6, cr5, cr10, {2}
   2481c:	bec5058e 	cdplt	5, 12, cr0, cr5, cr14, {4}
   24820:	bec4a8c1 	cdplt	8, 12, cr10, cr4, cr1, {6}
   24824:	bec44bf5 	mcrlt	11, 6, r4, cr4, cr5, {7}
   24828:	bec3ef07 	cdplt	15, 12, cr14, cr3, cr7, {0}
   2482c:	bec3923a 	mcrlt	2, 6, r9, cr3, cr10, {1}
   24830:	bec3354c 	cdplt	5, 12, cr3, cr3, cr12, {2}
   24834:	bec2d85e 	mcrlt	8, 6, sp, cr2, cr14, {2}
   24838:	bec27b4e 	cdplt	11, 12, cr7, cr2, cr14, {2}
   2483c:	bec21e60 	cdplt	14, 12, cr1, cr2, cr0, {3}
   24840:	bec1c151 	mcrlt	1, 6, ip, cr1, cr1, {2}
   24844:	bec16441 	cdplt	4, 12, cr6, cr1, cr1, {2}
   24848:	bec10710 	mcrlt	7, 6, r0, cr1, cr0, {0}
   2484c:	bec0aa00 	vdivlt.f32	s21, s0, s0
   24850:	bec04ccf 	cdplt	12, 12, cr4, cr0, cr15, {6}
   24854:	bebfef9e 	mrclt	15, 5, lr, cr15, cr14, {4}
   24858:	bebf926c 	cdplt	2, 11, cr9, cr15, cr12, {3}
   2485c:	bebf353b 	mrclt	5, 5, r3, cr15, cr11, {1}
   24860:	bebed7e9 	cdplt	7, 11, cr13, cr14, cr9, {7}
   24864:	bebe7a96 	mrclt	10, 5, r7, cr14, cr6, {4}
   24868:	bebe1d43 	cdplt	13, 11, cr1, cr14, cr3, {2}
   2486c:	bebdbff0 	mrclt	15, 5, fp, cr13, cr0, {7}
   24870:	bebd627c 	mrclt	2, 5, r6, cr13, cr12, {3}
   24874:	bebd0529 	cdplt	5, 11, cr0, cr13, cr9, {1}
   24878:	bebca7b5 	mrclt	7, 5, sl, cr12, cr5, {5}
   2487c:	bebc4a41 	vcvtrlt.u32.f32	s8, s2
   24880:	bebbecab 	cdplt	12, 11, cr14, cr11, cr11, {5}
   24884:	bebb8f36 	mrclt	15, 5, r8, cr11, cr6, {1}
   24888:	bebb31a1 	frdlt<illegal precision>p	f3, f3, f1
   2488c:	bebad40b 	cdplt	4, 11, cr13, cr10, cr11, {0}
   24890:	beba7675 	mrclt	6, 5, r7, cr10, cr5, {3}
   24894:	beba18bd 	mrclt	8, 5, r1, cr10, cr13, {5}
   24898:	beb9bb28 	cdplt	11, 11, cr11, cr9, cr8, {1}
   2489c:	beb95d70 	mrclt	13, 5, r5, cr9, cr0, {3}
   248a0:	beb8ffb9 	mrclt	15, 5, APSR_nzcv, cr8, cr9, {5}
   248a4:	beb8a201 	cdplt	2, 11, cr10, cr8, cr1, {0}
   248a8:	beb84428 	cdplt	4, 11, cr4, cr8, cr8, {1}
   248ac:	beb7e64f 	cdplt	6, 11, cr14, cr7, cr15, {2}
   248b0:	beb78876 	mrclt	8, 5, r8, cr7, cr6, {3}
   248b4:	beb72a9d 	mrclt	10, 5, r2, cr7, cr13, {4}
   248b8:	beb6ccc4 	cdplt	12, 11, cr12, cr6, cr4, {6}
   248bc:	beb66eca 	cdplt	14, 11, cr6, cr6, cr10, {6}
   248c0:	beb610f1 	mrclt	0, 5, r1, cr6, cr1, {7}
   248c4:	beb5b2f6 	mrclt	2, 5, fp, cr5, cr6, {7}
   248c8:	beb554fc 	mrclt	4, 5, r5, cr5, cr12, {7}
   248cc:	beb4f6e0 	cdplt	6, 11, cr15, cr4, cr0, {7}
   248d0:	beb498e5 	cdplt	8, 11, cr9, cr4, cr5, {7}
   248d4:	beb43ac9 	vcmpelt.f32	s6, s18
   248d8:	beb3dcad 	cdplt	12, 11, cr13, cr3, cr13, {5}
   248dc:	beb37e91 	mrclt	14, 5, r7, cr3, cr1, {4}
   248e0:	beb32053 	mrclt	0, 5, r2, cr3, cr3, {2}
   248e4:	beb2c237 	mrclt	2, 5, ip, cr2, cr7, {1}
   248e8:	beb263fa 	mrclt	3, 5, r6, cr2, cr10, {7}
   248ec:	beb205bc 	mrclt	5, 5, r0, cr2, cr12, {5}
   248f0:	beb1a75d 	mrclt	7, 5, sl, cr1, cr13, {2}
   248f4:	beb1491f 	mrclt	9, 5, r4, cr1, cr15, {0}
   248f8:	beb0eac0 	vabslt.f32	s28, s0
   248fc:	beb08c61 	cdplt	12, 11, cr8, cr0, cr1, {3}
   24900:	beb02e02 	cdplt	14, 11, cr2, cr0, cr2, {0}
   24904:	beafcfa2 	cdplt	15, 10, cr12, cr15, cr2, {5}
   24908:	beaf7143 	fdvltem	f7, f7, f3
   2490c:	beaf12c2 	cdplt	2, 10, cr1, cr15, cr2, {6}
   24910:	beaeb442 	cdplt	4, 10, cr11, cr14, cr2, {2}
   24914:	beae55c1 	cdplt	5, 10, cr5, cr14, cr1, {6}
   24918:	beadf740 	cdplt	7, 10, cr15, cr13, cr0, {2}
   2491c:	bead989e 	mcrlt	8, 5, r9, cr13, cr14, {4}
   24920:	bead3a1d 	mcrlt	10, 5, r3, cr13, cr13, {0}
   24924:	beacdb7b 	mcrlt	11, 5, sp, cr12, cr11, {3}
   24928:	beac7cd9 	mcrlt	12, 5, r7, cr12, cr9, {6}
   2492c:	beac1e36 	mcrlt	14, 5, r1, cr12, cr6, {1}
   24930:	beabbf72 	mcrlt	15, 5, fp, cr11, cr2, {3}
   24934:	beab60af 	cdplt	0, 10, cr6, cr11, cr15, {5}
   24938:	beab020c 	cdplt	2, 10, cr0, cr11, cr12, {0}
   2493c:	beaaa348 	cdplt	3, 10, cr10, cr10, cr8, {2}
   24940:	beaa4463 	cdplt	4, 10, cr4, cr10, cr3, {3}
   24944:	bea9e59f 	mcrlt	5, 5, lr, cr9, cr15, {4}
   24948:	bea986ba 	mcrlt	6, 5, r8, cr9, cr10, {5}
   2494c:	bea927d4 	mcrlt	7, 5, r2, cr9, cr4, {6}
   24950:	bea8c8ef 	cdplt	8, 10, cr12, cr8, cr15, {7}
   24954:	bea86a0a 	vfmalt.f32	s12, s16, s20
   24958:	bea80b24 	vfmalt.f64	d0, d8, d20
   2495c:	bea7ac1d 	mcrlt	12, 5, sl, cr7, cr13, {0}
   24960:	bea74d16 	mcrlt	13, 5, r4, cr7, cr6, {0}
   24964:	bea6ee0f 	cdplt	14, 10, cr14, cr6, cr15, {0}
   24968:	bea68f08 	cdplt	15, 10, cr8, cr6, cr8, {0}
   2496c:	bea63001 	cdplt	0, 10, cr3, cr6, cr1, {0}
   24970:	bea5d0d9 	mcrlt	0, 5, sp, cr5, cr9, {6}
   24974:	bea571d2 	mcrlt	1, 5, r7, cr5, cr2, {6}
   24978:	bea512a9 	cdplt	2, 10, cr1, cr5, cr9, {5}
   2497c:	bea4b381 	cdplt	3, 10, cr11, cr4, cr1, {4}
   24980:	bea45437 	mcrlt	4, 5, r5, cr4, cr7, {1}
   24984:	bea3f50e 	cdplt	5, 10, cr15, cr3, cr14, {0}
   24988:	bea395c4 	cdplt	5, 10, cr9, cr3, cr4, {6}
   2498c:	bea3367a 	mcrlt	6, 5, r3, cr3, cr10, {3}
   24990:	bea2d730 	mcrlt	7, 5, sp, cr2, cr0, {1}
   24994:	bea277e6 	cdplt	7, 10, cr7, cr2, cr6, {7}
   24998:	bea2187a 	mcrlt	8, 5, r1, cr2, cr10, {3}
   2499c:	bea1b930 	mcrlt	9, 5, fp, cr1, cr0, {1}
   249a0:	bea159c5 	cdplt	9, 10, cr5, cr1, cr5, {6}
   249a4:	bea0fa59 	mcrlt	10, 5, pc, cr0, cr9, {2}	; <UNPREDICTABLE>
   249a8:	bea09aed 	vfmslt.f32	s18, s1, s27
   249ac:	bea03b60 	vfmslt.f64	d3, d0, d16
   249b0:	be9fdbf5 	vmovlt.u16	sp, d31[1]
   249b4:	be9f7c67 	cdplt	12, 9, cr7, cr15, cr7, {3}
   249b8:	be9f1cda 	mrclt	12, 4, r1, cr15, cr10, {6}
   249bc:	be9ebd4d 	cdplt	13, 9, cr11, cr14, cr13, {2}
   249c0:	be9e5dc0 	cdplt	13, 9, cr5, cr14, cr0, {6}
   249c4:	be9dfe11 	mrclt	14, 4, APSR_nzcv, cr13, cr1, {0}
   249c8:	be9d9e84 	cdplt	14, 9, cr9, cr13, cr4, {4}
   249cc:	be9d3ed5 	mrclt	14, 4, r3, cr13, cr5, {6}
   249d0:	be9cdf26 	cdplt	15, 9, cr13, cr12, cr6, {1}
   249d4:	be9c7f78 	mrclt	15, 4, r7, cr12, cr8, {3}
   249d8:	be9c1fa7 	cdplt	15, 9, cr1, cr12, cr7, {5}
   249dc:	be9bbff9 	mrclt	15, 4, fp, cr11, cr9, {7}
   249e0:	be9b6028 	cdplt	0, 9, cr6, cr11, cr8, {1}
   249e4:	be9b0058 	mrclt	0, 4, r0, cr11, cr8, {2}
   249e8:	be9aa088 	cdplt	0, 9, cr10, cr10, cr8, {4}
   249ec:	be9a40b8 	mrclt	0, 4, r4, cr10, cr8, {5}
   249f0:	be99e0c6 	cdplt	0, 9, cr14, cr9, cr6, {6}
   249f4:	be9980f5 	mrclt	0, 4, r8, cr9, cr5, {7}
   249f8:	be992104 	fmllte	f2, f1, f4
   249fc:	be98c112 	mrclt	1, 4, ip, cr8, cr2, {0}
   24a00:	be986120 	fmlltep	f6, f0, f0
   24a04:	be98010c 	fmllte	f0, f0, #4.0
   24a08:	be97a11b 	mrclt	1, 4, sl, cr7, cr11, {0}
   24a0c:	be974107 	fmllts	f4, f7, f7
   24a10:	be96e0f4 	mrclt	0, 4, lr, cr6, cr4, {7}
   24a14:	be9680e0 	cdplt	0, 9, cr8, cr6, cr0, {7}
   24a18:	be9620cd 	cdplt	0, 9, cr2, cr6, cr13, {6}
   24a1c:	be95c0ba 	mrclt	0, 4, ip, cr5, cr10, {5}
   24a20:	be956085 	cdplt	0, 9, cr6, cr5, cr5, {4}
   24a24:	be950071 	mrclt	0, 4, r0, cr5, cr1, {3}
   24a28:	be94a03c 	mrclt	0, 4, sl, cr4, cr12, {1}
   24a2c:	be944007 	cdplt	0, 9, cr4, cr4, cr7, {0}
   24a30:	be93dfb1 	mrclt	15, 4, sp, cr3, cr1, {5}
   24a34:	be937f7c 	mrclt	15, 4, r7, cr3, cr12, {3}
   24a38:	be931f25 	cdplt	15, 9, cr1, cr3, cr5, {1}
   24a3c:	be92bef0 	mrclt	14, 4, fp, cr2, cr0, {7}
   24a40:	be925e9a 	mrclt	14, 4, r5, cr2, cr10, {4}
   24a44:	be91fe43 	cdplt	14, 9, cr15, cr1, cr3, {2}
   24a48:	be919ded 	cdplt	13, 9, cr9, cr1, cr13, {7}
   24a4c:	be913d75 	mrclt	13, 4, r3, cr1, cr5, {3}
   24a50:	be90dd1e 	mrclt	13, 4, sp, cr0, cr14, {0}
   24a54:	be907ca6 	cdplt	12, 9, cr7, cr0, cr6, {5}
   24a58:	be901c2e 	cdplt	12, 9, cr1, cr0, cr14, {1}
   24a5c:	be8fbbb6 	vduplt.16	d31, fp
   24a60:	be8f5b3e 	vduplt.16	d15, r5
   24a64:	be8efaa4 	vdivlt.f32	s30, s29, s9
   24a68:	be8e9a2c 	vdivlt.f32	s18, s28, s25
   24a6c:	be8e3993 	mcrlt	9, 4, r3, cr14, cr3, {4}
   24a70:	be8dd8f9 	mcrlt	8, 4, sp, cr13, cr9, {7}
   24a74:	be8d7860 	cdplt	8, 8, cr7, cr13, cr0, {3}
   24a78:	be8d17c6 	cdplt	7, 8, cr1, cr13, cr6, {6}
   24a7c:	be8cb70b 	cdplt	7, 8, cr11, cr12, cr11, {0}
   24a80:	be8c5671 	mcrlt	6, 4, r5, cr12, cr1, {3}
   24a84:	be8bf5b6 	mcrlt	5, 4, pc, cr11, cr6, {5}	; <UNPREDICTABLE>
   24a88:	be8b94fb 	mcrlt	4, 4, r9, cr11, cr11, {7}
   24a8c:	be8b3440 	cdplt	4, 8, cr3, cr11, cr0, {2}
   24a90:	be8ad384 	cdplt	3, 8, cr13, cr10, cr4, {4}
   24a94:	be8a72c9 	cdplt	2, 8, cr7, cr10, cr9, {6}
   24a98:	be8a11ed 	rmflt<illegal precision>z	f1, f2, #5.0
   24a9c:	be89b131 	mcrlt	1, 4, fp, cr9, cr1, {1}
   24aa0:	be895055 	mcrlt	0, 4, r5, cr9, cr5, {2}
   24aa4:	be88ef78 	mcrlt	15, 4, lr, cr8, cr8, {3}
   24aa8:	be888e9b 	mcrlt	14, 4, r8, cr8, cr11, {4}
   24aac:	be882d9d 	mcrlt	13, 4, r2, cr8, cr13, {4}
   24ab0:	be87ccc0 	cdplt	12, 8, cr12, cr7, cr0, {6}
   24ab4:	be876bc2 	cdplt	11, 8, cr6, cr7, cr2, {6}
   24ab8:	be870ae5 	cdplt	10, 8, cr0, cr7, cr5, {7}
   24abc:	be86a9e7 	cdplt	9, 8, cr10, cr6, cr7, {7}
   24ac0:	be8648e9 	cdplt	8, 8, cr4, cr6, cr9, {7}
   24ac4:	be85e7c9 	cdplt	7, 8, cr14, cr5, cr9, {6}
   24ac8:	be8586cb 	cdplt	6, 8, cr8, cr5, cr11, {6}
   24acc:	be8525cc 	cdplt	5, 8, cr2, cr5, cr12, {6}
   24ad0:	be84c4ac 	cdplt	4, 8, cr12, cr4, cr12, {5}
   24ad4:	be84638d 	cdplt	3, 8, cr6, cr4, cr13, {4}
   24ad8:	be84026d 	cdplt	2, 8, cr0, cr4, cr13, {3}
   24adc:	be83a14d 	sinltsm	f2, #5.0
   24ae0:	be83402d 	cdplt	0, 8, cr4, cr3, cr13, {1}
   24ae4:	be82deec 	cdplt	14, 8, cr13, cr2, cr12, {7}
   24ae8:	be827dcc 	cdplt	13, 8, cr7, cr2, cr12, {6}
   24aec:	be821c8a 	cdplt	12, 8, cr1, cr2, cr10, {4}
   24af0:	be81bb49 	cdplt	11, 8, cr11, cr1, cr9, {2}
   24af4:	be815a08 	vdivlt.f32	s10, s2, s16
   24af8:	be80f8c6 	cdplt	8, 8, cr15, cr0, cr6, {6}
   24afc:	be809763 	cdplt	7, 8, cr9, cr0, cr3, {3}
   24b00:	be803622 	cdplt	6, 8, cr3, cr0, cr2, {1}
   24b04:	be7fa97e 	mrclt	9, 3, sl, cr15, cr14, {3}
   24b08:	be7ee6fb 	mrclt	6, 3, lr, cr14, cr11, {7}
   24b0c:	be7e2435 	mrclt	4, 3, r2, cr14, cr5, {1}
   24b10:	be7d6170 	mrclt	1, 3, r6, cr13, cr0, {3}
   24b14:	be7c9e67 	cdplt	14, 7, cr9, cr12, cr7, {3}
   24b18:	be7bdba1 	vaddlt.f64	d29, d27, d17
   24b1c:	be7b18db 	mrclt	8, 3, r1, cr11, cr11, {6}
   24b20:	be7a55d2 	mrclt	5, 3, r5, cr10, cr2, {6}
   24b24:	be7992c9 	cdplt	2, 7, cr9, cr9, cr9, {6}
   24b28:	be78cfc0 	cdplt	15, 7, cr12, cr8, cr0, {6}
   24b2c:	be780cb7 	mrclt	12, 3, r0, cr8, cr7, {5}
   24b30:	be7749ae 	cdplt	9, 7, cr4, cr7, cr14, {5}
   24b34:	be7686a5 	cdplt	6, 7, cr8, cr6, cr5, {5}
   24b38:	be75c359 	mrclt	3, 3, ip, cr5, cr9, {2}
   24b3c:	be75000d 	cdplt	0, 7, cr0, cr5, cr13, {0}
   24b40:	be743d04 	cdplt	13, 7, cr3, cr4, cr4, {0}
   24b44:	be7379b7 	mrclt	9, 3, r7, cr3, cr7, {5}
   24b48:	be72b66b 	cdplt	6, 7, cr11, cr2, cr11, {3}
   24b4c:	be71f2dc 	mrclt	2, 3, APSR_nzcv, cr1, cr12, {6}
   24b50:	be712f90 	mrclt	15, 3, r2, cr1, cr0, {4}
   24b54:	be706c44 	cdplt	12, 7, cr6, cr0, cr4, {2}
   24b58:	be6fa8b5 	mcrlt	8, 3, sl, cr15, cr5, {5}
   24b5c:	be6ee526 	cdplt	5, 6, cr14, cr14, cr6, {1}
   24b60:	be6e2196 	mcrlt	1, 3, r2, cr14, cr6, {4}
   24b64:	be6d5e07 	cdplt	14, 6, cr5, cr13, cr7, {0}
   24b68:	be6c9a78 	mcrlt	10, 3, r9, cr12, cr8, {3}
   24b6c:	be6bd6e9 	cdplt	6, 6, cr13, cr11, cr9, {7}
   24b70:	be6b1316 	mcrlt	3, 3, r1, cr11, cr6, {0}
   24b74:	be6a4f87 	cdplt	15, 6, cr4, cr10, cr7, {4}
   24b78:	be698bb5 	vmovlt.8	d25[5], r8
   24b7c:	be68c7e3 	cdplt	7, 6, cr12, cr8, cr3, {7}
   24b80:	be680410 	mcrlt	4, 3, r0, cr8, cr0, {0}
   24b84:	be67403e 	mcrlt	0, 3, r4, cr7, cr14, {1}
   24b88:	be667c6c 	cdplt	12, 6, cr7, cr6, cr12, {3}
   24b8c:	be65b899 	mcrlt	8, 3, fp, cr5, cr9, {4}
   24b90:	be64f484 	cdplt	4, 6, cr15, cr4, cr4, {4}
   24b94:	be64306e 	cdplt	0, 6, cr3, cr4, cr14, {3}
   24b98:	be636c9c 	mcrlt	12, 3, r6, cr3, cr12, {4}
   24b9c:	be62a887 	cdplt	8, 6, cr10, cr2, cr7, {4}
   24ba0:	be61e471 	mcrlt	4, 3, lr, cr1, cr1, {3}
   24ba4:	be61205c 	mcrlt	0, 3, r2, cr1, cr12, {2}
   24ba8:	be605c03 	cdplt	12, 6, cr5, cr0, cr3, {0}
   24bac:	be5f97ee 	cdplt	7, 5, cr9, cr15, cr14, {7}
   24bb0:	be5ed395 	mrclt	3, 2, sp, cr14, cr5, {4}
   24bb4:	be5e0f80 	cdplt	15, 5, cr0, cr14, cr0, {4}
   24bb8:	be5d4b27 	vnmlslt.f64	d20, d13, d23
   24bbc:	be5c86cf 	cdplt	6, 5, cr8, cr12, cr15, {6}
   24bc0:	be5bc276 	mrclt	2, 2, ip, cr11, cr6, {3}
   24bc4:	be5afe1e 	mrclt	14, 2, APSR_nzcv, cr10, cr14, {0}
   24bc8:	be5a3982 	cdplt	9, 5, cr3, cr10, cr2, {4}
   24bcc:	be597529 	cdplt	5, 5, cr7, cr9, cr9, {1}
   24bd0:	be58b08e 	cdplt	0, 5, cr11, cr8, cr14, {4}
   24bd4:	be57ec35 	mrclt	12, 2, lr, cr7, cr5, {1}
   24bd8:	be57279a 	mrclt	7, 2, r2, cr7, cr10, {4}
   24bdc:	be5662fe 	mrclt	2, 2, r6, cr6, cr14, {7}
   24be0:	be559e62 	cdplt	14, 5, cr9, cr5, cr2, {3}
   24be4:	be54d9c7 	cdplt	9, 5, cr13, cr4, cr7, {6}
   24be8:	be5414e8 	cdplt	4, 5, cr1, cr4, cr8, {7}
   24bec:	be53504c 	cdplt	0, 5, cr5, cr3, cr12, {2}
   24bf0:	be528b6e 	vnmlalt.f64	d24, d2, d30
   24bf4:	be51c6d2 	mrclt	6, 2, ip, cr1, cr2, {6}
   24bf8:	be5101f3 	mrclt	1, 2, r0, cr1, cr3, {7}
   24bfc:	be503d14 	mrclt	13, 2, r3, cr0, cr4, {0}
   24c00:	be4f7836 	mcrlt	8, 2, r7, cr15, cr6, {1}
   24c04:	be4eb357 	mcrlt	3, 2, fp, cr14, cr7, {2}
   24c08:	be4dee78 	mcrlt	14, 2, lr, cr13, cr8, {3}
   24c0c:	be4d2956 	mcrlt	9, 2, r2, cr13, cr6, {2}
   24c10:	be4c6477 	mcrlt	4, 2, r6, cr12, cr7, {3}
   24c14:	be4b9f56 	mcrlt	15, 2, r9, cr11, cr6, {2}
   24c18:	be4ada34 	mcrlt	10, 2, sp, cr10, cr4, {1}
   24c1c:	be4a1555 	mcrlt	5, 2, r1, cr10, cr5, {2}
   24c20:	be495033 	mcrlt	0, 2, r5, cr9, cr3, {1}
   24c24:	be488b11 	vmovlt.8	d8[0], r8
   24c28:	be47c5ac 	cdplt	5, 4, cr12, cr7, cr12, {5}
   24c2c:	be47008a 	cdplt	0, 4, cr0, cr7, cr10, {4}
   24c30:	be463b69 	vmlslt.f64	d19, d6, d25
   24c34:	be457604 	cdplt	6, 4, cr7, cr5, cr4, {0}
   24c38:	be44b09f 	mcrlt	0, 2, fp, cr4, cr15, {4}
   24c3c:	be43eb7d 	vmovlt.8	d3[3], lr
   24c40:	be432618 	mcrlt	6, 2, r2, cr3, cr8, {0}
   24c44:	be4260b3 	mcrlt	0, 2, r6, cr2, cr3, {5}
   24c48:	be419b4e 	vmlslt.f64	d25, d1, d14
   24c4c:	be40d5a6 	cdplt	5, 4, cr13, cr0, cr6, {5}
   24c50:	be401041 	cdplt	0, 4, cr1, cr0, cr1, {2}
   24c54:	be3f4adc 	mrclt	10, 1, r4, cr15, cr12, {6}
   24c58:	be3e8534 	mrclt	5, 1, r8, cr14, cr4, {1}
   24c5c:	be3dbf8c 	cdplt	15, 3, cr11, cr13, cr12, {4}
   24c60:	be3cfa27 	vaddlt.f32	s30, s24, s15
   24c64:	be3c347f 	mrclt	4, 1, r3, cr12, cr15, {3}
   24c68:	be3b6ed6 	mrclt	14, 1, r6, cr11, cr6, {6}
   24c6c:	be3aa92e 	cdplt	9, 3, cr10, cr10, cr14, {1}
   24c70:	be39e386 	cdplt	3, 3, cr14, cr9, cr6, {4}
   24c74:	be391d9b 	mrclt	13, 1, r1, cr9, cr11, {4}
   24c78:	be3857f3 	mrclt	7, 1, r5, cr8, cr3, {7}
   24c7c:	be379208 	cdplt	2, 3, cr9, cr7, cr8, {0}
   24c80:	be36cc60 	cdplt	12, 3, cr12, cr6, cr0, {3}
   24c84:	be360675 	mrclt	6, 1, r0, cr6, cr5, {3}
   24c88:	be354089 	cdplt	0, 3, cr4, cr5, cr9, {4}
   24c8c:	be347a9e 	mrclt	10, 1, r7, cr4, cr14, {4}
   24c90:	be33b4b3 	mrclt	4, 1, fp, cr3, cr3, {5}
   24c94:	be32eec8 	cdplt	14, 3, cr14, cr2, cr8, {6}
   24c98:	be3228dd 	mrclt	8, 1, r2, cr2, cr13, {6}
   24c9c:	be3162f1 	mrclt	2, 1, r6, cr1, cr1, {7}
   24ca0:	be309cc3 	cdplt	12, 3, cr9, cr0, cr3, {6}
   24ca4:	be2fd6d8 	mcrlt	6, 1, sp, cr15, cr8, {6}
   24ca8:	be2f10aa 	cdplt	0, 2, cr1, cr15, cr10, {5}
   24cac:	be2e4a7b 	mcrlt	10, 1, r4, cr14, cr11, {3}
   24cb0:	be2d844d 	cdplt	4, 2, cr8, cr13, cr13, {2}
   24cb4:	be2cbe1f 	mcrlt	14, 1, fp, cr12, cr15, {0}
   24cb8:	be2bf7f0 	mcrlt	7, 1, pc, cr11, cr0, {7}	; <UNPREDICTABLE>
   24cbc:	be2b31c2 	suflt<illegal precision>m	f3, f3, f2
   24cc0:	be2a6b94 	vmovlt.32	d26[1], r6
   24cc4:	be29a565 	cfsh64lt	mvdx10, mvdx9, #53
   24cc8:	be28def4 	mcrlt	14, 1, sp, cr8, cr4, {7}
   24ccc:	be2818c6 	cdplt	8, 2, cr1, cr8, cr6, {6}
   24cd0:	be275254 	mcrlt	2, 1, r5, cr7, cr4, {2}
   24cd4:	be268be3 	vnmullt.f64	d8, d22, d19
   24cd8:	be25c572 	mcrlt	5, 1, ip, cr5, cr2, {3}
   24cdc:	be24ff00 	cdplt	15, 2, cr15, cr4, cr0, {0}
   24ce0:	be24388f 	cdplt	8, 2, cr3, cr4, cr15, {4}
   24ce4:	be23721d 	mcrlt	2, 1, r7, cr3, cr13, {0}
   24ce8:	be22abac 	vmullt.f64	d10, d18, d28
   24cec:	be21e53b 	mcrlt	5, 1, lr, cr1, cr11, {1}
   24cf0:	be211e86 	cdplt	14, 2, cr1, cr1, cr6, {4}
   24cf4:	be205815 	mcrlt	8, 1, r5, cr0, cr5, {0}
   24cf8:	be1f9160 	mnfltez	f1, f0
   24cfc:	be1ecaef 	vnmlalt.f32	s24, s29, s31
   24d00:	be1e043a 	mrclt	4, 0, r0, cr14, cr10, {1}
   24d04:	be1d3d86 	cdplt	13, 1, cr3, cr13, cr6, {4}
   24d08:	be1c76d1 	mrclt	6, 0, r7, cr12, cr1, {6}
   24d0c:	be1bb01d 	mrclt	0, 0, fp, cr11, cr13, {0}
   24d10:	be1ae968 	cdplt	9, 1, cr14, cr10, cr8, {3}
   24d14:	be1a22b4 	mrclt	2, 0, r2, cr10, cr4, {5}
   24d18:	be195bff 	vmovlt.s16	r5, d25[1]
   24d1c:	be189507 	cfmul32lt	mvfx9, mvfx8, mvfx7
   24d20:	be17ce53 	mrclt	14, 0, ip, cr7, cr3, {2}
   24d24:	be17075b 	mrclt	7, 0, r0, cr7, cr11, {2}
   24d28:	be164064 	cdplt	0, 1, cr4, cr6, cr4, {3}
   24d2c:	be1579af 	cdplt	9, 1, cr7, cr5, cr15, {5}
   24d30:	be14b2b7 	mrclt	2, 0, fp, cr4, cr7, {5}
   24d34:	be13ebc0 	vnmlalt.f64	d14, d19, d0
   24d38:	be1324c8 	cdplt	4, 1, cr2, cr3, cr8, {6}
   24d3c:	be125dd1 	mrclt	13, 0, r5, cr2, cr1, {6}
   24d40:	be1196d9 	mrclt	6, 0, r9, cr1, cr9, {6}
   24d44:	be10cfe1 	cdplt	15, 1, cr12, cr0, cr1, {7}
   24d48:	be1008a7 	cdplt	8, 1, cr0, cr0, cr7, {5}
   24d4c:	be0f41af 	adflt<illegal precision>p	f4, f7, #10.0
   24d50:	be0e7a74 	mcrlt	10, 0, r7, cr14, cr4, {3}
   24d54:	be0db37d 	mcrlt	3, 0, fp, cr13, cr13, {3}
   24d58:	be0cec42 	cdplt	12, 0, cr14, cr12, cr2, {2}
   24d5c:	be0c2507 	cfsh32lt	mvfx2, mvfx12, #7
   24d60:	be0b5e0f 	cdplt	14, 0, cr5, cr11, cr15, {0}
   24d64:	be0a96d5 	mcrlt	6, 0, r9, cr10, cr5, {6}
   24d68:	be09cf9a 	mcrlt	15, 0, ip, cr9, cr10, {4}
   24d6c:	be09085f 	mcrlt	8, 0, r0, cr9, cr15, {2}
   24d70:	be084125 	adfltep	f4, f0, f5
   24d74:	be0779a7 	cdplt	9, 0, cr7, cr7, cr7, {5}
   24d78:	be06b26c 	cdplt	2, 0, cr11, cr6, cr12, {3}
   24d7c:	be05eb31 	vmovlt.16	d5[0], lr
   24d80:	be0523b3 	mcrlt	3, 0, r2, cr5, cr3, {5}
   24d84:	be045c79 	mcrlt	12, 0, r5, cr4, cr9, {3}
   24d88:	be0394fb 	mcrlt	4, 0, r9, cr3, cr11, {7}
   24d8c:	be02cd7d 	mcrlt	13, 0, ip, cr2, cr13, {3}
   24d90:	be020642 	cfmadd32lt	mvax2, mvfx0, mvfx2, mvfx2
   24d94:	be013ec4 	cdplt	14, 0, cr3, cr1, cr4, {6}
   24d98:	be007747 	cdplt	7, 0, cr7, cr0, cr7, {2}
   24d9c:	bdff5f91 	ldcllt	15, cr5, [pc, #580]!	; 24fe8 <fsintable+0x7fc0>
   24da0:	bdfdd096 	ldcllt	0, cr13, [sp, #600]!	; 0x258
   24da4:	bdfc419a 	ldflte	f4, [ip, #616]!	; 0x268
   24da8:	bdfab29e 	lfmlt	f3, 3, [sl, #632]!	; 0x278
   24dac:	bdf9231c 	ldcllt	3, cr2, [r9, #112]!	; 0x70
   24db0:	bdf79421 	cfldrdlt	mvd9, [r7, #132]!	; 0x84
   24db4:	bdf60525 	cfldr64lt	mvdx0, [r6, #148]!	; 0x94
   24db8:	bdf475a3 	cfldr64lt	mvdx7, [r4, #652]!	; 0x28c
   24dbc:	bdf2e6a7 	ldcllt	6, cr14, [r2, #668]!	; 0x29c
   24dc0:	bdf15726 	ldcllt	7, cr5, [r1, #152]!	; 0x98
   24dc4:	bdefc7a4 	stcllt	7, cr12, [pc, #656]!	; 2505c <fsintable+0x8034>
   24dc8:	bdee38a8 	stcllt	8, cr3, [lr, #672]!	; 0x2a0
   24dcc:	bdeca926 	stcllt	9, cr10, [ip, #152]!	; 0x98
   24dd0:	bdeb19a4 	stcllt	9, cr1, [fp, #656]!	; 0x290
   24dd4:	bde98a22 	stcllt	10, cr8, [r9, #136]!	; 0x88
   24dd8:	bde7faa0 	stcllt	10, cr15, [r7, #640]!	; 0x280
   24ddc:	bde66b1e 	stcllt	11, cr6, [r6, #120]!	; 0x78
   24de0:	bde4db9c 	stcllt	11, cr13, [r4, #624]!	; 0x270
   24de4:	bde34b94 	stcllt	11, cr4, [r3, #592]!	; 0x250
   24de8:	bde1bc12 	stcllt	12, cr11, [r1, #72]!	; 0x48
   24dec:	bde02c91 	stcllt	12, cr2, [r0, #580]!	; 0x244
   24df0:	bdde9c88 	ldcllt	12, cr9, [lr, #544]	; 0x220
   24df4:	bddd0d06 	ldcllt	13, cr0, [sp, #24]
   24df8:	bddb7cfe 	ldcllt	12, cr7, [fp, #1016]	; 0x3f8
   24dfc:	bdd9ed7c 	ldcllt	13, cr14, [r9, #496]	; 0x1f0
   24e00:	bdd85d74 	ldcllt	13, cr5, [r8, #464]	; 0x1d0
   24e04:	bdd6cd6c 	ldcllt	13, cr12, [r6, #432]	; 0x1b0
   24e08:	bdd53dea 	ldcllt	13, cr3, [r5, #936]	; 0x3a8
   24e0c:	bdd3ade2 	ldcllt	13, cr10, [r3, #904]	; 0x388
   24e10:	bdd21dda 	ldcllt	13, cr1, [r2, #872]	; 0x368
   24e14:	bdd08dd2 	ldcllt	13, cr8, [r0, #840]	; 0x348
   24e18:	bdcefdca 	stcllt	13, cr15, [lr, #808]	; 0x328
   24e1c:	bdcd6dc2 	stcllt	13, cr6, [sp, #776]	; 0x308
   24e20:	bdcbddba 	stcllt	13, cr13, [fp, #744]	; 0x2e8
   24e24:	bdca4d2b 	stcllt	13, cr4, [sl, #172]	; 0xac
   24e28:	bdc8bd23 	stcllt	13, cr11, [r8, #140]	; 0x8c
   24e2c:	bdc72d1b 	stcllt	13, cr2, [r7, #108]	; 0x6c
   24e30:	bdc59c8d 	stcllt	12, cr9, [r5, #564]	; 0x234
   24e34:	bdc40c84 	stcllt	12, cr0, [r4, #528]	; 0x210
   24e38:	bdc27bf6 	vstrlt	d23, [r2, #984]	; 0x3d8
   24e3c:	bdc0ebee 	vstrlt	d30, [r0, #952]	; 0x3b8
   24e40:	bdbf5b60 	ldclt	11, cr5, [pc, #384]!	; 24fc8 <fsintable+0x7fa0>
   24e44:	bdbdcb58 	ldclt	11, cr12, [sp, #352]!	; 0x160
   24e48:	bdbc3ac9 	ldclt	10, cr3, [ip, #804]!	; 0x324
   24e4c:	bdbaaa3b 	ldclt	10, cr10, [sl, #236]!	; 0xec
   24e50:	bdb919ac 	ldclt	9, cr1, [r9, #688]!	; 0x2b0
   24e54:	bdb7891e 	ldclt	9, cr8, [r7, #120]!	; 0x78
   24e58:	bdb5f916 	ldclt	9, cr15, [r5, #88]!	; 0x58
   24e5c:	bdb46888 	ldclt	8, cr6, [r4, #544]!	; 0x220
   24e60:	bdb2d7f9 	ldclt	7, cr13, [r2, #996]!	; 0x3e4
   24e64:	bdb146e5 	ldclt	6, cr4, [r1, #916]!	; 0x394
   24e68:	bdafb656 	stclt	6, cr11, [pc, #344]!	; 24fc8 <fsintable+0x7fa0>
   24e6c:	bdae25c8 	cfstr32lt	mvfx2, [lr, #800]!	; 0x320
   24e70:	bdac953a 	cfstr32lt	mvfx9, [ip, #232]!	; 0xe8
   24e74:	bdab04ab 	cfstrslt	mvf0, [fp, #684]!	; 0x2ac
   24e78:	bda97397 	stclt	3, cr7, [r9, #604]!	; 0x25c
   24e7c:	bda7e308 	stclt	3, cr14, [r7, #32]!
   24e80:	bda651f4 	stflts	f5, [r6, #976]!	; 0x3d0
   24e84:	bda4c166 	stfltd	f4, [r4, #408]!	; 0x198
   24e88:	bda33051 	stclt	0, cr3, [r3, #324]!	; 0x144
   24e8c:	bda19fc3 	stclt	15, cr9, [r1, #780]!	; 0x30c
   24e90:	bda00eae 	stclt	14, cr0, [r0, #696]!	; 0x2b8
   24e94:	bd9e7e20 	ldclt	14, cr7, [lr, #128]	; 0x80
   24e98:	bd9ced0b 	ldclt	13, cr14, [ip, #44]	; 0x2c
   24e9c:	bd9b5bf7 	vldrlt	d5, [fp, #988]	; 0x3dc
   24ea0:	bd99cae2 	vldrlt	s24, [r9, #904]	; 0x388
   24ea4:	bd9839ce 	ldclt	9, cr3, [r8, #824]	; 0x338
   24ea8:	bd96a93f 	ldclt	9, cr10, [r6, #252]	; 0xfc
   24eac:	bd95182b 	ldclt	8, cr1, [r5, #172]	; 0xac
   24eb0:	bd938716 	ldclt	7, cr8, [r3, #88]	; 0x58
   24eb4:	bd91f601 	ldclt	6, cr15, [r1, #4]
   24eb8:	bd9064ed 	cfldrslt	mvf6, [r0, #948]	; 0x3b4
   24ebc:	bd8ed352 	stclt	3, cr13, [lr, #328]	; 0x148
   24ec0:	bd8d423e 	sfmlt	f4, 4, [sp, #248]	; 0xf8
   24ec4:	bd8bb129 	stfltd	f3, [fp, #164]	; 0xa4
   24ec8:	bd8a2014 	stclt	0, cr2, [sl, #80]	; 0x50
   24ecc:	bd888f00 	stclt	15, cr8, [r8]
   24ed0:	bd86fd65 	stclt	13, cr15, [r6, #404]	; 0x194
   24ed4:	bd856c51 	stclt	12, cr6, [r5, #324]	; 0x144
   24ed8:	bd83db3c 	vstrlt	d13, [r3, #240]	; 0xf0
   24edc:	bd8249a1 	stclt	9, cr4, [r2, #644]	; 0x284
   24ee0:	bd80b88d 	stclt	8, cr11, [r0, #564]	; 0x234
   24ee4:	bd7e4de4 	ldcllt	13, cr4, [lr, #-912]!	; 0xfffffc70
   24ee8:	bd7b2bbb 	fldmdbxlt	fp!, {d18-d110}	;@ Deprecated
   24eec:	bd780885 	ldcllt	8, cr0, [r8, #-532]!	; 0xfffffdec
   24ef0:	bd74e65c 	ldcllt	6, cr14, [r4, #-368]!	; 0xfffffe90
   24ef4:	bd71c326 	ldcllt	3, cr12, [r1, #-152]!	; 0xffffff68
   24ef8:	bd6e9ff1 	stcllt	15, cr9, [lr, #-964]!	; 0xfffffc3c
   24efc:	bd6b7dc8 	stcllt	13, cr7, [fp, #-800]!	; 0xfffffce0
   24f00:	bd685a92 	vstmdblt	r8!, {s11-s156}
   24f04:	bd65375d 	stcllt	7, cr3, [r5, #-372]!	; 0xfffffe8c
   24f08:	bd621427 	cfstrdlt	mvd1, [r2, #-156]!	; 0xffffff64
   24f0c:	bd5ef0f1 	ldcllt	0, cr15, [lr, #-964]	; 0xfffffc3c
   24f10:	bd5bcec8 	ldcllt	14, cr12, [fp, #-800]	; 0xfffffce0
   24f14:	bd58ab93 	vldrlt	d26, [r8, #-588]	; 0xfffffdb4
   24f18:	bd55885d 	ldcllt	8, cr8, [r5, #-372]	; 0xfffffe8c
   24f1c:	bd526528 	cfldr64lt	mvdx6, [r2, #-160]	; 0xffffff60
   24f20:	bd4f41f2 	stflte	f4, [pc, #-968]	; 24b60 <fsintable+0x7b38>
   24f24:	bd4c1ebd 	stcllt	14, cr1, [ip, #-756]	; 0xfffffd0c
   24f28:	bd48fb87 	vstrlt	d31, [r8, #-540]	; 0xfffffde4
   24f2c:	bd45d851 	stcllt	8, cr13, [r5, #-324]	; 0xfffffebc
   24f30:	bd42b40f 	cfstrdlt	mvd11, [r2, #-60]	; 0xffffffc4
   24f34:	bd3f90da 	ldclt	0, cr9, [pc, #-872]!	; 24bd4 <fsintable+0x7bac>
   24f38:	bd3c6da4 	ldclt	13, cr6, [ip, #-656]!	; 0xfffffd70
   24f3c:	bd394a6f 	vldmdblt	r9!, {s8-s118}
   24f40:	bd362739 	ldclt	7, cr2, [r6, #-228]!	; 0xffffff1c
   24f44:	bd330404 	cfldrslt	mvf0, [r3, #-16]!
   24f48:	bd2fdfc2 	stclt	15, cr13, [pc, #-776]!	; 24c48 <fsintable+0x7c20>
   24f4c:	bd2cbc8c 	stclt	12, cr11, [ip, #-560]!	; 0xfffffdd0
   24f50:	bd299956 	stclt	9, cr9, [r9, #-344]!	; 0xfffffea8
   24f54:	bd267514 	cfstr32lt	mvfx7, [r6, #-80]!	; 0xffffffb0
   24f58:	bd2351df 	stflts	f5, [r3, #-892]!	; 0xfffffc84
   24f5c:	bd202ea9 	stclt	14, cr2, [r0, #-676]!	; 0xfffffd5c
   24f60:	bd1d0a67 	vldrlt	s0, [sp, #-412]	; 0xfffffe64
   24f64:	bd19e732 	ldclt	7, cr14, [r9, #-200]	; 0xffffff38
   24f68:	bd16c2f0 	lfmlt	f4, 1, [r6, #-960]	; 0xfffffc40
   24f6c:	bd139fba 	ldclt	15, cr9, [r3, #-744]	; 0xfffffd18
   24f70:	bd107b78 	vldrlt	d7, [r0, #-480]	; 0xfffffe20
   24f74:	bd0d5843 	stclt	8, cr5, [sp, #-268]	; 0xfffffef4
   24f78:	bd0a3401 	cfstrslt	mvf3, [sl, #-4]
   24f7c:	bd0710cb 	stclt	0, cr1, [r7, #-812]	; 0xfffffcd4
   24f80:	bd03ec89 	stclt	12, cr14, [r3, #-548]	; 0xfffffddc
   24f84:	bd00c847 	stclt	8, cr12, [r0, #-284]	; 0xfffffee4
   24f88:	bcfb4a23 	vldmialt	fp!, {s9-s43}
   24f8c:	bcf5019f 	ldflte	f0, [r5], #636	; 0x27c
   24f90:	bceebb34 	vstmialt	lr!, {d27-<overflow reg d52>}
   24f94:	bce872b0 	sfmlt	f7, 2, [r8], #704	; 0x2c0
   24f98:	bce22a2c 	vstmialt	r2!, {s5-s48}
   24f9c:	bcdbe1a8 	ldfltp	f6, [fp], {168}	; 0xa8
   24fa0:	bcd59b3d 	fldmiaxlt	r5, {d25-d54}	;@ Deprecated
   24fa4:	bccf52b9 	sfmlt	f5, 2, [pc], {185}	; 0xb9
   24fa8:	bcc90a35 	vstmialt	r9, {s1-s53}
   24fac:	bcc2c1b1 	stfltp	f4, [r2], {177}	; 0xb1
   24fb0:	bcbc7b46 	vldmialt	ip!, {d7-<overflow reg d41>}
   24fb4:	bcb632c2 	lfmlt	f3, 4, [r6], #776	; 0x308
   24fb8:	bcafea3e 	vstmialt	pc!, {s28-s89}
   24fbc:	bca9a1ba 	stfltd	f2, [r9], #744	; 0x2e8
   24fc0:	bca35936 	stclt	9, cr5, [r3], #216	; 0xd8
   24fc4:	bc9d12cb 	lfmlt	f1, 4, [sp], {203}	; 0xcb
   24fc8:	bc96ca47 	vldmialt	r6, {s24-s94}
   24fcc:	bc9081c3 	ldfltd	f0, [r0], {195}	; 0xc3
   24fd0:	bc8a393f 	stclt	9, cr3, [sl], {63}	; 0x3f
   24fd4:	bc83f0bb 	stclt	0, cr15, [r3], {187}	; 0xbb
   24fd8:	bc7b506e 	ldcllt	0, cr5, [fp], #-440	; 0xfffffe48
   24fdc:	bc6ebf66 	stcllt	15, cr11, [lr], #-408	; 0xfffffe68
   24fe0:	bc622e5e 	stcllt	14, cr2, [r2], #-376	; 0xfffffe88
   24fe4:	bc559d56 	mrrclt	13, 5, r9, r5, cr6
   24fe8:	bc491080 	mcrrlt	0, 8, r1, r9, cr0
   24fec:	bc3c7f78 	ldclt	15, cr7, [ip], #-480	; 0xfffffe20
   24ff0:	bc2fee70 	stclt	14, cr14, [pc], #-448	; 24e38 <fsintable+0x7e10>
   24ff4:	bc235d68 	stclt	13, cr5, [r3], #-416	; 0xfffffe60
   24ff8:	bc16cc60 	ldclt	12, cr12, [r6], {96}	; 0x60
   24ffc:	bc0a3b58 	stclt	11, cr3, [sl], {88}	; 0x58
   25000:	bbfb54a0 	bllt	ffefa288 <__bss_end+0xffe91288>
   25004:	bbe23290 	bllt	ff8b1a4c <__bss_end+0xff848a4c>
   25008:	bbc91080 	bllt	ff269210 <__bss_end+0xff200210>
   2500c:	bbafee70 	bllt	fec209d4 <__bss_end+0xfebb79d4>
   25010:	bb96cc60 	bllt	fe5d8198 <__bss_end+0xfe56f198>
   25014:	bb7b54a0 	bllt	1efa29c <__bss_end+0x1e9129c>
   25018:	bb491080 	bllt	1269220 <__bss_end+0x1200220>
   2501c:	bb16cc60 	bllt	5d81a4 <__bss_end+0x56f1a4>
   25020:	bac91080 	blt	ff269228 <__bss_end+0xff200228>
   25024:	ba491080 	blt	126922c <__bss_end+0x120022c>

Disassembly of section .bss:

00026000 <__bss_start>:
	...

00026100 <p>:
	...

00026500 <is_fb_init>:
   26500:	00000000 	andeq	r0, r0, r0

00026504 <stick>:
	...

00026600 <Mr>:
	...

00036600 <V1>:
	...

00036e00 <Mt>:
	...

00046e00 <MP>:
	...

00046f00 <MM>:
	...

00056f00 <Ms>:
	...

00066f00 <V0>:
	...

00067700 <VV>:
	...

00067f00 <V2>:
	...

Disassembly of section .ARM.attributes:

00000000 <.ARM.attributes>:
   0:	00003c41 	andeq	r3, r0, r1, asr #24
   4:	61656100 	cmnvs	r5, r0, lsl #2
   8:	01006962 	tsteq	r0, r2, ror #18
   c:	00000032 	andeq	r0, r0, r2, lsr r0
  10:	726f4305 	rsbvc	r4, pc, #335544320	; 0x14000000
  14:	2d786574 	cfldr64cs	mvdx6, [r8, #-464]!	; 0xfffffe30
  18:	06003741 	streq	r3, [r0], -r1, asr #14
  1c:	0841070a 	stmdaeq	r1, {r1, r3, r8, r9, sl}^
  20:	0a020901 	beq	8242c <__bss_end+0x1942c>
  24:	12020c05 	andne	r0, r2, #1280	; 0x500
  28:	15011404 	strne	r1, [r1, #-1028]	; 0xfffffbfc
  2c:	18031701 	stmdane	r3, {r0, r8, r9, sl, ip}
  30:	1c011a01 	stcne	10, cr1, [r1], {1}
  34:	2a012201 	bcs	48840 <MM+0x1940>
  38:	44022c01 	strmi	r2, [r2], #-3073	; 0xfffff3ff
  3c:	Address 0x0000003c is out of bounds.


Disassembly of section .comment:

00000000 <.comment>:
   0:	3a434347 	bcc	10d0d24 <__bss_end+0x1067d24>
   4:	4e472820 	cdpmi	8, 4, cr2, cr7, cr0, {1}
   8:	6f542055 	svcvs	0x00542055
   c:	20736c6f 	rsbscs	r6, r3, pc, ror #24
  10:	20726f66 	rsbscs	r6, r2, r6, ror #30
  14:	204d5241 	subcs	r5, sp, r1, asr #4
  18:	65626d45 	strbvs	r6, [r2, #-3397]!	; 0xfffff2bb
  1c:	64656464 	strbtvs	r6, [r5], #-1124	; 0xfffffb9c
  20:	6f725020 	svcvs	0x00725020
  24:	73736563 	cmnvc	r3, #415236096	; 0x18c00000
  28:	2973726f 	ldmdbcs	r3!, {r0, r1, r2, r3, r5, r6, r9, ip, sp, lr}^
  2c:	322e3520 	eorcc	r3, lr, #32, 10	; 0x8000000
  30:	3220312e 	eorcc	r3, r0, #-2147483637	; 0x8000000b
  34:	31353130 	teqcc	r5, r0, lsr r1
  38:	20323032 	eorscs	r3, r2, r2, lsr r0
  3c:	6c657228 	sfmvs	f7, 2, [r5], #-160	; 0xffffff60
  40:	65736165 	ldrbvs	r6, [r3, #-357]!	; 0xfffffe9b
  44:	415b2029 	cmpmi	fp, r9, lsr #32
  48:	652f4d52 	strvs	r4, [pc, #-3410]!	; fffff2fe <__bss_end+0xfff962fe>
  4c:	6465626d 	strbtvs	r6, [r5], #-621	; 0xfffffd93
  50:	2d646564 	cfstr64cs	mvdx6, [r4, #-400]!	; 0xfffffe70
  54:	72622d35 	rsbvc	r2, r2, #3392	; 0xd40
  58:	68636e61 	stmdavs	r3!, {r0, r5, r6, r9, sl, fp, sp, lr}^
  5c:	76657220 	strbtvc	r7, [r5], -r0, lsr #4
  60:	6f697369 	svcvs	0x00697369
  64:	3332206e 	teqcc	r2, #110	; 0x6e
  68:	38343831 	ldmdacc	r4!, {r0, r4, r5, fp, ip, sp}
  6c:	Address 0x0000006c is out of bounds.

