
main.elf:     file format elf32-littlearm


Disassembly of section .text:

00000000 <_START-0x8000>:
       0:	ea001ffe 	b	8000 <_START>
       4:	ea001fff 	b	8008 <HANG>
       8:	ea001ffe 	b	8008 <HANG>
       c:	ea001ffd 	b	8008 <HANG>
      10:	ea001ffc 	b	8008 <HANG>
      14:	ea001ffb 	b	8008 <HANG>
      18:	ea00200b 	b	804c <INTR_IRQ>
      1c:	ea001ff9 	b	8008 <HANG>
	...

00008000 <_START>:
    8000:	e3a0d902 	mov	sp, #32768	; 0x8000
    8004:	eb00022b 	bl	88b8 <notmain>

00008008 <HANG>:
    8008:	eb0000f4 	bl	83e0 <handle_hang>
    800c:	eafffffd 	b	8008 <HANG>

00008010 <ENABLE_IRQ>:
    8010:	e10f0000 	mrs	r0, CPSR
    8014:	e3c00080 	bic	r0, r0, #128	; 0x80
    8018:	e121f000 	msr	CPSR_c, r0
    801c:	e12fff1e 	bx	lr

00008020 <DISABLE_IRQ>:
    8020:	e10f0000 	mrs	r0, CPSR
    8024:	e3800080 	orr	r0, r0, #128	; 0x80
    8028:	e121f000 	msr	CPSR_c, r0
    802c:	e12fff1e 	bx	lr

00008030 <PUT32>:
    8030:	e5801000 	str	r1, [r0]
    8034:	e12fff1e 	bx	lr

00008038 <GET32>:
    8038:	e5900000 	ldr	r0, [r0]
    803c:	e12fff1e 	bx	lr

00008040 <SLEEP>:
    8040:	e2500001 	subs	r0, r0, #1
    8044:	1afffffd 	bne	8040 <SLEEP>
    8048:	e12fff1e 	bx	lr

0000804c <INTR_IRQ>:
    804c:	e3a0d901 	mov	sp, #16384	; 0x4000
    8050:	e58de004 	str	lr, [sp, #4]
    8054:	eb0000eb 	bl	8408 <intr_handler>
    8058:	e59de004 	ldr	lr, [sp, #4]
    805c:	e25ef004 	subs	pc, lr, #4

00008060 <FLUSH_CACHE>:
    8060:	e3a00000 	mov	r0, #0
    8064:	ee070f16 	mcr	15, 0, r0, cr7, cr6, {0}
    8068:	ee070f1a 	mcr	15, 0, r0, cr7, cr10, {0}
    806c:	ee070f1e 	mcr	15, 0, r0, cr7, cr14, {0}
    8070:	ee070f9a 	mcr	15, 0, r0, cr7, cr10, {4}
    8074:	ee070fba 	mcr	15, 0, r0, cr7, cr10, {5}
    8078:	e1a0f00e 	mov	pc, lr

0000807c <MemoryBarrier>:
    807c:	ee070f15 	mcr	15, 0, r0, cr7, cr5, {0}
    8080:	ee070fd5 	mcr	15, 0, r0, cr7, cr5, {6}
    8084:	ee070f9a 	mcr	15, 0, r0, cr7, cr10, {4}
    8088:	ee070f95 	mcr	15, 0, r0, cr7, cr5, {4}
    808c:	e1a0f00e 	mov	pc, lr

00008090 <InvalidateData>:
    8090:	e3a00000 	mov	r0, #0
    8094:	ee070f16 	mcr	15, 0, r0, cr7, cr6, {0}
    8098:	ee070f1a 	mcr	15, 0, r0, cr7, cr10, {0}
    809c:	ee070f1e 	mcr	15, 0, r0, cr7, cr14, {0}
    80a0:	ee070f9a 	mcr	15, 0, r0, cr7, cr10, {4}
    80a4:	ee070fba 	mcr	15, 0, r0, cr7, cr10, {5}
    80a8:	ee070f15 	mcr	15, 0, r0, cr7, cr5, {0}
    80ac:	ee070fd5 	mcr	15, 0, r0, cr7, cr5, {6}
    80b0:	ee070f9a 	mcr	15, 0, r0, cr7, cr10, {4}
    80b4:	ee070f95 	mcr	15, 0, r0, cr7, cr5, {4}
    80b8:	e1a0f00e 	mov	pc, lr
    80bc:	00001941 	andeq	r1, r0, r1, asr #18
    80c0:	61656100 	cmnvs	r5, r0, lsl #2
    80c4:	01006962 	tsteq	r0, r2, ror #18
    80c8:	0000000f 	andeq	r0, r0, pc
    80cc:	00543405 	subseq	r3, r4, r5, lsl #8
    80d0:	01080206 	tsteq	r8, r6, lsl #4
    80d4:	00000109 	andeq	r0, r0, r9, lsl #2

000080d8 <led_init>:
    80d8:	e92d4010 	push	{r4, lr}
    80dc:	e59f401c 	ldr	r4, [pc, #28]	; 8100 <led_init+0x28>
    80e0:	e1a00004 	mov	r0, r4
    80e4:	ebffffd3 	bl	8038 <GET32>
    80e8:	e3c0160e 	bic	r1, r0, #14680064	; 0xe00000
    80ec:	e3811602 	orr	r1, r1, #2097152	; 0x200000
    80f0:	e1a00004 	mov	r0, r4
    80f4:	ebffffcd 	bl	8030 <PUT32>
    80f8:	e8bd4010 	pop	{r4, lr}
    80fc:	e12fff1e 	bx	lr
    8100:	20200010 	eorcs	r0, r0, r0, lsl r0

00008104 <led_set>:
    8104:	e92d4010 	push	{r4, lr}
    8108:	e3500000 	cmp	r0, #0
    810c:	e3a01902 	mov	r1, #32768	; 0x8000
    8110:	159f000c 	ldrne	r0, [pc, #12]	; 8124 <led_set+0x20>
    8114:	059f000c 	ldreq	r0, [pc, #12]	; 8128 <led_set+0x24>
    8118:	ebffffc4 	bl	8030 <PUT32>
    811c:	e8bd4010 	pop	{r4, lr}
    8120:	e12fff1e 	bx	lr
    8124:	20200020 	eorcs	r0, r0, r0, lsr #32
    8128:	2020002c 	eorcs	r0, r0, ip, lsr #32

0000812c <mailbox_fb_getaddr>:
    812c:	e59f0000 	ldr	r0, [pc]	; 8134 <mailbox_fb_getaddr+0x8>
    8130:	e12fff1e 	bx	lr
    8134:	00009300 	andeq	r9, r0, r0, lsl #6

00008138 <mailbox_write>:
    8138:	e92d4070 	push	{r4, r5, r6, lr}
    813c:	e1a05000 	mov	r5, r0
    8140:	e1a04001 	mov	r4, r1
    8144:	ebffffd1 	bl	8090 <InvalidateData>
    8148:	e59f6024 	ldr	r6, [pc, #36]	; 8174 <mailbox_write+0x3c>
    814c:	ebffffcf 	bl	8090 <InvalidateData>
    8150:	e5963898 	ldr	r3, [r6, #2200]	; 0x898
    8154:	e3530000 	cmp	r3, #0
    8158:	bafffffb 	blt	814c <mailbox_write+0x14>
    815c:	e3c4400f 	bic	r4, r4, #15
    8160:	ebffffca 	bl	8090 <InvalidateData>
    8164:	e1840005 	orr	r0, r4, r5
    8168:	e58608a0 	str	r0, [r6, #2208]	; 0x8a0
    816c:	e8bd4070 	pop	{r4, r5, r6, lr}
    8170:	e12fff1e 	bx	lr
    8174:	2000b000 	andcs	fp, r0, r0

00008178 <mailbox_read>:
    8178:	e92d4070 	push	{r4, r5, r6, lr}
    817c:	e1a05000 	mov	r5, r0
    8180:	e59f402c 	ldr	r4, [pc, #44]	; 81b4 <mailbox_read+0x3c>
    8184:	ebffffc1 	bl	8090 <InvalidateData>
    8188:	e5943898 	ldr	r3, [r4, #2200]	; 0x898
    818c:	e3130101 	tst	r3, #1073741824	; 0x40000000
    8190:	1afffffb 	bne	8184 <mailbox_read+0xc>
    8194:	ebffffbd 	bl	8090 <InvalidateData>
    8198:	e5940880 	ldr	r0, [r4, #2176]	; 0x880
    819c:	e200200f 	and	r2, r0, #15
    81a0:	e1520005 	cmp	r2, r5
    81a4:	1afffff6 	bne	8184 <mailbox_read+0xc>
    81a8:	e3c0000f 	bic	r0, r0, #15
    81ac:	e8bd4070 	pop	{r4, r5, r6, lr}
    81b0:	e12fff1e 	bx	lr
    81b4:	2000b000 	andcs	fp, r0, r0

000081b8 <mailbox_send>:
    81b8:	e92d4070 	push	{r4, r5, r6, lr}
    81bc:	e1a05000 	mov	r5, r0
    81c0:	e3a04065 	mov	r4, #101	; 0x65
    81c4:	e2806103 	add	r6, r0, #-1073741824	; 0xc0000000
    81c8:	ea000001 	b	81d4 <mailbox_send+0x1c>
    81cc:	e2544001 	subs	r4, r4, #1
    81d0:	0a000008 	beq	81f8 <mailbox_send+0x40>
    81d4:	e1a01006 	mov	r1, r6
    81d8:	e3a00008 	mov	r0, #8
    81dc:	ebffffd5 	bl	8138 <mailbox_write>
    81e0:	e3a00008 	mov	r0, #8
    81e4:	ebffffe3 	bl	8178 <mailbox_read>
    81e8:	ebffffa8 	bl	8090 <InvalidateData>
    81ec:	e5950004 	ldr	r0, [r5, #4]
    81f0:	e3500102 	cmp	r0, #-2147483648	; 0x80000000
    81f4:	1afffff4 	bne	81cc <mailbox_send+0x14>
    81f8:	e8bd4070 	pop	{r4, r5, r6, lr}
    81fc:	e12fff1e 	bx	lr

00008200 <mailbox_set_domain_state>:
    8200:	e59f3050 	ldr	r3, [pc, #80]	; 8258 <mailbox_set_domain_state+0x58>
    8204:	e92d4070 	push	{r4, r5, r6, lr}
    8208:	e1a0c003 	mov	ip, r3
    820c:	e3a05020 	mov	r5, #32
    8210:	e3a02008 	mov	r2, #8
    8214:	e1a0e000 	mov	lr, r0
    8218:	e3a04000 	mov	r4, #0
    821c:	e5ac5100 	str	r5, [ip, #256]!	; 0x100
    8220:	e1a0000c 	mov	r0, ip
    8224:	e59fc030 	ldr	ip, [pc, #48]	; 825c <mailbox_set_domain_state+0x5c>
    8228:	e583e114 	str	lr, [r3, #276]	; 0x114
    822c:	e5831118 	str	r1, [r3, #280]	; 0x118
    8230:	e5834104 	str	r4, [r3, #260]	; 0x104
    8234:	e583411c 	str	r4, [r3, #284]	; 0x11c
    8238:	e1a01002 	mov	r1, r2
    823c:	e583c108 	str	ip, [r3, #264]	; 0x108
    8240:	e583210c 	str	r2, [r3, #268]	; 0x10c
    8244:	e5832110 	str	r2, [r3, #272]	; 0x110
    8248:	ebffffda 	bl	81b8 <mailbox_send>
    824c:	e1a00004 	mov	r0, r4
    8250:	e8bd4070 	pop	{r4, r5, r6, lr}
    8254:	e12fff1e 	bx	lr
    8258:	00009300 	andeq	r9, r0, r0, lsl #6
    825c:	00038030 	andeq	r8, r3, r0, lsr r0

00008260 <mailbox_set_power_state>:
    8260:	e59f3050 	ldr	r3, [pc, #80]	; 82b8 <mailbox_set_power_state+0x58>
    8264:	e92d4070 	push	{r4, r5, r6, lr}
    8268:	e1a0c003 	mov	ip, r3
    826c:	e3a05020 	mov	r5, #32
    8270:	e3a02008 	mov	r2, #8
    8274:	e1a0e000 	mov	lr, r0
    8278:	e3a04000 	mov	r4, #0
    827c:	e5ac5100 	str	r5, [ip, #256]!	; 0x100
    8280:	e1a0000c 	mov	r0, ip
    8284:	e59fc030 	ldr	ip, [pc, #48]	; 82bc <mailbox_set_power_state+0x5c>
    8288:	e583e114 	str	lr, [r3, #276]	; 0x114
    828c:	e5831118 	str	r1, [r3, #280]	; 0x118
    8290:	e5834104 	str	r4, [r3, #260]	; 0x104
    8294:	e583411c 	str	r4, [r3, #284]	; 0x11c
    8298:	e1a01002 	mov	r1, r2
    829c:	e583c108 	str	ip, [r3, #264]	; 0x108
    82a0:	e583210c 	str	r2, [r3, #268]	; 0x10c
    82a4:	e5832110 	str	r2, [r3, #272]	; 0x110
    82a8:	ebffffc2 	bl	81b8 <mailbox_send>
    82ac:	e1a00004 	mov	r0, r4
    82b0:	e8bd4070 	pop	{r4, r5, r6, lr}
    82b4:	e12fff1e 	bx	lr
    82b8:	00009300 	andeq	r9, r0, r0, lsl #6
    82bc:	00028001 	andeq	r8, r2, r1

000082c0 <mailbox_fb_init>:
    82c0:	e92d41f0 	push	{r4, r5, r6, r7, r8, lr}
    82c4:	e1a07000 	mov	r7, r0
    82c8:	e1a06001 	mov	r6, r1
    82cc:	e1a05002 	mov	r5, r2
    82d0:	e59f4098 	ldr	r4, [pc, #152]	; 8370 <mailbox_fb_init+0xb0>
    82d4:	e59f0098 	ldr	r0, [pc, #152]	; 8374 <mailbox_fb_init+0xb4>
    82d8:	e1a01004 	mov	r1, r4
    82dc:	eb000246 	bl	8bfc <uart_debug_puts>
    82e0:	e3a03000 	mov	r3, #0
    82e4:	e3a00020 	mov	r0, #32
    82e8:	e5847000 	str	r7, [r4]
    82ec:	e5846004 	str	r6, [r4, #4]
    82f0:	e5942000 	ldr	r2, [r4]
    82f4:	e5842008 	str	r2, [r4, #8]
    82f8:	e5941004 	ldr	r1, [r4, #4]
    82fc:	e0020195 	mul	r2, r5, r1
    8300:	e2845101 	add	r5, r4, #1073741824	; 0x40000000
    8304:	e584200c 	str	r2, [r4, #12]
    8308:	e5843010 	str	r3, [r4, #16]
    830c:	e5840014 	str	r0, [r4, #20]
    8310:	e5843018 	str	r3, [r4, #24]
    8314:	e584301c 	str	r3, [r4, #28]
    8318:	e5843020 	str	r3, [r4, #32]
    831c:	e5843024 	str	r3, [r4, #36]	; 0x24
    8320:	e5843028 	str	r3, [r4, #40]	; 0x28
    8324:	ea000001 	b	8330 <mailbox_fb_init+0x70>
    8328:	e3a00a01 	mov	r0, #4096	; 0x1000
    832c:	ebffff43 	bl	8040 <SLEEP>
    8330:	e1a01005 	mov	r1, r5
    8334:	e3a00001 	mov	r0, #1
    8338:	ebffff7e 	bl	8138 <mailbox_write>
    833c:	e3a00001 	mov	r0, #1
    8340:	ebffff8c 	bl	8178 <mailbox_read>
    8344:	e5943020 	ldr	r3, [r4, #32]
    8348:	e3530000 	cmp	r3, #0
    834c:	0afffff5 	beq	8328 <mailbox_fb_init+0x68>
    8350:	e5942020 	ldr	r2, [r4, #32]
    8354:	e5943020 	ldr	r3, [r4, #32]
    8358:	e3c33101 	bic	r3, r3, #1073741824	; 0x40000000
    835c:	e5843020 	str	r3, [r4, #32]
    8360:	e3a00000 	mov	r0, #0
    8364:	e5842028 	str	r2, [r4, #40]	; 0x28
    8368:	e8bd41f0 	pop	{r4, r5, r6, r7, r8, lr}
    836c:	e12fff1e 	bx	lr
    8370:	00009300 	andeq	r9, r0, r0, lsl #6
    8374:	00008c54 	andeq	r8, r0, r4, asr ip

00008378 <mailbox_fb_flip>:
    8378:	e1a02000 	mov	r2, r0
    837c:	e92d4010 	push	{r4, lr}
    8380:	e59f4050 	ldr	r4, [pc, #80]	; 83d8 <mailbox_fb_flip+0x60>
    8384:	e3a01024 	mov	r1, #36	; 0x24
    8388:	e1a00004 	mov	r0, r4
    838c:	e3a03000 	mov	r3, #0
    8390:	e3a0c008 	mov	ip, #8
    8394:	e594e004 	ldr	lr, [r4, #4]
    8398:	e002029e 	mul	r2, lr, r2
    839c:	e59fe038 	ldr	lr, [pc, #56]	; 83dc <mailbox_fb_flip+0x64>
    83a0:	e5a01100 	str	r1, [r0, #256]!	; 0x100
    83a4:	e3a01009 	mov	r1, #9
    83a8:	e5842118 	str	r2, [r4, #280]	; 0x118
    83ac:	e584e108 	str	lr, [r4, #264]	; 0x108
    83b0:	e5843104 	str	r3, [r4, #260]	; 0x104
    83b4:	e5843114 	str	r3, [r4, #276]	; 0x114
    83b8:	e584311c 	str	r3, [r4, #284]	; 0x11c
    83bc:	e5843120 	str	r3, [r4, #288]	; 0x120
    83c0:	e584c10c 	str	ip, [r4, #268]	; 0x10c
    83c4:	e584c110 	str	ip, [r4, #272]	; 0x110
    83c8:	ebffff7a 	bl	81b8 <mailbox_send>
    83cc:	e5940104 	ldr	r0, [r4, #260]	; 0x104
    83d0:	e8bd4010 	pop	{r4, lr}
    83d4:	e12fff1e 	bx	lr
    83d8:	00009300 	andeq	r9, r0, r0, lsl #6
    83dc:	00048009 	andeq	r8, r4, r9

000083e0 <handle_hang>:
    83e0:	e92d4010 	push	{r4, lr}
    83e4:	ebffff3b 	bl	80d8 <led_init>
    83e8:	eb000179 	bl	89d4 <uart_init>
    83ec:	e59f4010 	ldr	r4, [pc, #16]	; 8404 <handle_hang+0x24>
    83f0:	e1a00004 	mov	r0, r4
    83f4:	eb0001ca 	bl	8b24 <uart_puts>
    83f8:	e3a00801 	mov	r0, #65536	; 0x10000
    83fc:	ebffff0f 	bl	8040 <SLEEP>
    8400:	eafffffa 	b	83f0 <handle_hang+0x10>
    8404:	00008c64 	andeq	r8, r0, r4, ror #24

00008408 <intr_handler>:
    8408:	e92d4010 	push	{r4, lr}
    840c:	e59f0008 	ldr	r0, [pc, #8]	; 841c <intr_handler+0x14>
    8410:	eb0001c3 	bl	8b24 <uart_puts>
    8414:	e8bd4010 	pop	{r4, lr}
    8418:	e12fff1e 	bx	lr
    841c:	00008c74 	andeq	r8, r0, r4, ror ip

00008420 <random>:
    8420:	e59f3020 	ldr	r3, [pc, #32]	; 8448 <random+0x28>
    8424:	e9930005 	ldmib	r3, {r0, r2}
    8428:	e5931000 	ldr	r1, [r3]
    842c:	e0810000 	add	r0, r1, r0
    8430:	e0811002 	add	r1, r1, r2
    8434:	e0802002 	add	r2, r0, r2
    8438:	e9830005 	stmib	r3, {r0, r2}
    843c:	e5831000 	str	r1, [r3]
    8440:	e1a00820 	lsr	r0, r0, #16
    8444:	e12fff1e 	bx	lr
    8448:	00008c48 	andeq	r8, r0, r8, asr #24

0000844c <hd_print_regs>:
    844c:	e92d4070 	push	{r4, r5, r6, lr}
    8450:	e59f50cc 	ldr	r5, [pc, #204]	; 8524 <hd_print_regs+0xd8>
    8454:	e59f40cc 	ldr	r4, [pc, #204]	; 8528 <hd_print_regs+0xdc>
    8458:	e1a00005 	mov	r0, r5
    845c:	eb0001b0 	bl	8b24 <uart_puts>
    8460:	e594100c 	ldr	r1, [r4, #12]
    8464:	e59f00c0 	ldr	r0, [pc, #192]	; 852c <hd_print_regs+0xe0>
    8468:	eb0001e3 	bl	8bfc <uart_debug_puts>
    846c:	e5941014 	ldr	r1, [r4, #20]
    8470:	e59f00b8 	ldr	r0, [pc, #184]	; 8530 <hd_print_regs+0xe4>
    8474:	eb0001e0 	bl	8bfc <uart_debug_puts>
    8478:	e5941018 	ldr	r1, [r4, #24]
    847c:	e59f00b0 	ldr	r0, [pc, #176]	; 8534 <hd_print_regs+0xe8>
    8480:	eb0001dd 	bl	8bfc <uart_debug_puts>
    8484:	e594101c 	ldr	r1, [r4, #28]
    8488:	e59f00a8 	ldr	r0, [pc, #168]	; 8538 <hd_print_regs+0xec>
    848c:	eb0001da 	bl	8bfc <uart_debug_puts>
    8490:	e5941020 	ldr	r1, [r4, #32]
    8494:	e59f00a0 	ldr	r0, [pc, #160]	; 853c <hd_print_regs+0xf0>
    8498:	eb0001d7 	bl	8bfc <uart_debug_puts>
    849c:	e594102c 	ldr	r1, [r4, #44]	; 0x2c
    84a0:	e59f0098 	ldr	r0, [pc, #152]	; 8540 <hd_print_regs+0xf4>
    84a4:	eb0001d4 	bl	8bfc <uart_debug_puts>
    84a8:	e5941038 	ldr	r1, [r4, #56]	; 0x38
    84ac:	e59f0090 	ldr	r0, [pc, #144]	; 8544 <hd_print_regs+0xf8>
    84b0:	eb0001d1 	bl	8bfc <uart_debug_puts>
    84b4:	e5941040 	ldr	r1, [r4, #64]	; 0x40
    84b8:	e59f0088 	ldr	r0, [pc, #136]	; 8548 <hd_print_regs+0xfc>
    84bc:	eb0001ce 	bl	8bfc <uart_debug_puts>
    84c0:	e5941044 	ldr	r1, [r4, #68]	; 0x44
    84c4:	e59f0080 	ldr	r0, [pc, #128]	; 854c <hd_print_regs+0x100>
    84c8:	eb0001cb 	bl	8bfc <uart_debug_puts>
    84cc:	e5941048 	ldr	r1, [r4, #72]	; 0x48
    84d0:	e59f0078 	ldr	r0, [pc, #120]	; 8550 <hd_print_regs+0x104>
    84d4:	eb0001c8 	bl	8bfc <uart_debug_puts>
    84d8:	e594104c 	ldr	r1, [r4, #76]	; 0x4c
    84dc:	e59f0070 	ldr	r0, [pc, #112]	; 8554 <hd_print_regs+0x108>
    84e0:	eb0001c5 	bl	8bfc <uart_debug_puts>
    84e4:	e5941050 	ldr	r1, [r4, #80]	; 0x50
    84e8:	e59f0068 	ldr	r0, [pc, #104]	; 8558 <hd_print_regs+0x10c>
    84ec:	eb0001c2 	bl	8bfc <uart_debug_puts>
    84f0:	e5941054 	ldr	r1, [r4, #84]	; 0x54
    84f4:	e59f0060 	ldr	r0, [pc, #96]	; 855c <hd_print_regs+0x110>
    84f8:	eb0001bf 	bl	8bfc <uart_debug_puts>
    84fc:	e5941058 	ldr	r1, [r4, #88]	; 0x58
    8500:	e59f0058 	ldr	r0, [pc, #88]	; 8560 <hd_print_regs+0x114>
    8504:	eb0001bc 	bl	8bfc <uart_debug_puts>
    8508:	e5941068 	ldr	r1, [r4, #104]	; 0x68
    850c:	e59f0050 	ldr	r0, [pc, #80]	; 8564 <hd_print_regs+0x118>
    8510:	eb0001b9 	bl	8bfc <uart_debug_puts>
    8514:	e1a00005 	mov	r0, r5
    8518:	eb000181 	bl	8b24 <uart_puts>
    851c:	e8bd4070 	pop	{r4, r5, r6, lr}
    8520:	e12fff1e 	bx	lr
    8524:	00008c88 	andeq	r8, r0, r8, lsl #25
    8528:	20808000 	addcs	r8, r0, r0
    852c:	00008cb8 			; <UNDEFINED> instruction: 0x00008cb8
    8530:	00008cd0 	ldrdeq	r8, [r0], -r0
    8534:	00008ce8 	andeq	r8, r0, r8, ror #25
    8538:	00008d00 	andeq	r8, r0, r0, lsl #26
    853c:	00008d18 	andeq	r8, r0, r8, lsl sp
    8540:	00008d30 	andeq	r8, r0, r0, lsr sp
    8544:	00008d48 	andeq	r8, r0, r8, asr #26
    8548:	00008d60 	andeq	r8, r0, r0, ror #26
    854c:	00008d78 	andeq	r8, r0, r8, ror sp
    8550:	00008d90 	muleq	r0, r0, sp
    8554:	00008da8 	andeq	r8, r0, r8, lsr #27
    8558:	00008dc0 	andeq	r8, r0, r0, asr #27
    855c:	00008dd8 	ldrdeq	r8, [r0], -r8	; <UNPREDICTABLE>
    8560:	00008df0 	strdeq	r8, [r0], -r0
    8564:	00008e08 	andeq	r8, r0, r8, lsl #28

00008568 <hdmi_print_regs>:
    8568:	e92d4070 	push	{r4, r5, r6, lr}
    856c:	e59f521c 	ldr	r5, [pc, #540]	; 8790 <hdmi_print_regs+0x228>
    8570:	e59f421c 	ldr	r4, [pc, #540]	; 8794 <hdmi_print_regs+0x22c>
    8574:	e1a00005 	mov	r0, r5
    8578:	eb000169 	bl	8b24 <uart_puts>
    857c:	e5941000 	ldr	r1, [r4]
    8580:	e59f0210 	ldr	r0, [pc, #528]	; 8798 <hdmi_print_regs+0x230>
    8584:	eb00019c 	bl	8bfc <uart_debug_puts>
    8588:	e5941004 	ldr	r1, [r4, #4]
    858c:	e59f0208 	ldr	r0, [pc, #520]	; 879c <hdmi_print_regs+0x234>
    8590:	eb000199 	bl	8bfc <uart_debug_puts>
    8594:	e5941008 	ldr	r1, [r4, #8]
    8598:	e59f0200 	ldr	r0, [pc, #512]	; 87a0 <hdmi_print_regs+0x238>
    859c:	eb000196 	bl	8bfc <uart_debug_puts>
    85a0:	e594100c 	ldr	r1, [r4, #12]
    85a4:	e59f01f8 	ldr	r0, [pc, #504]	; 87a4 <hdmi_print_regs+0x23c>
    85a8:	eb000193 	bl	8bfc <uart_debug_puts>
    85ac:	e594105c 	ldr	r1, [r4, #92]	; 0x5c
    85b0:	e59f01f0 	ldr	r0, [pc, #496]	; 87a8 <hdmi_print_regs+0x240>
    85b4:	eb000190 	bl	8bfc <uart_debug_puts>
    85b8:	e5941090 	ldr	r1, [r4, #144]	; 0x90
    85bc:	e59f01e8 	ldr	r0, [pc, #488]	; 87ac <hdmi_print_regs+0x244>
    85c0:	eb00018d 	bl	8bfc <uart_debug_puts>
    85c4:	e5941094 	ldr	r1, [r4, #148]	; 0x94
    85c8:	e59f01e0 	ldr	r0, [pc, #480]	; 87b0 <hdmi_print_regs+0x248>
    85cc:	eb00018a 	bl	8bfc <uart_debug_puts>
    85d0:	e5941098 	ldr	r1, [r4, #152]	; 0x98
    85d4:	e59f01d8 	ldr	r0, [pc, #472]	; 87b4 <hdmi_print_regs+0x24c>
    85d8:	eb000187 	bl	8bfc <uart_debug_puts>
    85dc:	e594109c 	ldr	r1, [r4, #156]	; 0x9c
    85e0:	e59f01d0 	ldr	r0, [pc, #464]	; 87b8 <hdmi_print_regs+0x250>
    85e4:	eb000184 	bl	8bfc <uart_debug_puts>
    85e8:	e59410a0 	ldr	r1, [r4, #160]	; 0xa0
    85ec:	e59f01c8 	ldr	r0, [pc, #456]	; 87bc <hdmi_print_regs+0x254>
    85f0:	eb000181 	bl	8bfc <uart_debug_puts>
    85f4:	e59410a4 	ldr	r1, [r4, #164]	; 0xa4
    85f8:	e59f01c0 	ldr	r0, [pc, #448]	; 87c0 <hdmi_print_regs+0x258>
    85fc:	eb00017e 	bl	8bfc <uart_debug_puts>
    8600:	e59410a8 	ldr	r1, [r4, #168]	; 0xa8
    8604:	e59f01b8 	ldr	r0, [pc, #440]	; 87c4 <hdmi_print_regs+0x25c>
    8608:	eb00017b 	bl	8bfc <uart_debug_puts>
    860c:	e59410ac 	ldr	r1, [r4, #172]	; 0xac
    8610:	e59f01b0 	ldr	r0, [pc, #432]	; 87c8 <hdmi_print_regs+0x260>
    8614:	eb000178 	bl	8bfc <uart_debug_puts>
    8618:	e59410b0 	ldr	r1, [r4, #176]	; 0xb0
    861c:	e59f01a8 	ldr	r0, [pc, #424]	; 87cc <hdmi_print_regs+0x264>
    8620:	eb000175 	bl	8bfc <uart_debug_puts>
    8624:	e59410c0 	ldr	r1, [r4, #192]	; 0xc0
    8628:	e59f01a0 	ldr	r0, [pc, #416]	; 87d0 <hdmi_print_regs+0x268>
    862c:	eb000172 	bl	8bfc <uart_debug_puts>
    8630:	e59410c4 	ldr	r1, [r4, #196]	; 0xc4
    8634:	e59f0198 	ldr	r0, [pc, #408]	; 87d4 <hdmi_print_regs+0x26c>
    8638:	eb00016f 	bl	8bfc <uart_debug_puts>
    863c:	e59410c8 	ldr	r1, [r4, #200]	; 0xc8
    8640:	e59f0190 	ldr	r0, [pc, #400]	; 87d8 <hdmi_print_regs+0x270>
    8644:	eb00016c 	bl	8bfc <uart_debug_puts>
    8648:	e59410cc 	ldr	r1, [r4, #204]	; 0xcc
    864c:	e59f0188 	ldr	r0, [pc, #392]	; 87dc <hdmi_print_regs+0x274>
    8650:	eb000169 	bl	8bfc <uart_debug_puts>
    8654:	e59410d0 	ldr	r1, [r4, #208]	; 0xd0
    8658:	e59f0180 	ldr	r0, [pc, #384]	; 87e0 <hdmi_print_regs+0x278>
    865c:	eb000166 	bl	8bfc <uart_debug_puts>
    8660:	e59410d4 	ldr	r1, [r4, #212]	; 0xd4
    8664:	e59f0178 	ldr	r0, [pc, #376]	; 87e4 <hdmi_print_regs+0x27c>
    8668:	eb000163 	bl	8bfc <uart_debug_puts>
    866c:	e59410d8 	ldr	r1, [r4, #216]	; 0xd8
    8670:	e59f0170 	ldr	r0, [pc, #368]	; 87e8 <hdmi_print_regs+0x280>
    8674:	eb000160 	bl	8bfc <uart_debug_puts>
    8678:	e59410e8 	ldr	r1, [r4, #232]	; 0xe8
    867c:	e59f0168 	ldr	r0, [pc, #360]	; 87ec <hdmi_print_regs+0x284>
    8680:	eb00015d 	bl	8bfc <uart_debug_puts>
    8684:	e59410ec 	ldr	r1, [r4, #236]	; 0xec
    8688:	e59f0160 	ldr	r0, [pc, #352]	; 87f0 <hdmi_print_regs+0x288>
    868c:	eb00015a 	bl	8bfc <uart_debug_puts>
    8690:	e59410f0 	ldr	r1, [r4, #240]	; 0xf0
    8694:	e59f0158 	ldr	r0, [pc, #344]	; 87f4 <hdmi_print_regs+0x28c>
    8698:	eb000157 	bl	8bfc <uart_debug_puts>
    869c:	e59410f4 	ldr	r1, [r4, #244]	; 0xf4
    86a0:	e59f0150 	ldr	r0, [pc, #336]	; 87f8 <hdmi_print_regs+0x290>
    86a4:	eb000154 	bl	8bfc <uart_debug_puts>
    86a8:	e59410f8 	ldr	r1, [r4, #248]	; 0xf8
    86ac:	e59f0148 	ldr	r0, [pc, #328]	; 87fc <hdmi_print_regs+0x294>
    86b0:	eb000151 	bl	8bfc <uart_debug_puts>
    86b4:	e59410fc 	ldr	r1, [r4, #252]	; 0xfc
    86b8:	e59f0140 	ldr	r0, [pc, #320]	; 8800 <hdmi_print_regs+0x298>
    86bc:	eb00014e 	bl	8bfc <uart_debug_puts>
    86c0:	e5941100 	ldr	r1, [r4, #256]	; 0x100
    86c4:	e59f0138 	ldr	r0, [pc, #312]	; 8804 <hdmi_print_regs+0x29c>
    86c8:	eb00014b 	bl	8bfc <uart_debug_puts>
    86cc:	e5941104 	ldr	r1, [r4, #260]	; 0x104
    86d0:	e59f0130 	ldr	r0, [pc, #304]	; 8808 <hdmi_print_regs+0x2a0>
    86d4:	eb000148 	bl	8bfc <uart_debug_puts>
    86d8:	e5941108 	ldr	r1, [r4, #264]	; 0x108
    86dc:	e59f0128 	ldr	r0, [pc, #296]	; 880c <hdmi_print_regs+0x2a4>
    86e0:	eb000145 	bl	8bfc <uart_debug_puts>
    86e4:	e594110c 	ldr	r1, [r4, #268]	; 0x10c
    86e8:	e59f0120 	ldr	r0, [pc, #288]	; 8810 <hdmi_print_regs+0x2a8>
    86ec:	eb000142 	bl	8bfc <uart_debug_puts>
    86f0:	e5941110 	ldr	r1, [r4, #272]	; 0x110
    86f4:	e59f0118 	ldr	r0, [pc, #280]	; 8814 <hdmi_print_regs+0x2ac>
    86f8:	eb00013f 	bl	8bfc <uart_debug_puts>
    86fc:	e5941114 	ldr	r1, [r4, #276]	; 0x114
    8700:	e59f0110 	ldr	r0, [pc, #272]	; 8818 <hdmi_print_regs+0x2b0>
    8704:	eb00013c 	bl	8bfc <uart_debug_puts>
    8708:	e5941118 	ldr	r1, [r4, #280]	; 0x118
    870c:	e59f0108 	ldr	r0, [pc, #264]	; 881c <hdmi_print_regs+0x2b4>
    8710:	eb000139 	bl	8bfc <uart_debug_puts>
    8714:	e59412c0 	ldr	r1, [r4, #704]	; 0x2c0
    8718:	e59f0100 	ldr	r0, [pc, #256]	; 8820 <hdmi_print_regs+0x2b8>
    871c:	eb000136 	bl	8bfc <uart_debug_puts>
    8720:	e59412c4 	ldr	r1, [r4, #708]	; 0x2c4
    8724:	e59f00f8 	ldr	r0, [pc, #248]	; 8824 <hdmi_print_regs+0x2bc>
    8728:	eb000133 	bl	8bfc <uart_debug_puts>
    872c:	e5941340 	ldr	r1, [r4, #832]	; 0x340
    8730:	e59f00f0 	ldr	r0, [pc, #240]	; 8828 <hdmi_print_regs+0x2c0>
    8734:	eb000130 	bl	8bfc <uart_debug_puts>
    8738:	e5941344 	ldr	r1, [r4, #836]	; 0x344
    873c:	e59f00e8 	ldr	r0, [pc, #232]	; 882c <hdmi_print_regs+0x2c4>
    8740:	eb00012d 	bl	8bfc <uart_debug_puts>
    8744:	e5941348 	ldr	r1, [r4, #840]	; 0x348
    8748:	e59f00e0 	ldr	r0, [pc, #224]	; 8830 <hdmi_print_regs+0x2c8>
    874c:	eb00012a 	bl	8bfc <uart_debug_puts>
    8750:	e594134c 	ldr	r1, [r4, #844]	; 0x34c
    8754:	e59f00d8 	ldr	r0, [pc, #216]	; 8834 <hdmi_print_regs+0x2cc>
    8758:	eb000127 	bl	8bfc <uart_debug_puts>
    875c:	e5941350 	ldr	r1, [r4, #848]	; 0x350
    8760:	e59f00d0 	ldr	r0, [pc, #208]	; 8838 <hdmi_print_regs+0x2d0>
    8764:	eb000124 	bl	8bfc <uart_debug_puts>
    8768:	e5941354 	ldr	r1, [r4, #852]	; 0x354
    876c:	e59f00c8 	ldr	r0, [pc, #200]	; 883c <hdmi_print_regs+0x2d4>
    8770:	eb000121 	bl	8bfc <uart_debug_puts>
    8774:	e5941400 	ldr	r1, [r4, #1024]	; 0x400
    8778:	e59f00c0 	ldr	r0, [pc, #192]	; 8840 <hdmi_print_regs+0x2d8>
    877c:	eb00011e 	bl	8bfc <uart_debug_puts>
    8780:	e1a00005 	mov	r0, r5
    8784:	eb0000e6 	bl	8b24 <uart_puts>
    8788:	e8bd4070 	pop	{r4, r5, r6, lr}
    878c:	e12fff1e 	bx	lr
    8790:	00008c88 	andeq	r8, r0, r8, lsl #25
    8794:	20902000 	addscs	r2, r0, r0
    8798:	00008e20 	andeq	r8, r0, r0, lsr #28
    879c:	00008e3c 	andeq	r8, r0, ip, lsr lr
    87a0:	00008e58 	andeq	r8, r0, r8, asr lr
    87a4:	00008e74 	andeq	r8, r0, r4, ror lr
    87a8:	00008e90 	muleq	r0, r0, lr
    87ac:	00008eac 	andeq	r8, r0, ip, lsr #29
    87b0:	00008ec8 	andeq	r8, r0, r8, asr #29
    87b4:	00008ee4 	andeq	r8, r0, r4, ror #29
    87b8:	00008f00 	andeq	r8, r0, r0, lsl #30
    87bc:	00008f1c 	andeq	r8, r0, ip, lsl pc
    87c0:	00008f38 	andeq	r8, r0, r8, lsr pc
    87c4:	00008f54 	andeq	r8, r0, r4, asr pc
    87c8:	00008f70 	andeq	r8, r0, r0, ror pc
    87cc:	00008f8c 	andeq	r8, r0, ip, lsl #31
    87d0:	00008fa8 	andeq	r8, r0, r8, lsr #31
    87d4:	00008fc4 	andeq	r8, r0, r4, asr #31
    87d8:	00008fe0 	andeq	r8, r0, r0, ror #31
    87dc:	00008ffc 	strdeq	r8, [r0], -ip
    87e0:	00009018 	andeq	r9, r0, r8, lsl r0
    87e4:	00009034 	andeq	r9, r0, r4, lsr r0
    87e8:	00009050 	andeq	r9, r0, r0, asr r0
    87ec:	0000906c 	andeq	r9, r0, ip, rrx
    87f0:	00009088 	andeq	r9, r0, r8, lsl #1
    87f4:	000090a4 	andeq	r9, r0, r4, lsr #1
    87f8:	000090c0 	andeq	r9, r0, r0, asr #1
    87fc:	000090dc 	ldrdeq	r9, [r0], -ip
    8800:	000090f8 	strdeq	r9, [r0], -r8
    8804:	00009114 	andeq	r9, r0, r4, lsl r1
    8808:	00009130 	andeq	r9, r0, r0, lsr r1
    880c:	0000914c 	andeq	r9, r0, ip, asr #2
    8810:	00009168 	andeq	r9, r0, r8, ror #2
    8814:	00009184 	andeq	r9, r0, r4, lsl #3
    8818:	000091a0 	andeq	r9, r0, r0, lsr #3
    881c:	000091bc 			; <UNDEFINED> instruction: 0x000091bc
    8820:	000091d8 	ldrdeq	r9, [r0], -r8
    8824:	000091f4 	strdeq	r9, [r0], -r4
    8828:	00009210 	andeq	r9, r0, r0, lsl r2
    882c:	0000922c 	andeq	r9, r0, ip, lsr #4
    8830:	00009248 	andeq	r9, r0, r8, asr #4
    8834:	00009264 	andeq	r9, r0, r4, ror #4
    8838:	00009280 	andeq	r9, r0, r0, lsl #5
    883c:	0000929c 	muleq	r0, ip, r2
    8840:	000092b8 			; <UNDEFINED> instruction: 0x000092b8

00008844 <test_hdmi>:
    8844:	e52de004 	push	{lr}		; (str lr, [sp, #-4]!)
    8848:	e3a0c3c3 	mov	ip, #201326595	; 0xc000003
    884c:	e3a0e008 	mov	lr, #8
    8850:	e59f2040 	ldr	r2, [pc, #64]	; 8898 <test_hdmi+0x54>
    8854:	e59f3040 	ldr	r3, [pc, #64]	; 889c <test_hdmi+0x58>
    8858:	e59f0040 	ldr	r0, [pc, #64]	; 88a0 <test_hdmi+0x5c>
    885c:	e59f1040 	ldr	r1, [pc, #64]	; 88a4 <test_hdmi+0x60>
    8860:	e582e090 	str	lr, [r2, #144]	; 0x90
    8864:	e582c094 	str	ip, [r2, #148]	; 0x94
    8868:	e59fe038 	ldr	lr, [pc, #56]	; 88a8 <test_hdmi+0x64>
    886c:	e583001c 	str	r0, [r3, #28]
    8870:	e59fc034 	ldr	ip, [pc, #52]	; 88ac <test_hdmi+0x68>
    8874:	e58210a8 	str	r1, [r2, #168]	; 0xa8
    8878:	e59f0030 	ldr	r0, [pc, #48]	; 88b0 <test_hdmi+0x6c>
    887c:	e59f1030 	ldr	r1, [pc, #48]	; 88b4 <test_hdmi+0x70>
    8880:	e583e02c 	str	lr, [r3, #44]	; 0x2c
    8884:	e583c018 	str	ip, [r3, #24]
    8888:	e49de004 	pop	{lr}		; (ldr lr, [sp], #4)
    888c:	e582009c 	str	r0, [r2, #156]	; 0x9c
    8890:	e5831014 	str	r1, [r3, #20]
    8894:	e12fff1e 	bx	lr
    8898:	20902000 	addscs	r2, r0, r0
    889c:	20808000 	addcs	r8, r0, r0
    88a0:	00020700 	andeq	r0, r2, r0, lsl #14
    88a4:	01001000 	mrseq	r1, (UNDEF: 0)
    88a8:	0d0489a6 	vstreq.16	s16, [r4, #-332]	; 0xfffffeb4	; <UNPREDICTABLE>
    88ac:	08080608 	stmdaeq	r8, {r3, r9, sl}
    88b0:	21002003 	tstcs	r0, r3
    88b4:	00003229 	andeq	r3, r0, r9, lsr #4

000088b8 <notmain>:
    88b8:	e92d41f0 	push	{r4, r5, r6, r7, r8, lr}
    88bc:	ebfffe05 	bl	80d8 <led_init>
    88c0:	eb000043 	bl	89d4 <uart_init>
    88c4:	e3a02002 	mov	r2, #2
    88c8:	e3a01e1e 	mov	r1, #480	; 0x1e0
    88cc:	e3a00d0a 	mov	r0, #640	; 0x280
    88d0:	ebfffe7a 	bl	82c0 <mailbox_fb_init>
    88d4:	ebffff23 	bl	8568 <hdmi_print_regs>
    88d8:	ebfffedb 	bl	844c <hd_print_regs>
    88dc:	e3a0e008 	mov	lr, #8
    88e0:	e3a0c3c3 	mov	ip, #201326595	; 0xc000003
    88e4:	e59f20c0 	ldr	r2, [pc, #192]	; 89ac <notmain+0xf4>
    88e8:	e59f30c0 	ldr	r3, [pc, #192]	; 89b0 <notmain+0xf8>
    88ec:	e59f00c0 	ldr	r0, [pc, #192]	; 89b4 <notmain+0xfc>
    88f0:	e59f10c0 	ldr	r1, [pc, #192]	; 89b8 <notmain+0x100>
    88f4:	e582e090 	str	lr, [r2, #144]	; 0x90
    88f8:	e582c094 	str	ip, [r2, #148]	; 0x94
    88fc:	e59fe0b8 	ldr	lr, [pc, #184]	; 89bc <notmain+0x104>
    8900:	e583001c 	str	r0, [r3, #28]
    8904:	e59fc0b4 	ldr	ip, [pc, #180]	; 89c0 <notmain+0x108>
    8908:	e58210a8 	str	r1, [r2, #168]	; 0xa8
    890c:	e59f00b0 	ldr	r0, [pc, #176]	; 89c4 <notmain+0x10c>
    8910:	e59f10b0 	ldr	r1, [pc, #176]	; 89c8 <notmain+0x110>
    8914:	e583e02c 	str	lr, [r3, #44]	; 0x2c
    8918:	e583c018 	str	ip, [r3, #24]
    891c:	e582009c 	str	r0, [r2, #156]	; 0x9c
    8920:	e5831014 	str	r1, [r3, #20]
    8924:	ebffff0f 	bl	8568 <hdmi_print_regs>
    8928:	ebfffec7 	bl	844c <hd_print_regs>
    892c:	ebfffdfe 	bl	812c <mailbox_fb_getaddr>
    8930:	e3a0c000 	mov	ip, #0
    8934:	e5900020 	ldr	r0, [r0, #32]
    8938:	e1a02000 	mov	r2, r0
    893c:	e3a03000 	mov	r3, #0
    8940:	e02c1003 	eor	r1, ip, r3
    8944:	e2833001 	add	r3, r3, #1
    8948:	e3530d0a 	cmp	r3, #640	; 0x280
    894c:	e4821004 	str	r1, [r2], #4
    8950:	1afffffa 	bne	8940 <notmain+0x88>
    8954:	e28cc001 	add	ip, ip, #1
    8958:	e35c0e1e 	cmp	ip, #480	; 0x1e0
    895c:	e2800c0a 	add	r0, r0, #2560	; 0xa00
    8960:	1afffff4 	bne	8938 <notmain+0x80>
    8964:	e3a07000 	mov	r7, #0
    8968:	e59f405c 	ldr	r4, [pc, #92]	; 89cc <notmain+0x114>
    896c:	e59f605c 	ldr	r6, [pc, #92]	; 89d0 <notmain+0x118>
    8970:	e59f5038 	ldr	r5, [pc, #56]	; 89b0 <notmain+0xf8>
    8974:	e2070001 	and	r0, r7, #1
    8978:	ebfffde1 	bl	8104 <led_set>
    897c:	e894000c 	ldm	r4, {r2, r3}
    8980:	e5941008 	ldr	r1, [r4, #8]
    8984:	e0823003 	add	r3, r2, r3
    8988:	e0030006 	and	r0, r3, r6
    898c:	e0822001 	add	r2, r2, r1
    8990:	e0831001 	add	r1, r3, r1
    8994:	e5843004 	str	r3, [r4, #4]
    8998:	e5841008 	str	r1, [r4, #8]
    899c:	e5842000 	str	r2, [r4]
    89a0:	e2877001 	add	r7, r7, #1
    89a4:	e5850020 	str	r0, [r5, #32]
    89a8:	eafffff1 	b	8974 <notmain+0xbc>
    89ac:	20902000 	addscs	r2, r0, r0
    89b0:	20808000 	addcs	r8, r0, r0
    89b4:	00020700 	andeq	r0, r2, r0, lsl #14
    89b8:	01001000 	mrseq	r1, (UNDEF: 0)
    89bc:	0d0489a6 	vstreq.16	s16, [r4, #-332]	; 0xfffffeb4	; <UNPREDICTABLE>
    89c0:	08080608 	stmdaeq	r8, {r3, r9, sl}
    89c4:	21002003 	tstcs	r0, r3
    89c8:	00003229 	andeq	r3, r0, r9, lsr #4
    89cc:	00008c48 	andeq	r8, r0, r8, asr #24
    89d0:	ffff0000 			; <UNDEFINED> instruction: 0xffff0000

000089d4 <uart_init>:
    89d4:	e92d4070 	push	{r4, r5, r6, lr}
    89d8:	e59f40a4 	ldr	r4, [pc, #164]	; 8a84 <uart_init+0xb0>
    89dc:	e1a00004 	mov	r0, r4
    89e0:	ebfffd94 	bl	8038 <GET32>
    89e4:	e59f509c 	ldr	r5, [pc, #156]	; 8a88 <uart_init+0xb4>
    89e8:	e3801909 	orr	r1, r0, #147456	; 0x24000
    89ec:	e1a00004 	mov	r0, r4
    89f0:	ebfffd8e 	bl	8030 <PUT32>
    89f4:	e3a00096 	mov	r0, #150	; 0x96
    89f8:	ebfffd90 	bl	8040 <SLEEP>
    89fc:	e1a00005 	mov	r0, r5
    8a00:	e3a01000 	mov	r1, #0
    8a04:	ebfffd89 	bl	8030 <PUT32>
    8a08:	e3a01001 	mov	r1, #1
    8a0c:	e59f0078 	ldr	r0, [pc, #120]	; 8a8c <uart_init+0xb8>
    8a10:	ebfffd86 	bl	8030 <PUT32>
    8a14:	e2844094 	add	r4, r4, #148	; 0x94
    8a18:	e3a00096 	mov	r0, #150	; 0x96
    8a1c:	ebfffd87 	bl	8040 <SLEEP>
    8a20:	e1a00004 	mov	r0, r4
    8a24:	ebfffd83 	bl	8038 <GET32>
    8a28:	e1a01000 	mov	r1, r0
    8a2c:	e1a00004 	mov	r0, r4
    8a30:	e3811903 	orr	r1, r1, #49152	; 0xc000
    8a34:	ebfffd7d 	bl	8030 <PUT32>
    8a38:	e3a00096 	mov	r0, #150	; 0x96
    8a3c:	ebfffd7f 	bl	8040 <SLEEP>
    8a40:	e1a00004 	mov	r0, r4
    8a44:	e3a01000 	mov	r1, #0
    8a48:	ebfffd78 	bl	8030 <PUT32>
    8a4c:	e3a01001 	mov	r1, #1
    8a50:	e59f0038 	ldr	r0, [pc, #56]	; 8a90 <uart_init+0xbc>
    8a54:	ebfffd75 	bl	8030 <PUT32>
    8a58:	e3a01028 	mov	r1, #40	; 0x28
    8a5c:	e59f0030 	ldr	r0, [pc, #48]	; 8a94 <uart_init+0xc0>
    8a60:	ebfffd72 	bl	8030 <PUT32>
    8a64:	e3a01070 	mov	r1, #112	; 0x70
    8a68:	e59f0028 	ldr	r0, [pc, #40]	; 8a98 <uart_init+0xc4>
    8a6c:	ebfffd6f 	bl	8030 <PUT32>
    8a70:	e1a00005 	mov	r0, r5
    8a74:	e59f1020 	ldr	r1, [pc, #32]	; 8a9c <uart_init+0xc8>
    8a78:	ebfffd6c 	bl	8030 <PUT32>
    8a7c:	e8bd4070 	pop	{r4, r5, r6, lr}
    8a80:	e12fff1e 	bx	lr
    8a84:	20200004 	eorcs	r0, r0, r4
    8a88:	20201030 	eorcs	r1, r0, r0, lsr r0
    8a8c:	20200094 	mlacs	r0, r4, r0, r0
    8a90:	20201024 	eorcs	r1, r0, r4, lsr #32
    8a94:	20201028 	eorcs	r1, r0, r8, lsr #32
    8a98:	2020102c 	eorcs	r1, r0, ip, lsr #32
    8a9c:	00000301 	andeq	r0, r0, r1, lsl #6

00008aa0 <uart_putc>:
    8aa0:	e92d4070 	push	{r4, r5, r6, lr}
    8aa4:	e1a05000 	mov	r5, r0
    8aa8:	e59f402c 	ldr	r4, [pc, #44]	; 8adc <uart_putc+0x3c>
    8aac:	ea000001 	b	8ab8 <uart_putc+0x18>
    8ab0:	e3a00001 	mov	r0, #1
    8ab4:	ebfffd61 	bl	8040 <SLEEP>
    8ab8:	e1a00004 	mov	r0, r4
    8abc:	ebfffd5d 	bl	8038 <GET32>
    8ac0:	e3100020 	tst	r0, #32
    8ac4:	1afffff9 	bne	8ab0 <uart_putc+0x10>
    8ac8:	e1a01005 	mov	r1, r5
    8acc:	e59f000c 	ldr	r0, [pc, #12]	; 8ae0 <uart_putc+0x40>
    8ad0:	ebfffd56 	bl	8030 <PUT32>
    8ad4:	e8bd4070 	pop	{r4, r5, r6, lr}
    8ad8:	e12fff1e 	bx	lr
    8adc:	20201018 	eorcs	r1, r0, r8, lsl r0
    8ae0:	20201000 	eorcs	r1, r0, r0

00008ae4 <uart_getc>:
    8ae4:	e92d4010 	push	{r4, lr}
    8ae8:	e59f402c 	ldr	r4, [pc, #44]	; 8b1c <uart_getc+0x38>
    8aec:	ea000001 	b	8af8 <uart_getc+0x14>
    8af0:	e3a00001 	mov	r0, #1
    8af4:	ebfffd51 	bl	8040 <SLEEP>
    8af8:	e1a00004 	mov	r0, r4
    8afc:	ebfffd4d 	bl	8038 <GET32>
    8b00:	e3100010 	tst	r0, #16
    8b04:	1afffff9 	bne	8af0 <uart_getc+0xc>
    8b08:	e59f0010 	ldr	r0, [pc, #16]	; 8b20 <uart_getc+0x3c>
    8b0c:	ebfffd49 	bl	8038 <GET32>
    8b10:	e8bd4010 	pop	{r4, lr}
    8b14:	e20000ff 	and	r0, r0, #255	; 0xff
    8b18:	e12fff1e 	bx	lr
    8b1c:	20201018 	eorcs	r1, r0, r8, lsl r0
    8b20:	20201000 	eorcs	r1, r0, r0

00008b24 <uart_puts>:
    8b24:	e92d4010 	push	{r4, lr}
    8b28:	e1a04000 	mov	r4, r0
    8b2c:	e5d00000 	ldrb	r0, [r0]
    8b30:	e3500000 	cmp	r0, #0
    8b34:	1a000003 	bne	8b48 <uart_puts+0x24>
    8b38:	ea00000b 	b	8b6c <uart_puts+0x48>
    8b3c:	e5f40001 	ldrb	r0, [r4, #1]!
    8b40:	e3500000 	cmp	r0, #0
    8b44:	0a000008 	beq	8b6c <uart_puts+0x48>
    8b48:	ebffffd4 	bl	8aa0 <uart_putc>
    8b4c:	e5d43000 	ldrb	r3, [r4]
    8b50:	e353000a 	cmp	r3, #10
    8b54:	1afffff8 	bne	8b3c <uart_puts+0x18>
    8b58:	e3a0000d 	mov	r0, #13
    8b5c:	ebffffcf 	bl	8aa0 <uart_putc>
    8b60:	e5f40001 	ldrb	r0, [r4, #1]!
    8b64:	e3500000 	cmp	r0, #0
    8b68:	1afffff6 	bne	8b48 <uart_puts+0x24>
    8b6c:	e8bd4010 	pop	{r4, lr}
    8b70:	e12fff1e 	bx	lr

00008b74 <uart_put_dword>:
    8b74:	e92d4070 	push	{r4, r5, r6, lr}
    8b78:	e1a04000 	mov	r4, r0
    8b7c:	e59f5074 	ldr	r5, [pc, #116]	; 8bf8 <uart_put_dword+0x84>
    8b80:	e7d50e20 	ldrb	r0, [r5, r0, lsr #28]
    8b84:	ebffffc5 	bl	8aa0 <uart_putc>
    8b88:	e1a03c24 	lsr	r3, r4, #24
    8b8c:	e203300f 	and	r3, r3, #15
    8b90:	e7d50003 	ldrb	r0, [r5, r3]
    8b94:	ebffffc1 	bl	8aa0 <uart_putc>
    8b98:	e1a03a24 	lsr	r3, r4, #20
    8b9c:	e203300f 	and	r3, r3, #15
    8ba0:	e7d50003 	ldrb	r0, [r5, r3]
    8ba4:	ebffffbd 	bl	8aa0 <uart_putc>
    8ba8:	e1a03824 	lsr	r3, r4, #16
    8bac:	e203300f 	and	r3, r3, #15
    8bb0:	e7d50003 	ldrb	r0, [r5, r3]
    8bb4:	ebffffb9 	bl	8aa0 <uart_putc>
    8bb8:	e1a03624 	lsr	r3, r4, #12
    8bbc:	e203300f 	and	r3, r3, #15
    8bc0:	e7d50003 	ldrb	r0, [r5, r3]
    8bc4:	ebffffb5 	bl	8aa0 <uart_putc>
    8bc8:	e1a03424 	lsr	r3, r4, #8
    8bcc:	e203300f 	and	r3, r3, #15
    8bd0:	e7d50003 	ldrb	r0, [r5, r3]
    8bd4:	ebffffb1 	bl	8aa0 <uart_putc>
    8bd8:	e1a03224 	lsr	r3, r4, #4
    8bdc:	e203300f 	and	r3, r3, #15
    8be0:	e7d50003 	ldrb	r0, [r5, r3]
    8be4:	e204400f 	and	r4, r4, #15
    8be8:	ebffffac 	bl	8aa0 <uart_putc>
    8bec:	e7d50004 	ldrb	r0, [r5, r4]
    8bf0:	e8bd4070 	pop	{r4, r5, r6, lr}
    8bf4:	eaffffa9 	b	8aa0 <uart_putc>
    8bf8:	000092d8 	ldrdeq	r9, [r0], -r8

00008bfc <uart_debug_puts>:
    8bfc:	e92d4010 	push	{r4, lr}
    8c00:	e1a04001 	mov	r4, r1
    8c04:	ebffffc6 	bl	8b24 <uart_puts>
    8c08:	e1a00004 	mov	r0, r4
    8c0c:	ebffffd8 	bl	8b74 <uart_put_dword>
    8c10:	e59f0004 	ldr	r0, [pc, #4]	; 8c1c <uart_debug_puts+0x20>
    8c14:	e8bd4010 	pop	{r4, lr}
    8c18:	eaffffc1 	b	8b24 <uart_puts>
    8c1c:	000092d4 	ldrdeq	r9, [r0], -r4

00008c20 <uart_putc_hex>:
    8c20:	e92d4070 	push	{r4, r5, r6, lr}
    8c24:	e1a04000 	mov	r4, r0
    8c28:	e59f5014 	ldr	r5, [pc, #20]	; 8c44 <uart_putc_hex+0x24>
    8c2c:	e204400f 	and	r4, r4, #15
    8c30:	e7d50220 	ldrb	r0, [r5, r0, lsr #4]
    8c34:	ebffff99 	bl	8aa0 <uart_putc>
    8c38:	e7d50004 	ldrb	r0, [r5, r4]
    8c3c:	e8bd4070 	pop	{r4, r5, r6, lr}
    8c40:	eaffff96 	b	8aa0 <uart_putc>
    8c44:	000092d8 	ldrdeq	r9, [r0], -r8

Disassembly of section .data:

00008c48 <b.4151>:
    8c48:	0012dad2 			; <UNDEFINED> instruction: 0x0012dad2

00008c4c <a.4150>:
    8c4c:	00000001 	andeq	r0, r0, r1

00008c50 <c.4152>:
    8c50:	00955437 	addseq	r5, r5, r7, lsr r4

Disassembly of section .rodata.str1.4:

00008c54 <.rodata.str1.4>:
    8c54:	73206266 			; <UNDEFINED> instruction: 0x73206266
    8c58:	63757274 	cmnvs	r5, #116, 4	; 0x40000007
    8c5c:	64612074 	strbtvs	r2, [r1], #-116	; 0xffffff8c
    8c60:	003d7264 	eorseq	r7, sp, r4, ror #4
    8c64:	474e4148 	strbmi	r4, [lr, -r8, asr #2]
    8c68:	21212121 			; <UNDEFINED> instruction: 0x21212121
    8c6c:	21212121 			; <UNDEFINED> instruction: 0x21212121
    8c70:	00000a21 	andeq	r0, r0, r1, lsr #20
    8c74:	6c6c6163 	stfvse	f6, [ip], #-396	; 0xfffffe74
    8c78:	746e6920 	strbtvc	r6, [lr], #-2336	; 0xfffff6e0
    8c7c:	61685f72 	smcvs	34290	; 0x85f2
    8c80:	656c646e 	strbvs	r6, [ip, #-1134]!	; 0xfffffb92
    8c84:	00000a72 	andeq	r0, r0, r2, ror sl
    8c88:	2d2d2d2d 	stccs	13, cr2, [sp, #-180]!	; 0xffffff4c
    8c8c:	2d2d2d2d 	stccs	13, cr2, [sp, #-180]!	; 0xffffff4c
    8c90:	2d2d2d2d 	stccs	13, cr2, [sp, #-180]!	; 0xffffff4c
    8c94:	2d2d2d2d 	stccs	13, cr2, [sp, #-180]!	; 0xffffff4c
    8c98:	2d2d2d2d 	stccs	13, cr2, [sp, #-180]!	; 0xffffff4c
    8c9c:	2d2d2d2d 	stccs	13, cr2, [sp, #-180]!	; 0xffffff4c
    8ca0:	2d2d2d2d 	stccs	13, cr2, [sp, #-180]!	; 0xffffff4c
    8ca4:	2d2d2d2d 	stccs	13, cr2, [sp, #-180]!	; 0xffffff4c
    8ca8:	2d2d2d2d 	stccs	13, cr2, [sp, #-180]!	; 0xffffff4c
    8cac:	2d2d2d2d 	stccs	13, cr2, [sp, #-180]!	; 0xffffff4c
    8cb0:	0a2d2d2d 	beq	b5416c <mailbox_data+0xb4ad6c>
    8cb4:	00000000 	andeq	r0, r0, r0
    8cb8:	494d4448 	stmdbmi	sp, {r3, r6, sl, lr}^
    8cbc:	435f4d5f 	cmpmi	pc, #6080	; 0x17c0
    8cc0:	20204c54 	eorcs	r4, r0, r4, asr ip
    8cc4:	20202020 	eorcs	r2, r0, r0, lsr #32
    8cc8:	3d202020 	stccc	0, cr2, [r0, #-128]!	; 0xffffff80
    8ccc:	00000000 	andeq	r0, r0, r0
    8cd0:	494d4448 	stmdbmi	sp, {r3, r6, sl, lr}^
    8cd4:	49414d5f 	stmdbmi	r1, {r0, r1, r2, r3, r4, r6, r8, sl, fp, lr}^
    8cd8:	4c54435f 	mrrcmi	3, 5, r4, r4, cr15	; <UNPREDICTABLE>
    8cdc:	20202020 	eorcs	r2, r0, r0, lsr #32
    8ce0:	3d202020 	stccc	0, cr2, [r0, #-128]!	; 0xffffff80
    8ce4:	00000000 	andeq	r0, r0, r0
    8ce8:	494d4448 	stmdbmi	sp, {r3, r6, sl, lr}^
    8cec:	49414d5f 	stmdbmi	r1, {r0, r1, r2, r3, r4, r6, r8, sl, fp, lr}^
    8cf0:	5248545f 	subpl	r5, r8, #1593835520	; 0x5f000000
    8cf4:	20202020 	eorcs	r2, r0, r0, lsr #32
    8cf8:	3d202020 	stccc	0, cr2, [r0, #-128]!	; 0xffffff80
    8cfc:	00000000 	andeq	r0, r0, r0
    8d00:	494d4448 	stmdbmi	sp, {r3, r6, sl, lr}^
    8d04:	49414d5f 	stmdbmi	r1, {r0, r1, r2, r3, r4, r6, r8, sl, fp, lr}^
    8d08:	544d465f 	strbpl	r4, [sp], #-1631	; 0xfffff9a1
    8d0c:	20202020 	eorcs	r2, r0, r0, lsr #32
    8d10:	3d202020 	stccc	0, cr2, [r0, #-128]!	; 0xffffff80
    8d14:	00000000 	andeq	r0, r0, r0
    8d18:	494d4448 	stmdbmi	sp, {r3, r6, sl, lr}^
    8d1c:	49414d5f 	stmdbmi	r1, {r0, r1, r2, r3, r4, r6, r8, sl, fp, lr}^
    8d20:	5441445f 	strbpl	r4, [r1], #-1119	; 0xfffffba1
    8d24:	20202041 	eorcs	r2, r0, r1, asr #32
    8d28:	3d202020 	stccc	0, cr2, [r0, #-128]!	; 0xffffff80
    8d2c:	00000000 	andeq	r0, r0, r0
    8d30:	494d4448 	stmdbmi	sp, {r3, r6, sl, lr}^
    8d34:	49414d5f 	stmdbmi	r1, {r0, r1, r2, r3, r4, r6, r8, sl, fp, lr}^
    8d38:	504d535f 	subpl	r5, sp, pc, asr r3
    8d3c:	20202020 	eorcs	r2, r0, r0, lsr #32
    8d40:	3d202020 	stccc	0, cr2, [r0, #-128]!	; 0xffffff80
    8d44:	00000000 	andeq	r0, r0, r0
    8d48:	494d4448 	stmdbmi	sp, {r3, r6, sl, lr}^
    8d4c:	4449565f 	strbmi	r5, [r9], #-1631	; 0xfffff9a1
    8d50:	4c54435f 	mrrcmi	3, 5, r4, r4, cr15	; <UNPREDICTABLE>
    8d54:	20202020 	eorcs	r2, r0, r0, lsr #32
    8d58:	3d202020 	stccc	0, cr2, [r0, #-128]!	; 0xffffff80
    8d5c:	00000000 	andeq	r0, r0, r0
    8d60:	494d4448 	stmdbmi	sp, {r3, r6, sl, lr}^
    8d64:	4353435f 	cmpmi	r3, #2080374785	; 0x7c000001
    8d68:	4c54435f 	mrrcmi	3, 5, r4, r4, cr15	; <UNPREDICTABLE>
    8d6c:	20202020 	eorcs	r2, r0, r0, lsr #32
    8d70:	3d202020 	stccc	0, cr2, [r0, #-128]!	; 0xffffff80
    8d74:	00000000 	andeq	r0, r0, r0
    8d78:	494d4448 	stmdbmi	sp, {r3, r6, sl, lr}^
    8d7c:	4353435f 	cmpmi	r3, #2080374785	; 0x7c000001
    8d80:	5f32315f 	svcpl	0x0032315f
    8d84:	20203131 	eorcs	r3, r0, r1, lsr r1
    8d88:	3d202020 	stccc	0, cr2, [r0, #-128]!	; 0xffffff80
    8d8c:	00000000 	andeq	r0, r0, r0
    8d90:	494d4448 	stmdbmi	sp, {r3, r6, sl, lr}^
    8d94:	4353435f 	cmpmi	r3, #2080374785	; 0x7c000001
    8d98:	5f34315f 	svcpl	0x0034315f
    8d9c:	20203331 	eorcs	r3, r0, r1, lsr r3
    8da0:	3d202020 	stccc	0, cr2, [r0, #-128]!	; 0xffffff80
    8da4:	00000000 	andeq	r0, r0, r0
    8da8:	494d4448 	stmdbmi	sp, {r3, r6, sl, lr}^
    8dac:	4353435f 	cmpmi	r3, #2080374785	; 0x7c000001
    8db0:	5f32325f 	svcpl	0x0032325f
    8db4:	20203132 	eorcs	r3, r0, r2, lsr r1
    8db8:	3d202020 	stccc	0, cr2, [r0, #-128]!	; 0xffffff80
    8dbc:	00000000 	andeq	r0, r0, r0
    8dc0:	494d4448 	stmdbmi	sp, {r3, r6, sl, lr}^
    8dc4:	4353435f 	cmpmi	r3, #2080374785	; 0x7c000001
    8dc8:	5f34325f 	svcpl	0x0034325f
    8dcc:	20203332 	eorcs	r3, r0, r2, lsr r3
    8dd0:	3d202020 	stccc	0, cr2, [r0, #-128]!	; 0xffffff80
    8dd4:	00000000 	andeq	r0, r0, r0
    8dd8:	494d4448 	stmdbmi	sp, {r3, r6, sl, lr}^
    8ddc:	4353435f 	cmpmi	r3, #2080374785	; 0x7c000001
    8de0:	5f32335f 	svcpl	0x0032335f
    8de4:	20203133 	eorcs	r3, r0, r3, lsr r1
    8de8:	3d202020 	stccc	0, cr2, [r0, #-128]!	; 0xffffff80
    8dec:	00000000 	andeq	r0, r0, r0
    8df0:	494d4448 	stmdbmi	sp, {r3, r6, sl, lr}^
    8df4:	4353435f 	cmpmi	r3, #2080374785	; 0x7c000001
    8df8:	5f34335f 	svcpl	0x0034335f
    8dfc:	20203333 	eorcs	r3, r0, r3, lsr r3
    8e00:	3d202020 	stccc	0, cr2, [r0, #-128]!	; 0xffffff80
    8e04:	00000000 	andeq	r0, r0, r0
    8e08:	494d4448 	stmdbmi	sp, {r3, r6, sl, lr}^
    8e0c:	4152465f 	cmpmi	r2, pc, asr r6
    8e10:	435f454d 	cmpmi	pc, #322961408	; 0x13400000
    8e14:	544e554f 	strbpl	r5, [lr], #-1359	; 0xfffffab1
    8e18:	3d202020 	stccc	0, cr2, [r0, #-128]!	; 0xffffff80
    8e1c:	00000000 	andeq	r0, r0, r0
    8e20:	494d4448 	stmdbmi	sp, {r3, r6, sl, lr}^
    8e24:	524f435f 	subpl	r4, pc, #2080374785	; 0x7c000001
    8e28:	45525f45 	ldrbmi	r5, [r2, #-3909]	; 0xfffff0bb
    8e2c:	20202056 	eorcs	r2, r0, r6, asr r0
    8e30:	20202020 	eorcs	r2, r0, r0, lsr #32
    8e34:	20202020 	eorcs	r2, r0, r0, lsr #32
    8e38:	003d2020 	eorseq	r2, sp, r0, lsr #32
    8e3c:	494d4448 	stmdbmi	sp, {r3, r6, sl, lr}^
    8e40:	5f57535f 	svcpl	0x0057535f
    8e44:	45534552 	ldrbmi	r4, [r3, #-1362]	; 0xfffffaae
    8e48:	4f435f54 	svcmi	0x00435f54
    8e4c:	4f52544e 	svcmi	0x0052544e
    8e50:	2020204c 	eorcs	r2, r0, ip, asr #32
    8e54:	003d2020 	eorseq	r2, sp, r0, lsr #32
    8e58:	494d4448 	stmdbmi	sp, {r3, r6, sl, lr}^
    8e5c:	544f485f 	strbpl	r4, [pc], #-2143	; 8e64 <c.4152+0x214>
    8e60:	47554c50 			; <UNDEFINED> instruction: 0x47554c50
    8e64:	544e495f 	strbpl	r4, [lr], #-2399	; 0xfffff6a1
    8e68:	20202020 	eorcs	r2, r0, r0, lsr #32
    8e6c:	20202020 	eorcs	r2, r0, r0, lsr #32
    8e70:	003d2020 	eorseq	r2, sp, r0, lsr #32
    8e74:	494d4448 	stmdbmi	sp, {r3, r6, sl, lr}^
    8e78:	544f485f 	strbpl	r4, [pc], #-2143	; 8e80 <c.4152+0x230>
    8e7c:	47554c50 			; <UNDEFINED> instruction: 0x47554c50
    8e80:	20202020 	eorcs	r2, r0, r0, lsr #32
    8e84:	20202020 	eorcs	r2, r0, r0, lsr #32
    8e88:	20202020 	eorcs	r2, r0, r0, lsr #32
    8e8c:	003d2020 	eorseq	r2, sp, r0, lsr #32
    8e90:	494d4448 	stmdbmi	sp, {r3, r6, sl, lr}^
    8e94:	4649465f 			; <UNDEFINED> instruction: 0x4649465f
    8e98:	54435f4f 	strbpl	r5, [r3], #-3919	; 0xfffff0b1
    8e9c:	2020204c 	eorcs	r2, r0, ip, asr #32
    8ea0:	20202020 	eorcs	r2, r0, r0, lsr #32
    8ea4:	20202020 	eorcs	r2, r0, r0, lsr #32
    8ea8:	003d2020 	eorseq	r2, sp, r0, lsr #32
    8eac:	494d4448 	stmdbmi	sp, {r3, r6, sl, lr}^
    8eb0:	49414d5f 	stmdbmi	r1, {r0, r1, r2, r3, r4, r6, r8, sl, fp, lr}^
    8eb4:	4148435f 	cmpmi	r8, pc, asr r3
    8eb8:	4c454e4e 	mcrrmi	14, 4, r4, r5, cr14
    8ebc:	50414d5f 	subpl	r4, r1, pc, asr sp
    8ec0:	20202020 	eorcs	r2, r0, r0, lsr #32
    8ec4:	003d2020 	eorseq	r2, sp, r0, lsr #32
    8ec8:	494d4448 	stmdbmi	sp, {r3, r6, sl, lr}^
    8ecc:	49414d5f 	stmdbmi	r1, {r0, r1, r2, r3, r4, r6, r8, sl, fp, lr}^
    8ed0:	4e4f435f 	mcrmi	3, 2, r4, cr15, cr15, {2}
    8ed4:	20474946 	subcs	r4, r7, r6, asr #18
    8ed8:	20202020 	eorcs	r2, r0, r0, lsr #32
    8edc:	20202020 	eorcs	r2, r0, r0, lsr #32
    8ee0:	003d2020 	eorseq	r2, sp, r0, lsr #32
    8ee4:	494d4448 	stmdbmi	sp, {r3, r6, sl, lr}^
    8ee8:	49414d5f 	stmdbmi	r1, {r0, r1, r2, r3, r4, r6, r8, sl, fp, lr}^
    8eec:	524f465f 	subpl	r4, pc, #99614720	; 0x5f00000
    8ef0:	2054414d 	subscs	r4, r4, sp, asr #2
    8ef4:	20202020 	eorcs	r2, r0, r0, lsr #32
    8ef8:	20202020 	eorcs	r2, r0, r0, lsr #32
    8efc:	003d2020 	eorseq	r2, sp, r0, lsr #32
    8f00:	494d4448 	stmdbmi	sp, {r3, r6, sl, lr}^
    8f04:	4455415f 	ldrbmi	r4, [r5], #-351	; 0xfffffea1
    8f08:	505f4f49 	subspl	r4, pc, r9, asr #30
    8f0c:	454b4341 	strbmi	r4, [fp, #-833]	; 0xfffffcbf
    8f10:	4f435f54 	svcmi	0x00435f54
    8f14:	4749464e 	strbmi	r4, [r9, -lr, asr #12]
    8f18:	003d2020 	eorseq	r2, sp, r0, lsr #32
    8f1c:	494d4448 	stmdbmi	sp, {r3, r6, sl, lr}^
    8f20:	4d41525f 	sfmmi	f5, 2, [r1, #-380]	; 0xfffffe84
    8f24:	4341505f 	movtmi	r5, #4191	; 0x105f
    8f28:	5f54454b 	svcpl	0x0054454b
    8f2c:	464e4f43 	strbmi	r4, [lr], -r3, asr #30
    8f30:	20204749 	eorcs	r4, r0, r9, asr #14
    8f34:	003d2020 	eorseq	r2, sp, r0, lsr #32
    8f38:	494d4448 	stmdbmi	sp, {r3, r6, sl, lr}^
    8f3c:	4d41525f 	sfmmi	f5, 2, [r1, #-380]	; 0xfffffe84
    8f40:	4341505f 	movtmi	r5, #4191	; 0x105f
    8f44:	5f54454b 	svcpl	0x0054454b
    8f48:	54415453 	strbpl	r5, [r1], #-1107	; 0xfffffbad
    8f4c:	20205355 	eorcs	r5, r0, r5, asr r3
    8f50:	003d2020 	eorseq	r2, sp, r0, lsr #32
    8f54:	494d4448 	stmdbmi	sp, {r3, r6, sl, lr}^
    8f58:	5052435f 	subspl	r4, r2, pc, asr r3
    8f5c:	4746435f 	smlsldmi	r4, r6, pc, r3	; <UNPREDICTABLE>
    8f60:	20202020 	eorcs	r2, r0, r0, lsr #32
    8f64:	20202020 	eorcs	r2, r0, r0, lsr #32
    8f68:	20202020 	eorcs	r2, r0, r0, lsr #32
    8f6c:	003d2020 	eorseq	r2, sp, r0, lsr #32
    8f70:	494d4448 	stmdbmi	sp, {r3, r6, sl, lr}^
    8f74:	5354435f 	cmppl	r4, #2080374785	; 0x7c000001
    8f78:	2020305f 	eorcs	r3, r0, pc, asr r0
    8f7c:	20202020 	eorcs	r2, r0, r0, lsr #32
    8f80:	20202020 	eorcs	r2, r0, r0, lsr #32
    8f84:	20202020 	eorcs	r2, r0, r0, lsr #32
    8f88:	003d2020 	eorseq	r2, sp, r0, lsr #32
    8f8c:	494d4448 	stmdbmi	sp, {r3, r6, sl, lr}^
    8f90:	5354435f 	cmppl	r4, #2080374785	; 0x7c000001
    8f94:	2020315f 	eorcs	r3, r0, pc, asr r1
    8f98:	20202020 	eorcs	r2, r0, r0, lsr #32
    8f9c:	20202020 	eorcs	r2, r0, r0, lsr #32
    8fa0:	20202020 	eorcs	r2, r0, r0, lsr #32
    8fa4:	003d2020 	eorseq	r2, sp, r0, lsr #32
    8fa8:	494d4448 	stmdbmi	sp, {r3, r6, sl, lr}^
    8fac:	4843535f 	stmdami	r3, {r0, r1, r2, r3, r4, r6, r8, r9, ip, lr}^
    8fb0:	4c554445 	cfldrdmi	mvd4, [r5], {69}	; 0x45
    8fb4:	435f5245 	cmpmi	pc, #1342177284	; 0x50000004
    8fb8:	52544e4f 	subspl	r4, r4, #1264	; 0x4f0
    8fbc:	20204c4f 	eorcs	r4, r0, pc, asr #24
    8fc0:	003d2020 	eorseq	r2, sp, r0, lsr #32
    8fc4:	494d4448 	stmdbmi	sp, {r3, r6, sl, lr}^
    8fc8:	524f485f 	subpl	r4, pc, #6225920	; 0x5f0000
    8fcc:	2020415a 	eorcs	r4, r0, sl, asr r1
    8fd0:	20202020 	eorcs	r2, r0, r0, lsr #32
    8fd4:	20202020 	eorcs	r2, r0, r0, lsr #32
    8fd8:	20202020 	eorcs	r2, r0, r0, lsr #32
    8fdc:	003d2020 	eorseq	r2, sp, r0, lsr #32
    8fe0:	494d4448 	stmdbmi	sp, {r3, r6, sl, lr}^
    8fe4:	524f485f 	subpl	r4, pc, #6225920	; 0x5f0000
    8fe8:	2020425a 	eorcs	r4, r0, sl, asr r2
    8fec:	20202020 	eorcs	r2, r0, r0, lsr #32
    8ff0:	20202020 	eorcs	r2, r0, r0, lsr #32
    8ff4:	20202020 	eorcs	r2, r0, r0, lsr #32
    8ff8:	003d2020 	eorseq	r2, sp, r0, lsr #32
    8ffc:	494d4448 	stmdbmi	sp, {r3, r6, sl, lr}^
    9000:	5245565f 	subpl	r5, r5, #99614720	; 0x5f00000
    9004:	20304154 	eorscs	r4, r0, r4, asr r1
    9008:	20202020 	eorcs	r2, r0, r0, lsr #32
    900c:	20202020 	eorcs	r2, r0, r0, lsr #32
    9010:	20202020 	eorcs	r2, r0, r0, lsr #32
    9014:	003d2020 	eorseq	r2, sp, r0, lsr #32
    9018:	494d4448 	stmdbmi	sp, {r3, r6, sl, lr}^
    901c:	5245565f 	subpl	r5, r5, #99614720	; 0x5f00000
    9020:	20304254 	eorscs	r4, r0, r4, asr r2
    9024:	20202020 	eorcs	r2, r0, r0, lsr #32
    9028:	20202020 	eorcs	r2, r0, r0, lsr #32
    902c:	20202020 	eorcs	r2, r0, r0, lsr #32
    9030:	003d2020 	eorseq	r2, sp, r0, lsr #32
    9034:	494d4448 	stmdbmi	sp, {r3, r6, sl, lr}^
    9038:	5245565f 	subpl	r5, r5, #99614720	; 0x5f00000
    903c:	20314154 	eorscs	r4, r1, r4, asr r1
    9040:	20202020 	eorcs	r2, r0, r0, lsr #32
    9044:	20202020 	eorcs	r2, r0, r0, lsr #32
    9048:	20202020 	eorcs	r2, r0, r0, lsr #32
    904c:	003d2020 	eorseq	r2, sp, r0, lsr #32
    9050:	494d4448 	stmdbmi	sp, {r3, r6, sl, lr}^
    9054:	5245565f 	subpl	r5, r5, #99614720	; 0x5f00000
    9058:	20314254 	eorscs	r4, r1, r4, asr r2
    905c:	20202020 	eorcs	r2, r0, r0, lsr #32
    9060:	20202020 	eorcs	r2, r0, r0, lsr #32
    9064:	20202020 	eorcs	r2, r0, r0, lsr #32
    9068:	003d2020 	eorseq	r2, sp, r0, lsr #32
    906c:	494d4448 	stmdbmi	sp, {r3, r6, sl, lr}^
    9070:	4345435f 	movtmi	r4, #21343	; 0x535f
    9074:	544e435f 	strbpl	r4, [lr], #-863	; 0xfffffca1
    9078:	315f4c52 	cmpcc	pc, r2, asr ip	; <UNPREDICTABLE>
    907c:	20202020 	eorcs	r2, r0, r0, lsr #32
    9080:	20202020 	eorcs	r2, r0, r0, lsr #32
    9084:	003d2020 	eorseq	r2, sp, r0, lsr #32
    9088:	494d4448 	stmdbmi	sp, {r3, r6, sl, lr}^
    908c:	4345435f 	movtmi	r4, #21343	; 0x535f
    9090:	544e435f 	strbpl	r4, [lr], #-863	; 0xfffffca1
    9094:	325f4c52 	subscc	r4, pc, #20992	; 0x5200
    9098:	20202020 	eorcs	r2, r0, r0, lsr #32
    909c:	20202020 	eorcs	r2, r0, r0, lsr #32
    90a0:	003d2020 	eorseq	r2, sp, r0, lsr #32
    90a4:	494d4448 	stmdbmi	sp, {r3, r6, sl, lr}^
    90a8:	4345435f 	movtmi	r4, #21343	; 0x535f
    90ac:	544e435f 	strbpl	r4, [lr], #-863	; 0xfffffca1
    90b0:	335f4c52 	cmpcc	pc, #20992	; 0x5200
    90b4:	20202020 	eorcs	r2, r0, r0, lsr #32
    90b8:	20202020 	eorcs	r2, r0, r0, lsr #32
    90bc:	003d2020 	eorseq	r2, sp, r0, lsr #32
    90c0:	494d4448 	stmdbmi	sp, {r3, r6, sl, lr}^
    90c4:	4345435f 	movtmi	r4, #21343	; 0x535f
    90c8:	544e435f 	strbpl	r4, [lr], #-863	; 0xfffffca1
    90cc:	345f4c52 	ldrbcc	r4, [pc], #-3154	; 90d4 <c.4152+0x484>
    90d0:	20202020 	eorcs	r2, r0, r0, lsr #32
    90d4:	20202020 	eorcs	r2, r0, r0, lsr #32
    90d8:	003d2020 	eorseq	r2, sp, r0, lsr #32
    90dc:	494d4448 	stmdbmi	sp, {r3, r6, sl, lr}^
    90e0:	4345435f 	movtmi	r4, #21343	; 0x535f
    90e4:	544e435f 	strbpl	r4, [lr], #-863	; 0xfffffca1
    90e8:	355f4c52 	ldrbcc	r4, [pc, #-3154]	; 849e <hd_print_regs+0x52>
    90ec:	20202020 	eorcs	r2, r0, r0, lsr #32
    90f0:	20202020 	eorcs	r2, r0, r0, lsr #32
    90f4:	003d2020 	eorseq	r2, sp, r0, lsr #32
    90f8:	494d4448 	stmdbmi	sp, {r3, r6, sl, lr}^
    90fc:	4345435f 	movtmi	r4, #21343	; 0x535f
    9100:	5f58545f 	svcpl	0x0058545f
    9104:	41544144 	cmpmi	r4, r4, asr #2
    9108:	2020315f 	eorcs	r3, r0, pc, asr r1
    910c:	20202020 	eorcs	r2, r0, r0, lsr #32
    9110:	003d2020 	eorseq	r2, sp, r0, lsr #32
    9114:	494d4448 	stmdbmi	sp, {r3, r6, sl, lr}^
    9118:	4345435f 	movtmi	r4, #21343	; 0x535f
    911c:	5f58545f 	svcpl	0x0058545f
    9120:	41544144 	cmpmi	r4, r4, asr #2
    9124:	2020325f 	eorcs	r3, r0, pc, asr r2
    9128:	20202020 	eorcs	r2, r0, r0, lsr #32
    912c:	003d2020 	eorseq	r2, sp, r0, lsr #32
    9130:	494d4448 	stmdbmi	sp, {r3, r6, sl, lr}^
    9134:	4345435f 	movtmi	r4, #21343	; 0x535f
    9138:	5f58545f 	svcpl	0x0058545f
    913c:	41544144 	cmpmi	r4, r4, asr #2
    9140:	2020335f 	eorcs	r3, r0, pc, asr r3
    9144:	20202020 	eorcs	r2, r0, r0, lsr #32
    9148:	003d2020 	eorseq	r2, sp, r0, lsr #32
    914c:	494d4448 	stmdbmi	sp, {r3, r6, sl, lr}^
    9150:	4345435f 	movtmi	r4, #21343	; 0x535f
    9154:	5f58545f 	svcpl	0x0058545f
    9158:	41544144 	cmpmi	r4, r4, asr #2
    915c:	2020345f 	eorcs	r3, r0, pc, asr r4
    9160:	20202020 	eorcs	r2, r0, r0, lsr #32
    9164:	003d2020 	eorseq	r2, sp, r0, lsr #32
    9168:	494d4448 	stmdbmi	sp, {r3, r6, sl, lr}^
    916c:	4345435f 	movtmi	r4, #21343	; 0x535f
    9170:	5f58525f 	svcpl	0x0058525f
    9174:	41544144 	cmpmi	r4, r4, asr #2
    9178:	2020315f 	eorcs	r3, r0, pc, asr r1
    917c:	20202020 	eorcs	r2, r0, r0, lsr #32
    9180:	003d2020 	eorseq	r2, sp, r0, lsr #32
    9184:	494d4448 	stmdbmi	sp, {r3, r6, sl, lr}^
    9188:	4345435f 	movtmi	r4, #21343	; 0x535f
    918c:	5f58525f 	svcpl	0x0058525f
    9190:	41544144 	cmpmi	r4, r4, asr #2
    9194:	2020325f 	eorcs	r3, r0, pc, asr r2
    9198:	20202020 	eorcs	r2, r0, r0, lsr #32
    919c:	003d2020 	eorseq	r2, sp, r0, lsr #32
    91a0:	494d4448 	stmdbmi	sp, {r3, r6, sl, lr}^
    91a4:	4345435f 	movtmi	r4, #21343	; 0x535f
    91a8:	5f58525f 	svcpl	0x0058525f
    91ac:	41544144 	cmpmi	r4, r4, asr #2
    91b0:	2020335f 	eorcs	r3, r0, pc, asr r3
    91b4:	20202020 	eorcs	r2, r0, r0, lsr #32
    91b8:	003d2020 	eorseq	r2, sp, r0, lsr #32
    91bc:	494d4448 	stmdbmi	sp, {r3, r6, sl, lr}^
    91c0:	4345435f 	movtmi	r4, #21343	; 0x535f
    91c4:	5f58525f 	svcpl	0x0058525f
    91c8:	41544144 	cmpmi	r4, r4, asr #2
    91cc:	2020345f 	eorcs	r3, r0, pc, asr r4
    91d0:	20202020 	eorcs	r2, r0, r0, lsr #32
    91d4:	003d2020 	eorseq	r2, sp, r0, lsr #32
    91d8:	494d4448 	stmdbmi	sp, {r3, r6, sl, lr}^
    91dc:	5f58545f 	svcpl	0x0058545f
    91e0:	5f594850 	svcpl	0x00594850
    91e4:	45534552 	ldrbmi	r4, [r3, #-1362]	; 0xfffffaae
    91e8:	54435f54 	strbpl	r5, [r3], #-3924	; 0xfffff0ac
    91ec:	2020204c 	eorcs	r2, r0, ip, asr #32
    91f0:	003d2020 	eorseq	r2, sp, r0, lsr #32
    91f4:	494d4448 	stmdbmi	sp, {r3, r6, sl, lr}^
    91f8:	5f58545f 	svcpl	0x0058545f
    91fc:	5f594850 	svcpl	0x00594850
    9200:	5f4c5443 	svcpl	0x004c5443
    9204:	20202030 	eorcs	r2, r0, r0, lsr r0
    9208:	20202020 	eorcs	r2, r0, r0, lsr #32
    920c:	003d2020 	eorseq	r2, sp, r0, lsr #32
    9210:	494d4448 	stmdbmi	sp, {r3, r6, sl, lr}^
    9214:	4345435f 	movtmi	r4, #21343	; 0x535f
    9218:	5550435f 	ldrbpl	r4, [r0, #-863]	; 0xfffffca1
    921c:	4154535f 	cmpmi	r4, pc, asr r3
    9220:	20535554 	subscs	r5, r3, r4, asr r5
    9224:	20202020 	eorcs	r2, r0, r0, lsr #32
    9228:	003d2020 	eorseq	r2, sp, r0, lsr #32
    922c:	494d4448 	stmdbmi	sp, {r3, r6, sl, lr}^
    9230:	4345435f 	movtmi	r4, #21343	; 0x535f
    9234:	5550435f 	ldrbpl	r4, [r0, #-863]	; 0xfffffca1
    9238:	5445535f 	strbpl	r5, [r5], #-863	; 0xfffffca1
    923c:	20202020 	eorcs	r2, r0, r0, lsr #32
    9240:	20202020 	eorcs	r2, r0, r0, lsr #32
    9244:	003d2020 	eorseq	r2, sp, r0, lsr #32
    9248:	494d4448 	stmdbmi	sp, {r3, r6, sl, lr}^
    924c:	4345435f 	movtmi	r4, #21343	; 0x535f
    9250:	5550435f 	ldrbpl	r4, [r0, #-863]	; 0xfffffca1
    9254:	454c435f 	strbmi	r4, [ip, #-863]	; 0xfffffca1
    9258:	20205241 	eorcs	r5, r0, r1, asr #4
    925c:	20202020 	eorcs	r2, r0, r0, lsr #32
    9260:	003d2020 	eorseq	r2, sp, r0, lsr #32
    9264:	494d4448 	stmdbmi	sp, {r3, r6, sl, lr}^
    9268:	4345435f 	movtmi	r4, #21343	; 0x535f
    926c:	5550435f 	ldrbpl	r4, [r0, #-863]	; 0xfffffca1
    9270:	53414d5f 	movtpl	r4, #7519	; 0x1d5f
    9274:	54535f4b 	ldrbpl	r5, [r3], #-3915	; 0xfffff0b5
    9278:	53555441 	cmppl	r5, #1090519040	; 0x41000000
    927c:	003d2020 	eorseq	r2, sp, r0, lsr #32
    9280:	494d4448 	stmdbmi	sp, {r3, r6, sl, lr}^
    9284:	4345435f 	movtmi	r4, #21343	; 0x535f
    9288:	5550435f 	ldrbpl	r4, [r0, #-863]	; 0xfffffca1
    928c:	53414d5f 	movtpl	r4, #7519	; 0x1d5f
    9290:	45535f4b 	ldrbmi	r5, [r3, #-3915]	; 0xfffff0b5
    9294:	20202054 	eorcs	r2, r0, r4, asr r0
    9298:	003d2020 	eorseq	r2, sp, r0, lsr #32
    929c:	494d4448 	stmdbmi	sp, {r3, r6, sl, lr}^
    92a0:	4345435f 	movtmi	r4, #21343	; 0x535f
    92a4:	5550435f 	ldrbpl	r4, [r0, #-863]	; 0xfffffca1
    92a8:	53414d5f 	movtpl	r4, #7519	; 0x1d5f
    92ac:	4c435f4b 	mcrrmi	15, 4, r5, r3, cr11
    92b0:	20524145 	subscs	r4, r2, r5, asr #2
    92b4:	003d2020 	eorseq	r2, sp, r0, lsr #32
    92b8:	494d4448 	stmdbmi	sp, {r3, r6, sl, lr}^
    92bc:	4d41525f 	sfmmi	f5, 2, [r1, #-380]	; 0xfffffe84
    92c0:	4341505f 	movtmi	r5, #4191	; 0x105f
    92c4:	5f54454b 	svcpl	0x0054454b
    92c8:	52415453 	subpl	r5, r1, #1392508928	; 0x53000000
    92cc:	20202054 	eorcs	r2, r0, r4, asr r0
    92d0:	003d2020 	eorseq	r2, sp, r0, lsr #32
    92d4:	Address 0x00000000000092d4 is out of bounds.


Disassembly of section .rodata:

000092d8 <char_table>:
    92d8:	33323130 	teqcc	r2, #48, 2
    92dc:	37363534 			; <UNDEFINED> instruction: 0x37363534
    92e0:	42413938 	submi	r3, r1, #56, 18	; 0xe0000
    92e4:	46454443 	strbmi	r4, [r5], -r3, asr #8

Disassembly of section .bss:

00009300 <mailbox_fb_data>:
	...

00009400 <mailbox_data>:
	...

Disassembly of section .comment:

00000000 <.comment>:
   0:	3a434347 	bcc	10d0d24 <mailbox_data+0x10c7924>
   4:	35312820 	ldrcc	r2, [r1, #-2080]!	; 0xfffff7e0
   8:	322d393a 	eorcc	r3, sp, #950272	; 0xe8000
   c:	2d393130 	ldfcss	f3, [r9, #-192]!	; 0xffffff40
  10:	302d3471 	eorcc	r3, sp, r1, ror r4
  14:	6e756275 	mrcvs	2, 3, r6, cr5, cr5, {3}
  18:	29317574 	ldmdbcs	r1!, {r2, r4, r5, r6, r8, sl, ip, sp, lr}
  1c:	322e3920 	eorcc	r3, lr, #32, 18	; 0x80000
  20:	3220312e 	eorcc	r3, r0, #-2147483637	; 0x8000000b
  24:	31393130 	teqcc	r9, r0, lsr r1
  28:	20353230 	eorscs	r3, r5, r0, lsr r2
  2c:	6c657228 	sfmvs	f7, 2, [r5], #-160	; 0xffffff60
  30:	65736165 	ldrbvs	r6, [r3, #-357]!	; 0xfffffe9b
  34:	415b2029 	cmpmi	fp, r9, lsr #32
  38:	612f4d52 			; <UNDEFINED> instruction: 0x612f4d52
  3c:	392d6d72 	pushcc	{r1, r4, r5, r6, r8, sl, fp, sp, lr}
  40:	6172622d 	cmnvs	r2, sp, lsr #4
  44:	2068636e 	rsbcs	r6, r8, lr, ror #6
  48:	69766572 	ldmdbvs	r6!, {r1, r4, r5, r6, r8, sl, sp, lr}^
  4c:	6e6f6973 			; <UNDEFINED> instruction: 0x6e6f6973
  50:	37373220 	ldrcc	r3, [r7, -r0, lsr #4]!
  54:	5d393935 			; <UNDEFINED> instruction: 0x5d393935
	...

Disassembly of section .ARM.attributes:

00000000 <.ARM.attributes>:
   0:	00002741 	andeq	r2, r0, r1, asr #14
   4:	61656100 	cmnvs	r5, r0, lsl #2
   8:	01006962 	tsteq	r0, r2, ror #18
   c:	0000001d 	andeq	r0, r0, sp, lsl r0
  10:	00543405 	subseq	r3, r4, r5, lsl #8
  14:	01080206 	tsteq	r8, r6, lsl #4
  18:	04120109 	ldreq	r0, [r2], #-265	; 0xfffffef7
  1c:	01150114 	tsteq	r5, r4, lsl r1
  20:	01180317 	tsteq	r8, r7, lsl r3
  24:	021e011a 	andseq	r0, lr, #-2147483642	; 0x80000006
